
ucosii_tutorial.elf:     file format elf32-littlenios2
ucosii_tutorial.elf
architecture: nios2:r1, flags 0x00000112:
EXEC_P, HAS_SYMS, D_PAGED
start address 0x01200240

Program Header:
    LOAD off    0x00001000 vaddr 0x00800000 paddr 0x00800000 align 2**12
         filesz 0x00000000 memsz 0x00000000 flags r-x
    LOAD off    0x00001020 vaddr 0x01200020 paddr 0x01200020 align 2**12
         filesz 0x0001d210 memsz 0x000276a0 flags rwx

Sections:
Idx Name          Size      VMA       LMA       File off  Algn
  0 .entry        00000000  00800000  00800000  00001000  2**5
                  CONTENTS, ALLOC, LOAD, READONLY, CODE
  1 .exceptions   00000220  01200020  01200020  00001020  2**2
                  CONTENTS, ALLOC, LOAD, READONLY, CODE
  2 .text         0001a9ec  01200240  01200240  00001240  2**2
                  CONTENTS, ALLOC, LOAD, READONLY, CODE
  3 .rodata       000009ac  0121ac2c  0121ac2c  0001bc2c  2**2
                  CONTENTS, ALLOC, LOAD, READONLY, DATA
  4 .rwdata       00001c58  0121b5d8  0121b5d8  0001c5d8  2**2
                  CONTENTS, ALLOC, LOAD, DATA, SMALL_DATA
  5 .bss          0000a490  0121d230  0121d230  0001e230  2**2
                  ALLOC, SMALL_DATA
  6 .ext_flash_ctl 00000000  00800020  00800020  0001e230  2**0
                  CONTENTS
  7 .ext_ram_ctl  00000000  012276c0  012276c0  0001e230  2**0
                  CONTENTS
  8 .instruction_tcm 00000000  02000000  02000000  0001e230  2**0
                  CONTENTS
  9 .comment      00000023  00000000  00000000  0001e230  2**0
                  CONTENTS, READONLY
 10 .debug_aranges 00000f68  00000000  00000000  0001e258  2**3
                  CONTENTS, READONLY, DEBUGGING
 11 .debug_info   000325ce  00000000  00000000  0001f1c0  2**0
                  CONTENTS, READONLY, DEBUGGING
 12 .debug_abbrev 0000ba88  00000000  00000000  0005178e  2**0
                  CONTENTS, READONLY, DEBUGGING
 13 .debug_line   0000e88f  00000000  00000000  0005d216  2**0
                  CONTENTS, READONLY, DEBUGGING
 14 .debug_frame  00003828  00000000  00000000  0006baa8  2**2
                  CONTENTS, READONLY, DEBUGGING
 15 .debug_str    0000508d  00000000  00000000  0006f2d0  2**0
                  CONTENTS, READONLY, DEBUGGING
 16 .debug_loc    000172d1  00000000  00000000  0007435d  2**0
                  CONTENTS, READONLY, DEBUGGING
 17 .debug_alt_sim_info 00000050  00000000  00000000  0008b630  2**2
                  CONTENTS, READONLY, DEBUGGING
 18 .debug_ranges 00001360  00000000  00000000  0008b680  2**3
                  CONTENTS, READONLY, DEBUGGING
 19 .thread_model 00000006  00000000  00000000  00091e46  2**0
                  CONTENTS, READONLY
 20 .cpu          00000003  00000000  00000000  00091e4c  2**0
                  CONTENTS, READONLY
 21 .qsys         00000001  00000000  00000000  00091e4f  2**0
                  CONTENTS, READONLY
 22 .simulation_enabled 00000001  00000000  00000000  00091e50  2**0
                  CONTENTS, READONLY
 23 .sysid_hash   00000004  00000000  00000000  00091e51  2**0
                  CONTENTS, READONLY
 24 .sysid_base   00000004  00000000  00000000  00091e55  2**0
                  CONTENTS, READONLY
 25 .sysid_time   00000004  00000000  00000000  00091e59  2**0
                  CONTENTS, READONLY
 26 .stderr_dev   00000009  00000000  00000000  00091e5d  2**0
                  CONTENTS, READONLY
 27 .stdin_dev    00000009  00000000  00000000  00091e66  2**0
                  CONTENTS, READONLY
 28 .stdout_dev   00000009  00000000  00000000  00091e6f  2**0
                  CONTENTS, READONLY
 29 .sopc_system_name 00000006  00000000  00000000  00091e78  2**0
                  CONTENTS, READONLY
 30 .jdi          00003635  00000000  00000000  00091e7e  2**0
                  CONTENTS, READONLY
 31 .sopcinfo     00070dbf  00000000  00000000  000954b3  2**0
                  CONTENTS, READONLY
SYMBOL TABLE:
00800000 l    d  .entry	00000000 .entry
01200020 l    d  .exceptions	00000000 .exceptions
01200240 l    d  .text	00000000 .text
0121ac2c l    d  .rodata	00000000 .rodata
0121b5d8 l    d  .rwdata	00000000 .rwdata
0121d230 l    d  .bss	00000000 .bss
00800020 l    d  .ext_flash_ctl	00000000 .ext_flash_ctl
012276c0 l    d  .ext_ram_ctl	00000000 .ext_ram_ctl
02000000 l    d  .instruction_tcm	00000000 .instruction_tcm
00000000 l    d  .comment	00000000 .comment
00000000 l    d  .debug_aranges	00000000 .debug_aranges
00000000 l    d  .debug_info	00000000 .debug_info
00000000 l    d  .debug_abbrev	00000000 .debug_abbrev
00000000 l    d  .debug_line	00000000 .debug_line
00000000 l    d  .debug_frame	00000000 .debug_frame
00000000 l    d  .debug_str	00000000 .debug_str
00000000 l    d  .debug_loc	00000000 .debug_loc
00000000 l    d  .debug_alt_sim_info	00000000 .debug_alt_sim_info
00000000 l    d  .debug_ranges	00000000 .debug_ranges
00000000 l    df *ABS*	00000000 ../ucosii_tutorial_bsp//obj/HAL/src/crt0.o
01200284 l       .text	00000000 alt_after_alt_main
00000000 l    df *ABS*	00000000 alt_irq_handler.c
00000000 l    df *ABS*	00000000 alt_instruction_exception_entry.c
00000000 l    df *ABS*	00000000 alt_ucosii_simple_error_check.c
00000000 l    df *ABS*	00000000 ucosii_tutorial.c
00000000 l    df *ABS*	00000000 exit.c
00000000 l    df *ABS*	00000000 fprintf.c
00000000 l    df *ABS*	00000000 fwrite.c
00000000 l    df *ABS*	00000000 impure.c
0121b5d8 l     O .rwdata	00000424 impure_data
00000000 l    df *ABS*	00000000 printf.c
00000000 l    df *ABS*	00000000 putchar.c
00000000 l    df *ABS*	00000000 puts.c
00000000 l    df *ABS*	00000000 strlen.c
00000000 l    df *ABS*	00000000 vfprintf.c
0121b1f2 l     O .rodata	00000010 zeroes.4181
0121b202 l     O .rodata	00000010 blanks.4180
00000000 l    df *ABS*	00000000 wsetup.c
00000000 l    df *ABS*	00000000 __call_atexit.c
00000000 l    df *ABS*	00000000 dtoa.c
012034dc l     F .text	00000200 quorem
00000000 l    df *ABS*	00000000 fflush.c
00000000 l    df *ABS*	00000000 findfp.c
0120505c l     F .text	00000008 __fp_lock
01205064 l     F .text	00000008 __fp_unlock
01205078 l     F .text	000001a0 __sinit.part.1
00000000 l    df *ABS*	00000000 mallocr.c
00000000 l    df *ABS*	00000000 fvwrite.c
00000000 l    df *ABS*	00000000 fwalk.c
00000000 l    df *ABS*	00000000 locale.c
0121ba1c l     O .rwdata	00000020 lc_ctype_charset
0121b9fc l     O .rwdata	00000020 lc_message_charset
0121ba3c l     O .rwdata	00000038 lconv
00000000 l    df *ABS*	00000000 makebuf.c
00000000 l    df *ABS*	00000000 mallocr.c
00000000 l    df *ABS*	00000000 memchr.c
00000000 l    df *ABS*	00000000 memcpy.c
00000000 l    df *ABS*	00000000 memmove.c
00000000 l    df *ABS*	00000000 memset.c
00000000 l    df *ABS*	00000000 mprec.c
0121b230 l     O .rodata	0000000c p05.2678
00000000 l    df *ABS*	00000000 putc.c
00000000 l    df *ABS*	00000000 mallocr.c
00000000 l    df *ABS*	00000000 s_fpclassify.c
00000000 l    df *ABS*	00000000 sbrkr.c
00000000 l    df *ABS*	00000000 stdio.c
00000000 l    df *ABS*	00000000 strcmp.c
00000000 l    df *ABS*	00000000 vfprintf.c
01208640 l     F .text	000000fc __sprint_r.part.0
0121b364 l     O .rodata	00000010 blanks.4125
0121b354 l     O .rodata	00000010 zeroes.4126
00000000 l    df *ABS*	00000000 wbuf.c
00000000 l    df *ABS*	00000000 writer.c
00000000 l    df *ABS*	00000000 closer.c
00000000 l    df *ABS*	00000000 mallocr.c
00000000 l    df *ABS*	00000000 fclose.c
00000000 l    df *ABS*	00000000 fputwc.c
00000000 l    df *ABS*	00000000 fstatr.c
00000000 l    df *ABS*	00000000 int_errno.c
00000000 l    df *ABS*	00000000 isattyr.c
00000000 l    df *ABS*	00000000 lseekr.c
00000000 l    df *ABS*	00000000 readr.c
00000000 l    df *ABS*	00000000 wcrtomb.c
00000000 l    df *ABS*	00000000 wctomb_r.c
00000000 l    df *ABS*	00000000 libgcc2.c
00000000 l    df *ABS*	00000000 libgcc2.c
00000000 l    df *ABS*	00000000 lib2-divmod.c
0120af5c l     F .text	0000006c udivmodsi4
00000000 l    df *ABS*	00000000 adddf3.c
00000000 l    df *ABS*	00000000 divdf3.c
00000000 l    df *ABS*	00000000 eqdf2.c
00000000 l    df *ABS*	00000000 gedf2.c
00000000 l    df *ABS*	00000000 ledf2.c
00000000 l    df *ABS*	00000000 muldf3.c
00000000 l    df *ABS*	00000000 subdf3.c
00000000 l    df *ABS*	00000000 fixdfsi.c
00000000 l    df *ABS*	00000000 floatsidf.c
00000000 l    df *ABS*	00000000 floatunsidf.c
00000000 l    df *ABS*	00000000 libgcc2.c
00000000 l    df *ABS*	00000000 libgcc2.c
00000000 l    df *ABS*	00000000 alt_close.c
0120d688 l     F .text	00000050 alt_get_errno
00000000 l    df *ABS*	00000000 alt_dev.c
0120d7a8 l     F .text	0000002c alt_dev_null_write
00000000 l    df *ABS*	00000000 alt_errno.c
00000000 l    df *ABS*	00000000 alt_exit.c
00000000 l    df *ABS*	00000000 alt_fstat.c
0120d810 l     F .text	00000050 alt_get_errno
00000000 l    df *ABS*	00000000 alt_isatty.c
0120d910 l     F .text	00000050 alt_get_errno
00000000 l    df *ABS*	00000000 alt_lseek.c
0120da04 l     F .text	00000050 alt_get_errno
00000000 l    df *ABS*	00000000 alt_main.c
00000000 l    df *ABS*	00000000 alt_read.c
0120dbfc l     F .text	00000050 alt_get_errno
00000000 l    df *ABS*	00000000 alt_release_fd.c
00000000 l    df *ABS*	00000000 alt_sbrk.c
0121d19c l     O .rwdata	00000004 heap_end
00000000 l    df *ABS*	00000000 alt_write.c
0120de58 l     F .text	00000050 alt_get_errno
00000000 l    df *ABS*	00000000 alt_env_lock.c
0121d1a0 l     O .rwdata	00000004 lockid
0121d278 l     O .bss	00000004 locks
00000000 l    df *ABS*	00000000 alt_malloc_lock.c
0121d1a4 l     O .rwdata	00000004 lockid
0121d280 l     O .bss	00000004 locks
00000000 l    df *ABS*	00000000 os_core.c
0120f88c l     F .text	00000044 OS_InitMisc
0120f8d0 l     F .text	00000068 OS_InitRdyList
0120fa30 l     F .text	000000e0 OS_InitTCBList
0120f7b0 l     F .text	000000dc OS_InitEventList
0120f938 l     F .text	0000007c OS_InitTaskIdle
0120f9b4 l     F .text	0000007c OS_InitTaskStat
0120fc90 l     F .text	00000070 OS_SchedNew
00000000 l    df *ABS*	00000000 os_dbg.c
00000000 l    df *ABS*	00000000 os_flag.c
01211a84 l     F .text	00000110 OS_FlagTaskRdy
012117dc l     F .text	000001c4 OS_FlagBlock
00000000 l    df *ABS*	00000000 os_mem.c
00000000 l    df *ABS*	00000000 os_q.c
00000000 l    df *ABS*	00000000 os_sem.c
00000000 l    df *ABS*	00000000 os_task.c
00000000 l    df *ABS*	00000000 os_time.c
00000000 l    df *ABS*	00000000 alt_sys_init.c
01215f20 l     F .text	00000038 alt_dev_reg
0121c024 l     O .rwdata	000000dc ext_flash_ctl
0121c100 l     O .rwdata	0000106c jtag_uart
00000000 l    df *ABS*	00000000 altera_avalon_cfi_flash.c
01215ff8 l     F .text	00000038 alt_flash_device_register
00000000 l    df *ABS*	00000000 altera_avalon_cfi_flash_table.c
01216e34 l     F .text	00000080 alt_read_16bit_query_entry
00000000 l    df *ABS*	00000000 altera_avalon_jtag_uart_fd.c
00000000 l    df *ABS*	00000000 altera_avalon_jtag_uart_init.c
01217f88 l     F .text	000002a4 altera_avalon_jtag_uart_irq
0121822c l     F .text	00000110 altera_avalon_jtag_uart_timeout
00000000 l    df *ABS*	00000000 altera_avalon_jtag_uart_ioctl.c
00000000 l    df *ABS*	00000000 altera_avalon_jtag_uart_read.c
00000000 l    df *ABS*	00000000 altera_avalon_jtag_uart_write.c
00000000 l    df *ABS*	00000000 altera_avalon_timer_sc.c
01218a04 l     F .text	00000074 alt_avalon_timer_sc_irq
00000000 l    df *ABS*	00000000 alt_alarm_start.c
00000000 l    df *ABS*	00000000 alt_dcache_flush.c
00000000 l    df *ABS*	00000000 alt_dev_llist_insert.c
01218cb4 l     F .text	00000050 alt_get_errno
00000000 l    df *ABS*	00000000 alt_do_ctors.c
00000000 l    df *ABS*	00000000 alt_do_dtors.c
00000000 l    df *ABS*	00000000 alt_flash_dev.c
00000000 l    df *ABS*	00000000 alt_iic.c
00000000 l    df *ABS*	00000000 alt_iic_isr_register.c
00000000 l    df *ABS*	00000000 alt_io_redirect.c
012191e8 l     F .text	000000c0 alt_open_fd
00000000 l    df *ABS*	00000000 alt_irq_vars.c
00000000 l    df *ABS*	00000000 alt_open.c
01219320 l     F .text	00000050 alt_get_errno
01219370 l     F .text	000000cc alt_file_locked
00000000 l    df *ABS*	00000000 alt_tick.c
00000000 l    df *ABS*	00000000 altera_nios2_gen2_irq.c
00000000 l    df *ABS*	00000000 os_cpu_a.o
00000040 l       *ABS*	00000000 OSCtxSw_SWITCH_PC
00000000 l    df *ABS*	00000000 os_cpu_c.c
00000014 l       *ABS*	00000000 OSTCBNext_OFFSET
00000032 l       *ABS*	00000000 OSTCBPrio_OFFSET
00000000 l       *ABS*	00000000 OSTCBStkPtr_OFFSET
00000000 l    df *ABS*	00000000 altera_avalon_cfi_flash_amd.c
01219fb0 l     F .text	000000cc alt_write_word_amd
01219e94 l     F .text	0000011c alt_wait_for_command_to_complete_amd
00000000 l    df *ABS*	00000000 altera_avalon_cfi_flash_intel.c
0121a284 l     F .text	00000178 alt_unlock_block_intel
0121a3fc l     F .text	000000d4 alt_write_word_intel
00000000 l    df *ABS*	00000000 alt_find_dev.c
00000000 l    df *ABS*	00000000 alt_find_file.c
00000000 l    df *ABS*	00000000 alt_get_fd.c
00000000 l    df *ABS*	00000000 alt_usleep.c
00000000 l    df *ABS*	00000000 alt_busy_sleep.c
00000000 l    df *ABS*	00000000 atexit.c
00000000 l    df *ABS*	00000000 memcmp.c
00000000 l    df *ABS*	00000000 __atexit.c
0121d2e4 g     O .bss	00000004 alt_instruction_exception_handler
0120107c g     F .text	00000018 putchar
01207b18 g     F .text	00000074 _mprec_log10
0121d23c g     O .bss	00000004 getsem_task1_got_sem
0121d1f2 g     O .rwdata	00000002 OSTaskNameSize
01207c04 g     F .text	0000008c __any_on
0120a100 g     F .text	00000054 _isatty_r
0121b23c g     O .rodata	00000028 __mprec_tinytens
0120db28 g     F .text	000000d4 alt_main
01201094 g     F .text	000000b8 _puts_r
01216900 g     F .text	00000040 alt_read_query_entry_32bit
012275c0 g     O .bss	00000100 alt_irq
0120a154 g     F .text	0000005c _lseek_r
012122e8 g     F .text	000000d0 OS_MemInit
012160c0 g     F .text	000002a8 alt_flash_cfi_write
01215ebc g     F .text	00000064 OSTimeSet
0120c1f0 g     F .text	00000084 .hidden __eqdf2
0121d310 g     O .bss	00001000 send_task_stk
0120e508 g     F .text	00000610 OSEventPendMulti
0121e310 g     O .bss	00001000 getsem_task1_stk
012276c0 g       *ABS*	00000000 __alt_heap_start
01219b14 g     F .text	00000020 OSTaskCreateHook
0121d244 g     O .bss	00000004 msgqueue
01201038 g     F .text	0000003c printf
0121d1ca g     O .rwdata	00000002 OSMboxEn
0120eb6c g     F .text	0000007c OSIntEnter
0120a20c g     F .text	0000009c _wcrtomb_r
0121d230 g     O .bss	00000004 number_of_messages_sent
01208538 g     F .text	0000005c __sseek
012053ac g     F .text	00000010 __sinit
01209ad4 g     F .text	00000154 __swbuf_r
0121d1da g     O .rwdata	00000002 OSQEn
01205e24 g     F .text	0000007c _setlocale_r
01205218 g     F .text	00000064 __sfmoreglue
0120e1dc g     F .text	000000d0 __malloc_unlock
01219b70 g     F .text	0000001c OSTaskStatHook
0121d288 g     O .bss	00000001 OSLockNesting
0121d218 g     O .rwdata	00000002 OSDataSize
0121d289 g     O .bss	00000001 OSRunning
01206a84 g     F .text	0000015c memmove
01219ba8 g     F .text	0000001c OSInitHookBegin
0121d210 g     O .rwdata	00000002 OSTmrSize
01205394 g     F .text	00000018 _cleanup
01206d04 g     F .text	000000a8 _Balloc
0121f310 g     O .bss	00001000 print_status_task_stk
0121d28c g     O .bss	00000004 OSIdleCtr
0120c274 g     F .text	000000e0 .hidden __gtdf2
0121d238 g     O .bss	00000004 number_of_messages_received_task2
01219730 g     F .text	00000020 altera_nios2_gen2_irq_init
012197fc g       .text	00000000 OSStartTsk
00000000  w      *UND*	00000000 __errno
02000000 g       *ABS*	00000000 __alt_mem_instruction_tcm
0120ffb8 g     F .text	000002d4 OS_TCBInit
01216a98 g     F .text	00000050 alt_write_flash_command_32bit_device_16bit_mode
00800000 g     F .entry	00000000 __reset
0121d216 g     O .rwdata	00000002 OSTmrWheelTblSize
0121d1b6 g     O .rwdata	00000002 OSEventSize
0121d290 g     O .bss	00000001 OSPrioHighRdy
0120a0a8 g     F .text	00000058 _fstat_r
01219b34 g     F .text	00000020 OSTaskDelHook
012165b0 g     F .text	000002d4 alt_flash_program_block
0121d264 g     O .bss	00000004 errno
012084b4 g     F .text	00000008 __seofread
012197dc g       .text	00000000 OSStartHighRdy
012147cc g     F .text	000001ec OSTaskCreateExt
01200c74 g     F .text	0000003c initialize_task
01211328 g     F .text	00000068 OSFlagPendGetFlagsRdy
0121d1f6 g     O .rwdata	00000002 OSTaskStatStkSize
01210418 g     F .text	00000308 OSFlagAccept
012129bc g     F .text	000000b8 OSQFlush
012123b8 g     F .text	00000140 OSQAccept
0121d270 g     O .bss	00000004 alt_argv
0122516c g       *ABS*	00000000 _gp
0121a80c g     F .text	00000124 usleep
01214610 g     F .text	000001bc OSTaskCreate
012140d0 g     F .text	00000540 OSTaskChangePrio
0121d284 g     O .bss	00000004 alt_heapsem
0121028c g     F .text	0000018c OSDebugInit
012149b8 g     F .text	000003e0 OSTaskDel
0121bea4 g     O .rwdata	00000180 alt_fd_list
0122439c g     O .bss	00000370 OSFlagTbl
01201074 g     F .text	00000008 _putchar_r
0120f59c g     F .text	000000b4 OS_EventTaskRemove
0121a4d0 g     F .text	00000090 alt_find_dev
0120694c g     F .text	00000138 memcpy
0121d1e0 g     O .rwdata	00000002 OSRdyTblSize
0120506c g     F .text	0000000c _cleanup_r
0120d4b0 g     F .text	000000d0 .hidden __floatsidf
012192a8 g     F .text	00000078 alt_io_redirect
0120c354 g     F .text	000000e0 .hidden __ltdf2
01200000 g       *ABS*	00000000 __alt_mem_ext_ram_ctl
0121ac2c g       *ABS*	00000000 __DTOR_END__
0120114c g     F .text	00000014 puts
0121a770 g     F .text	0000009c alt_exception_cause_generated_bad_addr
0120e2ac g     F .text	00000120 OSEventNameGet
0121d1c4 g     O .rwdata	00000002 OSFlagMax
01208398 g     F .text	00000074 __fpclassifyd
01207a74 g     F .text	000000a4 __ratio
0120ebe8 g     F .text	000000f4 OSIntExit
01209ab0 g     F .text	00000024 __vfiprintf_internal
0121d1fe g     O .rwdata	00000002 OSTCBSize
0121d291 g     O .bss	00000001 OSPrioCur
01218490 g     F .text	000002b4 altera_avalon_jtag_uart_read
00000000  w      *UND*	00000000 malloc
0120100c g     F .text	0000002c _printf_r
0120b078 g     F .text	00000008 .hidden __udivsi3
0120d960 g     F .text	000000a4 isatty
0121d1e4 g     O .rwdata	00000002 OSStkWidth
0121b28c g     O .rodata	000000c8 __mprec_tens
0121d1d8 g     O .rwdata	00000002 OSPtrSize
01205ea0 g     F .text	0000000c __locale_charset
0121d1b8 g     O .rwdata	00000002 OSEventTblSize
01219750 g       .text	00000000 OSCtxSw
0121d260 g     O .bss	00000004 __malloc_top_pad
0121d294 g     O .bss	00000004 OSTCBList
0121d268 g     O .bss	00000004 alt_fd_list_lock
0121d174 g     O .rwdata	00000004 __mb_cur_max
01205ed0 g     F .text	0000000c _localeconv_r
01207104 g     F .text	0000003c __i2b
01205810 g     F .text	000004a4 __sfvwrite_r
0122470c g     O .bss	00000c30 OSMemTbl
0121d298 g     O .bss	00000001 OSTickStepState
0120840c g     F .text	00000054 _sbrk_r
0121a07c g     F .text	00000080 alt_program_intel
0121d1dc g     O .rwdata	00000002 OSQMax
0122533c g     O .bss	00000800 OSTaskStatStk
01211f18 g     F .text	000000f8 OSMemNameGet
0121d1bc g     O .rwdata	00000002 OSFlagEn
0120a1b0 g     F .text	0000005c _read_r
0121d202 g     O .rwdata	00000002 OSTimeTickHookEn
01218c40 g     F .text	00000074 alt_dcache_flush
01212edc g     F .text	00000168 OSQPost
01211b94 g     F .text	000000a0 OS_FlagUnlink
0121d194 g     O .rwdata	00000004 alt_max_fd
01216884 g     F .text	0000003c alt_read_query_entry_8bit
0120fb60 g     F .text	00000064 OS_MemCopy
0120fbc4 g     F .text	000000cc OS_Sched
01209db8 g     F .text	00000100 _fclose_r
01211e28 g     F .text	000000f0 OSMemGet
01215098 g     F .text	000001c0 OSTaskNameSet
0121a0fc g     F .text	00000188 alt_erase_block_intel
0120502c g     F .text	00000030 fflush
0121d25c g     O .bss	00000004 __malloc_max_sbrked_mem
0121d29c g     O .bss	00000004 OSCtxSwCtr
01219b8c g     F .text	0000001c OSTimeTickHook
0121d1c6 g     O .rwdata	00000002 OSFlagNameSize
0120f650 g     F .text	000000fc OS_EventTaskRemoveMulti
0120b088 g     F .text	0000089c .hidden __adddf3
0120f450 g     F .text	0000014c OS_EventTaskWaitMulti
0120781c g     F .text	0000011c __b2d
0121d1de g     O .rwdata	00000002 OSQSize
0120a9cc g     F .text	00000590 .hidden __umoddi3
0120da54 g     F .text	000000d4 lseek
012139e0 g     F .text	00000268 OSSemPend
0121d16c g     O .rwdata	00000004 _global_impure_ptr
01207df8 g     F .text	000005a0 _realloc_r
0121d1c8 g     O .rwdata	00000002 OSLowestPrio
012276c0 g       *ABS*	00000000 __bss_end
012190f8 g     F .text	000000f0 alt_iic_isr_register
01219bfc g     F .text	00000020 OSTCBInitHook
0121d20e g     O .rwdata	00000002 OSTmrCfgTicksPerSec
0121962c g     F .text	00000104 alt_tick
0120a40c g     F .text	000005c0 .hidden __udivdi3
01209ecc g     F .text	00000184 _fputwc_r
0121d1b0 g     O .rwdata	00000002 OSEventEn
0121b264 g     O .rodata	00000028 __mprec_bigtens
01206ee8 g     F .text	00000104 __s2b
0121d20a g     O .rwdata	00000002 OSTmrCfgNameSize
0120d580 g     F .text	000000a4 .hidden __floatunsidf
012075c4 g     F .text	00000060 __mcmp
012053cc g     F .text	00000018 __fp_lock_all
012190ac g     F .text	0000004c alt_ic_irq_enabled
012119a0 g     F .text	000000e4 OS_FlagInit
01219594 g     F .text	00000098 alt_alarm_stop
0121d1ec g     O .rwdata	00000002 OSTaskIdleStkSize
0121d2d8 g     O .bss	00000004 alt_irq_active
012135c8 g     F .text	000000b0 OSSemAccept
01212128 g     F .text	000000d8 OSMemPut
01211c34 g     F .text	000001f4 OSMemCreate
0121d2a0 g     O .bss	00000004 OSIdleCtrMax
012000fc g     F .exceptions	000000d0 alt_irq_handler
0121be7c g     O .rwdata	00000028 alt_dev_null
0121d200 g     O .rwdata	00000002 OSTicksPerSec
01216d98 g     F .text	0000009c alt_set_flash_algorithm_func
01220310 g     O .bss	00000078 msgqueueTbl
01219750 g       .text	00000000 OSIntCtxSw
01200a20 g     F .text	000000d8 getsem_task2
01206fec g     F .text	00000068 __hi0bits
0120d428 g     F .text	00000088 .hidden __fixdfsi
01216940 g     F .text	00000044 alt_write_flash_command_8bit_device_8bit_mode
0121d2a4 g     O .bss	00000004 OSTCBFreeList
01213c48 g     F .text	0000016c OSSemPendAbort
0121d18c g     O .rwdata	00000008 alt_dev_list
0120dea8 g     F .text	000000f8 write
01207c90 g     F .text	000000a0 _putc_r
0121d204 g     O .rwdata	00000002 OSVersionNbr
01220388 g     O .bss	00001000 getsem_task2_stk
0120d860 g     F .text	000000b0 fstat
01200edc g     F .text	00000024 fprintf
0120c354 g     F .text	000000e0 .hidden __ledf2
01217c00 g     F .text	000000d8 alt_check_primary_table
0121d1ac g     O .rwdata	00000004 OSEndiannessTest
0120733c g     F .text	00000140 __pow5mult
01208754 g     F .text	0000135c ___vfiprintf_internal_r
0121d254 g     O .bss	00000004 __nlocale_changed
0120b080 g     F .text	00000008 .hidden __umodsi3
012163f4 g     F .text	00000064 alt_flash_cfi_read
01216b38 g     F .text	00000038 alt_write_native_8bit
012007b8 g     F .text	00000158 print_status_task
0121d1be g     O .rwdata	00000002 OSFlagGrpSize
012276c0 g       *ABS*	00000000 end
01216984 g     F .text	00000078 alt_write_flash_command_16bit_device_8bit_mode
01216eb4 g     F .text	000005c8 alt_read_cfi_table
01217e3c g     F .text	0000014c altera_avalon_jtag_uart_init
0120fe24 g     F .text	000000cc OS_TaskStat
012001cc g     F .exceptions	00000074 alt_instruction_exception_entry
0121ac2c g       *ABS*	00000000 __CTOR_LIST__
01400000 g       *ABS*	00000000 __alt_stack_pointer
01218a78 g     F .text	00000088 alt_avalon_timer_sc_init
0120d624 g     F .text	00000064 .hidden __clzsi2
01218744 g     F .text	000002c0 altera_avalon_jtag_uart_write
01216030 g     F .text	00000090 alt_flash_cfi_init
012053bc g     F .text	00000004 __sfp_lock_acquire
01206864 g     F .text	000000e8 memchr
0120fb10 g     F .text	00000050 OS_MemClr
012011f8 g     F .text	00001ffc ___vfprintf_internal_r
01219820 g     F .text	000002f4 OSTaskStkInit
01205520 g     F .text	000002f0 _free_r
01205eac g     F .text	00000010 __locale_mb_cur_max
0120f1ac g     F .text	00000198 OS_EventTaskRdy
01203348 g     F .text	00000194 __call_exitprocs
0121d2a8 g     O .bss	00000001 OSCPUUsage
0121d250 g     O .bss	00000004 __mlocale_changed
0121d178 g     O .rwdata	00000004 __malloc_sbrk_base
01200240 g     F .text	00000048 _start
0121d2dc g     O .bss	00000004 _alt_tick_rate
01212a74 g     F .text	000002fc OSQPend
012159c4 g     F .text	00000148 OSTimeDly
0120747c g     F .text	00000148 __lshift
0121d2e0 g     O .bss	00000004 _alt_nticks
0120dc4c g     F .text	000000fc read
01215f8c g     F .text	0000006c alt_sys_init
0121ab18 g     F .text	00000114 __register_exitproc
0121d2a9 g     O .bss	00000001 OSTaskCtr
012168c0 g     F .text	00000040 alt_read_query_entry_16bit
01215b0c g     F .text	0000015c OSTimeDlyHMSM
01207140 g     F .text	000001fc __multiply
0121833c g     F .text	00000068 altera_avalon_jtag_uart_close
00800000 g       *ABS*	00000000 __alt_mem_ext_flash_ctl
0121d2e8 g     O .bss	00000028 __malloc_current_mallinfo
0121d1b2 g     O .rwdata	00000002 OSEventMax
01216bdc g     F .text	000001bc alt_set_flash_width_func
01207938 g     F .text	0000013c __d2b
01213db4 g     F .text	00000110 OSSemPost
0120ed64 g     F .text	000000d8 OSSchedUnlock
01200af8 g     F .text	000000ac send_task
01217cd8 g     F .text	00000060 altera_avalon_jtag_uart_read_fd
0121a674 g     F .text	000000fc alt_get_fd
0121d2ac g     O .bss	00000004 OSMemFreeList
0120eea8 g     F .text	000000ac OSStatInit
0121a930 g     F .text	00000158 alt_busy_sleep
01211718 g     F .text	000000c4 OSFlagQuery
0121d1e8 g     O .rwdata	00000002 OSTaskCreateExtEn
01209ca0 g     F .text	00000054 _close_r
01219c84 g     F .text	00000210 alt_erase_block_amd
0121aa9c g     F .text	0000007c memcmp
0120f190 g     F .text	0000001c OS_Dummy
01217d98 g     F .text	00000050 altera_avalon_jtag_uart_close_fd
012276c0 g       *ABS*	00000000 __alt_stack_base
01217de8 g     F .text	00000054 altera_avalon_jtag_uart_ioctl_fd
01200f00 g     F .text	000000cc _fwrite_r
01203218 g     F .text	00000130 __swsetup_r
0121747c g     F .text	00000784 alt_read_cfi_width
01225b3c g     O .bss	000001e0 OSQTbl
0120b924 g     F .text	000008cc .hidden __divdf3
0120527c g     F .text	00000118 __sfp
01207b8c g     F .text	00000078 __copybits
0121ba74 g     O .rwdata	00000408 __malloc_av_
012053c8 g     F .text	00000004 __sinit_lock_release
0121d2b0 g     O .bss	00000004 OSTCBHighRdy
0120c434 g     F .text	00000724 .hidden __muldf3
01208460 g     F .text	00000054 __sread
0121d2b4 g     O .bss	00000004 OSQFreeList
0121a560 g     F .text	00000114 alt_find_file
01218d04 g     F .text	000000a4 alt_dev_llist_insert
0120e0bc g     F .text	00000120 __malloc_lock
01200eb4 g     F .text	00000028 _fprintf_r
0120dda8 g     F .text	000000b0 sbrk
0120e3cc g     F .text	0000013c OSEventNameSet
01204e04 g     F .text	00000228 _fflush_r
01209cf4 g     F .text	000000c4 _calloc_r
0121d2b8 g     O .bss	00000001 OSRdyGrp
0121d21c g     O .rwdata	00000008 alt_flash_dev_list
01216a4c g     F .text	0000004c alt_write_flash_command_16bit_device_16bit_mode
0121d230 g       *ABS*	00000000 __bss_start
01206be0 g     F .text	00000124 memset
01200cb0 g     F .text	00000068 main
0121d274 g     O .bss	00000004 alt_envp
0121d258 g     O .bss	00000004 __malloc_max_total_mem
01217d38 g     F .text	00000060 altera_avalon_jtag_uart_write_fd
01209c28 g     F .text	0000001c __swbuf
0121b490 g     O .rodata	00000100 OSUnMapTbl
01200d60 g     F .text	0000011c initCreateTasks
0121d1e2 g     O .rwdata	00000002 OSSemEn
01211390 g     F .text	00000388 OSFlagPost
01208594 g     F .text	00000008 __sclose
012002d0 g     F .text	000004e8 alt_ucosii_simple_error_handler
01400000 g       *ABS*	00000000 __alt_heap_limit
01209eb8 g     F .text	00000014 fclose
0120f344 g     F .text	0000010c OS_EventTaskWait
0120fef0 g     F .text	000000c8 OS_TaskStatStkChk
01214d98 g     F .text	00000158 OSTaskDelReq
012036dc g     F .text	00001728 _dtoa_r
012060bc g     F .text	000007a8 _malloc_r
0120a380 g     F .text	00000030 __ascii_wctomb
0121d198 g     O .rwdata	00000004 alt_errno
0120ee3c g     F .text	0000006c OSStart
01216ae8 g     F .text	00000050 alt_write_flash_command_32bit_device_32bit_mode
0120e060 g     F .text	0000005c __env_unlock
01205cb4 g     F .text	000000b8 _fwalk
01215258 g     F .text	000001f8 OSTaskResume
01212200 g     F .text	000000e8 OSMemQuery
0121d1f4 g     O .rwdata	00000002 OSTaskStatEn
0121d234 g     O .bss	00000004 number_of_messages_received_task1
01216458 g     F .text	00000158 alt_write_value_to_flash
0121d1ce g     O .rwdata	00000002 OSMemMax
01213044 g     F .text	00000170 OSQPostFront
01216b70 g     F .text	00000038 alt_write_native_16bit
01207d30 g     F .text	000000c8 putc
0120afc8 g     F .text	00000054 .hidden __divsi3
0121d2b9 g     O .bss	00000003 OSRdyTbl
0121d1a8 g     O .rwdata	00000002 OSDebugEn
012053fc g     F .text	00000124 _malloc_trim_r
0121ac2c g       *ABS*	00000000 __CTOR_END__
0121d1c0 g     O .rwdata	00000002 OSFlagNodeSize
0121d208 g     O .rwdata	00000002 OSTmrCfgMax
0120859c g     F .text	000000a4 strcmp
012124f8 g     F .text	000001fc OSQCreate
01214ef0 g     F .text	000001a8 OSTaskNameGet
012131b4 g     F .text	0000020c OSQPostOpt
0120ef54 g     F .text	0000021c OSTimeTick
0121d1f0 g     O .rwdata	00000002 OSTaskMax
0121ac2c g       *ABS*	00000000 __DTOR_LIST__
01213678 g     F .text	00000100 OSSemCreate
0121d214 g     O .rwdata	00000002 OSTmrWheelSize
0120c1f0 g     F .text	00000084 .hidden __nedf2
0121d1ea g     O .rwdata	00000002 OSTaskDelEn
01221388 g     O .bss	00000014 sem_owner_task_name
01213ec4 g     F .text	00000110 OSSemQuery
012126f4 g     F .text	000002c8 OSQDel
01212d70 g     F .text	0000016c OSQPendAbort
01215f58 g     F .text	00000034 alt_irq_init
0120dd48 g     F .text	00000060 alt_release_fd
0121b374 g     O .rodata	00000100 .hidden __clz_tab
0121d24c g     O .bss	00000004 _PathLocale
0121aa88 g     F .text	00000014 atexit
01200c0c g     F .text	00000068 receive_task2
01209c44 g     F .text	0000005c _write_r
0120ecdc g     F .text	00000088 OSSchedLock
01205edc g     F .text	0000001c setlocale
01210720 g     F .text	00000128 OSFlagCreate
0121d170 g     O .rwdata	00000004 _impure_ptr
0121d26c g     O .bss	00000004 alt_argc
01218e04 g     F .text	0000005c _do_dtors
01205ec8 g     F .text	00000008 __locale_cjk_lang
0121d1ba g     O .rwdata	00000002 OSEventMultiEn
01210848 g     F .text	00000270 OSFlagDel
0121d2bc g     O .bss	00000004 OSEventFreeList
01200020 g       .exceptions	00000000 alt_irq_entry
012077bc g     F .text	00000060 __ulp
01210d38 g     F .text	000005f0 OSFlagPend
0121d206 g     O .rwdata	00000002 OSTmrEn
012053e4 g     F .text	00000018 __fp_unlock_all
0121d240 g     O .bss	00000004 getsem_task2_got_sem
0121d184 g     O .rwdata	00000008 alt_fs_list
01200288 g     F .text	00000048 alt_ucosii_check_return_code
0120fd00 g     F .text	00000074 OS_StrCopy
012169fc g     F .text	00000050 alt_write_flash_command_32bit_device_8bit_mode
0121d1d0 g     O .rwdata	00000002 OSMemNameSize
01219bc4 g     F .text	0000001c OSInitHookEnd
0121d1fc g     O .rwdata	00000002 OSTCBPrioTblMax
01205ef8 g     F .text	0000000c localeconv
0121d248 g     O .bss	00000004 shared_resource_sem
0121d1f8 g     O .rwdata	00000002 OSTaskStatStkChkEn
01218f18 g     F .text	00000050 alt_ic_isr_register
0121d1cc g     O .rwdata	00000002 OSMemEn
01200fcc g     F .text	00000040 fwrite
0121d1d6 g     O .rwdata	00000002 OSMutexEn
0121d230 g       *ABS*	00000000 _edata
012276c0 g       *ABS*	00000000 _end
01218e60 g     F .text	00000068 alt_flash_open_dev
0121d2c0 g     O .bss	00000001 OSIntNesting
012183a4 g     F .text	000000ec altera_avalon_jtag_uart_ioctl
01215c68 g     F .text	000001f0 OSTimeDlyResume
01210be8 g     F .text	00000150 OSFlagNameSet
01215450 g     F .text	000001c8 OSTaskStkChk
01219008 g     F .text	000000a4 alt_ic_irq_disable
0121d1d2 g     O .rwdata	00000002 OSMemSize
012084bc g     F .text	0000007c __swrite
0121d17c g     O .rwdata	00000004 __malloc_trim_threshold
01205ebc g     F .text	0000000c __locale_msgcharset
0121d2c4 g     O .bss	00000004 OSTCBCur
01200e7c g     F .text	00000038 exit
0121d1d4 g     O .rwdata	00000002 OSMemTblSize
01205d6c g     F .text	000000b8 _fwalk_reent
01207624 g     F .text	00000198 __mdiff
01218ec8 g     F .text	00000050 alt_flash_close_dev
0120b01c g     F .text	0000005c .hidden __modsi3
01400000 g       *ABS*	00000000 __alt_data_end
01200020 g     F .exceptions	00000000 alt_exception
012053c0 g     F .text	00000004 __sfp_lock_release
0120eb18 g     F .text	00000054 OSInit
0121582c g     F .text	0000012c OSTaskQuery
0121351c g     F .text	000000ac OS_QInit
0120fd74 g     F .text	00000054 OS_StrLen
01212010 g     F .text	00000118 OSMemNameSet
0121d1ee g     O .rwdata	00000002 OSTaskProfileEn
0121d2c8 g     O .bss	00000004 OSTime
0122139c g     O .bss	00001000 initialize_task_stk
01225d1c g     O .bss	00000800 OSTaskIdleStk
0120d7d4 g     F .text	0000003c _exit
01218b00 g     F .text	00000140 alt_alarm_start
01210ab8 g     F .text	00000130 OSFlagNameGet
0122239c g     O .bss	00001000 receive_task2_stk
01215e58 g     F .text	00000064 OSTimeGet
01205f04 g     F .text	000001b8 __smakebuf_r
01216ba8 g     F .text	00000034 alt_write_native_32bit
01201160 g     F .text	00000098 strlen
01219b54 g     F .text	0000001c OSTaskSwHook
0121943c g     F .text	00000158 open
0122651c g     O .bss	00000b40 OSEventTbl
0120c274 g     F .text	000000e0 .hidden __gedf2
0122705c g     O .bss	00000510 OSTCBTbl
01213fd4 g     F .text	000000fc OSSemSet
01216368 g     F .text	0000008c alt_flash_cfi_get_info
0121d180 g     O .rwdata	00000004 __wctomb
0120873c g     F .text	00000018 __sprint_r
0121d224 g     O .rwdata	00000004 alt_priority_mask
01213778 g     F .text	00000268 OSSemDel
0121d2cc g     O .bss	00000004 OSFlagFreeList
01218f68 g     F .text	000000a0 alt_ic_irq_enable
0121d1b4 g     O .rwdata	00000002 OSEventNameSize
012031f4 g     F .text	00000024 __vfprintf_internal
0121d2d0 g     O .bss	00000001 OSStatRdy
0122756c g     O .bss	00000054 OSTCBPrioTbl
0120a3b0 g     F .text	0000005c _wctomb_r
0120dfa0 g     F .text	000000c0 __env_lock
0121d1fa g     O .rwdata	00000002 OSTaskSwHookEn
0120cb58 g     F .text	000008d0 .hidden __subdf3
01200d18 g     F .text	00000048 initOSDataStructs
01207054 g     F .text	000000b0 __lo0bits
0121d228 g     O .rwdata	00000008 alt_alarm_list
0121d1c2 g     O .rwdata	00000002 OSFlagWidth
01218da8 g     F .text	0000005c _do_ctors
0120a2a8 g     F .text	000000d8 wcrtomb
0120d6d8 g     F .text	000000d0 close
01200ba4 g     F .text	00000068 receive_task1
01219c1c g     F .text	00000068 alt_program_amd
0122339c g     O .bss	00001000 receive_task1_stk
0121d27c g     O .bss	00000004 alt_envsem
0121d2d4 g     O .bss	00000004 OSIdleCtrRun
0120f170 g     F .text	00000020 OSVersion
0121d20c g     O .rwdata	00000002 OSTmrCfgWheelSize
01215958 g     F .text	0000006c OS_TaskStkClr
0121d1e6 g     O .rwdata	00000002 OSTaskCreateEn
01200910 g     F .text	00000110 getsem_task1
0120f74c g     F .text	00000064 OS_EventWaitListInit
0120a050 g     F .text	00000058 fputwc
01219be0 g     F .text	0000001c OSTaskIdleHook
00000000  w      *UND*	00000000 free
012053c4 g     F .text	00000004 __sinit_lock_acquire
01206dd4 g     F .text	00000114 __multadd
01215618 g     F .text	00000214 OSTaskSuspend
01206dac g     F .text	00000028 _Bfree
0120fdc8 g     F .text	0000005c OS_TaskIdle
0121d212 g     O .rwdata	00000002 OSTmrTblSize
012133c0 g     F .text	0000015c OSQQuery



Disassembly of section .exceptions:

01200020 <alt_exception>:
 1200020:	deffed04 	addi	sp,sp,-76
 1200024:	dfc00015 	stw	ra,0(sp)
 1200028:	d8400215 	stw	at,8(sp)
 120002c:	d8800315 	stw	r2,12(sp)
 1200030:	d8c00415 	stw	r3,16(sp)
 1200034:	d9000515 	stw	r4,20(sp)
 1200038:	d9400615 	stw	r5,24(sp)
 120003c:	d9800715 	stw	r6,28(sp)
 1200040:	d9c00815 	stw	r7,32(sp)
 1200044:	000b307a 	rdctl	r5,estatus
 1200048:	da000915 	stw	r8,36(sp)
 120004c:	da400a15 	stw	r9,40(sp)
 1200050:	da800b15 	stw	r10,44(sp)
 1200054:	dac00c15 	stw	r11,48(sp)
 1200058:	db000d15 	stw	r12,52(sp)
 120005c:	db400e15 	stw	r13,56(sp)
 1200060:	db800f15 	stw	r14,60(sp)
 1200064:	dbc01015 	stw	r15,64(sp)
 1200068:	d9401115 	stw	r5,68(sp)
 120006c:	ebffff04 	addi	r15,ea,-4
 1200070:	dbc01215 	stw	r15,72(sp)
 1200074:	0009313a 	rdctl	r4,ipending
 1200078:	2880004c 	andi	r2,r5,1
 120007c:	10000326 	beq	r2,zero,120008c <alt_exception+0x6c>
 1200080:	20000226 	beq	r4,zero,120008c <alt_exception+0x6c>
 1200084:	12000fc0 	call	12000fc <alt_irq_handler>
 1200088:	00000706 	br	12000a8 <alt_exception+0x88>
 120008c:	df401215 	stw	ea,72(sp)
 1200090:	e8bfff17 	ldw	r2,-4(ea)
 1200094:	e93fff04 	addi	r4,ea,-4
 1200098:	12001cc0 	call	12001cc <alt_instruction_exception_entry>
 120009c:	1000021e 	bne	r2,zero,12000a8 <alt_exception+0x88>
 12000a0:	ebffff04 	addi	r15,ea,-4
 12000a4:	dbc01215 	stw	r15,72(sp)
 12000a8:	d9401117 	ldw	r5,68(sp)
 12000ac:	df401217 	ldw	ea,72(sp)
 12000b0:	dfc00017 	ldw	ra,0(sp)
 12000b4:	2801707a 	wrctl	estatus,r5
 12000b8:	d8400217 	ldw	at,8(sp)
 12000bc:	d8800317 	ldw	r2,12(sp)
 12000c0:	d8c00417 	ldw	r3,16(sp)
 12000c4:	d9000517 	ldw	r4,20(sp)
 12000c8:	d9400617 	ldw	r5,24(sp)
 12000cc:	d9800717 	ldw	r6,28(sp)
 12000d0:	d9c00817 	ldw	r7,32(sp)
 12000d4:	da000917 	ldw	r8,36(sp)
 12000d8:	da400a17 	ldw	r9,40(sp)
 12000dc:	da800b17 	ldw	r10,44(sp)
 12000e0:	dac00c17 	ldw	r11,48(sp)
 12000e4:	db000d17 	ldw	r12,52(sp)
 12000e8:	db400e17 	ldw	r13,56(sp)
 12000ec:	db800f17 	ldw	r14,60(sp)
 12000f0:	dbc01017 	ldw	r15,64(sp)
 12000f4:	dec01304 	addi	sp,sp,76
 12000f8:	ef80083a 	eret

012000fc <alt_irq_handler>:
 12000fc:	defff904 	addi	sp,sp,-28
 1200100:	dfc00615 	stw	ra,24(sp)
 1200104:	df000515 	stw	fp,20(sp)
 1200108:	df000504 	addi	fp,sp,20
 120010c:	120eb6c0 	call	120eb6c <OSIntEnter>
 1200110:	0005313a 	rdctl	r2,ipending
 1200114:	e0bffe15 	stw	r2,-8(fp)
 1200118:	e0bffe17 	ldw	r2,-8(fp)
 120011c:	e0bffb15 	stw	r2,-20(fp)
 1200120:	e03ffd15 	stw	zero,-12(fp)
 1200124:	00800044 	movi	r2,1
 1200128:	e0bffc15 	stw	r2,-16(fp)
 120012c:	e0fffb17 	ldw	r3,-20(fp)
 1200130:	e0bffc17 	ldw	r2,-16(fp)
 1200134:	1884703a 	and	r2,r3,r2
 1200138:	10001426 	beq	r2,zero,120018c <alt_irq_handler+0x90>
 120013c:	008048b4 	movhi	r2,290
 1200140:	109d7004 	addi	r2,r2,30144
 1200144:	e0fffd17 	ldw	r3,-12(fp)
 1200148:	180690fa 	slli	r3,r3,3
 120014c:	10c5883a 	add	r2,r2,r3
 1200150:	10c00017 	ldw	r3,0(r2)
 1200154:	008048b4 	movhi	r2,290
 1200158:	109d7004 	addi	r2,r2,30144
 120015c:	e13ffd17 	ldw	r4,-12(fp)
 1200160:	200890fa 	slli	r4,r4,3
 1200164:	1105883a 	add	r2,r2,r4
 1200168:	10800104 	addi	r2,r2,4
 120016c:	10800017 	ldw	r2,0(r2)
 1200170:	1009883a 	mov	r4,r2
 1200174:	183ee83a 	callr	r3
 1200178:	0001883a 	nop
 120017c:	0005313a 	rdctl	r2,ipending
 1200180:	e0bfff15 	stw	r2,-4(fp)
 1200184:	e0bfff17 	ldw	r2,-4(fp)
 1200188:	00000706 	br	12001a8 <alt_irq_handler+0xac>
 120018c:	e0bffc17 	ldw	r2,-16(fp)
 1200190:	1085883a 	add	r2,r2,r2
 1200194:	e0bffc15 	stw	r2,-16(fp)
 1200198:	e0bffd17 	ldw	r2,-12(fp)
 120019c:	10800044 	addi	r2,r2,1
 12001a0:	e0bffd15 	stw	r2,-12(fp)
 12001a4:	003fe106 	br	120012c <__alt_mem_instruction_tcm+0xff20012c>
 12001a8:	e0bffb15 	stw	r2,-20(fp)
 12001ac:	e0bffb17 	ldw	r2,-20(fp)
 12001b0:	103fdb1e 	bne	r2,zero,1200120 <__alt_mem_instruction_tcm+0xff200120>
 12001b4:	120ebe80 	call	120ebe8 <OSIntExit>
 12001b8:	e037883a 	mov	sp,fp
 12001bc:	dfc00117 	ldw	ra,4(sp)
 12001c0:	df000017 	ldw	fp,0(sp)
 12001c4:	dec00204 	addi	sp,sp,8
 12001c8:	f800283a 	ret

012001cc <alt_instruction_exception_entry>:
 12001cc:	defffb04 	addi	sp,sp,-20
 12001d0:	dfc00415 	stw	ra,16(sp)
 12001d4:	df000315 	stw	fp,12(sp)
 12001d8:	df000304 	addi	fp,sp,12
 12001dc:	e13fff15 	stw	r4,-4(fp)
 12001e0:	000531fa 	rdctl	r2,exception
 12001e4:	e0bffd15 	stw	r2,-12(fp)
 12001e8:	e0bffd17 	ldw	r2,-12(fp)
 12001ec:	10801f0c 	andi	r2,r2,124
 12001f0:	1004d0ba 	srli	r2,r2,2
 12001f4:	e0bffd15 	stw	r2,-12(fp)
 12001f8:	0005333a 	rdctl	r2,badaddr
 12001fc:	e0bffe15 	stw	r2,-8(fp)
 1200200:	d0a05e17 	ldw	r2,-32392(gp)
 1200204:	10000726 	beq	r2,zero,1200224 <alt_instruction_exception_entry+0x58>
 1200208:	d0a05e17 	ldw	r2,-32392(gp)
 120020c:	e0fffd17 	ldw	r3,-12(fp)
 1200210:	1809883a 	mov	r4,r3
 1200214:	e17fff17 	ldw	r5,-4(fp)
 1200218:	e1bffe17 	ldw	r6,-8(fp)
 120021c:	103ee83a 	callr	r2
 1200220:	00000206 	br	120022c <alt_instruction_exception_entry+0x60>
 1200224:	003da03a 	break	0
 1200228:	0005883a 	mov	r2,zero
 120022c:	e037883a 	mov	sp,fp
 1200230:	dfc00117 	ldw	ra,4(sp)
 1200234:	df000017 	ldw	fp,0(sp)
 1200238:	dec00204 	addi	sp,sp,8
 120023c:	f800283a 	ret

Disassembly of section .text:

01200240 <_start>:
 1200240:	00840014 	movui	r2,4096
 1200244:	10000033 	initd	0(r2)
 1200248:	10bff804 	addi	r2,r2,-32
 120024c:	00bffd16 	blt	zero,r2,1200244 <__alt_mem_instruction_tcm+0xff200244>
 1200250:	06c05034 	movhi	sp,320
 1200254:	dec00014 	ori	sp,sp,0
 1200258:	068048b4 	movhi	gp,290
 120025c:	d6945b14 	ori	gp,gp,20844
 1200260:	00804874 	movhi	r2,289
 1200264:	10b48c14 	ori	r2,r2,53808
 1200268:	00c048b4 	movhi	r3,290
 120026c:	18ddb014 	ori	r3,r3,30400
 1200270:	10c00326 	beq	r2,r3,1200280 <_start+0x40>
 1200274:	10000015 	stw	zero,0(r2)
 1200278:	10800104 	addi	r2,r2,4
 120027c:	10fffd36 	bltu	r2,r3,1200274 <__alt_mem_instruction_tcm+0xff200274>
 1200280:	120db280 	call	120db28 <alt_main>

01200284 <alt_after_alt_main>:
 1200284:	003fff06 	br	1200284 <__alt_mem_instruction_tcm+0xff200284>

01200288 <alt_ucosii_check_return_code>:
 1200288:	defffd04 	addi	sp,sp,-12
 120028c:	dfc00215 	stw	ra,8(sp)
 1200290:	df000115 	stw	fp,4(sp)
 1200294:	df000104 	addi	fp,sp,4
 1200298:	2005883a 	mov	r2,r4
 120029c:	e0bfff05 	stb	r2,-4(fp)
 12002a0:	e0bfff03 	ldbu	r2,-4(fp)
 12002a4:	10000526 	beq	r2,zero,12002bc <alt_ucosii_check_return_code+0x34>
 12002a8:	120ecdc0 	call	120ecdc <OSSchedLock>
 12002ac:	e0bfff03 	ldbu	r2,-4(fp)
 12002b0:	1009883a 	mov	r4,r2
 12002b4:	12002d00 	call	12002d0 <alt_ucosii_simple_error_handler>
 12002b8:	120ed640 	call	120ed64 <OSSchedUnlock>
 12002bc:	e037883a 	mov	sp,fp
 12002c0:	dfc00117 	ldw	ra,4(sp)
 12002c4:	df000017 	ldw	fp,0(sp)
 12002c8:	dec00204 	addi	sp,sp,8
 12002cc:	f800283a 	ret

012002d0 <alt_ucosii_simple_error_handler>:
 12002d0:	defffd04 	addi	sp,sp,-12
 12002d4:	dfc00215 	stw	ra,8(sp)
 12002d8:	df000115 	stw	fp,4(sp)
 12002dc:	df000104 	addi	fp,sp,4
 12002e0:	2005883a 	mov	r2,r4
 12002e4:	e0bfff05 	stb	r2,-4(fp)
 12002e8:	010048b4 	movhi	r4,290
 12002ec:	212b0b04 	addi	r4,r4,-21460
 12002f0:	120114c0 	call	120114c <puts>
 12002f4:	e0bfff03 	ldbu	r2,-4(fp)
 12002f8:	10c01968 	cmpgeui	r3,r2,101
 12002fc:	1801171e 	bne	r3,zero,120075c <alt_ucosii_simple_error_handler+0x48c>
 1200300:	100690ba 	slli	r3,r2,2
 1200304:	00804834 	movhi	r2,288
 1200308:	1080c604 	addi	r2,r2,792
 120030c:	1885883a 	add	r2,r3,r2
 1200310:	10800017 	ldw	r2,0(r2)
 1200314:	1000683a 	jmp	r2
 1200318:	0120075c 	xori	r4,zero,32797
 120031c:	012005a4 	muli	r4,zero,-32746
 1200320:	01200654 	movui	r4,32793
 1200324:	012005fc 	xorhi	r4,zero,32791
 1200328:	012005d0 	cmplti	r4,zero,-32745
 120032c:	0120075c 	xori	r4,zero,32797
 1200330:	0120075c 	xori	r4,zero,32797
 1200334:	0120075c 	xori	r4,zero,32797
 1200338:	0120075c 	xori	r4,zero,32797
 120033c:	0120075c 	xori	r4,zero,32797
 1200340:	01200628 	cmpgeui	r4,zero,32792
 1200344:	0120075c 	xori	r4,zero,32797
 1200348:	0120075c 	xori	r4,zero,32797
 120034c:	0120075c 	xori	r4,zero,32797
 1200350:	0120075c 	xori	r4,zero,32797
 1200354:	0120075c 	xori	r4,zero,32797
 1200358:	0120075c 	xori	r4,zero,32797
 120035c:	0120075c 	xori	r4,zero,32797
 1200360:	0120075c 	xori	r4,zero,32797
 1200364:	0120075c 	xori	r4,zero,32797
 1200368:	01200578 	rdprs	r4,zero,-32747
 120036c:	0120075c 	xori	r4,zero,32797
 1200370:	0120075c 	xori	r4,zero,32797
 1200374:	0120075c 	xori	r4,zero,32797
 1200378:	0120075c 	xori	r4,zero,32797
 120037c:	0120075c 	xori	r4,zero,32797
 1200380:	0120075c 	xori	r4,zero,32797
 1200384:	0120075c 	xori	r4,zero,32797
 1200388:	0120075c 	xori	r4,zero,32797
 120038c:	0120075c 	xori	r4,zero,32797
 1200390:	01200704 	movi	r4,-32740
 1200394:	0120075c 	xori	r4,zero,32797
 1200398:	0120075c 	xori	r4,zero,32797
 120039c:	0120075c 	xori	r4,zero,32797
 12003a0:	0120075c 	xori	r4,zero,32797
 12003a4:	0120075c 	xori	r4,zero,32797
 12003a8:	0120075c 	xori	r4,zero,32797
 12003ac:	0120075c 	xori	r4,zero,32797
 12003b0:	0120075c 	xori	r4,zero,32797
 12003b4:	0120075c 	xori	r4,zero,32797
 12003b8:	012004ac 	andhi	r4,zero,32786
 12003bc:	0120075c 	xori	r4,zero,32797
 12003c0:	012004d8 	cmpnei	r4,zero,-32749
 12003c4:	0120075c 	xori	r4,zero,32797
 12003c8:	0120075c 	xori	r4,zero,32797
 12003cc:	0120075c 	xori	r4,zero,32797
 12003d0:	0120075c 	xori	r4,zero,32797
 12003d4:	0120075c 	xori	r4,zero,32797
 12003d8:	0120075c 	xori	r4,zero,32797
 12003dc:	0120075c 	xori	r4,zero,32797
 12003e0:	0120075c 	xori	r4,zero,32797
 12003e4:	0120075c 	xori	r4,zero,32797
 12003e8:	0120075c 	xori	r4,zero,32797
 12003ec:	0120075c 	xori	r4,zero,32797
 12003f0:	0120075c 	xori	r4,zero,32797
 12003f4:	0120075c 	xori	r4,zero,32797
 12003f8:	0120075c 	xori	r4,zero,32797
 12003fc:	0120075c 	xori	r4,zero,32797
 1200400:	0120075c 	xori	r4,zero,32797
 1200404:	0120075c 	xori	r4,zero,32797
 1200408:	0120075c 	xori	r4,zero,32797
 120040c:	012006ac 	andhi	r4,zero,32794
 1200410:	01200680 	call	120068 <OSCtxSw_SWITCH_PC+0x120028>
 1200414:	0120075c 	xori	r4,zero,32797
 1200418:	012006d8 	cmpnei	r4,zero,-32741
 120041c:	0120075c 	xori	r4,zero,32797
 1200420:	01200528 	cmpgeui	r4,zero,32788
 1200424:	0120075c 	xori	r4,zero,32797
 1200428:	0120075c 	xori	r4,zero,32797
 120042c:	0120075c 	xori	r4,zero,32797
 1200430:	0120075c 	xori	r4,zero,32797
 1200434:	0120075c 	xori	r4,zero,32797
 1200438:	0120075c 	xori	r4,zero,32797
 120043c:	0120075c 	xori	r4,zero,32797
 1200440:	0120075c 	xori	r4,zero,32797
 1200444:	0120075c 	xori	r4,zero,32797
 1200448:	0120075c 	xori	r4,zero,32797
 120044c:	0120075c 	xori	r4,zero,32797
 1200450:	0120075c 	xori	r4,zero,32797
 1200454:	0120075c 	xori	r4,zero,32797
 1200458:	0120075c 	xori	r4,zero,32797
 120045c:	0120075c 	xori	r4,zero,32797
 1200460:	0120075c 	xori	r4,zero,32797
 1200464:	0120075c 	xori	r4,zero,32797
 1200468:	0120075c 	xori	r4,zero,32797
 120046c:	0120075c 	xori	r4,zero,32797
 1200470:	0120075c 	xori	r4,zero,32797
 1200474:	0120075c 	xori	r4,zero,32797
 1200478:	0120075c 	xori	r4,zero,32797
 120047c:	0120075c 	xori	r4,zero,32797
 1200480:	0120075c 	xori	r4,zero,32797
 1200484:	0120075c 	xori	r4,zero,32797
 1200488:	0120075c 	xori	r4,zero,32797
 120048c:	0120075c 	xori	r4,zero,32797
 1200490:	0120075c 	xori	r4,zero,32797
 1200494:	0120075c 	xori	r4,zero,32797
 1200498:	0120075c 	xori	r4,zero,32797
 120049c:	0120075c 	xori	r4,zero,32797
 12004a0:	0120075c 	xori	r4,zero,32797
 12004a4:	0120075c 	xori	r4,zero,32797
 12004a8:	01200730 	cmpltui	r4,zero,32796
 12004ac:	008048b4 	movhi	r2,290
 12004b0:	10b45c04 	addi	r2,r2,-11920
 12004b4:	10800017 	ldw	r2,0(r2)
 12004b8:	10800317 	ldw	r2,12(r2)
 12004bc:	010048b4 	movhi	r4,290
 12004c0:	212b1204 	addi	r4,r4,-21432
 12004c4:	01400044 	movi	r5,1
 12004c8:	01800ec4 	movi	r6,59
 12004cc:	100f883a 	mov	r7,r2
 12004d0:	1200fcc0 	call	1200fcc <fwrite>
 12004d4:	0000ac06 	br	1200788 <alt_ucosii_simple_error_handler+0x4b8>
 12004d8:	008048b4 	movhi	r2,290
 12004dc:	10b45c04 	addi	r2,r2,-11920
 12004e0:	10800017 	ldw	r2,0(r2)
 12004e4:	10800317 	ldw	r2,12(r2)
 12004e8:	010048b4 	movhi	r4,290
 12004ec:	212b2104 	addi	r4,r4,-21372
 12004f0:	01400044 	movi	r5,1
 12004f4:	01800ec4 	movi	r6,59
 12004f8:	100f883a 	mov	r7,r2
 12004fc:	1200fcc0 	call	1200fcc <fwrite>
 1200500:	008048b4 	movhi	r2,290
 1200504:	10b45c04 	addi	r2,r2,-11920
 1200508:	10800017 	ldw	r2,0(r2)
 120050c:	10800317 	ldw	r2,12(r2)
 1200510:	1009883a 	mov	r4,r2
 1200514:	014048b4 	movhi	r5,290
 1200518:	296b3004 	addi	r5,r5,-21312
 120051c:	01800504 	movi	r6,20
 1200520:	1200edc0 	call	1200edc <fprintf>
 1200524:	00009806 	br	1200788 <alt_ucosii_simple_error_handler+0x4b8>
 1200528:	008048b4 	movhi	r2,290
 120052c:	10b45c04 	addi	r2,r2,-11920
 1200530:	10800017 	ldw	r2,0(r2)
 1200534:	10800317 	ldw	r2,12(r2)
 1200538:	010048b4 	movhi	r4,290
 120053c:	212b3d04 	addi	r4,r4,-21260
 1200540:	01400044 	movi	r5,1
 1200544:	01800a04 	movi	r6,40
 1200548:	100f883a 	mov	r7,r2
 120054c:	1200fcc0 	call	1200fcc <fwrite>
 1200550:	008048b4 	movhi	r2,290
 1200554:	10b45c04 	addi	r2,r2,-11920
 1200558:	10800017 	ldw	r2,0(r2)
 120055c:	10800317 	ldw	r2,12(r2)
 1200560:	1009883a 	mov	r4,r2
 1200564:	014048b4 	movhi	r5,290
 1200568:	296b4804 	addi	r5,r5,-21216
 120056c:	01800284 	movi	r6,10
 1200570:	1200edc0 	call	1200edc <fprintf>
 1200574:	00008406 	br	1200788 <alt_ucosii_simple_error_handler+0x4b8>
 1200578:	008048b4 	movhi	r2,290
 120057c:	10b45c04 	addi	r2,r2,-11920
 1200580:	10800017 	ldw	r2,0(r2)
 1200584:	10800317 	ldw	r2,12(r2)
 1200588:	010048b4 	movhi	r4,290
 120058c:	212b5204 	addi	r4,r4,-21176
 1200590:	01400044 	movi	r5,1
 1200594:	01800f84 	movi	r6,62
 1200598:	100f883a 	mov	r7,r2
 120059c:	1200fcc0 	call	1200fcc <fwrite>
 12005a0:	00007906 	br	1200788 <alt_ucosii_simple_error_handler+0x4b8>
 12005a4:	008048b4 	movhi	r2,290
 12005a8:	10b45c04 	addi	r2,r2,-11920
 12005ac:	10800017 	ldw	r2,0(r2)
 12005b0:	10800317 	ldw	r2,12(r2)
 12005b4:	010048b4 	movhi	r4,290
 12005b8:	212b6204 	addi	r4,r4,-21112
 12005bc:	01400044 	movi	r5,1
 12005c0:	01801244 	movi	r6,73
 12005c4:	100f883a 	mov	r7,r2
 12005c8:	1200fcc0 	call	1200fcc <fwrite>
 12005cc:	00006e06 	br	1200788 <alt_ucosii_simple_error_handler+0x4b8>
 12005d0:	008048b4 	movhi	r2,290
 12005d4:	10b45c04 	addi	r2,r2,-11920
 12005d8:	10800017 	ldw	r2,0(r2)
 12005dc:	10800317 	ldw	r2,12(r2)
 12005e0:	010048b4 	movhi	r4,290
 12005e4:	212b7504 	addi	r4,r4,-21036
 12005e8:	01400044 	movi	r5,1
 12005ec:	01800d84 	movi	r6,54
 12005f0:	100f883a 	mov	r7,r2
 12005f4:	1200fcc0 	call	1200fcc <fwrite>
 12005f8:	00006306 	br	1200788 <alt_ucosii_simple_error_handler+0x4b8>
 12005fc:	008048b4 	movhi	r2,290
 1200600:	10b45c04 	addi	r2,r2,-11920
 1200604:	10800017 	ldw	r2,0(r2)
 1200608:	10800317 	ldw	r2,12(r2)
 120060c:	010048b4 	movhi	r4,290
 1200610:	212b8304 	addi	r4,r4,-20980
 1200614:	01400044 	movi	r5,1
 1200618:	01800a44 	movi	r6,41
 120061c:	100f883a 	mov	r7,r2
 1200620:	1200fcc0 	call	1200fcc <fwrite>
 1200624:	00005806 	br	1200788 <alt_ucosii_simple_error_handler+0x4b8>
 1200628:	008048b4 	movhi	r2,290
 120062c:	10b45c04 	addi	r2,r2,-11920
 1200630:	10800017 	ldw	r2,0(r2)
 1200634:	10800317 	ldw	r2,12(r2)
 1200638:	010048b4 	movhi	r4,290
 120063c:	212b8e04 	addi	r4,r4,-20936
 1200640:	01400044 	movi	r5,1
 1200644:	01800a04 	movi	r6,40
 1200648:	100f883a 	mov	r7,r2
 120064c:	1200fcc0 	call	1200fcc <fwrite>
 1200650:	00004d06 	br	1200788 <alt_ucosii_simple_error_handler+0x4b8>
 1200654:	008048b4 	movhi	r2,290
 1200658:	10b45c04 	addi	r2,r2,-11920
 120065c:	10800017 	ldw	r2,0(r2)
 1200660:	10800317 	ldw	r2,12(r2)
 1200664:	010048b4 	movhi	r4,290
 1200668:	212b9904 	addi	r4,r4,-20892
 120066c:	01400044 	movi	r5,1
 1200670:	01800bc4 	movi	r6,47
 1200674:	100f883a 	mov	r7,r2
 1200678:	1200fcc0 	call	1200fcc <fwrite>
 120067c:	00004206 	br	1200788 <alt_ucosii_simple_error_handler+0x4b8>
 1200680:	008048b4 	movhi	r2,290
 1200684:	10b45c04 	addi	r2,r2,-11920
 1200688:	10800017 	ldw	r2,0(r2)
 120068c:	10800317 	ldw	r2,12(r2)
 1200690:	010048b4 	movhi	r4,290
 1200694:	212ba504 	addi	r4,r4,-20844
 1200698:	01400044 	movi	r5,1
 120069c:	01800884 	movi	r6,34
 12006a0:	100f883a 	mov	r7,r2
 12006a4:	1200fcc0 	call	1200fcc <fwrite>
 12006a8:	00003706 	br	1200788 <alt_ucosii_simple_error_handler+0x4b8>
 12006ac:	008048b4 	movhi	r2,290
 12006b0:	10b45c04 	addi	r2,r2,-11920
 12006b4:	10800017 	ldw	r2,0(r2)
 12006b8:	10800317 	ldw	r2,12(r2)
 12006bc:	010048b4 	movhi	r4,290
 12006c0:	212bae04 	addi	r4,r4,-20808
 12006c4:	01400044 	movi	r5,1
 12006c8:	01800bc4 	movi	r6,47
 12006cc:	100f883a 	mov	r7,r2
 12006d0:	1200fcc0 	call	1200fcc <fwrite>
 12006d4:	00002c06 	br	1200788 <alt_ucosii_simple_error_handler+0x4b8>
 12006d8:	008048b4 	movhi	r2,290
 12006dc:	10b45c04 	addi	r2,r2,-11920
 12006e0:	10800017 	ldw	r2,0(r2)
 12006e4:	10800317 	ldw	r2,12(r2)
 12006e8:	010048b4 	movhi	r4,290
 12006ec:	212bba04 	addi	r4,r4,-20760
 12006f0:	01400044 	movi	r5,1
 12006f4:	018009c4 	movi	r6,39
 12006f8:	100f883a 	mov	r7,r2
 12006fc:	1200fcc0 	call	1200fcc <fwrite>
 1200700:	00002106 	br	1200788 <alt_ucosii_simple_error_handler+0x4b8>
 1200704:	008048b4 	movhi	r2,290
 1200708:	10b45c04 	addi	r2,r2,-11920
 120070c:	10800017 	ldw	r2,0(r2)
 1200710:	10800317 	ldw	r2,12(r2)
 1200714:	010048b4 	movhi	r4,290
 1200718:	212bc404 	addi	r4,r4,-20720
 120071c:	01400044 	movi	r5,1
 1200720:	01800a84 	movi	r6,42
 1200724:	100f883a 	mov	r7,r2
 1200728:	1200fcc0 	call	1200fcc <fwrite>
 120072c:	00001606 	br	1200788 <alt_ucosii_simple_error_handler+0x4b8>
 1200730:	008048b4 	movhi	r2,290
 1200734:	10b45c04 	addi	r2,r2,-11920
 1200738:	10800017 	ldw	r2,0(r2)
 120073c:	10800317 	ldw	r2,12(r2)
 1200740:	010048b4 	movhi	r4,290
 1200744:	212bcf04 	addi	r4,r4,-20676
 1200748:	01400044 	movi	r5,1
 120074c:	01800e04 	movi	r6,56
 1200750:	100f883a 	mov	r7,r2
 1200754:	1200fcc0 	call	1200fcc <fwrite>
 1200758:	00000b06 	br	1200788 <alt_ucosii_simple_error_handler+0x4b8>
 120075c:	008048b4 	movhi	r2,290
 1200760:	10b45c04 	addi	r2,r2,-11920
 1200764:	10800017 	ldw	r2,0(r2)
 1200768:	10800317 	ldw	r2,12(r2)
 120076c:	010048b4 	movhi	r4,290
 1200770:	212bde04 	addi	r4,r4,-20616
 1200774:	01400044 	movi	r5,1
 1200778:	01800384 	movi	r6,14
 120077c:	100f883a 	mov	r7,r2
 1200780:	1200fcc0 	call	1200fcc <fwrite>
 1200784:	0001883a 	nop
 1200788:	008048b4 	movhi	r2,290
 120078c:	10b45c04 	addi	r2,r2,-11920
 1200790:	10800017 	ldw	r2,0(r2)
 1200794:	10800317 	ldw	r2,12(r2)
 1200798:	010048b4 	movhi	r4,290
 120079c:	212be204 	addi	r4,r4,-20600
 12007a0:	01400044 	movi	r5,1
 12007a4:	01800604 	movi	r6,24
 12007a8:	100f883a 	mov	r7,r2
 12007ac:	1200fcc0 	call	1200fcc <fwrite>
 12007b0:	0009883a 	mov	r4,zero
 12007b4:	1200e7c0 	call	1200e7c <exit>

012007b8 <print_status_task>:
 12007b8:	defff804 	addi	sp,sp,-32
 12007bc:	dfc00715 	stw	ra,28(sp)
 12007c0:	df000615 	stw	fp,24(sp)
 12007c4:	df000604 	addi	fp,sp,24
 12007c8:	e13fff15 	stw	r4,-4(fp)
 12007cc:	0009883a 	mov	r4,zero
 12007d0:	000b883a 	mov	r5,zero
 12007d4:	018000c4 	movi	r6,3
 12007d8:	000f883a 	mov	r7,zero
 12007dc:	1215b0c0 	call	1215b0c <OSTimeDlyHMSM>
 12007e0:	d0e03617 	ldw	r3,-32552(gp)
 12007e4:	e0bffc04 	addi	r2,fp,-16
 12007e8:	1809883a 	mov	r4,r3
 12007ec:	100b883a 	mov	r5,r2
 12007f0:	12133c00 	call	12133c0 <OSQQuery>
 12007f4:	e0bffa05 	stb	r2,-24(fp)
 12007f8:	010048b4 	movhi	r4,290
 12007fc:	212be904 	addi	r4,r4,-20572
 1200800:	120114c0 	call	120114c <puts>
 1200804:	010048b4 	movhi	r4,290
 1200808:	212bfa04 	addi	r4,r4,-20504
 120080c:	120114c0 	call	120114c <puts>
 1200810:	01000284 	movi	r4,10
 1200814:	120107c0 	call	120107c <putchar>
 1200818:	e0bffa03 	ldbu	r2,-24(fp)
 120081c:	1000061e 	bne	r2,zero,1200838 <print_status_task+0x80>
 1200820:	e0bffd0b 	ldhu	r2,-12(fp)
 1200824:	10bfffcc 	andi	r2,r2,65535
 1200828:	010048b4 	movhi	r4,290
 120082c:	212c0b04 	addi	r4,r4,-20436
 1200830:	100b883a 	mov	r5,r2
 1200834:	12010380 	call	1201038 <printf>
 1200838:	1215e580 	call	1215e58 <OSTimeGet>
 120083c:	e0bffb15 	stw	r2,-20(fp)
 1200840:	010048b4 	movhi	r4,290
 1200844:	212c1004 	addi	r4,r4,-20416
 1200848:	e17ffb17 	ldw	r5,-20(fp)
 120084c:	12010380 	call	1201038 <printf>
 1200850:	d0a03117 	ldw	r2,-32572(gp)
 1200854:	010048b4 	movhi	r4,290
 1200858:	212c1304 	addi	r4,r4,-20404
 120085c:	100b883a 	mov	r5,r2
 1200860:	12010380 	call	1201038 <printf>
 1200864:	01000284 	movi	r4,10
 1200868:	120107c0 	call	120107c <putchar>
 120086c:	d0a03217 	ldw	r2,-32568(gp)
 1200870:	010048b4 	movhi	r4,290
 1200874:	212c2204 	addi	r4,r4,-20344
 1200878:	100b883a 	mov	r5,r2
 120087c:	12010380 	call	1201038 <printf>
 1200880:	01000284 	movi	r4,10
 1200884:	120107c0 	call	120107c <putchar>
 1200888:	d0a03317 	ldw	r2,-32564(gp)
 120088c:	010048b4 	movhi	r4,290
 1200890:	212c3104 	addi	r4,r4,-20284
 1200894:	100b883a 	mov	r5,r2
 1200898:	12010380 	call	1201038 <printf>
 120089c:	01000284 	movi	r4,10
 12008a0:	120107c0 	call	120107c <putchar>
 12008a4:	010048b4 	movhi	r4,290
 12008a8:	212c4004 	addi	r4,r4,-20224
 12008ac:	014048b4 	movhi	r5,290
 12008b0:	2944e204 	addi	r5,r5,5000
 12008b4:	12010380 	call	1201038 <printf>
 12008b8:	01000284 	movi	r4,10
 12008bc:	120107c0 	call	120107c <putchar>
 12008c0:	d0a03417 	ldw	r2,-32560(gp)
 12008c4:	010048b4 	movhi	r4,290
 12008c8:	212c4a04 	addi	r4,r4,-20184
 12008cc:	100b883a 	mov	r5,r2
 12008d0:	12010380 	call	1201038 <printf>
 12008d4:	01000284 	movi	r4,10
 12008d8:	120107c0 	call	120107c <putchar>
 12008dc:	d0a03517 	ldw	r2,-32556(gp)
 12008e0:	010048b4 	movhi	r4,290
 12008e4:	212c5a04 	addi	r4,r4,-20120
 12008e8:	100b883a 	mov	r5,r2
 12008ec:	12010380 	call	1201038 <printf>
 12008f0:	01000284 	movi	r4,10
 12008f4:	120107c0 	call	120107c <putchar>
 12008f8:	010048b4 	movhi	r4,290
 12008fc:	212be904 	addi	r4,r4,-20572
 1200900:	120114c0 	call	120114c <puts>
 1200904:	01000284 	movi	r4,10
 1200908:	120107c0 	call	120107c <putchar>
 120090c:	003faf06 	br	12007cc <__alt_mem_instruction_tcm+0xff2007cc>

01200910 <getsem_task1>:
 1200910:	defffc04 	addi	sp,sp,-16
 1200914:	dfc00315 	stw	ra,12(sp)
 1200918:	df000215 	stw	fp,8(sp)
 120091c:	df000204 	addi	fp,sp,8
 1200920:	e13fff15 	stw	r4,-4(fp)
 1200924:	e03ffe45 	stb	zero,-7(fp)
 1200928:	00800044 	movi	r2,1
 120092c:	e0bffe05 	stb	r2,-8(fp)
 1200930:	e0bffe03 	ldbu	r2,-8(fp)
 1200934:	1085883a 	add	r2,r2,r2
 1200938:	e0bffe05 	stb	r2,-8(fp)
 120093c:	e0bffe03 	ldbu	r2,-8(fp)
 1200940:	1000021e 	bne	r2,zero,120094c <getsem_task1+0x3c>
 1200944:	00800044 	movi	r2,1
 1200948:	e0bffe05 	stb	r2,-8(fp)
 120094c:	e0fffe03 	ldbu	r3,-8(fp)
 1200950:	00805034 	movhi	r2,320
 1200954:	10841404 	addi	r2,r2,4176
 1200958:	10c00035 	stwio	r3,0(r2)
 120095c:	d0e03717 	ldw	r3,-32548(gp)
 1200960:	e0bffe44 	addi	r2,fp,-7
 1200964:	1809883a 	mov	r4,r3
 1200968:	000b883a 	mov	r5,zero
 120096c:	100d883a 	mov	r6,r2
 1200970:	12139e00 	call	12139e0 <OSSemPend>
 1200974:	e0bffe43 	ldbu	r2,-7(fp)
 1200978:	10803fcc 	andi	r2,r2,255
 120097c:	1009883a 	mov	r4,r2
 1200980:	12002880 	call	1200288 <alt_ucosii_check_return_code>
 1200984:	008048b4 	movhi	r2,290
 1200988:	1084e204 	addi	r2,r2,5000
 120098c:	00c019c4 	movi	r3,103
 1200990:	10c00005 	stb	r3,0(r2)
 1200994:	00c01944 	movi	r3,101
 1200998:	10c00045 	stb	r3,1(r2)
 120099c:	00c01d04 	movi	r3,116
 12009a0:	10c00085 	stb	r3,2(r2)
 12009a4:	00c01cc4 	movi	r3,115
 12009a8:	10c000c5 	stb	r3,3(r2)
 12009ac:	00c01944 	movi	r3,101
 12009b0:	10c00105 	stb	r3,4(r2)
 12009b4:	00c01b44 	movi	r3,109
 12009b8:	10c00145 	stb	r3,5(r2)
 12009bc:	00c017c4 	movi	r3,95
 12009c0:	10c00185 	stb	r3,6(r2)
 12009c4:	00c01d04 	movi	r3,116
 12009c8:	10c001c5 	stb	r3,7(r2)
 12009cc:	00c01844 	movi	r3,97
 12009d0:	10c00205 	stb	r3,8(r2)
 12009d4:	00c01cc4 	movi	r3,115
 12009d8:	10c00245 	stb	r3,9(r2)
 12009dc:	00c01ac4 	movi	r3,107
 12009e0:	10c00285 	stb	r3,10(r2)
 12009e4:	00c00c44 	movi	r3,49
 12009e8:	10c002c5 	stb	r3,11(r2)
 12009ec:	10000305 	stb	zero,12(r2)
 12009f0:	d0a03417 	ldw	r2,-32560(gp)
 12009f4:	10800044 	addi	r2,r2,1
 12009f8:	d0a03415 	stw	r2,-32560(gp)
 12009fc:	d0a03717 	ldw	r2,-32548(gp)
 1200a00:	1009883a 	mov	r4,r2
 1200a04:	1213db40 	call	1213db4 <OSSemPost>
 1200a08:	0009883a 	mov	r4,zero
 1200a0c:	000b883a 	mov	r5,zero
 1200a10:	000d883a 	mov	r6,zero
 1200a14:	01c01904 	movi	r7,100
 1200a18:	1215b0c0 	call	1215b0c <OSTimeDlyHMSM>
 1200a1c:	003fc406 	br	1200930 <__alt_mem_instruction_tcm+0xff200930>

01200a20 <getsem_task2>:
 1200a20:	defffc04 	addi	sp,sp,-16
 1200a24:	dfc00315 	stw	ra,12(sp)
 1200a28:	df000215 	stw	fp,8(sp)
 1200a2c:	df000204 	addi	fp,sp,8
 1200a30:	e13fff15 	stw	r4,-4(fp)
 1200a34:	e03ffe05 	stb	zero,-8(fp)
 1200a38:	d0a03717 	ldw	r2,-32548(gp)
 1200a3c:	1009883a 	mov	r4,r2
 1200a40:	000b883a 	mov	r5,zero
 1200a44:	e1bffe04 	addi	r6,fp,-8
 1200a48:	12139e00 	call	12139e0 <OSSemPend>
 1200a4c:	008048b4 	movhi	r2,290
 1200a50:	1084e204 	addi	r2,r2,5000
 1200a54:	00c019c4 	movi	r3,103
 1200a58:	10c00005 	stb	r3,0(r2)
 1200a5c:	00c01944 	movi	r3,101
 1200a60:	10c00045 	stb	r3,1(r2)
 1200a64:	00c01d04 	movi	r3,116
 1200a68:	10c00085 	stb	r3,2(r2)
 1200a6c:	00c01cc4 	movi	r3,115
 1200a70:	10c000c5 	stb	r3,3(r2)
 1200a74:	00c01944 	movi	r3,101
 1200a78:	10c00105 	stb	r3,4(r2)
 1200a7c:	00c01b44 	movi	r3,109
 1200a80:	10c00145 	stb	r3,5(r2)
 1200a84:	00c017c4 	movi	r3,95
 1200a88:	10c00185 	stb	r3,6(r2)
 1200a8c:	00c01d04 	movi	r3,116
 1200a90:	10c001c5 	stb	r3,7(r2)
 1200a94:	00c01844 	movi	r3,97
 1200a98:	10c00205 	stb	r3,8(r2)
 1200a9c:	00c01cc4 	movi	r3,115
 1200aa0:	10c00245 	stb	r3,9(r2)
 1200aa4:	00c01ac4 	movi	r3,107
 1200aa8:	10c00285 	stb	r3,10(r2)
 1200aac:	00c00c84 	movi	r3,50
 1200ab0:	10c002c5 	stb	r3,11(r2)
 1200ab4:	10000305 	stb	zero,12(r2)
 1200ab8:	e0bffe03 	ldbu	r2,-8(fp)
 1200abc:	10803fcc 	andi	r2,r2,255
 1200ac0:	1009883a 	mov	r4,r2
 1200ac4:	12002880 	call	1200288 <alt_ucosii_check_return_code>
 1200ac8:	d0a03517 	ldw	r2,-32556(gp)
 1200acc:	10800044 	addi	r2,r2,1
 1200ad0:	d0a03515 	stw	r2,-32556(gp)
 1200ad4:	d0a03717 	ldw	r2,-32548(gp)
 1200ad8:	1009883a 	mov	r4,r2
 1200adc:	1213db40 	call	1213db4 <OSSemPost>
 1200ae0:	0009883a 	mov	r4,zero
 1200ae4:	000b883a 	mov	r5,zero
 1200ae8:	000d883a 	mov	r6,zero
 1200aec:	01c02084 	movi	r7,130
 1200af0:	1215b0c0 	call	1215b0c <OSTimeDlyHMSM>
 1200af4:	003fd006 	br	1200a38 <__alt_mem_instruction_tcm+0xff200a38>

01200af8 <send_task>:
 1200af8:	defff804 	addi	sp,sp,-32
 1200afc:	dfc00715 	stw	ra,28(sp)
 1200b00:	df000615 	stw	fp,24(sp)
 1200b04:	df000604 	addi	fp,sp,24
 1200b08:	e13fff15 	stw	r4,-4(fp)
 1200b0c:	e03ffa05 	stb	zero,-24(fp)
 1200b10:	e03ffb15 	stw	zero,-20(fp)
 1200b14:	d0e03617 	ldw	r3,-32552(gp)
 1200b18:	e0bffc04 	addi	r2,fp,-16
 1200b1c:	1809883a 	mov	r4,r3
 1200b20:	100b883a 	mov	r5,r2
 1200b24:	12133c00 	call	12133c0 <OSQQuery>
 1200b28:	e0bffa05 	stb	r2,-24(fp)
 1200b2c:	e0bffa03 	ldbu	r2,-24(fp)
 1200b30:	1009883a 	mov	r4,r2
 1200b34:	12002880 	call	1200288 <alt_ucosii_check_return_code>
 1200b38:	e0bffd0b 	ldhu	r2,-12(fp)
 1200b3c:	10bfffcc 	andi	r2,r2,65535
 1200b40:	108007a8 	cmpgeui	r2,r2,30
 1200b44:	1000111e 	bne	r2,zero,1200b8c <send_task+0x94>
 1200b48:	d0e03617 	ldw	r3,-32552(gp)
 1200b4c:	e0bffb04 	addi	r2,fp,-20
 1200b50:	1809883a 	mov	r4,r3
 1200b54:	100b883a 	mov	r5,r2
 1200b58:	01800044 	movi	r6,1
 1200b5c:	12131b40 	call	12131b4 <OSQPostOpt>
 1200b60:	e0bffa05 	stb	r2,-24(fp)
 1200b64:	e0bffa03 	ldbu	r2,-24(fp)
 1200b68:	1009883a 	mov	r4,r2
 1200b6c:	12002880 	call	1200288 <alt_ucosii_check_return_code>
 1200b70:	e0bffb17 	ldw	r2,-20(fp)
 1200b74:	10800044 	addi	r2,r2,1
 1200b78:	e0bffb15 	stw	r2,-20(fp)
 1200b7c:	d0a03117 	ldw	r2,-32572(gp)
 1200b80:	10800044 	addi	r2,r2,1
 1200b84:	d0a03115 	stw	r2,-32572(gp)
 1200b88:	00000506 	br	1200ba0 <send_task+0xa8>
 1200b8c:	0009883a 	mov	r4,zero
 1200b90:	000b883a 	mov	r5,zero
 1200b94:	01800044 	movi	r6,1
 1200b98:	000f883a 	mov	r7,zero
 1200b9c:	1215b0c0 	call	1215b0c <OSTimeDlyHMSM>
 1200ba0:	003fdc06 	br	1200b14 <__alt_mem_instruction_tcm+0xff200b14>

01200ba4 <receive_task1>:
 1200ba4:	defffb04 	addi	sp,sp,-20
 1200ba8:	dfc00415 	stw	ra,16(sp)
 1200bac:	df000315 	stw	fp,12(sp)
 1200bb0:	df000304 	addi	fp,sp,12
 1200bb4:	e13fff15 	stw	r4,-4(fp)
 1200bb8:	e03ffe05 	stb	zero,-8(fp)
 1200bbc:	d0e03617 	ldw	r3,-32552(gp)
 1200bc0:	e0bffe04 	addi	r2,fp,-8
 1200bc4:	1809883a 	mov	r4,r3
 1200bc8:	000b883a 	mov	r5,zero
 1200bcc:	100d883a 	mov	r6,r2
 1200bd0:	1212a740 	call	1212a74 <OSQPend>
 1200bd4:	e0bffd15 	stw	r2,-12(fp)
 1200bd8:	e0bffe03 	ldbu	r2,-8(fp)
 1200bdc:	10803fcc 	andi	r2,r2,255
 1200be0:	1009883a 	mov	r4,r2
 1200be4:	12002880 	call	1200288 <alt_ucosii_check_return_code>
 1200be8:	d0a03217 	ldw	r2,-32568(gp)
 1200bec:	10800044 	addi	r2,r2,1
 1200bf0:	d0a03215 	stw	r2,-32568(gp)
 1200bf4:	0009883a 	mov	r4,zero
 1200bf8:	000b883a 	mov	r5,zero
 1200bfc:	000d883a 	mov	r6,zero
 1200c00:	01c05344 	movi	r7,333
 1200c04:	1215b0c0 	call	1215b0c <OSTimeDlyHMSM>
 1200c08:	003fec06 	br	1200bbc <__alt_mem_instruction_tcm+0xff200bbc>

01200c0c <receive_task2>:
 1200c0c:	defffb04 	addi	sp,sp,-20
 1200c10:	dfc00415 	stw	ra,16(sp)
 1200c14:	df000315 	stw	fp,12(sp)
 1200c18:	df000304 	addi	fp,sp,12
 1200c1c:	e13fff15 	stw	r4,-4(fp)
 1200c20:	e03ffe05 	stb	zero,-8(fp)
 1200c24:	d0e03617 	ldw	r3,-32552(gp)
 1200c28:	e0bffe04 	addi	r2,fp,-8
 1200c2c:	1809883a 	mov	r4,r3
 1200c30:	000b883a 	mov	r5,zero
 1200c34:	100d883a 	mov	r6,r2
 1200c38:	1212a740 	call	1212a74 <OSQPend>
 1200c3c:	e0bffd15 	stw	r2,-12(fp)
 1200c40:	e0bffe03 	ldbu	r2,-8(fp)
 1200c44:	10803fcc 	andi	r2,r2,255
 1200c48:	1009883a 	mov	r4,r2
 1200c4c:	12002880 	call	1200288 <alt_ucosii_check_return_code>
 1200c50:	d0a03317 	ldw	r2,-32564(gp)
 1200c54:	10800044 	addi	r2,r2,1
 1200c58:	d0a03315 	stw	r2,-32564(gp)
 1200c5c:	0009883a 	mov	r4,zero
 1200c60:	000b883a 	mov	r5,zero
 1200c64:	01800044 	movi	r6,1
 1200c68:	000f883a 	mov	r7,zero
 1200c6c:	1215b0c0 	call	1215b0c <OSTimeDlyHMSM>
 1200c70:	003fec06 	br	1200c24 <__alt_mem_instruction_tcm+0xff200c24>

01200c74 <initialize_task>:
 1200c74:	defffc04 	addi	sp,sp,-16
 1200c78:	dfc00315 	stw	ra,12(sp)
 1200c7c:	df000215 	stw	fp,8(sp)
 1200c80:	df000204 	addi	fp,sp,8
 1200c84:	e13fff15 	stw	r4,-4(fp)
 1200c88:	e03ffe05 	stb	zero,-8(fp)
 1200c8c:	1200d180 	call	1200d18 <initOSDataStructs>
 1200c90:	1200d600 	call	1200d60 <initCreateTasks>
 1200c94:	01003fc4 	movi	r4,255
 1200c98:	12149b80 	call	12149b8 <OSTaskDel>
 1200c9c:	e0bffe05 	stb	r2,-8(fp)
 1200ca0:	e0bffe03 	ldbu	r2,-8(fp)
 1200ca4:	1009883a 	mov	r4,r2
 1200ca8:	12002880 	call	1200288 <alt_ucosii_check_return_code>
 1200cac:	003fff06 	br	1200cac <__alt_mem_instruction_tcm+0xff200cac>

01200cb0 <main>:
 1200cb0:	defffa04 	addi	sp,sp,-24
 1200cb4:	dfc00515 	stw	ra,20(sp)
 1200cb8:	df000415 	stw	fp,16(sp)
 1200cbc:	df000404 	addi	fp,sp,16
 1200cc0:	e13ffd15 	stw	r4,-12(fp)
 1200cc4:	e17ffe15 	stw	r5,-8(fp)
 1200cc8:	e1bfff15 	stw	r6,-4(fp)
 1200ccc:	e03ffc05 	stb	zero,-16(fp)
 1200cd0:	01004834 	movhi	r4,288
 1200cd4:	21031d04 	addi	r4,r4,3188
 1200cd8:	000b883a 	mov	r5,zero
 1200cdc:	018048b4 	movhi	r6,290
 1200ce0:	3188e604 	addi	r6,r6,9112
 1200ce4:	01c00184 	movi	r7,6
 1200ce8:	12146100 	call	1214610 <OSTaskCreate>
 1200cec:	e0bffc05 	stb	r2,-16(fp)
 1200cf0:	e0bffc03 	ldbu	r2,-16(fp)
 1200cf4:	1009883a 	mov	r4,r2
 1200cf8:	12002880 	call	1200288 <alt_ucosii_check_return_code>
 1200cfc:	120ee3c0 	call	120ee3c <OSStart>
 1200d00:	0005883a 	mov	r2,zero
 1200d04:	e037883a 	mov	sp,fp
 1200d08:	dfc00117 	ldw	ra,4(sp)
 1200d0c:	df000017 	ldw	fp,0(sp)
 1200d10:	dec00204 	addi	sp,sp,8
 1200d14:	f800283a 	ret

01200d18 <initOSDataStructs>:
 1200d18:	defffe04 	addi	sp,sp,-8
 1200d1c:	dfc00115 	stw	ra,4(sp)
 1200d20:	df000015 	stw	fp,0(sp)
 1200d24:	d839883a 	mov	fp,sp
 1200d28:	010048b4 	movhi	r4,290
 1200d2c:	2100c404 	addi	r4,r4,784
 1200d30:	01400784 	movi	r5,30
 1200d34:	12124f80 	call	12124f8 <OSQCreate>
 1200d38:	d0a03615 	stw	r2,-32552(gp)
 1200d3c:	01000044 	movi	r4,1
 1200d40:	12136780 	call	1213678 <OSSemCreate>
 1200d44:	d0a03715 	stw	r2,-32548(gp)
 1200d48:	0005883a 	mov	r2,zero
 1200d4c:	e037883a 	mov	sp,fp
 1200d50:	dfc00117 	ldw	ra,4(sp)
 1200d54:	df000017 	ldw	fp,0(sp)
 1200d58:	dec00204 	addi	sp,sp,8
 1200d5c:	f800283a 	ret

01200d60 <initCreateTasks>:
 1200d60:	defffd04 	addi	sp,sp,-12
 1200d64:	dfc00215 	stw	ra,8(sp)
 1200d68:	df000115 	stw	fp,4(sp)
 1200d6c:	df000104 	addi	fp,sp,4
 1200d70:	e03fff05 	stb	zero,-4(fp)
 1200d74:	01004834 	movhi	r4,288
 1200d78:	21024404 	addi	r4,r4,2320
 1200d7c:	000b883a 	mov	r5,zero
 1200d80:	018048b4 	movhi	r6,290
 1200d84:	31bcc304 	addi	r6,r6,-3316
 1200d88:	01c00204 	movi	r7,8
 1200d8c:	12146100 	call	1214610 <OSTaskCreate>
 1200d90:	e0bfff05 	stb	r2,-4(fp)
 1200d94:	01004834 	movhi	r4,288
 1200d98:	21028804 	addi	r4,r4,2592
 1200d9c:	000b883a 	mov	r5,zero
 1200da0:	018048b4 	movhi	r6,290
 1200da4:	3184e104 	addi	r6,r6,4996
 1200da8:	01c00244 	movi	r7,9
 1200dac:	12146100 	call	1214610 <OSTaskCreate>
 1200db0:	e0bfff05 	stb	r2,-4(fp)
 1200db4:	01004834 	movhi	r4,288
 1200db8:	2102e904 	addi	r4,r4,2980
 1200dbc:	000b883a 	mov	r5,zero
 1200dc0:	018048b4 	movhi	r6,290
 1200dc4:	3190e604 	addi	r6,r6,17304
 1200dc8:	01c00284 	movi	r7,10
 1200dcc:	12146100 	call	1214610 <OSTaskCreate>
 1200dd0:	e0bfff05 	stb	r2,-4(fp)
 1200dd4:	e0bfff03 	ldbu	r2,-4(fp)
 1200dd8:	1009883a 	mov	r4,r2
 1200ddc:	12002880 	call	1200288 <alt_ucosii_check_return_code>
 1200de0:	01004834 	movhi	r4,288
 1200de4:	21030304 	addi	r4,r4,3084
 1200de8:	000b883a 	mov	r5,zero
 1200dec:	018048b4 	movhi	r6,290
 1200df0:	318ce604 	addi	r6,r6,13208
 1200df4:	01c002c4 	movi	r7,11
 1200df8:	12146100 	call	1214610 <OSTaskCreate>
 1200dfc:	e0bfff05 	stb	r2,-4(fp)
 1200e00:	e0bfff03 	ldbu	r2,-4(fp)
 1200e04:	1009883a 	mov	r4,r2
 1200e08:	12002880 	call	1200288 <alt_ucosii_check_return_code>
 1200e0c:	01004834 	movhi	r4,288
 1200e10:	2102be04 	addi	r4,r4,2808
 1200e14:	000b883a 	mov	r5,zero
 1200e18:	018048b4 	movhi	r6,290
 1200e1c:	31b8c304 	addi	r6,r6,-7412
 1200e20:	01c00304 	movi	r7,12
 1200e24:	12146100 	call	1214610 <OSTaskCreate>
 1200e28:	e0bfff05 	stb	r2,-4(fp)
 1200e2c:	e0bfff03 	ldbu	r2,-4(fp)
 1200e30:	1009883a 	mov	r4,r2
 1200e34:	12002880 	call	1200288 <alt_ucosii_check_return_code>
 1200e38:	01004834 	movhi	r4,288
 1200e3c:	2101ee04 	addi	r4,r4,1976
 1200e40:	000b883a 	mov	r5,zero
 1200e44:	018048b4 	movhi	r6,290
 1200e48:	3180c304 	addi	r6,r6,780
 1200e4c:	01c001c4 	movi	r7,7
 1200e50:	12146100 	call	1214610 <OSTaskCreate>
 1200e54:	e0bfff05 	stb	r2,-4(fp)
 1200e58:	e0bfff03 	ldbu	r2,-4(fp)
 1200e5c:	1009883a 	mov	r4,r2
 1200e60:	12002880 	call	1200288 <alt_ucosii_check_return_code>
 1200e64:	0005883a 	mov	r2,zero
 1200e68:	e037883a 	mov	sp,fp
 1200e6c:	dfc00117 	ldw	ra,4(sp)
 1200e70:	df000017 	ldw	fp,0(sp)
 1200e74:	dec00204 	addi	sp,sp,8
 1200e78:	f800283a 	ret

01200e7c <exit>:
 1200e7c:	defffe04 	addi	sp,sp,-8
 1200e80:	000b883a 	mov	r5,zero
 1200e84:	dc000015 	stw	r16,0(sp)
 1200e88:	dfc00115 	stw	ra,4(sp)
 1200e8c:	2021883a 	mov	r16,r4
 1200e90:	12033480 	call	1203348 <__call_exitprocs>
 1200e94:	008048b4 	movhi	r2,290
 1200e98:	10b45b04 	addi	r2,r2,-11924
 1200e9c:	11000017 	ldw	r4,0(r2)
 1200ea0:	20800f17 	ldw	r2,60(r4)
 1200ea4:	10000126 	beq	r2,zero,1200eac <exit+0x30>
 1200ea8:	103ee83a 	callr	r2
 1200eac:	8009883a 	mov	r4,r16
 1200eb0:	120d7d40 	call	120d7d4 <_exit>

01200eb4 <_fprintf_r>:
 1200eb4:	defffe04 	addi	sp,sp,-8
 1200eb8:	2809883a 	mov	r4,r5
 1200ebc:	dfc00015 	stw	ra,0(sp)
 1200ec0:	d9c00115 	stw	r7,4(sp)
 1200ec4:	300b883a 	mov	r5,r6
 1200ec8:	d9800104 	addi	r6,sp,4
 1200ecc:	12031f40 	call	12031f4 <__vfprintf_internal>
 1200ed0:	dfc00017 	ldw	ra,0(sp)
 1200ed4:	dec00204 	addi	sp,sp,8
 1200ed8:	f800283a 	ret

01200edc <fprintf>:
 1200edc:	defffd04 	addi	sp,sp,-12
 1200ee0:	dfc00015 	stw	ra,0(sp)
 1200ee4:	d9800115 	stw	r6,4(sp)
 1200ee8:	d9c00215 	stw	r7,8(sp)
 1200eec:	d9800104 	addi	r6,sp,4
 1200ef0:	12031f40 	call	12031f4 <__vfprintf_internal>
 1200ef4:	dfc00017 	ldw	ra,0(sp)
 1200ef8:	dec00304 	addi	sp,sp,12
 1200efc:	f800283a 	ret

01200f00 <_fwrite_r>:
 1200f00:	defff504 	addi	sp,sp,-44
 1200f04:	dcc00815 	stw	r19,32(sp)
 1200f08:	39a7383a 	mul	r19,r7,r6
 1200f0c:	d8800304 	addi	r2,sp,12
 1200f10:	d8800015 	stw	r2,0(sp)
 1200f14:	00800044 	movi	r2,1
 1200f18:	dd000915 	stw	r20,36(sp)
 1200f1c:	dc800715 	stw	r18,28(sp)
 1200f20:	dc400615 	stw	r17,24(sp)
 1200f24:	d9400315 	stw	r5,12(sp)
 1200f28:	dfc00a15 	stw	ra,40(sp)
 1200f2c:	dcc00415 	stw	r19,16(sp)
 1200f30:	dcc00215 	stw	r19,8(sp)
 1200f34:	d8800115 	stw	r2,4(sp)
 1200f38:	3029883a 	mov	r20,r6
 1200f3c:	3823883a 	mov	r17,r7
 1200f40:	2025883a 	mov	r18,r4
 1200f44:	d9400b17 	ldw	r5,44(sp)
 1200f48:	20000226 	beq	r4,zero,1200f54 <_fwrite_r+0x54>
 1200f4c:	20800e17 	ldw	r2,56(r4)
 1200f50:	10001a26 	beq	r2,zero,1200fbc <_fwrite_r+0xbc>
 1200f54:	2880030b 	ldhu	r2,12(r5)
 1200f58:	10c8000c 	andi	r3,r2,8192
 1200f5c:	1800061e 	bne	r3,zero,1200f78 <_fwrite_r+0x78>
 1200f60:	29001917 	ldw	r4,100(r5)
 1200f64:	00f7ffc4 	movi	r3,-8193
 1200f68:	10880014 	ori	r2,r2,8192
 1200f6c:	20c6703a 	and	r3,r4,r3
 1200f70:	2880030d 	sth	r2,12(r5)
 1200f74:	28c01915 	stw	r3,100(r5)
 1200f78:	9009883a 	mov	r4,r18
 1200f7c:	d80d883a 	mov	r6,sp
 1200f80:	12058100 	call	1205810 <__sfvwrite_r>
 1200f84:	10000b26 	beq	r2,zero,1200fb4 <_fwrite_r+0xb4>
 1200f88:	d9000217 	ldw	r4,8(sp)
 1200f8c:	a00b883a 	mov	r5,r20
 1200f90:	9909c83a 	sub	r4,r19,r4
 1200f94:	120b0780 	call	120b078 <__udivsi3>
 1200f98:	dfc00a17 	ldw	ra,40(sp)
 1200f9c:	dd000917 	ldw	r20,36(sp)
 1200fa0:	dcc00817 	ldw	r19,32(sp)
 1200fa4:	dc800717 	ldw	r18,28(sp)
 1200fa8:	dc400617 	ldw	r17,24(sp)
 1200fac:	dec00b04 	addi	sp,sp,44
 1200fb0:	f800283a 	ret
 1200fb4:	8805883a 	mov	r2,r17
 1200fb8:	003ff706 	br	1200f98 <__alt_mem_instruction_tcm+0xff200f98>
 1200fbc:	d9400515 	stw	r5,20(sp)
 1200fc0:	12053ac0 	call	12053ac <__sinit>
 1200fc4:	d9400517 	ldw	r5,20(sp)
 1200fc8:	003fe206 	br	1200f54 <__alt_mem_instruction_tcm+0xff200f54>

01200fcc <fwrite>:
 1200fcc:	008048b4 	movhi	r2,290
 1200fd0:	10b45c04 	addi	r2,r2,-11920
 1200fd4:	2011883a 	mov	r8,r4
 1200fd8:	11000017 	ldw	r4,0(r2)
 1200fdc:	defffe04 	addi	sp,sp,-8
 1200fe0:	2807883a 	mov	r3,r5
 1200fe4:	3005883a 	mov	r2,r6
 1200fe8:	d9c00015 	stw	r7,0(sp)
 1200fec:	400b883a 	mov	r5,r8
 1200ff0:	180d883a 	mov	r6,r3
 1200ff4:	100f883a 	mov	r7,r2
 1200ff8:	dfc00115 	stw	ra,4(sp)
 1200ffc:	1200f000 	call	1200f00 <_fwrite_r>
 1201000:	dfc00117 	ldw	ra,4(sp)
 1201004:	dec00204 	addi	sp,sp,8
 1201008:	f800283a 	ret

0120100c <_printf_r>:
 120100c:	defffd04 	addi	sp,sp,-12
 1201010:	dfc00015 	stw	ra,0(sp)
 1201014:	d9800115 	stw	r6,4(sp)
 1201018:	d9c00215 	stw	r7,8(sp)
 120101c:	280d883a 	mov	r6,r5
 1201020:	21400217 	ldw	r5,8(r4)
 1201024:	d9c00104 	addi	r7,sp,4
 1201028:	12011f80 	call	12011f8 <___vfprintf_internal_r>
 120102c:	dfc00017 	ldw	ra,0(sp)
 1201030:	dec00304 	addi	sp,sp,12
 1201034:	f800283a 	ret

01201038 <printf>:
 1201038:	defffc04 	addi	sp,sp,-16
 120103c:	dfc00015 	stw	ra,0(sp)
 1201040:	d9400115 	stw	r5,4(sp)
 1201044:	d9800215 	stw	r6,8(sp)
 1201048:	d9c00315 	stw	r7,12(sp)
 120104c:	008048b4 	movhi	r2,290
 1201050:	10b45c04 	addi	r2,r2,-11920
 1201054:	10800017 	ldw	r2,0(r2)
 1201058:	200b883a 	mov	r5,r4
 120105c:	d9800104 	addi	r6,sp,4
 1201060:	11000217 	ldw	r4,8(r2)
 1201064:	12031f40 	call	12031f4 <__vfprintf_internal>
 1201068:	dfc00017 	ldw	ra,0(sp)
 120106c:	dec00404 	addi	sp,sp,16
 1201070:	f800283a 	ret

01201074 <_putchar_r>:
 1201074:	21800217 	ldw	r6,8(r4)
 1201078:	1207c901 	jmpi	1207c90 <_putc_r>

0120107c <putchar>:
 120107c:	008048b4 	movhi	r2,290
 1201080:	10b45c04 	addi	r2,r2,-11920
 1201084:	200b883a 	mov	r5,r4
 1201088:	11000017 	ldw	r4,0(r2)
 120108c:	21800217 	ldw	r6,8(r4)
 1201090:	1207c901 	jmpi	1207c90 <_putc_r>

01201094 <_puts_r>:
 1201094:	defff604 	addi	sp,sp,-40
 1201098:	dc000715 	stw	r16,28(sp)
 120109c:	2021883a 	mov	r16,r4
 12010a0:	2809883a 	mov	r4,r5
 12010a4:	dc400815 	stw	r17,32(sp)
 12010a8:	dfc00915 	stw	ra,36(sp)
 12010ac:	2823883a 	mov	r17,r5
 12010b0:	12011600 	call	1201160 <strlen>
 12010b4:	00c048b4 	movhi	r3,290
 12010b8:	18f45c04 	addi	r3,r3,-11920
 12010bc:	18c00017 	ldw	r3,0(r3)
 12010c0:	11000044 	addi	r4,r2,1
 12010c4:	d8800115 	stw	r2,4(sp)
 12010c8:	18c00217 	ldw	r3,8(r3)
 12010cc:	014048b4 	movhi	r5,290
 12010d0:	296c6b04 	addi	r5,r5,-20052
 12010d4:	1880030b 	ldhu	r2,12(r3)
 12010d8:	d9400215 	stw	r5,8(sp)
 12010dc:	d9000615 	stw	r4,24(sp)
 12010e0:	01400044 	movi	r5,1
 12010e4:	01000084 	movi	r4,2
 12010e8:	d9000515 	stw	r4,20(sp)
 12010ec:	dc400015 	stw	r17,0(sp)
 12010f0:	d9400315 	stw	r5,12(sp)
 12010f4:	dec00415 	stw	sp,16(sp)
 12010f8:	1108000c 	andi	r4,r2,8192
 12010fc:	2000061e 	bne	r4,zero,1201118 <_puts_r+0x84>
 1201100:	19401917 	ldw	r5,100(r3)
 1201104:	0137ffc4 	movi	r4,-8193
 1201108:	10880014 	ori	r2,r2,8192
 120110c:	2908703a 	and	r4,r5,r4
 1201110:	1880030d 	sth	r2,12(r3)
 1201114:	19001915 	stw	r4,100(r3)
 1201118:	81400217 	ldw	r5,8(r16)
 120111c:	8009883a 	mov	r4,r16
 1201120:	d9800404 	addi	r6,sp,16
 1201124:	12058100 	call	1205810 <__sfvwrite_r>
 1201128:	1000061e 	bne	r2,zero,1201144 <_puts_r+0xb0>
 120112c:	00800284 	movi	r2,10
 1201130:	dfc00917 	ldw	ra,36(sp)
 1201134:	dc400817 	ldw	r17,32(sp)
 1201138:	dc000717 	ldw	r16,28(sp)
 120113c:	dec00a04 	addi	sp,sp,40
 1201140:	f800283a 	ret
 1201144:	00bfffc4 	movi	r2,-1
 1201148:	003ff906 	br	1201130 <__alt_mem_instruction_tcm+0xff201130>

0120114c <puts>:
 120114c:	008048b4 	movhi	r2,290
 1201150:	10b45c04 	addi	r2,r2,-11920
 1201154:	200b883a 	mov	r5,r4
 1201158:	11000017 	ldw	r4,0(r2)
 120115c:	12010941 	jmpi	1201094 <_puts_r>

01201160 <strlen>:
 1201160:	208000cc 	andi	r2,r4,3
 1201164:	10002026 	beq	r2,zero,12011e8 <strlen+0x88>
 1201168:	20800007 	ldb	r2,0(r4)
 120116c:	10002026 	beq	r2,zero,12011f0 <strlen+0x90>
 1201170:	2005883a 	mov	r2,r4
 1201174:	00000206 	br	1201180 <strlen+0x20>
 1201178:	10c00007 	ldb	r3,0(r2)
 120117c:	18001826 	beq	r3,zero,12011e0 <strlen+0x80>
 1201180:	10800044 	addi	r2,r2,1
 1201184:	10c000cc 	andi	r3,r2,3
 1201188:	183ffb1e 	bne	r3,zero,1201178 <__alt_mem_instruction_tcm+0xff201178>
 120118c:	10c00017 	ldw	r3,0(r2)
 1201190:	01ffbff4 	movhi	r7,65279
 1201194:	39ffbfc4 	addi	r7,r7,-257
 1201198:	00ca303a 	nor	r5,zero,r3
 120119c:	01a02074 	movhi	r6,32897
 12011a0:	19c7883a 	add	r3,r3,r7
 12011a4:	31a02004 	addi	r6,r6,-32640
 12011a8:	1946703a 	and	r3,r3,r5
 12011ac:	1986703a 	and	r3,r3,r6
 12011b0:	1800091e 	bne	r3,zero,12011d8 <strlen+0x78>
 12011b4:	10800104 	addi	r2,r2,4
 12011b8:	10c00017 	ldw	r3,0(r2)
 12011bc:	19cb883a 	add	r5,r3,r7
 12011c0:	00c6303a 	nor	r3,zero,r3
 12011c4:	28c6703a 	and	r3,r5,r3
 12011c8:	1986703a 	and	r3,r3,r6
 12011cc:	183ff926 	beq	r3,zero,12011b4 <__alt_mem_instruction_tcm+0xff2011b4>
 12011d0:	00000106 	br	12011d8 <strlen+0x78>
 12011d4:	10800044 	addi	r2,r2,1
 12011d8:	10c00007 	ldb	r3,0(r2)
 12011dc:	183ffd1e 	bne	r3,zero,12011d4 <__alt_mem_instruction_tcm+0xff2011d4>
 12011e0:	1105c83a 	sub	r2,r2,r4
 12011e4:	f800283a 	ret
 12011e8:	2005883a 	mov	r2,r4
 12011ec:	003fe706 	br	120118c <__alt_mem_instruction_tcm+0xff20118c>
 12011f0:	0005883a 	mov	r2,zero
 12011f4:	f800283a 	ret

012011f8 <___vfprintf_internal_r>:
 12011f8:	defeb604 	addi	sp,sp,-1320
 12011fc:	dfc14915 	stw	ra,1316(sp)
 1201200:	ddc14715 	stw	r23,1308(sp)
 1201204:	dd814615 	stw	r22,1304(sp)
 1201208:	282f883a 	mov	r23,r5
 120120c:	202d883a 	mov	r22,r4
 1201210:	d9812a15 	stw	r6,1192(sp)
 1201214:	d9c12d15 	stw	r7,1204(sp)
 1201218:	df014815 	stw	fp,1312(sp)
 120121c:	dd414515 	stw	r21,1300(sp)
 1201220:	dd014415 	stw	r20,1296(sp)
 1201224:	dcc14315 	stw	r19,1292(sp)
 1201228:	dc814215 	stw	r18,1288(sp)
 120122c:	dc414115 	stw	r17,1284(sp)
 1201230:	dc014015 	stw	r16,1280(sp)
 1201234:	1205ed00 	call	1205ed0 <_localeconv_r>
 1201238:	10800017 	ldw	r2,0(r2)
 120123c:	1009883a 	mov	r4,r2
 1201240:	d8813515 	stw	r2,1236(sp)
 1201244:	12011600 	call	1201160 <strlen>
 1201248:	d8813815 	stw	r2,1248(sp)
 120124c:	b0000226 	beq	r22,zero,1201258 <___vfprintf_internal_r+0x60>
 1201250:	b0800e17 	ldw	r2,56(r22)
 1201254:	10010426 	beq	r2,zero,1201668 <___vfprintf_internal_r+0x470>
 1201258:	b8c0030b 	ldhu	r3,12(r23)
 120125c:	1908000c 	andi	r4,r3,8192
 1201260:	1805883a 	mov	r2,r3
 1201264:	2000071e 	bne	r4,zero,1201284 <___vfprintf_internal_r+0x8c>
 1201268:	b9001917 	ldw	r4,100(r23)
 120126c:	18880014 	ori	r2,r3,8192
 1201270:	00f7ffc4 	movi	r3,-8193
 1201274:	20c8703a 	and	r4,r4,r3
 1201278:	b880030d 	sth	r2,12(r23)
 120127c:	1007883a 	mov	r3,r2
 1201280:	b9001915 	stw	r4,100(r23)
 1201284:	1100020c 	andi	r4,r2,8
 1201288:	2000a726 	beq	r4,zero,1201528 <___vfprintf_internal_r+0x330>
 120128c:	b9000417 	ldw	r4,16(r23)
 1201290:	2000a526 	beq	r4,zero,1201528 <___vfprintf_internal_r+0x330>
 1201294:	1080068c 	andi	r2,r2,26
 1201298:	01000284 	movi	r4,10
 120129c:	1100ab26 	beq	r2,r4,120154c <___vfprintf_internal_r+0x354>
 12012a0:	dac10e04 	addi	r11,sp,1080
 12012a4:	db010dc4 	addi	r12,sp,1079
 12012a8:	d8800404 	addi	r2,sp,16
 12012ac:	050048b4 	movhi	r20,290
 12012b0:	dac12815 	stw	r11,1184(sp)
 12012b4:	5b17c83a 	sub	r11,r11,r12
 12012b8:	a52c7c84 	addi	r20,r20,-19982
 12012bc:	db012915 	stw	r12,1188(sp)
 12012c0:	d8811e15 	stw	r2,1144(sp)
 12012c4:	d8012015 	stw	zero,1152(sp)
 12012c8:	d8011f15 	stw	zero,1148(sp)
 12012cc:	d8013315 	stw	zero,1228(sp)
 12012d0:	d8013715 	stw	zero,1244(sp)
 12012d4:	d8013915 	stw	zero,1252(sp)
 12012d8:	d8013b15 	stw	zero,1260(sp)
 12012dc:	d8013a15 	stw	zero,1256(sp)
 12012e0:	d8012f15 	stw	zero,1212(sp)
 12012e4:	1011883a 	mov	r8,r2
 12012e8:	dac13c15 	stw	r11,1264(sp)
 12012ec:	db012a17 	ldw	r12,1192(sp)
 12012f0:	60800007 	ldb	r2,0(r12)
 12012f4:	1000df26 	beq	r2,zero,1201674 <___vfprintf_internal_r+0x47c>
 12012f8:	00c00944 	movi	r3,37
 12012fc:	10c0dd26 	beq	r2,r3,1201674 <___vfprintf_internal_r+0x47c>
 1201300:	6021883a 	mov	r16,r12
 1201304:	00000106 	br	120130c <___vfprintf_internal_r+0x114>
 1201308:	10c08426 	beq	r2,r3,120151c <___vfprintf_internal_r+0x324>
 120130c:	84000044 	addi	r16,r16,1
 1201310:	80800007 	ldb	r2,0(r16)
 1201314:	103ffc1e 	bne	r2,zero,1201308 <__alt_mem_instruction_tcm+0xff201308>
 1201318:	dac12a17 	ldw	r11,1192(sp)
 120131c:	82e3c83a 	sub	r17,r16,r11
 1201320:	88000f26 	beq	r17,zero,1201360 <___vfprintf_internal_r+0x168>
 1201324:	d8c12017 	ldw	r3,1152(sp)
 1201328:	d8811f17 	ldw	r2,1148(sp)
 120132c:	dac12a17 	ldw	r11,1192(sp)
 1201330:	1c47883a 	add	r3,r3,r17
 1201334:	10800044 	addi	r2,r2,1
 1201338:	d8c12015 	stw	r3,1152(sp)
 120133c:	42c00015 	stw	r11,0(r8)
 1201340:	44400115 	stw	r17,4(r8)
 1201344:	d8811f15 	stw	r2,1148(sp)
 1201348:	00c001c4 	movi	r3,7
 120134c:	1880b416 	blt	r3,r2,1201620 <___vfprintf_internal_r+0x428>
 1201350:	42000204 	addi	r8,r8,8
 1201354:	db012f17 	ldw	r12,1212(sp)
 1201358:	6459883a 	add	r12,r12,r17
 120135c:	db012f15 	stw	r12,1212(sp)
 1201360:	80800007 	ldb	r2,0(r16)
 1201364:	1000b526 	beq	r2,zero,120163c <___vfprintf_internal_r+0x444>
 1201368:	80800044 	addi	r2,r16,1
 120136c:	84000047 	ldb	r16,1(r16)
 1201370:	d8012785 	stb	zero,1182(sp)
 1201374:	000d883a 	mov	r6,zero
 1201378:	027fffc4 	movi	r9,-1
 120137c:	d8012e15 	stw	zero,1208(sp)
 1201380:	0023883a 	mov	r17,zero
 1201384:	01001604 	movi	r4,88
 1201388:	01400244 	movi	r5,9
 120138c:	02800a84 	movi	r10,42
 1201390:	01c01b04 	movi	r7,108
 1201394:	10c00044 	addi	r3,r2,1
 1201398:	80bff804 	addi	r2,r16,-32
 120139c:	2082f236 	bltu	r4,r2,1201f68 <___vfprintf_internal_r+0xd70>
 12013a0:	100490ba 	slli	r2,r2,2
 12013a4:	02c04834 	movhi	r11,288
 12013a8:	5ac4ee04 	addi	r11,r11,5048
 12013ac:	12c5883a 	add	r2,r2,r11
 12013b0:	10800017 	ldw	r2,0(r2)
 12013b4:	1000683a 	jmp	r2
 12013b8:	01201db0 	cmpltui	r4,zero,32886
 12013bc:	01201f68 	cmpgeui	r4,zero,32893
 12013c0:	01201f68 	cmpgeui	r4,zero,32893
 12013c4:	01201dd0 	cmplti	r4,zero,-32649
 12013c8:	01201f68 	cmpgeui	r4,zero,32893
 12013cc:	01201f68 	cmpgeui	r4,zero,32893
 12013d0:	01201f68 	cmpgeui	r4,zero,32893
 12013d4:	01201f68 	cmpgeui	r4,zero,32893
 12013d8:	01201f68 	cmpgeui	r4,zero,32893
 12013dc:	01201f68 	cmpgeui	r4,zero,32893
 12013e0:	01201f2c 	andhi	r4,zero,32892
 12013e4:	01201f58 	cmpnei	r4,zero,-32643
 12013e8:	01201f68 	cmpgeui	r4,zero,32893
 12013ec:	0120167c 	xorhi	r4,zero,32857
 12013f0:	0120168c 	andi	r4,zero,32858
 12013f4:	01201f68 	cmpgeui	r4,zero,32893
 12013f8:	012016cc 	andi	r4,zero,32859
 12013fc:	01201bc0 	call	1201bc <OSCtxSw_SWITCH_PC+0x12017c>
 1201400:	01201bc0 	call	1201bc <OSCtxSw_SWITCH_PC+0x12017c>
 1201404:	01201bc0 	call	1201bc <OSCtxSw_SWITCH_PC+0x12017c>
 1201408:	01201bc0 	call	1201bc <OSCtxSw_SWITCH_PC+0x12017c>
 120140c:	01201bc0 	call	1201bc <OSCtxSw_SWITCH_PC+0x12017c>
 1201410:	01201bc0 	call	1201bc <OSCtxSw_SWITCH_PC+0x12017c>
 1201414:	01201bc0 	call	1201bc <OSCtxSw_SWITCH_PC+0x12017c>
 1201418:	01201bc0 	call	1201bc <OSCtxSw_SWITCH_PC+0x12017c>
 120141c:	01201bc0 	call	1201bc <OSCtxSw_SWITCH_PC+0x12017c>
 1201420:	01201f68 	cmpgeui	r4,zero,32893
 1201424:	01201f68 	cmpgeui	r4,zero,32893
 1201428:	01201f68 	cmpgeui	r4,zero,32893
 120142c:	01201f68 	cmpgeui	r4,zero,32893
 1201430:	01201f68 	cmpgeui	r4,zero,32893
 1201434:	01201f68 	cmpgeui	r4,zero,32893
 1201438:	01201f68 	cmpgeui	r4,zero,32893
 120143c:	01201f68 	cmpgeui	r4,zero,32893
 1201440:	01201f68 	cmpgeui	r4,zero,32893
 1201444:	01201f68 	cmpgeui	r4,zero,32893
 1201448:	01201bf4 	movhi	r4,32879
 120144c:	012016dc 	xori	r4,zero,32859
 1201450:	01201f68 	cmpgeui	r4,zero,32893
 1201454:	012016dc 	xori	r4,zero,32859
 1201458:	01201f68 	cmpgeui	r4,zero,32893
 120145c:	01201f68 	cmpgeui	r4,zero,32893
 1201460:	01201f68 	cmpgeui	r4,zero,32893
 1201464:	01201f68 	cmpgeui	r4,zero,32893
 1201468:	01201780 	call	120178 <OSCtxSw_SWITCH_PC+0x120138>
 120146c:	01201f68 	cmpgeui	r4,zero,32893
 1201470:	01201f68 	cmpgeui	r4,zero,32893
 1201474:	01201790 	cmplti	r4,zero,-32674
 1201478:	01201f68 	cmpgeui	r4,zero,32893
 120147c:	01201f68 	cmpgeui	r4,zero,32893
 1201480:	01201f68 	cmpgeui	r4,zero,32893
 1201484:	01201f68 	cmpgeui	r4,zero,32893
 1201488:	01201f68 	cmpgeui	r4,zero,32893
 120148c:	01201b8c 	andi	r4,zero,32878
 1201490:	01201f68 	cmpgeui	r4,zero,32893
 1201494:	01201f68 	cmpgeui	r4,zero,32893
 1201498:	01201c3c 	xorhi	r4,zero,32880
 120149c:	01201f68 	cmpgeui	r4,zero,32893
 12014a0:	01201f68 	cmpgeui	r4,zero,32893
 12014a4:	01201f68 	cmpgeui	r4,zero,32893
 12014a8:	01201f68 	cmpgeui	r4,zero,32893
 12014ac:	01201f68 	cmpgeui	r4,zero,32893
 12014b0:	01201f68 	cmpgeui	r4,zero,32893
 12014b4:	01201f68 	cmpgeui	r4,zero,32893
 12014b8:	01201f68 	cmpgeui	r4,zero,32893
 12014bc:	01201f68 	cmpgeui	r4,zero,32893
 12014c0:	01201f68 	cmpgeui	r4,zero,32893
 12014c4:	01201e30 	cmpltui	r4,zero,32888
 12014c8:	01201de0 	cmpeqi	r4,zero,-32649
 12014cc:	012016dc 	xori	r4,zero,32859
 12014d0:	012016dc 	xori	r4,zero,32859
 12014d4:	012016dc 	xori	r4,zero,32859
 12014d8:	01201e20 	cmpeqi	r4,zero,-32648
 12014dc:	01201de0 	cmpeqi	r4,zero,-32649
 12014e0:	01201f68 	cmpgeui	r4,zero,32893
 12014e4:	01201f68 	cmpgeui	r4,zero,32893
 12014e8:	01201d28 	cmpgeui	r4,zero,32884
 12014ec:	01201f68 	cmpgeui	r4,zero,32893
 12014f0:	01201d3c 	xorhi	r4,zero,32884
 12014f4:	01201d70 	cmpltui	r4,zero,32885
 12014f8:	01201e70 	cmpltui	r4,zero,32889
 12014fc:	01201c98 	cmpnei	r4,zero,-32654
 1201500:	01201f68 	cmpgeui	r4,zero,32893
 1201504:	01201eb8 	rdprs	r4,zero,-32646
 1201508:	01201f68 	cmpgeui	r4,zero,32893
 120150c:	01201ca8 	cmpgeui	r4,zero,32882
 1201510:	01201f68 	cmpgeui	r4,zero,32893
 1201514:	01201f68 	cmpgeui	r4,zero,32893
 1201518:	01201ce8 	cmpgeui	r4,zero,32883
 120151c:	db012a17 	ldw	r12,1192(sp)
 1201520:	8323c83a 	sub	r17,r16,r12
 1201524:	003f7e06 	br	1201320 <__alt_mem_instruction_tcm+0xff201320>
 1201528:	b009883a 	mov	r4,r22
 120152c:	b80b883a 	mov	r5,r23
 1201530:	12032180 	call	1203218 <__swsetup_r>
 1201534:	10002d1e 	bne	r2,zero,12015ec <___vfprintf_internal_r+0x3f4>
 1201538:	b8c0030b 	ldhu	r3,12(r23)
 120153c:	01000284 	movi	r4,10
 1201540:	1805883a 	mov	r2,r3
 1201544:	1080068c 	andi	r2,r2,26
 1201548:	113f551e 	bne	r2,r4,12012a0 <__alt_mem_instruction_tcm+0xff2012a0>
 120154c:	b880038b 	ldhu	r2,14(r23)
 1201550:	113fffcc 	andi	r4,r2,65535
 1201554:	2120001c 	xori	r4,r4,32768
 1201558:	21200004 	addi	r4,r4,-32768
 120155c:	203f5016 	blt	r4,zero,12012a0 <__alt_mem_instruction_tcm+0xff2012a0>
 1201560:	bac01917 	ldw	r11,100(r23)
 1201564:	ba800717 	ldw	r10,28(r23)
 1201568:	ba400917 	ldw	r9,36(r23)
 120156c:	d9812a17 	ldw	r6,1192(sp)
 1201570:	d9c12d17 	ldw	r7,1204(sp)
 1201574:	02010004 	movi	r8,1024
 1201578:	18ffff4c 	andi	r3,r3,65533
 120157c:	d881078d 	sth	r2,1054(sp)
 1201580:	b009883a 	mov	r4,r22
 1201584:	d8800404 	addi	r2,sp,16
 1201588:	d9410404 	addi	r5,sp,1040
 120158c:	d8c1070d 	sth	r3,1052(sp)
 1201590:	dac11d15 	stw	r11,1140(sp)
 1201594:	da810b15 	stw	r10,1068(sp)
 1201598:	da410d15 	stw	r9,1076(sp)
 120159c:	d8810415 	stw	r2,1040(sp)
 12015a0:	d8810815 	stw	r2,1056(sp)
 12015a4:	da010615 	stw	r8,1048(sp)
 12015a8:	da010915 	stw	r8,1060(sp)
 12015ac:	d8010a15 	stw	zero,1064(sp)
 12015b0:	12011f80 	call	12011f8 <___vfprintf_internal_r>
 12015b4:	1021883a 	mov	r16,r2
 12015b8:	10000416 	blt	r2,zero,12015cc <___vfprintf_internal_r+0x3d4>
 12015bc:	b009883a 	mov	r4,r22
 12015c0:	d9410404 	addi	r5,sp,1040
 12015c4:	1204e040 	call	1204e04 <_fflush_r>
 12015c8:	1006ee1e 	bne	r2,zero,1203184 <___vfprintf_internal_r+0x1f8c>
 12015cc:	d881070b 	ldhu	r2,1052(sp)
 12015d0:	1080100c 	andi	r2,r2,64
 12015d4:	10000326 	beq	r2,zero,12015e4 <___vfprintf_internal_r+0x3ec>
 12015d8:	b880030b 	ldhu	r2,12(r23)
 12015dc:	10801014 	ori	r2,r2,64
 12015e0:	b880030d 	sth	r2,12(r23)
 12015e4:	8005883a 	mov	r2,r16
 12015e8:	00000106 	br	12015f0 <___vfprintf_internal_r+0x3f8>
 12015ec:	00bfffc4 	movi	r2,-1
 12015f0:	dfc14917 	ldw	ra,1316(sp)
 12015f4:	df014817 	ldw	fp,1312(sp)
 12015f8:	ddc14717 	ldw	r23,1308(sp)
 12015fc:	dd814617 	ldw	r22,1304(sp)
 1201600:	dd414517 	ldw	r21,1300(sp)
 1201604:	dd014417 	ldw	r20,1296(sp)
 1201608:	dcc14317 	ldw	r19,1292(sp)
 120160c:	dc814217 	ldw	r18,1288(sp)
 1201610:	dc414117 	ldw	r17,1284(sp)
 1201614:	dc014017 	ldw	r16,1280(sp)
 1201618:	dec14a04 	addi	sp,sp,1320
 120161c:	f800283a 	ret
 1201620:	b009883a 	mov	r4,r22
 1201624:	b80b883a 	mov	r5,r23
 1201628:	d9811e04 	addi	r6,sp,1144
 120162c:	120873c0 	call	120873c <__sprint_r>
 1201630:	1000081e 	bne	r2,zero,1201654 <___vfprintf_internal_r+0x45c>
 1201634:	da000404 	addi	r8,sp,16
 1201638:	003f4606 	br	1201354 <__alt_mem_instruction_tcm+0xff201354>
 120163c:	d8812017 	ldw	r2,1152(sp)
 1201640:	10000426 	beq	r2,zero,1201654 <___vfprintf_internal_r+0x45c>
 1201644:	b009883a 	mov	r4,r22
 1201648:	b80b883a 	mov	r5,r23
 120164c:	d9811e04 	addi	r6,sp,1144
 1201650:	120873c0 	call	120873c <__sprint_r>
 1201654:	b880030b 	ldhu	r2,12(r23)
 1201658:	1080100c 	andi	r2,r2,64
 120165c:	103fe31e 	bne	r2,zero,12015ec <__alt_mem_instruction_tcm+0xff2015ec>
 1201660:	d8812f17 	ldw	r2,1212(sp)
 1201664:	003fe206 	br	12015f0 <__alt_mem_instruction_tcm+0xff2015f0>
 1201668:	b009883a 	mov	r4,r22
 120166c:	12053ac0 	call	12053ac <__sinit>
 1201670:	003ef906 	br	1201258 <__alt_mem_instruction_tcm+0xff201258>
 1201674:	dc012a17 	ldw	r16,1192(sp)
 1201678:	003f3906 	br	1201360 <__alt_mem_instruction_tcm+0xff201360>
 120167c:	1805883a 	mov	r2,r3
 1201680:	8c400114 	ori	r17,r17,4
 1201684:	1c000007 	ldb	r16,0(r3)
 1201688:	003f4206 	br	1201394 <__alt_mem_instruction_tcm+0xff201394>
 120168c:	1c000007 	ldb	r16,0(r3)
 1201690:	18800044 	addi	r2,r3,1
 1201694:	8286b326 	beq	r16,r10,1203164 <___vfprintf_internal_r+0x1f6c>
 1201698:	82fff404 	addi	r11,r16,-48
 120169c:	1007883a 	mov	r3,r2
 12016a0:	0013883a 	mov	r9,zero
 12016a4:	2aff3c36 	bltu	r5,r11,1201398 <__alt_mem_instruction_tcm+0xff201398>
 12016a8:	1c000007 	ldb	r16,0(r3)
 12016ac:	4a4002a4 	muli	r9,r9,10
 12016b0:	18c00044 	addi	r3,r3,1
 12016b4:	5a53883a 	add	r9,r11,r9
 12016b8:	82fff404 	addi	r11,r16,-48
 12016bc:	2afffa2e 	bgeu	r5,r11,12016a8 <__alt_mem_instruction_tcm+0xff2016a8>
 12016c0:	483f350e 	bge	r9,zero,1201398 <__alt_mem_instruction_tcm+0xff201398>
 12016c4:	027fffc4 	movi	r9,-1
 12016c8:	003f3306 	br	1201398 <__alt_mem_instruction_tcm+0xff201398>
 12016cc:	8c402014 	ori	r17,r17,128
 12016d0:	1805883a 	mov	r2,r3
 12016d4:	1c000007 	ldb	r16,0(r3)
 12016d8:	003f2e06 	br	1201394 <__alt_mem_instruction_tcm+0xff201394>
 12016dc:	db012d17 	ldw	r12,1204(sp)
 12016e0:	dac12d17 	ldw	r11,1204(sp)
 12016e4:	d8c12a15 	stw	r3,1192(sp)
 12016e8:	63000017 	ldw	r12,0(r12)
 12016ec:	5ac00117 	ldw	r11,4(r11)
 12016f0:	d9812785 	stb	r6,1182(sp)
 12016f4:	6009883a 	mov	r4,r12
 12016f8:	580b883a 	mov	r5,r11
 12016fc:	db013715 	stw	r12,1244(sp)
 1201700:	da013f15 	stw	r8,1276(sp)
 1201704:	da413e15 	stw	r9,1272(sp)
 1201708:	dac13915 	stw	r11,1252(sp)
 120170c:	12083980 	call	1208398 <__fpclassifyd>
 1201710:	db012d17 	ldw	r12,1204(sp)
 1201714:	04800044 	movi	r18,1
 1201718:	da013f17 	ldw	r8,1276(sp)
 120171c:	64c00204 	addi	r19,r12,8
 1201720:	da413e17 	ldw	r9,1272(sp)
 1201724:	d9013717 	ldw	r4,1244(sp)
 1201728:	d9413917 	ldw	r5,1252(sp)
 120172c:	1484581e 	bne	r2,r18,1202890 <___vfprintf_internal_r+0x1698>
 1201730:	000d883a 	mov	r6,zero
 1201734:	000f883a 	mov	r7,zero
 1201738:	120c3540 	call	120c354 <__ledf2>
 120173c:	da013f17 	ldw	r8,1276(sp)
 1201740:	1005ef16 	blt	r2,zero,1202f00 <___vfprintf_internal_r+0x1d08>
 1201744:	dd412783 	ldbu	r21,1182(sp)
 1201748:	008011c4 	movi	r2,71
 120174c:	14053b0e 	bge	r2,r16,1202c3c <___vfprintf_internal_r+0x1a44>
 1201750:	00c048b4 	movhi	r3,290
 1201754:	18ec6d04 	addi	r3,r3,-20044
 1201758:	d8c13115 	stw	r3,1220(sp)
 120175c:	02c000c4 	movi	r11,3
 1201760:	00bfdfc4 	movi	r2,-129
 1201764:	dac12b15 	stw	r11,1196(sp)
 1201768:	88a2703a 	and	r17,r17,r2
 120176c:	dcc12d15 	stw	r19,1204(sp)
 1201770:	5825883a 	mov	r18,r11
 1201774:	d8013215 	stw	zero,1224(sp)
 1201778:	d8013415 	stw	zero,1232(sp)
 120177c:	00003206 	br	1201848 <___vfprintf_internal_r+0x650>
 1201780:	8c400214 	ori	r17,r17,8
 1201784:	1805883a 	mov	r2,r3
 1201788:	1c000007 	ldb	r16,0(r3)
 120178c:	003f0106 	br	1201394 <__alt_mem_instruction_tcm+0xff201394>
 1201790:	8c400414 	ori	r17,r17,16
 1201794:	d8c12a15 	stw	r3,1192(sp)
 1201798:	88c0080c 	andi	r3,r17,32
 120179c:	d8812d17 	ldw	r2,1204(sp)
 12017a0:	18017726 	beq	r3,zero,1201d80 <___vfprintf_internal_r+0xb88>
 12017a4:	db012d17 	ldw	r12,1204(sp)
 12017a8:	14c00017 	ldw	r19,0(r2)
 12017ac:	17000117 	ldw	fp,4(r2)
 12017b0:	63000204 	addi	r12,r12,8
 12017b4:	db012d15 	stw	r12,1204(sp)
 12017b8:	0005883a 	mov	r2,zero
 12017bc:	9f06b03a 	or	r3,r19,fp
 12017c0:	d8012785 	stb	zero,1182(sp)
 12017c4:	da413215 	stw	r9,1224(sp)
 12017c8:	002b883a 	mov	r21,zero
 12017cc:	48000216 	blt	r9,zero,12017d8 <___vfprintf_internal_r+0x5e0>
 12017d0:	013fdfc4 	movi	r4,-129
 12017d4:	8922703a 	and	r17,r17,r4
 12017d8:	1801ed1e 	bne	r3,zero,1201f90 <___vfprintf_internal_r+0xd98>
 12017dc:	4802e026 	beq	r9,zero,1202360 <___vfprintf_internal_r+0x1168>
 12017e0:	10803fcc 	andi	r2,r2,255
 12017e4:	00c00044 	movi	r3,1
 12017e8:	10c20f26 	beq	r2,r3,1202028 <___vfprintf_internal_r+0xe30>
 12017ec:	00c00084 	movi	r3,2
 12017f0:	10c2fd26 	beq	r2,r3,12023e8 <___vfprintf_internal_r+0x11f0>
 12017f4:	d8c10e04 	addi	r3,sp,1080
 12017f8:	9808d0fa 	srli	r4,r19,3
 12017fc:	e00a977a 	slli	r5,fp,29
 1201800:	e038d0fa 	srli	fp,fp,3
 1201804:	9cc001cc 	andi	r19,r19,7
 1201808:	98800c04 	addi	r2,r19,48
 120180c:	18ffffc4 	addi	r3,r3,-1
 1201810:	2926b03a 	or	r19,r5,r4
 1201814:	18800005 	stb	r2,0(r3)
 1201818:	9f08b03a 	or	r4,r19,fp
 120181c:	203ff61e 	bne	r4,zero,12017f8 <__alt_mem_instruction_tcm+0xff2017f8>
 1201820:	8900004c 	andi	r4,r17,1
 1201824:	d8c13115 	stw	r3,1220(sp)
 1201828:	2003791e 	bne	r4,zero,1202610 <___vfprintf_internal_r+0x1418>
 120182c:	dac12817 	ldw	r11,1184(sp)
 1201830:	58e5c83a 	sub	r18,r11,r3
 1201834:	9005883a 	mov	r2,r18
 1201838:	9240010e 	bge	r18,r9,1201840 <___vfprintf_internal_r+0x648>
 120183c:	4805883a 	mov	r2,r9
 1201840:	d8812b15 	stw	r2,1196(sp)
 1201844:	d8013415 	stw	zero,1232(sp)
 1201848:	a8803fcc 	andi	r2,r21,255
 120184c:	1080201c 	xori	r2,r2,128
 1201850:	10bfe004 	addi	r2,r2,-128
 1201854:	10000326 	beq	r2,zero,1201864 <___vfprintf_internal_r+0x66c>
 1201858:	db012b17 	ldw	r12,1196(sp)
 120185c:	63000044 	addi	r12,r12,1
 1201860:	db012b15 	stw	r12,1196(sp)
 1201864:	88c0008c 	andi	r3,r17,2
 1201868:	d8c12c15 	stw	r3,1200(sp)
 120186c:	18000326 	beq	r3,zero,120187c <___vfprintf_internal_r+0x684>
 1201870:	dac12b17 	ldw	r11,1196(sp)
 1201874:	5ac00084 	addi	r11,r11,2
 1201878:	dac12b15 	stw	r11,1196(sp)
 120187c:	8b00210c 	andi	r12,r17,132
 1201880:	db013015 	stw	r12,1216(sp)
 1201884:	6001c01e 	bne	r12,zero,1201f88 <___vfprintf_internal_r+0xd90>
 1201888:	dac12e17 	ldw	r11,1208(sp)
 120188c:	db012b17 	ldw	r12,1196(sp)
 1201890:	5b39c83a 	sub	fp,r11,r12
 1201894:	0701bc0e 	bge	zero,fp,1201f88 <___vfprintf_internal_r+0xd90>
 1201898:	02400404 	movi	r9,16
 120189c:	d8c12017 	ldw	r3,1152(sp)
 12018a0:	d8811f17 	ldw	r2,1148(sp)
 12018a4:	4f05220e 	bge	r9,fp,1202d30 <___vfprintf_internal_r+0x1b38>
 12018a8:	014048b4 	movhi	r5,290
 12018ac:	296c8084 	addi	r5,r5,-19966
 12018b0:	d9413615 	stw	r5,1240(sp)
 12018b4:	482b883a 	mov	r21,r9
 12018b8:	04c001c4 	movi	r19,7
 12018bc:	00000306 	br	12018cc <___vfprintf_internal_r+0x6d4>
 12018c0:	e73ffc04 	addi	fp,fp,-16
 12018c4:	42000204 	addi	r8,r8,8
 12018c8:	af00130e 	bge	r21,fp,1201918 <___vfprintf_internal_r+0x720>
 12018cc:	02c048b4 	movhi	r11,290
 12018d0:	18c00404 	addi	r3,r3,16
 12018d4:	10800044 	addi	r2,r2,1
 12018d8:	5aec8084 	addi	r11,r11,-19966
 12018dc:	42c00015 	stw	r11,0(r8)
 12018e0:	45400115 	stw	r21,4(r8)
 12018e4:	d8c12015 	stw	r3,1152(sp)
 12018e8:	d8811f15 	stw	r2,1148(sp)
 12018ec:	98bff40e 	bge	r19,r2,12018c0 <__alt_mem_instruction_tcm+0xff2018c0>
 12018f0:	b009883a 	mov	r4,r22
 12018f4:	b80b883a 	mov	r5,r23
 12018f8:	d9811e04 	addi	r6,sp,1144
 12018fc:	120873c0 	call	120873c <__sprint_r>
 1201900:	103f541e 	bne	r2,zero,1201654 <__alt_mem_instruction_tcm+0xff201654>
 1201904:	e73ffc04 	addi	fp,fp,-16
 1201908:	d8c12017 	ldw	r3,1152(sp)
 120190c:	d8811f17 	ldw	r2,1148(sp)
 1201910:	da000404 	addi	r8,sp,16
 1201914:	af3fed16 	blt	r21,fp,12018cc <__alt_mem_instruction_tcm+0xff2018cc>
 1201918:	db013617 	ldw	r12,1240(sp)
 120191c:	e0c7883a 	add	r3,fp,r3
 1201920:	10800044 	addi	r2,r2,1
 1201924:	43000015 	stw	r12,0(r8)
 1201928:	47000115 	stw	fp,4(r8)
 120192c:	d8c12015 	stw	r3,1152(sp)
 1201930:	d8811f15 	stw	r2,1148(sp)
 1201934:	010001c4 	movi	r4,7
 1201938:	2082f416 	blt	r4,r2,120250c <___vfprintf_internal_r+0x1314>
 120193c:	d8812787 	ldb	r2,1182(sp)
 1201940:	42000204 	addi	r8,r8,8
 1201944:	10000c26 	beq	r2,zero,1201978 <___vfprintf_internal_r+0x780>
 1201948:	d8811f17 	ldw	r2,1148(sp)
 120194c:	d9012784 	addi	r4,sp,1182
 1201950:	18c00044 	addi	r3,r3,1
 1201954:	10800044 	addi	r2,r2,1
 1201958:	41000015 	stw	r4,0(r8)
 120195c:	01000044 	movi	r4,1
 1201960:	41000115 	stw	r4,4(r8)
 1201964:	d8c12015 	stw	r3,1152(sp)
 1201968:	d8811f15 	stw	r2,1148(sp)
 120196c:	010001c4 	movi	r4,7
 1201970:	20828d16 	blt	r4,r2,12023a8 <___vfprintf_internal_r+0x11b0>
 1201974:	42000204 	addi	r8,r8,8
 1201978:	dac12c17 	ldw	r11,1200(sp)
 120197c:	58000c26 	beq	r11,zero,12019b0 <___vfprintf_internal_r+0x7b8>
 1201980:	d8811f17 	ldw	r2,1148(sp)
 1201984:	d9012704 	addi	r4,sp,1180
 1201988:	18c00084 	addi	r3,r3,2
 120198c:	10800044 	addi	r2,r2,1
 1201990:	41000015 	stw	r4,0(r8)
 1201994:	01000084 	movi	r4,2
 1201998:	41000115 	stw	r4,4(r8)
 120199c:	d8c12015 	stw	r3,1152(sp)
 12019a0:	d8811f15 	stw	r2,1148(sp)
 12019a4:	010001c4 	movi	r4,7
 12019a8:	20828716 	blt	r4,r2,12023c8 <___vfprintf_internal_r+0x11d0>
 12019ac:	42000204 	addi	r8,r8,8
 12019b0:	db013017 	ldw	r12,1216(sp)
 12019b4:	00802004 	movi	r2,128
 12019b8:	6081e926 	beq	r12,r2,1202160 <___vfprintf_internal_r+0xf68>
 12019bc:	db013217 	ldw	r12,1224(sp)
 12019c0:	64abc83a 	sub	r21,r12,r18
 12019c4:	0540260e 	bge	zero,r21,1201a60 <___vfprintf_internal_r+0x868>
 12019c8:	07000404 	movi	fp,16
 12019cc:	d8811f17 	ldw	r2,1148(sp)
 12019d0:	e5443d0e 	bge	fp,r21,1202ac8 <___vfprintf_internal_r+0x18d0>
 12019d4:	014048b4 	movhi	r5,290
 12019d8:	296c7c84 	addi	r5,r5,-19982
 12019dc:	d9412c15 	stw	r5,1200(sp)
 12019e0:	04c001c4 	movi	r19,7
 12019e4:	00000306 	br	12019f4 <___vfprintf_internal_r+0x7fc>
 12019e8:	ad7ffc04 	addi	r21,r21,-16
 12019ec:	42000204 	addi	r8,r8,8
 12019f0:	e540110e 	bge	fp,r21,1201a38 <___vfprintf_internal_r+0x840>
 12019f4:	18c00404 	addi	r3,r3,16
 12019f8:	10800044 	addi	r2,r2,1
 12019fc:	45000015 	stw	r20,0(r8)
 1201a00:	47000115 	stw	fp,4(r8)
 1201a04:	d8c12015 	stw	r3,1152(sp)
 1201a08:	d8811f15 	stw	r2,1148(sp)
 1201a0c:	98bff60e 	bge	r19,r2,12019e8 <__alt_mem_instruction_tcm+0xff2019e8>
 1201a10:	b009883a 	mov	r4,r22
 1201a14:	b80b883a 	mov	r5,r23
 1201a18:	d9811e04 	addi	r6,sp,1144
 1201a1c:	120873c0 	call	120873c <__sprint_r>
 1201a20:	103f0c1e 	bne	r2,zero,1201654 <__alt_mem_instruction_tcm+0xff201654>
 1201a24:	ad7ffc04 	addi	r21,r21,-16
 1201a28:	d8c12017 	ldw	r3,1152(sp)
 1201a2c:	d8811f17 	ldw	r2,1148(sp)
 1201a30:	da000404 	addi	r8,sp,16
 1201a34:	e57fef16 	blt	fp,r21,12019f4 <__alt_mem_instruction_tcm+0xff2019f4>
 1201a38:	dac12c17 	ldw	r11,1200(sp)
 1201a3c:	1d47883a 	add	r3,r3,r21
 1201a40:	10800044 	addi	r2,r2,1
 1201a44:	42c00015 	stw	r11,0(r8)
 1201a48:	45400115 	stw	r21,4(r8)
 1201a4c:	d8c12015 	stw	r3,1152(sp)
 1201a50:	d8811f15 	stw	r2,1148(sp)
 1201a54:	010001c4 	movi	r4,7
 1201a58:	20824b16 	blt	r4,r2,1202388 <___vfprintf_internal_r+0x1190>
 1201a5c:	42000204 	addi	r8,r8,8
 1201a60:	8880400c 	andi	r2,r17,256
 1201a64:	1001761e 	bne	r2,zero,1202040 <___vfprintf_internal_r+0xe48>
 1201a68:	d8811f17 	ldw	r2,1148(sp)
 1201a6c:	db013117 	ldw	r12,1220(sp)
 1201a70:	1c87883a 	add	r3,r3,r18
 1201a74:	10800044 	addi	r2,r2,1
 1201a78:	43000015 	stw	r12,0(r8)
 1201a7c:	44800115 	stw	r18,4(r8)
 1201a80:	d8c12015 	stw	r3,1152(sp)
 1201a84:	d8811f15 	stw	r2,1148(sp)
 1201a88:	010001c4 	movi	r4,7
 1201a8c:	20822616 	blt	r4,r2,1202328 <___vfprintf_internal_r+0x1130>
 1201a90:	42000204 	addi	r8,r8,8
 1201a94:	8c40010c 	andi	r17,r17,4
 1201a98:	88003126 	beq	r17,zero,1201b60 <___vfprintf_internal_r+0x968>
 1201a9c:	db012e17 	ldw	r12,1208(sp)
 1201aa0:	dac12b17 	ldw	r11,1196(sp)
 1201aa4:	62e1c83a 	sub	r16,r12,r11
 1201aa8:	04002d0e 	bge	zero,r16,1201b60 <___vfprintf_internal_r+0x968>
 1201aac:	04400404 	movi	r17,16
 1201ab0:	d8811f17 	ldw	r2,1148(sp)
 1201ab4:	8c04df0e 	bge	r17,r16,1202e34 <___vfprintf_internal_r+0x1c3c>
 1201ab8:	010048b4 	movhi	r4,290
 1201abc:	212c8084 	addi	r4,r4,-19966
 1201ac0:	d9013615 	stw	r4,1240(sp)
 1201ac4:	048001c4 	movi	r18,7
 1201ac8:	00000306 	br	1201ad8 <___vfprintf_internal_r+0x8e0>
 1201acc:	843ffc04 	addi	r16,r16,-16
 1201ad0:	42000204 	addi	r8,r8,8
 1201ad4:	8c00130e 	bge	r17,r16,1201b24 <___vfprintf_internal_r+0x92c>
 1201ad8:	014048b4 	movhi	r5,290
 1201adc:	18c00404 	addi	r3,r3,16
 1201ae0:	10800044 	addi	r2,r2,1
 1201ae4:	296c8084 	addi	r5,r5,-19966
 1201ae8:	41400015 	stw	r5,0(r8)
 1201aec:	44400115 	stw	r17,4(r8)
 1201af0:	d8c12015 	stw	r3,1152(sp)
 1201af4:	d8811f15 	stw	r2,1148(sp)
 1201af8:	90bff40e 	bge	r18,r2,1201acc <__alt_mem_instruction_tcm+0xff201acc>
 1201afc:	b009883a 	mov	r4,r22
 1201b00:	b80b883a 	mov	r5,r23
 1201b04:	d9811e04 	addi	r6,sp,1144
 1201b08:	120873c0 	call	120873c <__sprint_r>
 1201b0c:	103ed11e 	bne	r2,zero,1201654 <__alt_mem_instruction_tcm+0xff201654>
 1201b10:	843ffc04 	addi	r16,r16,-16
 1201b14:	d8c12017 	ldw	r3,1152(sp)
 1201b18:	d8811f17 	ldw	r2,1148(sp)
 1201b1c:	da000404 	addi	r8,sp,16
 1201b20:	8c3fed16 	blt	r17,r16,1201ad8 <__alt_mem_instruction_tcm+0xff201ad8>
 1201b24:	dac13617 	ldw	r11,1240(sp)
 1201b28:	1c07883a 	add	r3,r3,r16
 1201b2c:	10800044 	addi	r2,r2,1
 1201b30:	42c00015 	stw	r11,0(r8)
 1201b34:	44000115 	stw	r16,4(r8)
 1201b38:	d8c12015 	stw	r3,1152(sp)
 1201b3c:	d8811f15 	stw	r2,1148(sp)
 1201b40:	010001c4 	movi	r4,7
 1201b44:	2080060e 	bge	r4,r2,1201b60 <___vfprintf_internal_r+0x968>
 1201b48:	b009883a 	mov	r4,r22
 1201b4c:	b80b883a 	mov	r5,r23
 1201b50:	d9811e04 	addi	r6,sp,1144
 1201b54:	120873c0 	call	120873c <__sprint_r>
 1201b58:	103ebe1e 	bne	r2,zero,1201654 <__alt_mem_instruction_tcm+0xff201654>
 1201b5c:	d8c12017 	ldw	r3,1152(sp)
 1201b60:	d8812b17 	ldw	r2,1196(sp)
 1201b64:	db012e17 	ldw	r12,1208(sp)
 1201b68:	1300010e 	bge	r2,r12,1201b70 <___vfprintf_internal_r+0x978>
 1201b6c:	6005883a 	mov	r2,r12
 1201b70:	dac12f17 	ldw	r11,1212(sp)
 1201b74:	5897883a 	add	r11,r11,r2
 1201b78:	dac12f15 	stw	r11,1212(sp)
 1201b7c:	1801f21e 	bne	r3,zero,1202348 <___vfprintf_internal_r+0x1150>
 1201b80:	d8011f15 	stw	zero,1148(sp)
 1201b84:	da000404 	addi	r8,sp,16
 1201b88:	003dd806 	br	12012ec <__alt_mem_instruction_tcm+0xff2012ec>
 1201b8c:	8c400414 	ori	r17,r17,16
 1201b90:	d8c12a15 	stw	r3,1192(sp)
 1201b94:	88c0080c 	andi	r3,r17,32
 1201b98:	d8812d17 	ldw	r2,1204(sp)
 1201b9c:	18004626 	beq	r3,zero,1201cb8 <___vfprintf_internal_r+0xac0>
 1201ba0:	dac12d17 	ldw	r11,1204(sp)
 1201ba4:	14c00017 	ldw	r19,0(r2)
 1201ba8:	17000117 	ldw	fp,4(r2)
 1201bac:	5ac00204 	addi	r11,r11,8
 1201bb0:	dac12d15 	stw	r11,1204(sp)
 1201bb4:	00800044 	movi	r2,1
 1201bb8:	9f06b03a 	or	r3,r19,fp
 1201bbc:	003f0006 	br	12017c0 <__alt_mem_instruction_tcm+0xff2017c0>
 1201bc0:	1805883a 	mov	r2,r3
 1201bc4:	d8012e15 	stw	zero,1208(sp)
 1201bc8:	82fff404 	addi	r11,r16,-48
 1201bcc:	0019883a 	mov	r12,zero
 1201bd0:	14000007 	ldb	r16,0(r2)
 1201bd4:	630002a4 	muli	r12,r12,10
 1201bd8:	18c00044 	addi	r3,r3,1
 1201bdc:	1805883a 	mov	r2,r3
 1201be0:	62d9883a 	add	r12,r12,r11
 1201be4:	82fff404 	addi	r11,r16,-48
 1201be8:	2afff92e 	bgeu	r5,r11,1201bd0 <__alt_mem_instruction_tcm+0xff201bd0>
 1201bec:	db012e15 	stw	r12,1208(sp)
 1201bf0:	003de906 	br	1201398 <__alt_mem_instruction_tcm+0xff201398>
 1201bf4:	8c400414 	ori	r17,r17,16
 1201bf8:	d8c12a15 	stw	r3,1192(sp)
 1201bfc:	d9812785 	stb	r6,1182(sp)
 1201c00:	8880080c 	andi	r2,r17,32
 1201c04:	d8c12d17 	ldw	r3,1204(sp)
 1201c08:	10007a26 	beq	r2,zero,1201df4 <___vfprintf_internal_r+0xbfc>
 1201c0c:	db012d17 	ldw	r12,1204(sp)
 1201c10:	18800117 	ldw	r2,4(r3)
 1201c14:	1cc00017 	ldw	r19,0(r3)
 1201c18:	63000204 	addi	r12,r12,8
 1201c1c:	db012d15 	stw	r12,1204(sp)
 1201c20:	1039883a 	mov	fp,r2
 1201c24:	10031016 	blt	r2,zero,1202868 <___vfprintf_internal_r+0x1670>
 1201c28:	dd412783 	ldbu	r21,1182(sp)
 1201c2c:	da413215 	stw	r9,1224(sp)
 1201c30:	00800044 	movi	r2,1
 1201c34:	9f06b03a 	or	r3,r19,fp
 1201c38:	003ee406 	br	12017cc <__alt_mem_instruction_tcm+0xff2017cc>
 1201c3c:	030048b4 	movhi	r12,290
 1201c40:	632c7004 	addi	r12,r12,-20032
 1201c44:	d8c12a15 	stw	r3,1192(sp)
 1201c48:	d9812785 	stb	r6,1182(sp)
 1201c4c:	db013b15 	stw	r12,1260(sp)
 1201c50:	88c0080c 	andi	r3,r17,32
 1201c54:	d8812d17 	ldw	r2,1204(sp)
 1201c58:	18002b26 	beq	r3,zero,1201d08 <___vfprintf_internal_r+0xb10>
 1201c5c:	dac12d17 	ldw	r11,1204(sp)
 1201c60:	14c00017 	ldw	r19,0(r2)
 1201c64:	17000117 	ldw	fp,4(r2)
 1201c68:	5ac00204 	addi	r11,r11,8
 1201c6c:	dac12d15 	stw	r11,1204(sp)
 1201c70:	8880004c 	andi	r2,r17,1
 1201c74:	10025b26 	beq	r2,zero,12025e4 <___vfprintf_internal_r+0x13ec>
 1201c78:	9f06b03a 	or	r3,r19,fp
 1201c7c:	18037026 	beq	r3,zero,1202a40 <___vfprintf_internal_r+0x1848>
 1201c80:	00800c04 	movi	r2,48
 1201c84:	d8812705 	stb	r2,1180(sp)
 1201c88:	dc012745 	stb	r16,1181(sp)
 1201c8c:	8c400094 	ori	r17,r17,2
 1201c90:	00800084 	movi	r2,2
 1201c94:	003eca06 	br	12017c0 <__alt_mem_instruction_tcm+0xff2017c0>
 1201c98:	8c400814 	ori	r17,r17,32
 1201c9c:	1805883a 	mov	r2,r3
 1201ca0:	1c000007 	ldb	r16,0(r3)
 1201ca4:	003dbb06 	br	1201394 <__alt_mem_instruction_tcm+0xff201394>
 1201ca8:	d8c12a15 	stw	r3,1192(sp)
 1201cac:	88c0080c 	andi	r3,r17,32
 1201cb0:	d8812d17 	ldw	r2,1204(sp)
 1201cb4:	183fba1e 	bne	r3,zero,1201ba0 <__alt_mem_instruction_tcm+0xff201ba0>
 1201cb8:	88c0040c 	andi	r3,r17,16
 1201cbc:	18024c1e 	bne	r3,zero,12025f0 <___vfprintf_internal_r+0x13f8>
 1201cc0:	88c0100c 	andi	r3,r17,64
 1201cc4:	18024a26 	beq	r3,zero,12025f0 <___vfprintf_internal_r+0x13f8>
 1201cc8:	dac12d17 	ldw	r11,1204(sp)
 1201ccc:	14c0000b 	ldhu	r19,0(r2)
 1201cd0:	0039883a 	mov	fp,zero
 1201cd4:	5ac00104 	addi	r11,r11,4
 1201cd8:	dac12d15 	stw	r11,1204(sp)
 1201cdc:	00800044 	movi	r2,1
 1201ce0:	9807883a 	mov	r3,r19
 1201ce4:	003eb606 	br	12017c0 <__alt_mem_instruction_tcm+0xff2017c0>
 1201ce8:	008048b4 	movhi	r2,290
 1201cec:	10ac7504 	addi	r2,r2,-20012
 1201cf0:	d8c12a15 	stw	r3,1192(sp)
 1201cf4:	d8813b15 	stw	r2,1260(sp)
 1201cf8:	d9812785 	stb	r6,1182(sp)
 1201cfc:	88c0080c 	andi	r3,r17,32
 1201d00:	d8812d17 	ldw	r2,1204(sp)
 1201d04:	183fd51e 	bne	r3,zero,1201c5c <__alt_mem_instruction_tcm+0xff201c5c>
 1201d08:	88c0040c 	andi	r3,r17,16
 1201d0c:	18034126 	beq	r3,zero,1202a14 <___vfprintf_internal_r+0x181c>
 1201d10:	db012d17 	ldw	r12,1204(sp)
 1201d14:	14c00017 	ldw	r19,0(r2)
 1201d18:	0039883a 	mov	fp,zero
 1201d1c:	63000104 	addi	r12,r12,4
 1201d20:	db012d15 	stw	r12,1204(sp)
 1201d24:	003fd206 	br	1201c70 <__alt_mem_instruction_tcm+0xff201c70>
 1201d28:	1c000007 	ldb	r16,0(r3)
 1201d2c:	81c3d626 	beq	r16,r7,1202c88 <___vfprintf_internal_r+0x1a90>
 1201d30:	8c400414 	ori	r17,r17,16
 1201d34:	1805883a 	mov	r2,r3
 1201d38:	003d9606 	br	1201394 <__alt_mem_instruction_tcm+0xff201394>
 1201d3c:	d8c12a15 	stw	r3,1192(sp)
 1201d40:	d9812785 	stb	r6,1182(sp)
 1201d44:	8880080c 	andi	r2,r17,32
 1201d48:	10033f26 	beq	r2,zero,1202a48 <___vfprintf_internal_r+0x1850>
 1201d4c:	db012d17 	ldw	r12,1204(sp)
 1201d50:	dac12f17 	ldw	r11,1212(sp)
 1201d54:	60800017 	ldw	r2,0(r12)
 1201d58:	5807d7fa 	srai	r3,r11,31
 1201d5c:	63000104 	addi	r12,r12,4
 1201d60:	db012d15 	stw	r12,1204(sp)
 1201d64:	12c00015 	stw	r11,0(r2)
 1201d68:	10c00115 	stw	r3,4(r2)
 1201d6c:	003d5f06 	br	12012ec <__alt_mem_instruction_tcm+0xff2012ec>
 1201d70:	d8c12a15 	stw	r3,1192(sp)
 1201d74:	88c0080c 	andi	r3,r17,32
 1201d78:	d8812d17 	ldw	r2,1204(sp)
 1201d7c:	183e891e 	bne	r3,zero,12017a4 <__alt_mem_instruction_tcm+0xff2017a4>
 1201d80:	88c0040c 	andi	r3,r17,16
 1201d84:	1801ea1e 	bne	r3,zero,1202530 <___vfprintf_internal_r+0x1338>
 1201d88:	88c0100c 	andi	r3,r17,64
 1201d8c:	1801e826 	beq	r3,zero,1202530 <___vfprintf_internal_r+0x1338>
 1201d90:	db012d17 	ldw	r12,1204(sp)
 1201d94:	14c0000b 	ldhu	r19,0(r2)
 1201d98:	0039883a 	mov	fp,zero
 1201d9c:	63000104 	addi	r12,r12,4
 1201da0:	db012d15 	stw	r12,1204(sp)
 1201da4:	0005883a 	mov	r2,zero
 1201da8:	9807883a 	mov	r3,r19
 1201dac:	003e8406 	br	12017c0 <__alt_mem_instruction_tcm+0xff2017c0>
 1201db0:	30803fcc 	andi	r2,r6,255
 1201db4:	1080201c 	xori	r2,r2,128
 1201db8:	10bfe004 	addi	r2,r2,-128
 1201dbc:	10031d1e 	bne	r2,zero,1202a34 <___vfprintf_internal_r+0x183c>
 1201dc0:	1805883a 	mov	r2,r3
 1201dc4:	01800804 	movi	r6,32
 1201dc8:	1c000007 	ldb	r16,0(r3)
 1201dcc:	003d7106 	br	1201394 <__alt_mem_instruction_tcm+0xff201394>
 1201dd0:	8c400054 	ori	r17,r17,1
 1201dd4:	1805883a 	mov	r2,r3
 1201dd8:	1c000007 	ldb	r16,0(r3)
 1201ddc:	003d6d06 	br	1201394 <__alt_mem_instruction_tcm+0xff201394>
 1201de0:	d8c12a15 	stw	r3,1192(sp)
 1201de4:	d9812785 	stb	r6,1182(sp)
 1201de8:	8880080c 	andi	r2,r17,32
 1201dec:	d8c12d17 	ldw	r3,1204(sp)
 1201df0:	103f861e 	bne	r2,zero,1201c0c <__alt_mem_instruction_tcm+0xff201c0c>
 1201df4:	8880040c 	andi	r2,r17,16
 1201df8:	1001f31e 	bne	r2,zero,12025c8 <___vfprintf_internal_r+0x13d0>
 1201dfc:	8880100c 	andi	r2,r17,64
 1201e00:	1001f126 	beq	r2,zero,12025c8 <___vfprintf_internal_r+0x13d0>
 1201e04:	1cc0000f 	ldh	r19,0(r3)
 1201e08:	db012d17 	ldw	r12,1204(sp)
 1201e0c:	9839d7fa 	srai	fp,r19,31
 1201e10:	63000104 	addi	r12,r12,4
 1201e14:	db012d15 	stw	r12,1204(sp)
 1201e18:	e005883a 	mov	r2,fp
 1201e1c:	003f8106 	br	1201c24 <__alt_mem_instruction_tcm+0xff201c24>
 1201e20:	8c401014 	ori	r17,r17,64
 1201e24:	1805883a 	mov	r2,r3
 1201e28:	1c000007 	ldb	r16,0(r3)
 1201e2c:	003d5906 	br	1201394 <__alt_mem_instruction_tcm+0xff201394>
 1201e30:	db012d17 	ldw	r12,1204(sp)
 1201e34:	d8c12a15 	stw	r3,1192(sp)
 1201e38:	00c00044 	movi	r3,1
 1201e3c:	60800017 	ldw	r2,0(r12)
 1201e40:	63000104 	addi	r12,r12,4
 1201e44:	d8c12b15 	stw	r3,1196(sp)
 1201e48:	d8012785 	stb	zero,1182(sp)
 1201e4c:	d8810405 	stb	r2,1040(sp)
 1201e50:	db012d15 	stw	r12,1204(sp)
 1201e54:	dac10404 	addi	r11,sp,1040
 1201e58:	1825883a 	mov	r18,r3
 1201e5c:	d8013215 	stw	zero,1224(sp)
 1201e60:	d8013415 	stw	zero,1232(sp)
 1201e64:	dac13115 	stw	r11,1220(sp)
 1201e68:	0005883a 	mov	r2,zero
 1201e6c:	003e7d06 	br	1201864 <__alt_mem_instruction_tcm+0xff201864>
 1201e70:	db012d17 	ldw	r12,1204(sp)
 1201e74:	00800c04 	movi	r2,48
 1201e78:	d8812705 	stb	r2,1180(sp)
 1201e7c:	64c00017 	ldw	r19,0(r12)
 1201e80:	00801e04 	movi	r2,120
 1201e84:	d8812745 	stb	r2,1181(sp)
 1201e88:	008048b4 	movhi	r2,290
 1201e8c:	10ac7504 	addi	r2,r2,-20012
 1201e90:	63000104 	addi	r12,r12,4
 1201e94:	d8c12a15 	stw	r3,1192(sp)
 1201e98:	d8813b15 	stw	r2,1260(sp)
 1201e9c:	0039883a 	mov	fp,zero
 1201ea0:	8c400094 	ori	r17,r17,2
 1201ea4:	db012d15 	stw	r12,1204(sp)
 1201ea8:	00800084 	movi	r2,2
 1201eac:	04001e04 	movi	r16,120
 1201eb0:	9807883a 	mov	r3,r19
 1201eb4:	003e4206 	br	12017c0 <__alt_mem_instruction_tcm+0xff2017c0>
 1201eb8:	dac12d17 	ldw	r11,1204(sp)
 1201ebc:	db012d17 	ldw	r12,1204(sp)
 1201ec0:	d8c12a15 	stw	r3,1192(sp)
 1201ec4:	5ac00017 	ldw	r11,0(r11)
 1201ec8:	d8012785 	stb	zero,1182(sp)
 1201ecc:	64c00104 	addi	r19,r12,4
 1201ed0:	dac13115 	stw	r11,1220(sp)
 1201ed4:	5803e826 	beq	r11,zero,1202e78 <___vfprintf_internal_r+0x1c80>
 1201ed8:	d9013117 	ldw	r4,1220(sp)
 1201edc:	48037a16 	blt	r9,zero,1202cc8 <___vfprintf_internal_r+0x1ad0>
 1201ee0:	480d883a 	mov	r6,r9
 1201ee4:	000b883a 	mov	r5,zero
 1201ee8:	da013f15 	stw	r8,1276(sp)
 1201eec:	da413e15 	stw	r9,1272(sp)
 1201ef0:	12068640 	call	1206864 <memchr>
 1201ef4:	da013f17 	ldw	r8,1276(sp)
 1201ef8:	da413e17 	ldw	r9,1272(sp)
 1201efc:	10044426 	beq	r2,zero,1203010 <___vfprintf_internal_r+0x1e18>
 1201f00:	d8c13117 	ldw	r3,1220(sp)
 1201f04:	10e5c83a 	sub	r18,r2,r3
 1201f08:	4c834416 	blt	r9,r18,1202c1c <___vfprintf_internal_r+0x1a24>
 1201f0c:	9005883a 	mov	r2,r18
 1201f10:	90037216 	blt	r18,zero,1202cdc <___vfprintf_internal_r+0x1ae4>
 1201f14:	dd412783 	ldbu	r21,1182(sp)
 1201f18:	d8812b15 	stw	r2,1196(sp)
 1201f1c:	dcc12d15 	stw	r19,1204(sp)
 1201f20:	d8013215 	stw	zero,1224(sp)
 1201f24:	d8013415 	stw	zero,1232(sp)
 1201f28:	003e4706 	br	1201848 <__alt_mem_instruction_tcm+0xff201848>
 1201f2c:	dac12d17 	ldw	r11,1204(sp)
 1201f30:	db012d17 	ldw	r12,1204(sp)
 1201f34:	5ac00017 	ldw	r11,0(r11)
 1201f38:	dac12e15 	stw	r11,1208(sp)
 1201f3c:	62c00104 	addi	r11,r12,4
 1201f40:	db012e17 	ldw	r12,1208(sp)
 1201f44:	60034a16 	blt	r12,zero,1202c70 <___vfprintf_internal_r+0x1a78>
 1201f48:	dac12d15 	stw	r11,1204(sp)
 1201f4c:	1805883a 	mov	r2,r3
 1201f50:	1c000007 	ldb	r16,0(r3)
 1201f54:	003d0f06 	br	1201394 <__alt_mem_instruction_tcm+0xff201394>
 1201f58:	1805883a 	mov	r2,r3
 1201f5c:	01800ac4 	movi	r6,43
 1201f60:	1c000007 	ldb	r16,0(r3)
 1201f64:	003d0b06 	br	1201394 <__alt_mem_instruction_tcm+0xff201394>
 1201f68:	d8c12a15 	stw	r3,1192(sp)
 1201f6c:	d9812785 	stb	r6,1182(sp)
 1201f70:	803db226 	beq	r16,zero,120163c <__alt_mem_instruction_tcm+0xff20163c>
 1201f74:	00c00044 	movi	r3,1
 1201f78:	d8c12b15 	stw	r3,1196(sp)
 1201f7c:	dc010405 	stb	r16,1040(sp)
 1201f80:	d8012785 	stb	zero,1182(sp)
 1201f84:	003fb306 	br	1201e54 <__alt_mem_instruction_tcm+0xff201e54>
 1201f88:	d8c12017 	ldw	r3,1152(sp)
 1201f8c:	003e6d06 	br	1201944 <__alt_mem_instruction_tcm+0xff201944>
 1201f90:	10803fcc 	andi	r2,r2,255
 1201f94:	00c00044 	movi	r3,1
 1201f98:	10fe141e 	bne	r2,r3,12017ec <__alt_mem_instruction_tcm+0xff2017ec>
 1201f9c:	e000021e 	bne	fp,zero,1201fa8 <___vfprintf_internal_r+0xdb0>
 1201fa0:	00800244 	movi	r2,9
 1201fa4:	14c0202e 	bgeu	r2,r19,1202028 <___vfprintf_internal_r+0xe30>
 1201fa8:	dc012b15 	stw	r16,1196(sp)
 1201fac:	dc412c15 	stw	r17,1200(sp)
 1201fb0:	9821883a 	mov	r16,r19
 1201fb4:	e023883a 	mov	r17,fp
 1201fb8:	dc810e04 	addi	r18,sp,1080
 1201fbc:	4027883a 	mov	r19,r8
 1201fc0:	4839883a 	mov	fp,r9
 1201fc4:	8009883a 	mov	r4,r16
 1201fc8:	880b883a 	mov	r5,r17
 1201fcc:	01800284 	movi	r6,10
 1201fd0:	000f883a 	mov	r7,zero
 1201fd4:	120a9cc0 	call	120a9cc <__umoddi3>
 1201fd8:	10800c04 	addi	r2,r2,48
 1201fdc:	94bfffc4 	addi	r18,r18,-1
 1201fe0:	8009883a 	mov	r4,r16
 1201fe4:	880b883a 	mov	r5,r17
 1201fe8:	01800284 	movi	r6,10
 1201fec:	000f883a 	mov	r7,zero
 1201ff0:	90800005 	stb	r2,0(r18)
 1201ff4:	120a40c0 	call	120a40c <__udivdi3>
 1201ff8:	1021883a 	mov	r16,r2
 1201ffc:	10c4b03a 	or	r2,r2,r3
 1202000:	1823883a 	mov	r17,r3
 1202004:	103fef1e 	bne	r2,zero,1201fc4 <__alt_mem_instruction_tcm+0xff201fc4>
 1202008:	dac12817 	ldw	r11,1184(sp)
 120200c:	dc813115 	stw	r18,1220(sp)
 1202010:	dc012b17 	ldw	r16,1196(sp)
 1202014:	9811883a 	mov	r8,r19
 1202018:	dc412c17 	ldw	r17,1200(sp)
 120201c:	e013883a 	mov	r9,fp
 1202020:	5ca5c83a 	sub	r18,r11,r18
 1202024:	003e0306 	br	1201834 <__alt_mem_instruction_tcm+0xff201834>
 1202028:	9cc00c04 	addi	r19,r19,48
 120202c:	d8c10dc4 	addi	r3,sp,1079
 1202030:	dcc10dc5 	stb	r19,1079(sp)
 1202034:	dc813c17 	ldw	r18,1264(sp)
 1202038:	d8c13115 	stw	r3,1220(sp)
 120203c:	003dfd06 	br	1201834 <__alt_mem_instruction_tcm+0xff201834>
 1202040:	00801944 	movi	r2,101
 1202044:	1400710e 	bge	r2,r16,120220c <___vfprintf_internal_r+0x1014>
 1202048:	d9013717 	ldw	r4,1244(sp)
 120204c:	d9413917 	ldw	r5,1252(sp)
 1202050:	000d883a 	mov	r6,zero
 1202054:	000f883a 	mov	r7,zero
 1202058:	d8c13d15 	stw	r3,1268(sp)
 120205c:	da013f15 	stw	r8,1276(sp)
 1202060:	120c1f00 	call	120c1f0 <__eqdf2>
 1202064:	d8c13d17 	ldw	r3,1268(sp)
 1202068:	da013f17 	ldw	r8,1276(sp)
 120206c:	1000ef1e 	bne	r2,zero,120242c <___vfprintf_internal_r+0x1234>
 1202070:	d8811f17 	ldw	r2,1148(sp)
 1202074:	010048b4 	movhi	r4,290
 1202078:	212c7c04 	addi	r4,r4,-19984
 120207c:	18c00044 	addi	r3,r3,1
 1202080:	10800044 	addi	r2,r2,1
 1202084:	41000015 	stw	r4,0(r8)
 1202088:	01000044 	movi	r4,1
 120208c:	41000115 	stw	r4,4(r8)
 1202090:	d8c12015 	stw	r3,1152(sp)
 1202094:	d8811f15 	stw	r2,1148(sp)
 1202098:	010001c4 	movi	r4,7
 120209c:	20828e16 	blt	r4,r2,1202ad8 <___vfprintf_internal_r+0x18e0>
 12020a0:	42000204 	addi	r8,r8,8
 12020a4:	d8812617 	ldw	r2,1176(sp)
 12020a8:	dac13317 	ldw	r11,1228(sp)
 12020ac:	12c00216 	blt	r2,r11,12020b8 <___vfprintf_internal_r+0xec0>
 12020b0:	8880004c 	andi	r2,r17,1
 12020b4:	103e7726 	beq	r2,zero,1201a94 <__alt_mem_instruction_tcm+0xff201a94>
 12020b8:	db013817 	ldw	r12,1248(sp)
 12020bc:	d8811f17 	ldw	r2,1148(sp)
 12020c0:	dac13517 	ldw	r11,1236(sp)
 12020c4:	1b07883a 	add	r3,r3,r12
 12020c8:	10800044 	addi	r2,r2,1
 12020cc:	42c00015 	stw	r11,0(r8)
 12020d0:	43000115 	stw	r12,4(r8)
 12020d4:	d8c12015 	stw	r3,1152(sp)
 12020d8:	d8811f15 	stw	r2,1148(sp)
 12020dc:	010001c4 	movi	r4,7
 12020e0:	2082ed16 	blt	r4,r2,1202c98 <___vfprintf_internal_r+0x1aa0>
 12020e4:	42000204 	addi	r8,r8,8
 12020e8:	db013317 	ldw	r12,1228(sp)
 12020ec:	643fffc4 	addi	r16,r12,-1
 12020f0:	043e680e 	bge	zero,r16,1201a94 <__alt_mem_instruction_tcm+0xff201a94>
 12020f4:	04800404 	movi	r18,16
 12020f8:	d8811f17 	ldw	r2,1148(sp)
 12020fc:	94007e0e 	bge	r18,r16,12022f8 <___vfprintf_internal_r+0x1100>
 1202100:	014048b4 	movhi	r5,290
 1202104:	296c7c84 	addi	r5,r5,-19982
 1202108:	d9412c15 	stw	r5,1200(sp)
 120210c:	054001c4 	movi	r21,7
 1202110:	00000306 	br	1202120 <___vfprintf_internal_r+0xf28>
 1202114:	42000204 	addi	r8,r8,8
 1202118:	843ffc04 	addi	r16,r16,-16
 120211c:	9400790e 	bge	r18,r16,1202304 <___vfprintf_internal_r+0x110c>
 1202120:	18c00404 	addi	r3,r3,16
 1202124:	10800044 	addi	r2,r2,1
 1202128:	45000015 	stw	r20,0(r8)
 120212c:	44800115 	stw	r18,4(r8)
 1202130:	d8c12015 	stw	r3,1152(sp)
 1202134:	d8811f15 	stw	r2,1148(sp)
 1202138:	a8bff60e 	bge	r21,r2,1202114 <__alt_mem_instruction_tcm+0xff202114>
 120213c:	b009883a 	mov	r4,r22
 1202140:	b80b883a 	mov	r5,r23
 1202144:	d9811e04 	addi	r6,sp,1144
 1202148:	120873c0 	call	120873c <__sprint_r>
 120214c:	103d411e 	bne	r2,zero,1201654 <__alt_mem_instruction_tcm+0xff201654>
 1202150:	d8c12017 	ldw	r3,1152(sp)
 1202154:	d8811f17 	ldw	r2,1148(sp)
 1202158:	da000404 	addi	r8,sp,16
 120215c:	003fee06 	br	1202118 <__alt_mem_instruction_tcm+0xff202118>
 1202160:	dac12e17 	ldw	r11,1208(sp)
 1202164:	db012b17 	ldw	r12,1196(sp)
 1202168:	5b2bc83a 	sub	r21,r11,r12
 120216c:	057e130e 	bge	zero,r21,12019bc <__alt_mem_instruction_tcm+0xff2019bc>
 1202170:	07000404 	movi	fp,16
 1202174:	d8811f17 	ldw	r2,1148(sp)
 1202178:	e543640e 	bge	fp,r21,1202f0c <___vfprintf_internal_r+0x1d14>
 120217c:	014048b4 	movhi	r5,290
 1202180:	296c7c84 	addi	r5,r5,-19982
 1202184:	d9412c15 	stw	r5,1200(sp)
 1202188:	04c001c4 	movi	r19,7
 120218c:	00000306 	br	120219c <___vfprintf_internal_r+0xfa4>
 1202190:	ad7ffc04 	addi	r21,r21,-16
 1202194:	42000204 	addi	r8,r8,8
 1202198:	e540110e 	bge	fp,r21,12021e0 <___vfprintf_internal_r+0xfe8>
 120219c:	18c00404 	addi	r3,r3,16
 12021a0:	10800044 	addi	r2,r2,1
 12021a4:	45000015 	stw	r20,0(r8)
 12021a8:	47000115 	stw	fp,4(r8)
 12021ac:	d8c12015 	stw	r3,1152(sp)
 12021b0:	d8811f15 	stw	r2,1148(sp)
 12021b4:	98bff60e 	bge	r19,r2,1202190 <__alt_mem_instruction_tcm+0xff202190>
 12021b8:	b009883a 	mov	r4,r22
 12021bc:	b80b883a 	mov	r5,r23
 12021c0:	d9811e04 	addi	r6,sp,1144
 12021c4:	120873c0 	call	120873c <__sprint_r>
 12021c8:	103d221e 	bne	r2,zero,1201654 <__alt_mem_instruction_tcm+0xff201654>
 12021cc:	ad7ffc04 	addi	r21,r21,-16
 12021d0:	d8c12017 	ldw	r3,1152(sp)
 12021d4:	d8811f17 	ldw	r2,1148(sp)
 12021d8:	da000404 	addi	r8,sp,16
 12021dc:	e57fef16 	blt	fp,r21,120219c <__alt_mem_instruction_tcm+0xff20219c>
 12021e0:	dac12c17 	ldw	r11,1200(sp)
 12021e4:	1d47883a 	add	r3,r3,r21
 12021e8:	10800044 	addi	r2,r2,1
 12021ec:	42c00015 	stw	r11,0(r8)
 12021f0:	45400115 	stw	r21,4(r8)
 12021f4:	d8c12015 	stw	r3,1152(sp)
 12021f8:	d8811f15 	stw	r2,1148(sp)
 12021fc:	010001c4 	movi	r4,7
 1202200:	20819116 	blt	r4,r2,1202848 <___vfprintf_internal_r+0x1650>
 1202204:	42000204 	addi	r8,r8,8
 1202208:	003dec06 	br	12019bc <__alt_mem_instruction_tcm+0xff2019bc>
 120220c:	db013317 	ldw	r12,1228(sp)
 1202210:	00800044 	movi	r2,1
 1202214:	18c00044 	addi	r3,r3,1
 1202218:	1301530e 	bge	r2,r12,1202768 <___vfprintf_internal_r+0x1570>
 120221c:	dc011f17 	ldw	r16,1148(sp)
 1202220:	dac13117 	ldw	r11,1220(sp)
 1202224:	00800044 	movi	r2,1
 1202228:	84000044 	addi	r16,r16,1
 120222c:	40800115 	stw	r2,4(r8)
 1202230:	42c00015 	stw	r11,0(r8)
 1202234:	d8c12015 	stw	r3,1152(sp)
 1202238:	dc011f15 	stw	r16,1148(sp)
 120223c:	008001c4 	movi	r2,7
 1202240:	14016b16 	blt	r2,r16,12027f0 <___vfprintf_internal_r+0x15f8>
 1202244:	42000204 	addi	r8,r8,8
 1202248:	db013817 	ldw	r12,1248(sp)
 120224c:	dac13517 	ldw	r11,1236(sp)
 1202250:	84000044 	addi	r16,r16,1
 1202254:	1b07883a 	add	r3,r3,r12
 1202258:	42c00015 	stw	r11,0(r8)
 120225c:	43000115 	stw	r12,4(r8)
 1202260:	d8c12015 	stw	r3,1152(sp)
 1202264:	dc011f15 	stw	r16,1148(sp)
 1202268:	008001c4 	movi	r2,7
 120226c:	14016916 	blt	r2,r16,1202814 <___vfprintf_internal_r+0x161c>
 1202270:	44800204 	addi	r18,r8,8
 1202274:	d9013717 	ldw	r4,1244(sp)
 1202278:	d9413917 	ldw	r5,1252(sp)
 120227c:	000d883a 	mov	r6,zero
 1202280:	000f883a 	mov	r7,zero
 1202284:	d8c13d15 	stw	r3,1268(sp)
 1202288:	120c1f00 	call	120c1f0 <__eqdf2>
 120228c:	d8c13d17 	ldw	r3,1268(sp)
 1202290:	db013317 	ldw	r12,1228(sp)
 1202294:	1000ae26 	beq	r2,zero,1202550 <___vfprintf_internal_r+0x1358>
 1202298:	dac13117 	ldw	r11,1220(sp)
 120229c:	60bfffc4 	addi	r2,r12,-1
 12022a0:	1887883a 	add	r3,r3,r2
 12022a4:	59000044 	addi	r4,r11,1
 12022a8:	84000044 	addi	r16,r16,1
 12022ac:	90800115 	stw	r2,4(r18)
 12022b0:	91000015 	stw	r4,0(r18)
 12022b4:	d8c12015 	stw	r3,1152(sp)
 12022b8:	dc011f15 	stw	r16,1148(sp)
 12022bc:	008001c4 	movi	r2,7
 12022c0:	14014216 	blt	r2,r16,12027cc <___vfprintf_internal_r+0x15d4>
 12022c4:	94800204 	addi	r18,r18,8
 12022c8:	dac13a17 	ldw	r11,1256(sp)
 12022cc:	dd4122c4 	addi	r21,sp,1163
 12022d0:	84000044 	addi	r16,r16,1
 12022d4:	58c7883a 	add	r3,r11,r3
 12022d8:	95400015 	stw	r21,0(r18)
 12022dc:	92c00115 	stw	r11,4(r18)
 12022e0:	d8c12015 	stw	r3,1152(sp)
 12022e4:	dc011f15 	stw	r16,1148(sp)
 12022e8:	008001c4 	movi	r2,7
 12022ec:	14000e16 	blt	r2,r16,1202328 <___vfprintf_internal_r+0x1130>
 12022f0:	92000204 	addi	r8,r18,8
 12022f4:	003de706 	br	1201a94 <__alt_mem_instruction_tcm+0xff201a94>
 12022f8:	010048b4 	movhi	r4,290
 12022fc:	212c7c84 	addi	r4,r4,-19982
 1202300:	d9012c15 	stw	r4,1200(sp)
 1202304:	dac12c17 	ldw	r11,1200(sp)
 1202308:	1c07883a 	add	r3,r3,r16
 120230c:	44000115 	stw	r16,4(r8)
 1202310:	42c00015 	stw	r11,0(r8)
 1202314:	10800044 	addi	r2,r2,1
 1202318:	d8c12015 	stw	r3,1152(sp)
 120231c:	d8811f15 	stw	r2,1148(sp)
 1202320:	010001c4 	movi	r4,7
 1202324:	20bdda0e 	bge	r4,r2,1201a90 <__alt_mem_instruction_tcm+0xff201a90>
 1202328:	b009883a 	mov	r4,r22
 120232c:	b80b883a 	mov	r5,r23
 1202330:	d9811e04 	addi	r6,sp,1144
 1202334:	120873c0 	call	120873c <__sprint_r>
 1202338:	103cc61e 	bne	r2,zero,1201654 <__alt_mem_instruction_tcm+0xff201654>
 120233c:	d8c12017 	ldw	r3,1152(sp)
 1202340:	da000404 	addi	r8,sp,16
 1202344:	003dd306 	br	1201a94 <__alt_mem_instruction_tcm+0xff201a94>
 1202348:	b009883a 	mov	r4,r22
 120234c:	b80b883a 	mov	r5,r23
 1202350:	d9811e04 	addi	r6,sp,1144
 1202354:	120873c0 	call	120873c <__sprint_r>
 1202358:	103e0926 	beq	r2,zero,1201b80 <__alt_mem_instruction_tcm+0xff201b80>
 120235c:	003cbd06 	br	1201654 <__alt_mem_instruction_tcm+0xff201654>
 1202360:	10803fcc 	andi	r2,r2,255
 1202364:	1000651e 	bne	r2,zero,12024fc <___vfprintf_internal_r+0x1304>
 1202368:	8880004c 	andi	r2,r17,1
 120236c:	10013226 	beq	r2,zero,1202838 <___vfprintf_internal_r+0x1640>
 1202370:	00800c04 	movi	r2,48
 1202374:	d8c10dc4 	addi	r3,sp,1079
 1202378:	d8810dc5 	stb	r2,1079(sp)
 120237c:	dc813c17 	ldw	r18,1264(sp)
 1202380:	d8c13115 	stw	r3,1220(sp)
 1202384:	003d2b06 	br	1201834 <__alt_mem_instruction_tcm+0xff201834>
 1202388:	b009883a 	mov	r4,r22
 120238c:	b80b883a 	mov	r5,r23
 1202390:	d9811e04 	addi	r6,sp,1144
 1202394:	120873c0 	call	120873c <__sprint_r>
 1202398:	103cae1e 	bne	r2,zero,1201654 <__alt_mem_instruction_tcm+0xff201654>
 120239c:	d8c12017 	ldw	r3,1152(sp)
 12023a0:	da000404 	addi	r8,sp,16
 12023a4:	003dae06 	br	1201a60 <__alt_mem_instruction_tcm+0xff201a60>
 12023a8:	b009883a 	mov	r4,r22
 12023ac:	b80b883a 	mov	r5,r23
 12023b0:	d9811e04 	addi	r6,sp,1144
 12023b4:	120873c0 	call	120873c <__sprint_r>
 12023b8:	103ca61e 	bne	r2,zero,1201654 <__alt_mem_instruction_tcm+0xff201654>
 12023bc:	d8c12017 	ldw	r3,1152(sp)
 12023c0:	da000404 	addi	r8,sp,16
 12023c4:	003d6c06 	br	1201978 <__alt_mem_instruction_tcm+0xff201978>
 12023c8:	b009883a 	mov	r4,r22
 12023cc:	b80b883a 	mov	r5,r23
 12023d0:	d9811e04 	addi	r6,sp,1144
 12023d4:	120873c0 	call	120873c <__sprint_r>
 12023d8:	103c9e1e 	bne	r2,zero,1201654 <__alt_mem_instruction_tcm+0xff201654>
 12023dc:	d8c12017 	ldw	r3,1152(sp)
 12023e0:	da000404 	addi	r8,sp,16
 12023e4:	003d7206 	br	12019b0 <__alt_mem_instruction_tcm+0xff2019b0>
 12023e8:	d9413b17 	ldw	r5,1260(sp)
 12023ec:	d8c10e04 	addi	r3,sp,1080
 12023f0:	988003cc 	andi	r2,r19,15
 12023f4:	e008973a 	slli	r4,fp,28
 12023f8:	2885883a 	add	r2,r5,r2
 12023fc:	9826d13a 	srli	r19,r19,4
 1202400:	10800003 	ldbu	r2,0(r2)
 1202404:	e038d13a 	srli	fp,fp,4
 1202408:	18ffffc4 	addi	r3,r3,-1
 120240c:	24e6b03a 	or	r19,r4,r19
 1202410:	18800005 	stb	r2,0(r3)
 1202414:	9f04b03a 	or	r2,r19,fp
 1202418:	103ff51e 	bne	r2,zero,12023f0 <__alt_mem_instruction_tcm+0xff2023f0>
 120241c:	db012817 	ldw	r12,1184(sp)
 1202420:	d8c13115 	stw	r3,1220(sp)
 1202424:	60e5c83a 	sub	r18,r12,r3
 1202428:	003d0206 	br	1201834 <__alt_mem_instruction_tcm+0xff201834>
 120242c:	dc012617 	ldw	r16,1176(sp)
 1202430:	0401b10e 	bge	zero,r16,1202af8 <___vfprintf_internal_r+0x1900>
 1202434:	db013117 	ldw	r12,1220(sp)
 1202438:	dac13317 	ldw	r11,1228(sp)
 120243c:	62e1883a 	add	r16,r12,r11
 1202440:	db013417 	ldw	r12,1232(sp)
 1202444:	5825883a 	mov	r18,r11
 1202448:	62c0010e 	bge	r12,r11,1202450 <___vfprintf_internal_r+0x1258>
 120244c:	6025883a 	mov	r18,r12
 1202450:	04800b0e 	bge	zero,r18,1202480 <___vfprintf_internal_r+0x1288>
 1202454:	d8811f17 	ldw	r2,1148(sp)
 1202458:	dac13117 	ldw	r11,1220(sp)
 120245c:	1c87883a 	add	r3,r3,r18
 1202460:	10800044 	addi	r2,r2,1
 1202464:	42c00015 	stw	r11,0(r8)
 1202468:	44800115 	stw	r18,4(r8)
 120246c:	d8c12015 	stw	r3,1152(sp)
 1202470:	d8811f15 	stw	r2,1148(sp)
 1202474:	010001c4 	movi	r4,7
 1202478:	20824f16 	blt	r4,r2,1202db8 <___vfprintf_internal_r+0x1bc0>
 120247c:	42000204 	addi	r8,r8,8
 1202480:	90024b16 	blt	r18,zero,1202db0 <___vfprintf_internal_r+0x1bb8>
 1202484:	db013417 	ldw	r12,1232(sp)
 1202488:	64a5c83a 	sub	r18,r12,r18
 120248c:	0480730e 	bge	zero,r18,120265c <___vfprintf_internal_r+0x1464>
 1202490:	05400404 	movi	r21,16
 1202494:	d8811f17 	ldw	r2,1148(sp)
 1202498:	ac817d0e 	bge	r21,r18,1202a90 <___vfprintf_internal_r+0x1898>
 120249c:	014048b4 	movhi	r5,290
 12024a0:	296c7c84 	addi	r5,r5,-19982
 12024a4:	d9412c15 	stw	r5,1200(sp)
 12024a8:	070001c4 	movi	fp,7
 12024ac:	00000306 	br	12024bc <___vfprintf_internal_r+0x12c4>
 12024b0:	42000204 	addi	r8,r8,8
 12024b4:	94bffc04 	addi	r18,r18,-16
 12024b8:	ac81780e 	bge	r21,r18,1202a9c <___vfprintf_internal_r+0x18a4>
 12024bc:	18c00404 	addi	r3,r3,16
 12024c0:	10800044 	addi	r2,r2,1
 12024c4:	45000015 	stw	r20,0(r8)
 12024c8:	45400115 	stw	r21,4(r8)
 12024cc:	d8c12015 	stw	r3,1152(sp)
 12024d0:	d8811f15 	stw	r2,1148(sp)
 12024d4:	e0bff60e 	bge	fp,r2,12024b0 <__alt_mem_instruction_tcm+0xff2024b0>
 12024d8:	b009883a 	mov	r4,r22
 12024dc:	b80b883a 	mov	r5,r23
 12024e0:	d9811e04 	addi	r6,sp,1144
 12024e4:	120873c0 	call	120873c <__sprint_r>
 12024e8:	103c5a1e 	bne	r2,zero,1201654 <__alt_mem_instruction_tcm+0xff201654>
 12024ec:	d8c12017 	ldw	r3,1152(sp)
 12024f0:	d8811f17 	ldw	r2,1148(sp)
 12024f4:	da000404 	addi	r8,sp,16
 12024f8:	003fee06 	br	12024b4 <__alt_mem_instruction_tcm+0xff2024b4>
 12024fc:	dac10e04 	addi	r11,sp,1080
 1202500:	0025883a 	mov	r18,zero
 1202504:	dac13115 	stw	r11,1220(sp)
 1202508:	003cca06 	br	1201834 <__alt_mem_instruction_tcm+0xff201834>
 120250c:	b009883a 	mov	r4,r22
 1202510:	b80b883a 	mov	r5,r23
 1202514:	d9811e04 	addi	r6,sp,1144
 1202518:	120873c0 	call	120873c <__sprint_r>
 120251c:	103c4d1e 	bne	r2,zero,1201654 <__alt_mem_instruction_tcm+0xff201654>
 1202520:	d8c12017 	ldw	r3,1152(sp)
 1202524:	d8812787 	ldb	r2,1182(sp)
 1202528:	da000404 	addi	r8,sp,16
 120252c:	003d0506 	br	1201944 <__alt_mem_instruction_tcm+0xff201944>
 1202530:	dac12d17 	ldw	r11,1204(sp)
 1202534:	14c00017 	ldw	r19,0(r2)
 1202538:	0039883a 	mov	fp,zero
 120253c:	5ac00104 	addi	r11,r11,4
 1202540:	dac12d15 	stw	r11,1204(sp)
 1202544:	0005883a 	mov	r2,zero
 1202548:	9807883a 	mov	r3,r19
 120254c:	003c9c06 	br	12017c0 <__alt_mem_instruction_tcm+0xff2017c0>
 1202550:	657fffc4 	addi	r21,r12,-1
 1202554:	057f5c0e 	bge	zero,r21,12022c8 <__alt_mem_instruction_tcm+0xff2022c8>
 1202558:	07000404 	movi	fp,16
 120255c:	e5408f0e 	bge	fp,r21,120279c <___vfprintf_internal_r+0x15a4>
 1202560:	010048b4 	movhi	r4,290
 1202564:	212c7c84 	addi	r4,r4,-19982
 1202568:	d9012c15 	stw	r4,1200(sp)
 120256c:	01c001c4 	movi	r7,7
 1202570:	00000306 	br	1202580 <___vfprintf_internal_r+0x1388>
 1202574:	94800204 	addi	r18,r18,8
 1202578:	ad7ffc04 	addi	r21,r21,-16
 120257c:	e5408a0e 	bge	fp,r21,12027a8 <___vfprintf_internal_r+0x15b0>
 1202580:	18c00404 	addi	r3,r3,16
 1202584:	84000044 	addi	r16,r16,1
 1202588:	95000015 	stw	r20,0(r18)
 120258c:	97000115 	stw	fp,4(r18)
 1202590:	d8c12015 	stw	r3,1152(sp)
 1202594:	dc011f15 	stw	r16,1148(sp)
 1202598:	3c3ff60e 	bge	r7,r16,1202574 <__alt_mem_instruction_tcm+0xff202574>
 120259c:	b009883a 	mov	r4,r22
 12025a0:	b80b883a 	mov	r5,r23
 12025a4:	d9811e04 	addi	r6,sp,1144
 12025a8:	d9c13d15 	stw	r7,1268(sp)
 12025ac:	120873c0 	call	120873c <__sprint_r>
 12025b0:	d9c13d17 	ldw	r7,1268(sp)
 12025b4:	103c271e 	bne	r2,zero,1201654 <__alt_mem_instruction_tcm+0xff201654>
 12025b8:	d8c12017 	ldw	r3,1152(sp)
 12025bc:	dc011f17 	ldw	r16,1148(sp)
 12025c0:	dc800404 	addi	r18,sp,16
 12025c4:	003fec06 	br	1202578 <__alt_mem_instruction_tcm+0xff202578>
 12025c8:	1cc00017 	ldw	r19,0(r3)
 12025cc:	dac12d17 	ldw	r11,1204(sp)
 12025d0:	9839d7fa 	srai	fp,r19,31
 12025d4:	5ac00104 	addi	r11,r11,4
 12025d8:	dac12d15 	stw	r11,1204(sp)
 12025dc:	e005883a 	mov	r2,fp
 12025e0:	003d9006 	br	1201c24 <__alt_mem_instruction_tcm+0xff201c24>
 12025e4:	00800084 	movi	r2,2
 12025e8:	9f06b03a 	or	r3,r19,fp
 12025ec:	003c7406 	br	12017c0 <__alt_mem_instruction_tcm+0xff2017c0>
 12025f0:	db012d17 	ldw	r12,1204(sp)
 12025f4:	14c00017 	ldw	r19,0(r2)
 12025f8:	0039883a 	mov	fp,zero
 12025fc:	63000104 	addi	r12,r12,4
 1202600:	db012d15 	stw	r12,1204(sp)
 1202604:	00800044 	movi	r2,1
 1202608:	9807883a 	mov	r3,r19
 120260c:	003c6c06 	br	12017c0 <__alt_mem_instruction_tcm+0xff2017c0>
 1202610:	10803fcc 	andi	r2,r2,255
 1202614:	1080201c 	xori	r2,r2,128
 1202618:	10bfe004 	addi	r2,r2,-128
 120261c:	01000c04 	movi	r4,48
 1202620:	1101a526 	beq	r2,r4,1202cb8 <___vfprintf_internal_r+0x1ac0>
 1202624:	dac13117 	ldw	r11,1220(sp)
 1202628:	db012817 	ldw	r12,1184(sp)
 120262c:	193fffc5 	stb	r4,-1(r3)
 1202630:	5affffc4 	addi	r11,r11,-1
 1202634:	dac13115 	stw	r11,1220(sp)
 1202638:	62e5c83a 	sub	r18,r12,r11
 120263c:	003c7d06 	br	1201834 <__alt_mem_instruction_tcm+0xff201834>
 1202640:	b009883a 	mov	r4,r22
 1202644:	b80b883a 	mov	r5,r23
 1202648:	d9811e04 	addi	r6,sp,1144
 120264c:	120873c0 	call	120873c <__sprint_r>
 1202650:	103c001e 	bne	r2,zero,1201654 <__alt_mem_instruction_tcm+0xff201654>
 1202654:	d8c12017 	ldw	r3,1152(sp)
 1202658:	da000404 	addi	r8,sp,16
 120265c:	db013117 	ldw	r12,1220(sp)
 1202660:	dac13417 	ldw	r11,1232(sp)
 1202664:	d8812617 	ldw	r2,1176(sp)
 1202668:	62e5883a 	add	r18,r12,r11
 120266c:	db013317 	ldw	r12,1228(sp)
 1202670:	13000216 	blt	r2,r12,120267c <___vfprintf_internal_r+0x1484>
 1202674:	8900004c 	andi	r4,r17,1
 1202678:	20000c26 	beq	r4,zero,12026ac <___vfprintf_internal_r+0x14b4>
 120267c:	dac13817 	ldw	r11,1248(sp)
 1202680:	d9011f17 	ldw	r4,1148(sp)
 1202684:	db013517 	ldw	r12,1236(sp)
 1202688:	1ac7883a 	add	r3,r3,r11
 120268c:	21000044 	addi	r4,r4,1
 1202690:	43000015 	stw	r12,0(r8)
 1202694:	42c00115 	stw	r11,4(r8)
 1202698:	d8c12015 	stw	r3,1152(sp)
 120269c:	d9011f15 	stw	r4,1148(sp)
 12026a0:	014001c4 	movi	r5,7
 12026a4:	2901cc16 	blt	r5,r4,1202dd8 <___vfprintf_internal_r+0x1be0>
 12026a8:	42000204 	addi	r8,r8,8
 12026ac:	dac13317 	ldw	r11,1228(sp)
 12026b0:	8489c83a 	sub	r4,r16,r18
 12026b4:	5885c83a 	sub	r2,r11,r2
 12026b8:	1021883a 	mov	r16,r2
 12026bc:	2080010e 	bge	r4,r2,12026c4 <___vfprintf_internal_r+0x14cc>
 12026c0:	2021883a 	mov	r16,r4
 12026c4:	04000a0e 	bge	zero,r16,12026f0 <___vfprintf_internal_r+0x14f8>
 12026c8:	d9011f17 	ldw	r4,1148(sp)
 12026cc:	1c07883a 	add	r3,r3,r16
 12026d0:	44800015 	stw	r18,0(r8)
 12026d4:	21000044 	addi	r4,r4,1
 12026d8:	44000115 	stw	r16,4(r8)
 12026dc:	d8c12015 	stw	r3,1152(sp)
 12026e0:	d9011f15 	stw	r4,1148(sp)
 12026e4:	014001c4 	movi	r5,7
 12026e8:	2901d616 	blt	r5,r4,1202e44 <___vfprintf_internal_r+0x1c4c>
 12026ec:	42000204 	addi	r8,r8,8
 12026f0:	8001df16 	blt	r16,zero,1202e70 <___vfprintf_internal_r+0x1c78>
 12026f4:	1421c83a 	sub	r16,r2,r16
 12026f8:	043ce60e 	bge	zero,r16,1201a94 <__alt_mem_instruction_tcm+0xff201a94>
 12026fc:	04800404 	movi	r18,16
 1202700:	d8811f17 	ldw	r2,1148(sp)
 1202704:	943efc0e 	bge	r18,r16,12022f8 <__alt_mem_instruction_tcm+0xff2022f8>
 1202708:	014048b4 	movhi	r5,290
 120270c:	296c7c84 	addi	r5,r5,-19982
 1202710:	d9412c15 	stw	r5,1200(sp)
 1202714:	054001c4 	movi	r21,7
 1202718:	00000306 	br	1202728 <___vfprintf_internal_r+0x1530>
 120271c:	42000204 	addi	r8,r8,8
 1202720:	843ffc04 	addi	r16,r16,-16
 1202724:	943ef70e 	bge	r18,r16,1202304 <__alt_mem_instruction_tcm+0xff202304>
 1202728:	18c00404 	addi	r3,r3,16
 120272c:	10800044 	addi	r2,r2,1
 1202730:	45000015 	stw	r20,0(r8)
 1202734:	44800115 	stw	r18,4(r8)
 1202738:	d8c12015 	stw	r3,1152(sp)
 120273c:	d8811f15 	stw	r2,1148(sp)
 1202740:	a8bff60e 	bge	r21,r2,120271c <__alt_mem_instruction_tcm+0xff20271c>
 1202744:	b009883a 	mov	r4,r22
 1202748:	b80b883a 	mov	r5,r23
 120274c:	d9811e04 	addi	r6,sp,1144
 1202750:	120873c0 	call	120873c <__sprint_r>
 1202754:	103bbf1e 	bne	r2,zero,1201654 <__alt_mem_instruction_tcm+0xff201654>
 1202758:	d8c12017 	ldw	r3,1152(sp)
 120275c:	d8811f17 	ldw	r2,1148(sp)
 1202760:	da000404 	addi	r8,sp,16
 1202764:	003fee06 	br	1202720 <__alt_mem_instruction_tcm+0xff202720>
 1202768:	8888703a 	and	r4,r17,r2
 120276c:	203eab1e 	bne	r4,zero,120221c <__alt_mem_instruction_tcm+0xff20221c>
 1202770:	dc011f17 	ldw	r16,1148(sp)
 1202774:	db013117 	ldw	r12,1220(sp)
 1202778:	40800115 	stw	r2,4(r8)
 120277c:	84000044 	addi	r16,r16,1
 1202780:	43000015 	stw	r12,0(r8)
 1202784:	d8c12015 	stw	r3,1152(sp)
 1202788:	dc011f15 	stw	r16,1148(sp)
 120278c:	008001c4 	movi	r2,7
 1202790:	14000e16 	blt	r2,r16,12027cc <___vfprintf_internal_r+0x15d4>
 1202794:	44800204 	addi	r18,r8,8
 1202798:	003ecb06 	br	12022c8 <__alt_mem_instruction_tcm+0xff2022c8>
 120279c:	008048b4 	movhi	r2,290
 12027a0:	10ac7c84 	addi	r2,r2,-19982
 12027a4:	d8812c15 	stw	r2,1200(sp)
 12027a8:	dac12c17 	ldw	r11,1200(sp)
 12027ac:	1d47883a 	add	r3,r3,r21
 12027b0:	84000044 	addi	r16,r16,1
 12027b4:	92c00015 	stw	r11,0(r18)
 12027b8:	95400115 	stw	r21,4(r18)
 12027bc:	d8c12015 	stw	r3,1152(sp)
 12027c0:	dc011f15 	stw	r16,1148(sp)
 12027c4:	008001c4 	movi	r2,7
 12027c8:	143ebe0e 	bge	r2,r16,12022c4 <__alt_mem_instruction_tcm+0xff2022c4>
 12027cc:	b009883a 	mov	r4,r22
 12027d0:	b80b883a 	mov	r5,r23
 12027d4:	d9811e04 	addi	r6,sp,1144
 12027d8:	120873c0 	call	120873c <__sprint_r>
 12027dc:	103b9d1e 	bne	r2,zero,1201654 <__alt_mem_instruction_tcm+0xff201654>
 12027e0:	d8c12017 	ldw	r3,1152(sp)
 12027e4:	dc011f17 	ldw	r16,1148(sp)
 12027e8:	dc800404 	addi	r18,sp,16
 12027ec:	003eb606 	br	12022c8 <__alt_mem_instruction_tcm+0xff2022c8>
 12027f0:	b009883a 	mov	r4,r22
 12027f4:	b80b883a 	mov	r5,r23
 12027f8:	d9811e04 	addi	r6,sp,1144
 12027fc:	120873c0 	call	120873c <__sprint_r>
 1202800:	103b941e 	bne	r2,zero,1201654 <__alt_mem_instruction_tcm+0xff201654>
 1202804:	d8c12017 	ldw	r3,1152(sp)
 1202808:	dc011f17 	ldw	r16,1148(sp)
 120280c:	da000404 	addi	r8,sp,16
 1202810:	003e8d06 	br	1202248 <__alt_mem_instruction_tcm+0xff202248>
 1202814:	b009883a 	mov	r4,r22
 1202818:	b80b883a 	mov	r5,r23
 120281c:	d9811e04 	addi	r6,sp,1144
 1202820:	120873c0 	call	120873c <__sprint_r>
 1202824:	103b8b1e 	bne	r2,zero,1201654 <__alt_mem_instruction_tcm+0xff201654>
 1202828:	d8c12017 	ldw	r3,1152(sp)
 120282c:	dc011f17 	ldw	r16,1148(sp)
 1202830:	dc800404 	addi	r18,sp,16
 1202834:	003e8f06 	br	1202274 <__alt_mem_instruction_tcm+0xff202274>
 1202838:	db010e04 	addi	r12,sp,1080
 120283c:	0025883a 	mov	r18,zero
 1202840:	db013115 	stw	r12,1220(sp)
 1202844:	003bfb06 	br	1201834 <__alt_mem_instruction_tcm+0xff201834>
 1202848:	b009883a 	mov	r4,r22
 120284c:	b80b883a 	mov	r5,r23
 1202850:	d9811e04 	addi	r6,sp,1144
 1202854:	120873c0 	call	120873c <__sprint_r>
 1202858:	103b7e1e 	bne	r2,zero,1201654 <__alt_mem_instruction_tcm+0xff201654>
 120285c:	d8c12017 	ldw	r3,1152(sp)
 1202860:	da000404 	addi	r8,sp,16
 1202864:	003c5506 	br	12019bc <__alt_mem_instruction_tcm+0xff2019bc>
 1202868:	04e7c83a 	sub	r19,zero,r19
 120286c:	9804c03a 	cmpne	r2,r19,zero
 1202870:	0739c83a 	sub	fp,zero,fp
 1202874:	e0b9c83a 	sub	fp,fp,r2
 1202878:	05400b44 	movi	r21,45
 120287c:	dd412785 	stb	r21,1182(sp)
 1202880:	da413215 	stw	r9,1224(sp)
 1202884:	00800044 	movi	r2,1
 1202888:	9f06b03a 	or	r3,r19,fp
 120288c:	003bcf06 	br	12017cc <__alt_mem_instruction_tcm+0xff2017cc>
 1202890:	da013f15 	stw	r8,1276(sp)
 1202894:	da413e15 	stw	r9,1272(sp)
 1202898:	12083980 	call	1208398 <__fpclassifyd>
 120289c:	da013f17 	ldw	r8,1276(sp)
 12028a0:	da413e17 	ldw	r9,1272(sp)
 12028a4:	1000ce26 	beq	r2,zero,1202be0 <___vfprintf_internal_r+0x19e8>
 12028a8:	057ff7c4 	movi	r21,-33
 12028ac:	00bfffc4 	movi	r2,-1
 12028b0:	856a703a 	and	r21,r16,r21
 12028b4:	4881f026 	beq	r9,r2,1203078 <___vfprintf_internal_r+0x1e80>
 12028b8:	008011c4 	movi	r2,71
 12028bc:	a881e526 	beq	r21,r2,1203054 <___vfprintf_internal_r+0x1e5c>
 12028c0:	db013917 	ldw	r12,1252(sp)
 12028c4:	8ac04014 	ori	r11,r17,256
 12028c8:	dac12d15 	stw	r11,1204(sp)
 12028cc:	6001e416 	blt	r12,zero,1203060 <___vfprintf_internal_r+0x1e68>
 12028d0:	dc813917 	ldw	r18,1252(sp)
 12028d4:	d8012b05 	stb	zero,1196(sp)
 12028d8:	00801984 	movi	r2,102
 12028dc:	80811826 	beq	r16,r2,1202d40 <___vfprintf_internal_r+0x1b48>
 12028e0:	00801184 	movi	r2,70
 12028e4:	80811626 	beq	r16,r2,1202d40 <___vfprintf_internal_r+0x1b48>
 12028e8:	00801144 	movi	r2,69
 12028ec:	a881e026 	beq	r21,r2,1203070 <___vfprintf_internal_r+0x1e78>
 12028f0:	4839883a 	mov	fp,r9
 12028f4:	d8812604 	addi	r2,sp,1176
 12028f8:	d8800115 	stw	r2,4(sp)
 12028fc:	d9413717 	ldw	r5,1244(sp)
 1202900:	d8812504 	addi	r2,sp,1172
 1202904:	d8800215 	stw	r2,8(sp)
 1202908:	d8812104 	addi	r2,sp,1156
 120290c:	df000015 	stw	fp,0(sp)
 1202910:	d8800315 	stw	r2,12(sp)
 1202914:	b009883a 	mov	r4,r22
 1202918:	900d883a 	mov	r6,r18
 120291c:	01c00084 	movi	r7,2
 1202920:	da013f15 	stw	r8,1276(sp)
 1202924:	da413e15 	stw	r9,1272(sp)
 1202928:	12036dc0 	call	12036dc <_dtoa_r>
 120292c:	d8813115 	stw	r2,1220(sp)
 1202930:	008019c4 	movi	r2,103
 1202934:	da013f17 	ldw	r8,1276(sp)
 1202938:	da413e17 	ldw	r9,1272(sp)
 120293c:	80800226 	beq	r16,r2,1202948 <___vfprintf_internal_r+0x1750>
 1202940:	008011c4 	movi	r2,71
 1202944:	8081101e 	bne	r16,r2,1202d88 <___vfprintf_internal_r+0x1b90>
 1202948:	8880004c 	andi	r2,r17,1
 120294c:	1001df26 	beq	r2,zero,12030cc <___vfprintf_internal_r+0x1ed4>
 1202950:	db013117 	ldw	r12,1220(sp)
 1202954:	6715883a 	add	r10,r12,fp
 1202958:	d9013717 	ldw	r4,1244(sp)
 120295c:	900b883a 	mov	r5,r18
 1202960:	000d883a 	mov	r6,zero
 1202964:	000f883a 	mov	r7,zero
 1202968:	da013f15 	stw	r8,1276(sp)
 120296c:	da413e15 	stw	r9,1272(sp)
 1202970:	da813d15 	stw	r10,1268(sp)
 1202974:	120c1f00 	call	120c1f0 <__eqdf2>
 1202978:	da013f17 	ldw	r8,1276(sp)
 120297c:	da413e17 	ldw	r9,1272(sp)
 1202980:	da813d17 	ldw	r10,1268(sp)
 1202984:	10016526 	beq	r2,zero,1202f1c <___vfprintf_internal_r+0x1d24>
 1202988:	d8812117 	ldw	r2,1156(sp)
 120298c:	1280062e 	bgeu	r2,r10,12029a8 <___vfprintf_internal_r+0x17b0>
 1202990:	01000c04 	movi	r4,48
 1202994:	10c00044 	addi	r3,r2,1
 1202998:	d8c12115 	stw	r3,1156(sp)
 120299c:	11000005 	stb	r4,0(r2)
 12029a0:	d8812117 	ldw	r2,1156(sp)
 12029a4:	12bffb36 	bltu	r2,r10,1202994 <__alt_mem_instruction_tcm+0xff202994>
 12029a8:	db013117 	ldw	r12,1220(sp)
 12029ac:	1305c83a 	sub	r2,r2,r12
 12029b0:	d8813315 	stw	r2,1228(sp)
 12029b4:	008011c4 	movi	r2,71
 12029b8:	a8814a26 	beq	r21,r2,1202ee4 <___vfprintf_internal_r+0x1cec>
 12029bc:	00801944 	movi	r2,101
 12029c0:	14020a0e 	bge	r2,r16,12031ec <___vfprintf_internal_r+0x1ff4>
 12029c4:	00801984 	movi	r2,102
 12029c8:	8081b626 	beq	r16,r2,12030a4 <___vfprintf_internal_r+0x1eac>
 12029cc:	db012617 	ldw	r12,1176(sp)
 12029d0:	db013415 	stw	r12,1232(sp)
 12029d4:	db013417 	ldw	r12,1232(sp)
 12029d8:	dac13317 	ldw	r11,1228(sp)
 12029dc:	62c1a816 	blt	r12,r11,1203080 <___vfprintf_internal_r+0x1e88>
 12029e0:	8c40004c 	andi	r17,r17,1
 12029e4:	8801ca1e 	bne	r17,zero,1203110 <___vfprintf_internal_r+0x1f18>
 12029e8:	6005883a 	mov	r2,r12
 12029ec:	6001b516 	blt	r12,zero,12030c4 <___vfprintf_internal_r+0x1ecc>
 12029f0:	dc813417 	ldw	r18,1232(sp)
 12029f4:	df012b07 	ldb	fp,1196(sp)
 12029f8:	e001321e 	bne	fp,zero,1202ec4 <___vfprintf_internal_r+0x1ccc>
 12029fc:	dc412d17 	ldw	r17,1204(sp)
 1202a00:	dd412783 	ldbu	r21,1182(sp)
 1202a04:	d8812b15 	stw	r2,1196(sp)
 1202a08:	dcc12d15 	stw	r19,1204(sp)
 1202a0c:	d8013215 	stw	zero,1224(sp)
 1202a10:	003b8d06 	br	1201848 <__alt_mem_instruction_tcm+0xff201848>
 1202a14:	88c0100c 	andi	r3,r17,64
 1202a18:	18008226 	beq	r3,zero,1202c24 <___vfprintf_internal_r+0x1a2c>
 1202a1c:	dac12d17 	ldw	r11,1204(sp)
 1202a20:	14c0000b 	ldhu	r19,0(r2)
 1202a24:	0039883a 	mov	fp,zero
 1202a28:	5ac00104 	addi	r11,r11,4
 1202a2c:	dac12d15 	stw	r11,1204(sp)
 1202a30:	003c8f06 	br	1201c70 <__alt_mem_instruction_tcm+0xff201c70>
 1202a34:	1c000007 	ldb	r16,0(r3)
 1202a38:	1805883a 	mov	r2,r3
 1202a3c:	003a5506 	br	1201394 <__alt_mem_instruction_tcm+0xff201394>
 1202a40:	00800084 	movi	r2,2
 1202a44:	003b5e06 	br	12017c0 <__alt_mem_instruction_tcm+0xff2017c0>
 1202a48:	8880040c 	andi	r2,r17,16
 1202a4c:	1000091e 	bne	r2,zero,1202a74 <___vfprintf_internal_r+0x187c>
 1202a50:	8c40100c 	andi	r17,r17,64
 1202a54:	88000726 	beq	r17,zero,1202a74 <___vfprintf_internal_r+0x187c>
 1202a58:	db012d17 	ldw	r12,1204(sp)
 1202a5c:	dac12f17 	ldw	r11,1212(sp)
 1202a60:	60800017 	ldw	r2,0(r12)
 1202a64:	63000104 	addi	r12,r12,4
 1202a68:	db012d15 	stw	r12,1204(sp)
 1202a6c:	12c0000d 	sth	r11,0(r2)
 1202a70:	003a1e06 	br	12012ec <__alt_mem_instruction_tcm+0xff2012ec>
 1202a74:	db012d17 	ldw	r12,1204(sp)
 1202a78:	dac12f17 	ldw	r11,1212(sp)
 1202a7c:	60800017 	ldw	r2,0(r12)
 1202a80:	63000104 	addi	r12,r12,4
 1202a84:	db012d15 	stw	r12,1204(sp)
 1202a88:	12c00015 	stw	r11,0(r2)
 1202a8c:	003a1706 	br	12012ec <__alt_mem_instruction_tcm+0xff2012ec>
 1202a90:	010048b4 	movhi	r4,290
 1202a94:	212c7c84 	addi	r4,r4,-19982
 1202a98:	d9012c15 	stw	r4,1200(sp)
 1202a9c:	dac12c17 	ldw	r11,1200(sp)
 1202aa0:	1c87883a 	add	r3,r3,r18
 1202aa4:	10800044 	addi	r2,r2,1
 1202aa8:	42c00015 	stw	r11,0(r8)
 1202aac:	44800115 	stw	r18,4(r8)
 1202ab0:	d8c12015 	stw	r3,1152(sp)
 1202ab4:	d8811f15 	stw	r2,1148(sp)
 1202ab8:	010001c4 	movi	r4,7
 1202abc:	20bee016 	blt	r4,r2,1202640 <__alt_mem_instruction_tcm+0xff202640>
 1202ac0:	42000204 	addi	r8,r8,8
 1202ac4:	003ee506 	br	120265c <__alt_mem_instruction_tcm+0xff20265c>
 1202ac8:	010048b4 	movhi	r4,290
 1202acc:	212c7c84 	addi	r4,r4,-19982
 1202ad0:	d9012c15 	stw	r4,1200(sp)
 1202ad4:	003bd806 	br	1201a38 <__alt_mem_instruction_tcm+0xff201a38>
 1202ad8:	b009883a 	mov	r4,r22
 1202adc:	b80b883a 	mov	r5,r23
 1202ae0:	d9811e04 	addi	r6,sp,1144
 1202ae4:	120873c0 	call	120873c <__sprint_r>
 1202ae8:	103ada1e 	bne	r2,zero,1201654 <__alt_mem_instruction_tcm+0xff201654>
 1202aec:	d8c12017 	ldw	r3,1152(sp)
 1202af0:	da000404 	addi	r8,sp,16
 1202af4:	003d6b06 	br	12020a4 <__alt_mem_instruction_tcm+0xff2020a4>
 1202af8:	d8811f17 	ldw	r2,1148(sp)
 1202afc:	030048b4 	movhi	r12,290
 1202b00:	01000044 	movi	r4,1
 1202b04:	18c00044 	addi	r3,r3,1
 1202b08:	10800044 	addi	r2,r2,1
 1202b0c:	632c7c04 	addi	r12,r12,-19984
 1202b10:	41000115 	stw	r4,4(r8)
 1202b14:	43000015 	stw	r12,0(r8)
 1202b18:	d8c12015 	stw	r3,1152(sp)
 1202b1c:	d8811f15 	stw	r2,1148(sp)
 1202b20:	010001c4 	movi	r4,7
 1202b24:	20804916 	blt	r4,r2,1202c4c <___vfprintf_internal_r+0x1a54>
 1202b28:	42000204 	addi	r8,r8,8
 1202b2c:	8000041e 	bne	r16,zero,1202b40 <___vfprintf_internal_r+0x1948>
 1202b30:	dac13317 	ldw	r11,1228(sp)
 1202b34:	5800021e 	bne	r11,zero,1202b40 <___vfprintf_internal_r+0x1948>
 1202b38:	8880004c 	andi	r2,r17,1
 1202b3c:	103bd526 	beq	r2,zero,1201a94 <__alt_mem_instruction_tcm+0xff201a94>
 1202b40:	db013817 	ldw	r12,1248(sp)
 1202b44:	d8811f17 	ldw	r2,1148(sp)
 1202b48:	dac13517 	ldw	r11,1236(sp)
 1202b4c:	1b07883a 	add	r3,r3,r12
 1202b50:	10800044 	addi	r2,r2,1
 1202b54:	42c00015 	stw	r11,0(r8)
 1202b58:	43000115 	stw	r12,4(r8)
 1202b5c:	d8c12015 	stw	r3,1152(sp)
 1202b60:	d8811f15 	stw	r2,1148(sp)
 1202b64:	010001c4 	movi	r4,7
 1202b68:	20813016 	blt	r4,r2,120302c <___vfprintf_internal_r+0x1e34>
 1202b6c:	42000204 	addi	r8,r8,8
 1202b70:	0421c83a 	sub	r16,zero,r16
 1202b74:	0400630e 	bge	zero,r16,1202d04 <___vfprintf_internal_r+0x1b0c>
 1202b78:	04800404 	movi	r18,16
 1202b7c:	94009f0e 	bge	r18,r16,1202dfc <___vfprintf_internal_r+0x1c04>
 1202b80:	010048b4 	movhi	r4,290
 1202b84:	212c7c84 	addi	r4,r4,-19982
 1202b88:	d9012c15 	stw	r4,1200(sp)
 1202b8c:	054001c4 	movi	r21,7
 1202b90:	00000306 	br	1202ba0 <___vfprintf_internal_r+0x19a8>
 1202b94:	42000204 	addi	r8,r8,8
 1202b98:	843ffc04 	addi	r16,r16,-16
 1202b9c:	94009a0e 	bge	r18,r16,1202e08 <___vfprintf_internal_r+0x1c10>
 1202ba0:	18c00404 	addi	r3,r3,16
 1202ba4:	10800044 	addi	r2,r2,1
 1202ba8:	45000015 	stw	r20,0(r8)
 1202bac:	44800115 	stw	r18,4(r8)
 1202bb0:	d8c12015 	stw	r3,1152(sp)
 1202bb4:	d8811f15 	stw	r2,1148(sp)
 1202bb8:	a8bff60e 	bge	r21,r2,1202b94 <__alt_mem_instruction_tcm+0xff202b94>
 1202bbc:	b009883a 	mov	r4,r22
 1202bc0:	b80b883a 	mov	r5,r23
 1202bc4:	d9811e04 	addi	r6,sp,1144
 1202bc8:	120873c0 	call	120873c <__sprint_r>
 1202bcc:	103aa11e 	bne	r2,zero,1201654 <__alt_mem_instruction_tcm+0xff201654>
 1202bd0:	d8c12017 	ldw	r3,1152(sp)
 1202bd4:	d8811f17 	ldw	r2,1148(sp)
 1202bd8:	da000404 	addi	r8,sp,16
 1202bdc:	003fee06 	br	1202b98 <__alt_mem_instruction_tcm+0xff202b98>
 1202be0:	008011c4 	movi	r2,71
 1202be4:	1400b316 	blt	r2,r16,1202eb4 <___vfprintf_internal_r+0x1cbc>
 1202be8:	030048b4 	movhi	r12,290
 1202bec:	632c6e04 	addi	r12,r12,-20040
 1202bf0:	db013115 	stw	r12,1220(sp)
 1202bf4:	00c000c4 	movi	r3,3
 1202bf8:	00bfdfc4 	movi	r2,-129
 1202bfc:	d8c12b15 	stw	r3,1196(sp)
 1202c00:	88a2703a 	and	r17,r17,r2
 1202c04:	dd412783 	ldbu	r21,1182(sp)
 1202c08:	dcc12d15 	stw	r19,1204(sp)
 1202c0c:	1825883a 	mov	r18,r3
 1202c10:	d8013215 	stw	zero,1224(sp)
 1202c14:	d8013415 	stw	zero,1232(sp)
 1202c18:	003b0b06 	br	1201848 <__alt_mem_instruction_tcm+0xff201848>
 1202c1c:	4825883a 	mov	r18,r9
 1202c20:	003cba06 	br	1201f0c <__alt_mem_instruction_tcm+0xff201f0c>
 1202c24:	db012d17 	ldw	r12,1204(sp)
 1202c28:	14c00017 	ldw	r19,0(r2)
 1202c2c:	0039883a 	mov	fp,zero
 1202c30:	63000104 	addi	r12,r12,4
 1202c34:	db012d15 	stw	r12,1204(sp)
 1202c38:	003c0d06 	br	1201c70 <__alt_mem_instruction_tcm+0xff201c70>
 1202c3c:	008048b4 	movhi	r2,290
 1202c40:	10ac6c04 	addi	r2,r2,-20048
 1202c44:	d8813115 	stw	r2,1220(sp)
 1202c48:	003ac406 	br	120175c <__alt_mem_instruction_tcm+0xff20175c>
 1202c4c:	b009883a 	mov	r4,r22
 1202c50:	b80b883a 	mov	r5,r23
 1202c54:	d9811e04 	addi	r6,sp,1144
 1202c58:	120873c0 	call	120873c <__sprint_r>
 1202c5c:	103a7d1e 	bne	r2,zero,1201654 <__alt_mem_instruction_tcm+0xff201654>
 1202c60:	dc012617 	ldw	r16,1176(sp)
 1202c64:	d8c12017 	ldw	r3,1152(sp)
 1202c68:	da000404 	addi	r8,sp,16
 1202c6c:	003faf06 	br	1202b2c <__alt_mem_instruction_tcm+0xff202b2c>
 1202c70:	db012e17 	ldw	r12,1208(sp)
 1202c74:	1805883a 	mov	r2,r3
 1202c78:	dac12d15 	stw	r11,1204(sp)
 1202c7c:	0319c83a 	sub	r12,zero,r12
 1202c80:	db012e15 	stw	r12,1208(sp)
 1202c84:	003a7e06 	br	1201680 <__alt_mem_instruction_tcm+0xff201680>
 1202c88:	18800044 	addi	r2,r3,1
 1202c8c:	8c400814 	ori	r17,r17,32
 1202c90:	1c000047 	ldb	r16,1(r3)
 1202c94:	0039bf06 	br	1201394 <__alt_mem_instruction_tcm+0xff201394>
 1202c98:	b009883a 	mov	r4,r22
 1202c9c:	b80b883a 	mov	r5,r23
 1202ca0:	d9811e04 	addi	r6,sp,1144
 1202ca4:	120873c0 	call	120873c <__sprint_r>
 1202ca8:	103a6a1e 	bne	r2,zero,1201654 <__alt_mem_instruction_tcm+0xff201654>
 1202cac:	d8c12017 	ldw	r3,1152(sp)
 1202cb0:	da000404 	addi	r8,sp,16
 1202cb4:	003d0c06 	br	12020e8 <__alt_mem_instruction_tcm+0xff2020e8>
 1202cb8:	db012817 	ldw	r12,1184(sp)
 1202cbc:	d8c13117 	ldw	r3,1220(sp)
 1202cc0:	60e5c83a 	sub	r18,r12,r3
 1202cc4:	003adb06 	br	1201834 <__alt_mem_instruction_tcm+0xff201834>
 1202cc8:	da013f15 	stw	r8,1276(sp)
 1202ccc:	12011600 	call	1201160 <strlen>
 1202cd0:	1025883a 	mov	r18,r2
 1202cd4:	da013f17 	ldw	r8,1276(sp)
 1202cd8:	903c8e0e 	bge	r18,zero,1201f14 <__alt_mem_instruction_tcm+0xff201f14>
 1202cdc:	0005883a 	mov	r2,zero
 1202ce0:	003c8c06 	br	1201f14 <__alt_mem_instruction_tcm+0xff201f14>
 1202ce4:	b009883a 	mov	r4,r22
 1202ce8:	b80b883a 	mov	r5,r23
 1202cec:	d9811e04 	addi	r6,sp,1144
 1202cf0:	120873c0 	call	120873c <__sprint_r>
 1202cf4:	103a571e 	bne	r2,zero,1201654 <__alt_mem_instruction_tcm+0xff201654>
 1202cf8:	d8c12017 	ldw	r3,1152(sp)
 1202cfc:	d8811f17 	ldw	r2,1148(sp)
 1202d00:	da000404 	addi	r8,sp,16
 1202d04:	db013317 	ldw	r12,1228(sp)
 1202d08:	dac13117 	ldw	r11,1220(sp)
 1202d0c:	10800044 	addi	r2,r2,1
 1202d10:	60c7883a 	add	r3,r12,r3
 1202d14:	42c00015 	stw	r11,0(r8)
 1202d18:	43000115 	stw	r12,4(r8)
 1202d1c:	d8c12015 	stw	r3,1152(sp)
 1202d20:	d8811f15 	stw	r2,1148(sp)
 1202d24:	010001c4 	movi	r4,7
 1202d28:	20bb590e 	bge	r4,r2,1201a90 <__alt_mem_instruction_tcm+0xff201a90>
 1202d2c:	003d7e06 	br	1202328 <__alt_mem_instruction_tcm+0xff202328>
 1202d30:	010048b4 	movhi	r4,290
 1202d34:	212c8084 	addi	r4,r4,-19966
 1202d38:	d9013615 	stw	r4,1240(sp)
 1202d3c:	003af606 	br	1201918 <__alt_mem_instruction_tcm+0xff201918>
 1202d40:	d8812604 	addi	r2,sp,1176
 1202d44:	d8800115 	stw	r2,4(sp)
 1202d48:	d9413717 	ldw	r5,1244(sp)
 1202d4c:	d8812504 	addi	r2,sp,1172
 1202d50:	d8800215 	stw	r2,8(sp)
 1202d54:	d8812104 	addi	r2,sp,1156
 1202d58:	da400015 	stw	r9,0(sp)
 1202d5c:	d8800315 	stw	r2,12(sp)
 1202d60:	b009883a 	mov	r4,r22
 1202d64:	900d883a 	mov	r6,r18
 1202d68:	01c000c4 	movi	r7,3
 1202d6c:	da013f15 	stw	r8,1276(sp)
 1202d70:	da413e15 	stw	r9,1272(sp)
 1202d74:	12036dc0 	call	12036dc <_dtoa_r>
 1202d78:	da413e17 	ldw	r9,1272(sp)
 1202d7c:	da013f17 	ldw	r8,1276(sp)
 1202d80:	d8813115 	stw	r2,1220(sp)
 1202d84:	4839883a 	mov	fp,r9
 1202d88:	dac13117 	ldw	r11,1220(sp)
 1202d8c:	00801184 	movi	r2,70
 1202d90:	5f15883a 	add	r10,r11,fp
 1202d94:	a8bef01e 	bne	r21,r2,1202958 <__alt_mem_instruction_tcm+0xff202958>
 1202d98:	59000007 	ldb	r4,0(r11)
 1202d9c:	00800c04 	movi	r2,48
 1202da0:	2080e026 	beq	r4,r2,1203124 <___vfprintf_internal_r+0x1f2c>
 1202da4:	d8c12617 	ldw	r3,1176(sp)
 1202da8:	50d5883a 	add	r10,r10,r3
 1202dac:	003eea06 	br	1202958 <__alt_mem_instruction_tcm+0xff202958>
 1202db0:	0025883a 	mov	r18,zero
 1202db4:	003db306 	br	1202484 <__alt_mem_instruction_tcm+0xff202484>
 1202db8:	b009883a 	mov	r4,r22
 1202dbc:	b80b883a 	mov	r5,r23
 1202dc0:	d9811e04 	addi	r6,sp,1144
 1202dc4:	120873c0 	call	120873c <__sprint_r>
 1202dc8:	103a221e 	bne	r2,zero,1201654 <__alt_mem_instruction_tcm+0xff201654>
 1202dcc:	d8c12017 	ldw	r3,1152(sp)
 1202dd0:	da000404 	addi	r8,sp,16
 1202dd4:	003daa06 	br	1202480 <__alt_mem_instruction_tcm+0xff202480>
 1202dd8:	b009883a 	mov	r4,r22
 1202ddc:	b80b883a 	mov	r5,r23
 1202de0:	d9811e04 	addi	r6,sp,1144
 1202de4:	120873c0 	call	120873c <__sprint_r>
 1202de8:	103a1a1e 	bne	r2,zero,1201654 <__alt_mem_instruction_tcm+0xff201654>
 1202dec:	d8812617 	ldw	r2,1176(sp)
 1202df0:	d8c12017 	ldw	r3,1152(sp)
 1202df4:	da000404 	addi	r8,sp,16
 1202df8:	003e2c06 	br	12026ac <__alt_mem_instruction_tcm+0xff2026ac>
 1202dfc:	030048b4 	movhi	r12,290
 1202e00:	632c7c84 	addi	r12,r12,-19982
 1202e04:	db012c15 	stw	r12,1200(sp)
 1202e08:	dac12c17 	ldw	r11,1200(sp)
 1202e0c:	1c07883a 	add	r3,r3,r16
 1202e10:	10800044 	addi	r2,r2,1
 1202e14:	42c00015 	stw	r11,0(r8)
 1202e18:	44000115 	stw	r16,4(r8)
 1202e1c:	d8c12015 	stw	r3,1152(sp)
 1202e20:	d8811f15 	stw	r2,1148(sp)
 1202e24:	010001c4 	movi	r4,7
 1202e28:	20bfae16 	blt	r4,r2,1202ce4 <__alt_mem_instruction_tcm+0xff202ce4>
 1202e2c:	42000204 	addi	r8,r8,8
 1202e30:	003fb406 	br	1202d04 <__alt_mem_instruction_tcm+0xff202d04>
 1202e34:	030048b4 	movhi	r12,290
 1202e38:	632c8084 	addi	r12,r12,-19966
 1202e3c:	db013615 	stw	r12,1240(sp)
 1202e40:	003b3806 	br	1201b24 <__alt_mem_instruction_tcm+0xff201b24>
 1202e44:	b009883a 	mov	r4,r22
 1202e48:	b80b883a 	mov	r5,r23
 1202e4c:	d9811e04 	addi	r6,sp,1144
 1202e50:	120873c0 	call	120873c <__sprint_r>
 1202e54:	1039ff1e 	bne	r2,zero,1201654 <__alt_mem_instruction_tcm+0xff201654>
 1202e58:	d8812617 	ldw	r2,1176(sp)
 1202e5c:	db013317 	ldw	r12,1228(sp)
 1202e60:	d8c12017 	ldw	r3,1152(sp)
 1202e64:	da000404 	addi	r8,sp,16
 1202e68:	6085c83a 	sub	r2,r12,r2
 1202e6c:	003e2006 	br	12026f0 <__alt_mem_instruction_tcm+0xff2026f0>
 1202e70:	0021883a 	mov	r16,zero
 1202e74:	003e1f06 	br	12026f4 <__alt_mem_instruction_tcm+0xff2026f4>
 1202e78:	00800184 	movi	r2,6
 1202e7c:	1240012e 	bgeu	r2,r9,1202e84 <___vfprintf_internal_r+0x1c8c>
 1202e80:	1013883a 	mov	r9,r2
 1202e84:	4825883a 	mov	r18,r9
 1202e88:	4805883a 	mov	r2,r9
 1202e8c:	48009e16 	blt	r9,zero,1203108 <___vfprintf_internal_r+0x1f10>
 1202e90:	d8812b15 	stw	r2,1196(sp)
 1202e94:	008048b4 	movhi	r2,290
 1202e98:	10ac7a04 	addi	r2,r2,-19992
 1202e9c:	d8813115 	stw	r2,1220(sp)
 1202ea0:	dcc12d15 	stw	r19,1204(sp)
 1202ea4:	d8013215 	stw	zero,1224(sp)
 1202ea8:	d8013415 	stw	zero,1232(sp)
 1202eac:	0005883a 	mov	r2,zero
 1202eb0:	003a6c06 	br	1201864 <__alt_mem_instruction_tcm+0xff201864>
 1202eb4:	008048b4 	movhi	r2,290
 1202eb8:	10ac6f04 	addi	r2,r2,-20036
 1202ebc:	d8813115 	stw	r2,1220(sp)
 1202ec0:	003f4c06 	br	1202bf4 <__alt_mem_instruction_tcm+0xff202bf4>
 1202ec4:	00c00b44 	movi	r3,45
 1202ec8:	d8812b15 	stw	r2,1196(sp)
 1202ecc:	dc412d17 	ldw	r17,1204(sp)
 1202ed0:	d8c12785 	stb	r3,1182(sp)
 1202ed4:	dcc12d15 	stw	r19,1204(sp)
 1202ed8:	d8013215 	stw	zero,1224(sp)
 1202edc:	00800b44 	movi	r2,45
 1202ee0:	003a5d06 	br	1201858 <__alt_mem_instruction_tcm+0xff201858>
 1202ee4:	d8c12617 	ldw	r3,1176(sp)
 1202ee8:	00bfff44 	movi	r2,-3
 1202eec:	18800d16 	blt	r3,r2,1202f24 <___vfprintf_internal_r+0x1d2c>
 1202ef0:	48c00c16 	blt	r9,r3,1202f24 <___vfprintf_internal_r+0x1d2c>
 1202ef4:	d8c13415 	stw	r3,1232(sp)
 1202ef8:	040019c4 	movi	r16,103
 1202efc:	003eb506 	br	12029d4 <__alt_mem_instruction_tcm+0xff2029d4>
 1202f00:	05400b44 	movi	r21,45
 1202f04:	dd412785 	stb	r21,1182(sp)
 1202f08:	003a0f06 	br	1201748 <__alt_mem_instruction_tcm+0xff201748>
 1202f0c:	010048b4 	movhi	r4,290
 1202f10:	212c7c84 	addi	r4,r4,-19982
 1202f14:	d9012c15 	stw	r4,1200(sp)
 1202f18:	003cb106 	br	12021e0 <__alt_mem_instruction_tcm+0xff2021e0>
 1202f1c:	5005883a 	mov	r2,r10
 1202f20:	003ea106 	br	12029a8 <__alt_mem_instruction_tcm+0xff2029a8>
 1202f24:	843fff84 	addi	r16,r16,-2
 1202f28:	1f3fffc4 	addi	fp,r3,-1
 1202f2c:	df012615 	stw	fp,1176(sp)
 1202f30:	dc0122c5 	stb	r16,1163(sp)
 1202f34:	e0009516 	blt	fp,zero,120318c <___vfprintf_internal_r+0x1f94>
 1202f38:	00800ac4 	movi	r2,43
 1202f3c:	d8812305 	stb	r2,1164(sp)
 1202f40:	00800244 	movi	r2,9
 1202f44:	1700690e 	bge	r2,fp,12030ec <___vfprintf_internal_r+0x1ef4>
 1202f48:	dd4122c4 	addi	r21,sp,1163
 1202f4c:	dc012c15 	stw	r16,1200(sp)
 1202f50:	8825883a 	mov	r18,r17
 1202f54:	a821883a 	mov	r16,r21
 1202f58:	4023883a 	mov	r17,r8
 1202f5c:	e009883a 	mov	r4,fp
 1202f60:	01400284 	movi	r5,10
 1202f64:	120b01c0 	call	120b01c <__modsi3>
 1202f68:	10800c04 	addi	r2,r2,48
 1202f6c:	843fffc4 	addi	r16,r16,-1
 1202f70:	e009883a 	mov	r4,fp
 1202f74:	01400284 	movi	r5,10
 1202f78:	80800005 	stb	r2,0(r16)
 1202f7c:	120afc80 	call	120afc8 <__divsi3>
 1202f80:	1039883a 	mov	fp,r2
 1202f84:	00800244 	movi	r2,9
 1202f88:	173ff416 	blt	r2,fp,1202f5c <__alt_mem_instruction_tcm+0xff202f5c>
 1202f8c:	8811883a 	mov	r8,r17
 1202f90:	e0800c04 	addi	r2,fp,48
 1202f94:	9023883a 	mov	r17,r18
 1202f98:	8025883a 	mov	r18,r16
 1202f9c:	913fffc4 	addi	r4,r18,-1
 1202fa0:	90bfffc5 	stb	r2,-1(r18)
 1202fa4:	dc012c17 	ldw	r16,1200(sp)
 1202fa8:	25408e2e 	bgeu	r4,r21,12031e4 <___vfprintf_internal_r+0x1fec>
 1202fac:	d9412384 	addi	r5,sp,1166
 1202fb0:	2c8bc83a 	sub	r5,r5,r18
 1202fb4:	d8c12344 	addi	r3,sp,1165
 1202fb8:	a94b883a 	add	r5,r21,r5
 1202fbc:	00000106 	br	1202fc4 <___vfprintf_internal_r+0x1dcc>
 1202fc0:	20800003 	ldbu	r2,0(r4)
 1202fc4:	18800005 	stb	r2,0(r3)
 1202fc8:	18c00044 	addi	r3,r3,1
 1202fcc:	21000044 	addi	r4,r4,1
 1202fd0:	197ffb1e 	bne	r3,r5,1202fc0 <__alt_mem_instruction_tcm+0xff202fc0>
 1202fd4:	d8812304 	addi	r2,sp,1164
 1202fd8:	1485c83a 	sub	r2,r2,r18
 1202fdc:	d8c12344 	addi	r3,sp,1165
 1202fe0:	1885883a 	add	r2,r3,r2
 1202fe4:	dac13317 	ldw	r11,1228(sp)
 1202fe8:	156bc83a 	sub	r21,r2,r21
 1202fec:	dd413a15 	stw	r21,1256(sp)
 1202ff0:	00800044 	movi	r2,1
 1202ff4:	5d65883a 	add	r18,r11,r21
 1202ff8:	12c0770e 	bge	r2,r11,12031d8 <___vfprintf_internal_r+0x1fe0>
 1202ffc:	94800044 	addi	r18,r18,1
 1203000:	9005883a 	mov	r2,r18
 1203004:	90007216 	blt	r18,zero,12031d0 <___vfprintf_internal_r+0x1fd8>
 1203008:	d8013415 	stw	zero,1232(sp)
 120300c:	003e7906 	br	12029f4 <__alt_mem_instruction_tcm+0xff2029f4>
 1203010:	da412b15 	stw	r9,1196(sp)
 1203014:	dd412783 	ldbu	r21,1182(sp)
 1203018:	4825883a 	mov	r18,r9
 120301c:	dcc12d15 	stw	r19,1204(sp)
 1203020:	d8013215 	stw	zero,1224(sp)
 1203024:	d8013415 	stw	zero,1232(sp)
 1203028:	003a0706 	br	1201848 <__alt_mem_instruction_tcm+0xff201848>
 120302c:	b009883a 	mov	r4,r22
 1203030:	b80b883a 	mov	r5,r23
 1203034:	d9811e04 	addi	r6,sp,1144
 1203038:	120873c0 	call	120873c <__sprint_r>
 120303c:	1039851e 	bne	r2,zero,1201654 <__alt_mem_instruction_tcm+0xff201654>
 1203040:	dc012617 	ldw	r16,1176(sp)
 1203044:	d8c12017 	ldw	r3,1152(sp)
 1203048:	d8811f17 	ldw	r2,1148(sp)
 120304c:	da000404 	addi	r8,sp,16
 1203050:	003ec706 	br	1202b70 <__alt_mem_instruction_tcm+0xff202b70>
 1203054:	483e1a1e 	bne	r9,zero,12028c0 <__alt_mem_instruction_tcm+0xff2028c0>
 1203058:	9013883a 	mov	r9,r18
 120305c:	003e1806 	br	12028c0 <__alt_mem_instruction_tcm+0xff2028c0>
 1203060:	00c00b44 	movi	r3,45
 1203064:	64a0003c 	xorhi	r18,r12,32768
 1203068:	d8c12b05 	stb	r3,1196(sp)
 120306c:	003e1a06 	br	12028d8 <__alt_mem_instruction_tcm+0xff2028d8>
 1203070:	4f000044 	addi	fp,r9,1
 1203074:	003e1f06 	br	12028f4 <__alt_mem_instruction_tcm+0xff2028f4>
 1203078:	02400184 	movi	r9,6
 120307c:	003e1006 	br	12028c0 <__alt_mem_instruction_tcm+0xff2028c0>
 1203080:	d8c13417 	ldw	r3,1232(sp)
 1203084:	00c04b0e 	bge	zero,r3,12031b4 <___vfprintf_internal_r+0x1fbc>
 1203088:	04800044 	movi	r18,1
 120308c:	dac13317 	ldw	r11,1228(sp)
 1203090:	92e5883a 	add	r18,r18,r11
 1203094:	9005883a 	mov	r2,r18
 1203098:	903e560e 	bge	r18,zero,12029f4 <__alt_mem_instruction_tcm+0xff2029f4>
 120309c:	0005883a 	mov	r2,zero
 12030a0:	003e5406 	br	12029f4 <__alt_mem_instruction_tcm+0xff2029f4>
 12030a4:	d8c12617 	ldw	r3,1176(sp)
 12030a8:	d8c13415 	stw	r3,1232(sp)
 12030ac:	00c03b0e 	bge	zero,r3,120319c <___vfprintf_internal_r+0x1fa4>
 12030b0:	4800081e 	bne	r9,zero,12030d4 <___vfprintf_internal_r+0x1edc>
 12030b4:	8c40004c 	andi	r17,r17,1
 12030b8:	8800061e 	bne	r17,zero,12030d4 <___vfprintf_internal_r+0x1edc>
 12030bc:	1805883a 	mov	r2,r3
 12030c0:	183e4b0e 	bge	r3,zero,12029f0 <__alt_mem_instruction_tcm+0xff2029f0>
 12030c4:	0005883a 	mov	r2,zero
 12030c8:	003e4906 	br	12029f0 <__alt_mem_instruction_tcm+0xff2029f0>
 12030cc:	d8812117 	ldw	r2,1156(sp)
 12030d0:	003e3506 	br	12029a8 <__alt_mem_instruction_tcm+0xff2029a8>
 12030d4:	dac13417 	ldw	r11,1232(sp)
 12030d8:	4a400044 	addi	r9,r9,1
 12030dc:	5a65883a 	add	r18,r11,r9
 12030e0:	9005883a 	mov	r2,r18
 12030e4:	903e430e 	bge	r18,zero,12029f4 <__alt_mem_instruction_tcm+0xff2029f4>
 12030e8:	003fec06 	br	120309c <__alt_mem_instruction_tcm+0xff20309c>
 12030ec:	00800c04 	movi	r2,48
 12030f0:	e0c00c04 	addi	r3,fp,48
 12030f4:	d8812345 	stb	r2,1165(sp)
 12030f8:	d8c12385 	stb	r3,1166(sp)
 12030fc:	d88123c4 	addi	r2,sp,1167
 1203100:	dd4122c4 	addi	r21,sp,1163
 1203104:	003fb706 	br	1202fe4 <__alt_mem_instruction_tcm+0xff202fe4>
 1203108:	0005883a 	mov	r2,zero
 120310c:	003f6006 	br	1202e90 <__alt_mem_instruction_tcm+0xff202e90>
 1203110:	db013417 	ldw	r12,1232(sp)
 1203114:	64800044 	addi	r18,r12,1
 1203118:	9005883a 	mov	r2,r18
 120311c:	903e350e 	bge	r18,zero,12029f4 <__alt_mem_instruction_tcm+0xff2029f4>
 1203120:	003fde06 	br	120309c <__alt_mem_instruction_tcm+0xff20309c>
 1203124:	d9013717 	ldw	r4,1244(sp)
 1203128:	900b883a 	mov	r5,r18
 120312c:	000d883a 	mov	r6,zero
 1203130:	000f883a 	mov	r7,zero
 1203134:	da013f15 	stw	r8,1276(sp)
 1203138:	da413e15 	stw	r9,1272(sp)
 120313c:	da813d15 	stw	r10,1268(sp)
 1203140:	120c1f00 	call	120c1f0 <__eqdf2>
 1203144:	da013f17 	ldw	r8,1276(sp)
 1203148:	da413e17 	ldw	r9,1272(sp)
 120314c:	da813d17 	ldw	r10,1268(sp)
 1203150:	103f1426 	beq	r2,zero,1202da4 <__alt_mem_instruction_tcm+0xff202da4>
 1203154:	00800044 	movi	r2,1
 1203158:	1707c83a 	sub	r3,r2,fp
 120315c:	d8c12615 	stw	r3,1176(sp)
 1203160:	003f1106 	br	1202da8 <__alt_mem_instruction_tcm+0xff202da8>
 1203164:	dac12d17 	ldw	r11,1204(sp)
 1203168:	5a400017 	ldw	r9,0(r11)
 120316c:	5ac00104 	addi	r11,r11,4
 1203170:	dac12d15 	stw	r11,1204(sp)
 1203174:	483ec60e 	bge	r9,zero,1202c90 <__alt_mem_instruction_tcm+0xff202c90>
 1203178:	027fffc4 	movi	r9,-1
 120317c:	1c000047 	ldb	r16,1(r3)
 1203180:	00388406 	br	1201394 <__alt_mem_instruction_tcm+0xff201394>
 1203184:	043fffc4 	movi	r16,-1
 1203188:	00391006 	br	12015cc <__alt_mem_instruction_tcm+0xff2015cc>
 120318c:	00800b44 	movi	r2,45
 1203190:	0739c83a 	sub	fp,zero,fp
 1203194:	d8812305 	stb	r2,1164(sp)
 1203198:	003f6906 	br	1202f40 <__alt_mem_instruction_tcm+0xff202f40>
 120319c:	4800081e 	bne	r9,zero,12031c0 <___vfprintf_internal_r+0x1fc8>
 12031a0:	8c40004c 	andi	r17,r17,1
 12031a4:	8800061e 	bne	r17,zero,12031c0 <___vfprintf_internal_r+0x1fc8>
 12031a8:	00800044 	movi	r2,1
 12031ac:	1025883a 	mov	r18,r2
 12031b0:	003e1006 	br	12029f4 <__alt_mem_instruction_tcm+0xff2029f4>
 12031b4:	04800084 	movi	r18,2
 12031b8:	90e5c83a 	sub	r18,r18,r3
 12031bc:	003fb306 	br	120308c <__alt_mem_instruction_tcm+0xff20308c>
 12031c0:	4c800084 	addi	r18,r9,2
 12031c4:	9005883a 	mov	r2,r18
 12031c8:	903e0a0e 	bge	r18,zero,12029f4 <__alt_mem_instruction_tcm+0xff2029f4>
 12031cc:	003fb306 	br	120309c <__alt_mem_instruction_tcm+0xff20309c>
 12031d0:	0005883a 	mov	r2,zero
 12031d4:	003f8c06 	br	1203008 <__alt_mem_instruction_tcm+0xff203008>
 12031d8:	88a2703a 	and	r17,r17,r2
 12031dc:	883f8826 	beq	r17,zero,1203000 <__alt_mem_instruction_tcm+0xff203000>
 12031e0:	003f8606 	br	1202ffc <__alt_mem_instruction_tcm+0xff202ffc>
 12031e4:	d8812344 	addi	r2,sp,1165
 12031e8:	003f7e06 	br	1202fe4 <__alt_mem_instruction_tcm+0xff202fe4>
 12031ec:	d8c12617 	ldw	r3,1176(sp)
 12031f0:	003f4d06 	br	1202f28 <__alt_mem_instruction_tcm+0xff202f28>

012031f4 <__vfprintf_internal>:
 12031f4:	2007883a 	mov	r3,r4
 12031f8:	010048b4 	movhi	r4,290
 12031fc:	21345c04 	addi	r4,r4,-11920
 1203200:	21000017 	ldw	r4,0(r4)
 1203204:	2805883a 	mov	r2,r5
 1203208:	300f883a 	mov	r7,r6
 120320c:	180b883a 	mov	r5,r3
 1203210:	100d883a 	mov	r6,r2
 1203214:	12011f81 	jmpi	12011f8 <___vfprintf_internal_r>

01203218 <__swsetup_r>:
 1203218:	008048b4 	movhi	r2,290
 120321c:	defffd04 	addi	sp,sp,-12
 1203220:	10b45c04 	addi	r2,r2,-11920
 1203224:	dc400115 	stw	r17,4(sp)
 1203228:	2023883a 	mov	r17,r4
 120322c:	11000017 	ldw	r4,0(r2)
 1203230:	dc000015 	stw	r16,0(sp)
 1203234:	dfc00215 	stw	ra,8(sp)
 1203238:	2821883a 	mov	r16,r5
 120323c:	20000226 	beq	r4,zero,1203248 <__swsetup_r+0x30>
 1203240:	20c00e17 	ldw	r3,56(r4)
 1203244:	18002e26 	beq	r3,zero,1203300 <__swsetup_r+0xe8>
 1203248:	8080030b 	ldhu	r2,12(r16)
 120324c:	10c0020c 	andi	r3,r2,8
 1203250:	100d883a 	mov	r6,r2
 1203254:	18000f26 	beq	r3,zero,1203294 <__swsetup_r+0x7c>
 1203258:	80c00417 	ldw	r3,16(r16)
 120325c:	18001526 	beq	r3,zero,12032b4 <__swsetup_r+0x9c>
 1203260:	1100004c 	andi	r4,r2,1
 1203264:	20001c1e 	bne	r4,zero,12032d8 <__swsetup_r+0xc0>
 1203268:	1080008c 	andi	r2,r2,2
 120326c:	1000261e 	bne	r2,zero,1203308 <__swsetup_r+0xf0>
 1203270:	80800517 	ldw	r2,20(r16)
 1203274:	80800215 	stw	r2,8(r16)
 1203278:	18001c26 	beq	r3,zero,12032ec <__swsetup_r+0xd4>
 120327c:	0005883a 	mov	r2,zero
 1203280:	dfc00217 	ldw	ra,8(sp)
 1203284:	dc400117 	ldw	r17,4(sp)
 1203288:	dc000017 	ldw	r16,0(sp)
 120328c:	dec00304 	addi	sp,sp,12
 1203290:	f800283a 	ret
 1203294:	3080040c 	andi	r2,r6,16
 1203298:	10001726 	beq	r2,zero,12032f8 <__swsetup_r+0xe0>
 120329c:	3080010c 	andi	r2,r6,4
 12032a0:	10001b1e 	bne	r2,zero,1203310 <__swsetup_r+0xf8>
 12032a4:	80c00417 	ldw	r3,16(r16)
 12032a8:	30800214 	ori	r2,r6,8
 12032ac:	8080030d 	sth	r2,12(r16)
 12032b0:	183feb1e 	bne	r3,zero,1203260 <__alt_mem_instruction_tcm+0xff203260>
 12032b4:	1140a00c 	andi	r5,r2,640
 12032b8:	01008004 	movi	r4,512
 12032bc:	293fe826 	beq	r5,r4,1203260 <__alt_mem_instruction_tcm+0xff203260>
 12032c0:	8809883a 	mov	r4,r17
 12032c4:	800b883a 	mov	r5,r16
 12032c8:	1205f040 	call	1205f04 <__smakebuf_r>
 12032cc:	8080030b 	ldhu	r2,12(r16)
 12032d0:	80c00417 	ldw	r3,16(r16)
 12032d4:	003fe206 	br	1203260 <__alt_mem_instruction_tcm+0xff203260>
 12032d8:	80800517 	ldw	r2,20(r16)
 12032dc:	80000215 	stw	zero,8(r16)
 12032e0:	0085c83a 	sub	r2,zero,r2
 12032e4:	80800615 	stw	r2,24(r16)
 12032e8:	183fe41e 	bne	r3,zero,120327c <__alt_mem_instruction_tcm+0xff20327c>
 12032ec:	8080030b 	ldhu	r2,12(r16)
 12032f0:	1080200c 	andi	r2,r2,128
 12032f4:	103fe226 	beq	r2,zero,1203280 <__alt_mem_instruction_tcm+0xff203280>
 12032f8:	00bfffc4 	movi	r2,-1
 12032fc:	003fe006 	br	1203280 <__alt_mem_instruction_tcm+0xff203280>
 1203300:	12053ac0 	call	12053ac <__sinit>
 1203304:	003fd006 	br	1203248 <__alt_mem_instruction_tcm+0xff203248>
 1203308:	0005883a 	mov	r2,zero
 120330c:	003fd906 	br	1203274 <__alt_mem_instruction_tcm+0xff203274>
 1203310:	81400c17 	ldw	r5,48(r16)
 1203314:	28000626 	beq	r5,zero,1203330 <__swsetup_r+0x118>
 1203318:	80801004 	addi	r2,r16,64
 120331c:	28800326 	beq	r5,r2,120332c <__swsetup_r+0x114>
 1203320:	8809883a 	mov	r4,r17
 1203324:	12055200 	call	1205520 <_free_r>
 1203328:	8180030b 	ldhu	r6,12(r16)
 120332c:	80000c15 	stw	zero,48(r16)
 1203330:	80c00417 	ldw	r3,16(r16)
 1203334:	00bff6c4 	movi	r2,-37
 1203338:	118c703a 	and	r6,r2,r6
 120333c:	80000115 	stw	zero,4(r16)
 1203340:	80c00015 	stw	r3,0(r16)
 1203344:	003fd806 	br	12032a8 <__alt_mem_instruction_tcm+0xff2032a8>

01203348 <__call_exitprocs>:
 1203348:	008048b4 	movhi	r2,290
 120334c:	10b45b04 	addi	r2,r2,-11924
 1203350:	10800017 	ldw	r2,0(r2)
 1203354:	defff404 	addi	sp,sp,-48
 1203358:	dd800815 	stw	r22,32(sp)
 120335c:	d8800015 	stw	r2,0(sp)
 1203360:	10805204 	addi	r2,r2,328
 1203364:	dd000615 	stw	r20,24(sp)
 1203368:	dc800415 	stw	r18,16(sp)
 120336c:	dfc00b15 	stw	ra,44(sp)
 1203370:	df000a15 	stw	fp,40(sp)
 1203374:	ddc00915 	stw	r23,36(sp)
 1203378:	dd400715 	stw	r21,28(sp)
 120337c:	dcc00515 	stw	r19,20(sp)
 1203380:	dc400315 	stw	r17,12(sp)
 1203384:	dc000215 	stw	r16,8(sp)
 1203388:	2025883a 	mov	r18,r4
 120338c:	2829883a 	mov	r20,r5
 1203390:	d8800115 	stw	r2,4(sp)
 1203394:	05bfffc4 	movi	r22,-1
 1203398:	d8800017 	ldw	r2,0(sp)
 120339c:	14c05217 	ldw	r19,328(r2)
 12033a0:	98001d26 	beq	r19,zero,1203418 <__call_exitprocs+0xd0>
 12033a4:	dd400117 	ldw	r21,4(sp)
 12033a8:	98800117 	ldw	r2,4(r19)
 12033ac:	173fffc4 	addi	fp,r2,-1
 12033b0:	e0000d16 	blt	fp,zero,12033e8 <__call_exitprocs+0xa0>
 12033b4:	14000044 	addi	r16,r2,1
 12033b8:	8421883a 	add	r16,r16,r16
 12033bc:	8421883a 	add	r16,r16,r16
 12033c0:	84402004 	addi	r17,r16,128
 12033c4:	9c63883a 	add	r17,r19,r17
 12033c8:	9c21883a 	add	r16,r19,r16
 12033cc:	a0001e26 	beq	r20,zero,1203448 <__call_exitprocs+0x100>
 12033d0:	80804017 	ldw	r2,256(r16)
 12033d4:	15001c26 	beq	r2,r20,1203448 <__call_exitprocs+0x100>
 12033d8:	e73fffc4 	addi	fp,fp,-1
 12033dc:	843fff04 	addi	r16,r16,-4
 12033e0:	8c7fff04 	addi	r17,r17,-4
 12033e4:	e5bff91e 	bne	fp,r22,12033cc <__alt_mem_instruction_tcm+0xff2033cc>
 12033e8:	00800034 	movhi	r2,0
 12033ec:	10800004 	addi	r2,r2,0
 12033f0:	10000926 	beq	r2,zero,1203418 <__call_exitprocs+0xd0>
 12033f4:	98800117 	ldw	r2,4(r19)
 12033f8:	1000311e 	bne	r2,zero,12034c0 <__call_exitprocs+0x178>
 12033fc:	98800017 	ldw	r2,0(r19)
 1203400:	10003426 	beq	r2,zero,12034d4 <__call_exitprocs+0x18c>
 1203404:	9809883a 	mov	r4,r19
 1203408:	a8800015 	stw	r2,0(r21)
 120340c:	00000000 	call	0 <OSTCBStkPtr_OFFSET>
 1203410:	acc00017 	ldw	r19,0(r21)
 1203414:	983fe41e 	bne	r19,zero,12033a8 <__alt_mem_instruction_tcm+0xff2033a8>
 1203418:	dfc00b17 	ldw	ra,44(sp)
 120341c:	df000a17 	ldw	fp,40(sp)
 1203420:	ddc00917 	ldw	r23,36(sp)
 1203424:	dd800817 	ldw	r22,32(sp)
 1203428:	dd400717 	ldw	r21,28(sp)
 120342c:	dd000617 	ldw	r20,24(sp)
 1203430:	dcc00517 	ldw	r19,20(sp)
 1203434:	dc800417 	ldw	r18,16(sp)
 1203438:	dc400317 	ldw	r17,12(sp)
 120343c:	dc000217 	ldw	r16,8(sp)
 1203440:	dec00c04 	addi	sp,sp,48
 1203444:	f800283a 	ret
 1203448:	98800117 	ldw	r2,4(r19)
 120344c:	80c00017 	ldw	r3,0(r16)
 1203450:	10bfffc4 	addi	r2,r2,-1
 1203454:	17001526 	beq	r2,fp,12034ac <__call_exitprocs+0x164>
 1203458:	80000015 	stw	zero,0(r16)
 120345c:	183fde26 	beq	r3,zero,12033d8 <__alt_mem_instruction_tcm+0xff2033d8>
 1203460:	00800044 	movi	r2,1
 1203464:	1708983a 	sll	r4,r2,fp
 1203468:	98806217 	ldw	r2,392(r19)
 120346c:	9dc00117 	ldw	r23,4(r19)
 1203470:	2084703a 	and	r2,r4,r2
 1203474:	1000061e 	bne	r2,zero,1203490 <__call_exitprocs+0x148>
 1203478:	183ee83a 	callr	r3
 120347c:	98800117 	ldw	r2,4(r19)
 1203480:	15ffc51e 	bne	r2,r23,1203398 <__alt_mem_instruction_tcm+0xff203398>
 1203484:	a8800017 	ldw	r2,0(r21)
 1203488:	14ffd326 	beq	r2,r19,12033d8 <__alt_mem_instruction_tcm+0xff2033d8>
 120348c:	003fc206 	br	1203398 <__alt_mem_instruction_tcm+0xff203398>
 1203490:	98806317 	ldw	r2,396(r19)
 1203494:	2084703a 	and	r2,r4,r2
 1203498:	1000061e 	bne	r2,zero,12034b4 <__call_exitprocs+0x16c>
 120349c:	89400017 	ldw	r5,0(r17)
 12034a0:	9009883a 	mov	r4,r18
 12034a4:	183ee83a 	callr	r3
 12034a8:	003ff406 	br	120347c <__alt_mem_instruction_tcm+0xff20347c>
 12034ac:	9f000115 	stw	fp,4(r19)
 12034b0:	003fea06 	br	120345c <__alt_mem_instruction_tcm+0xff20345c>
 12034b4:	89000017 	ldw	r4,0(r17)
 12034b8:	183ee83a 	callr	r3
 12034bc:	003fef06 	br	120347c <__alt_mem_instruction_tcm+0xff20347c>
 12034c0:	98800017 	ldw	r2,0(r19)
 12034c4:	982b883a 	mov	r21,r19
 12034c8:	1027883a 	mov	r19,r2
 12034cc:	983fb61e 	bne	r19,zero,12033a8 <__alt_mem_instruction_tcm+0xff2033a8>
 12034d0:	003fd106 	br	1203418 <__alt_mem_instruction_tcm+0xff203418>
 12034d4:	0005883a 	mov	r2,zero
 12034d8:	003ffa06 	br	12034c4 <__alt_mem_instruction_tcm+0xff2034c4>

012034dc <quorem>:
 12034dc:	defff704 	addi	sp,sp,-36
 12034e0:	dc800215 	stw	r18,8(sp)
 12034e4:	20800417 	ldw	r2,16(r4)
 12034e8:	2c800417 	ldw	r18,16(r5)
 12034ec:	dfc00815 	stw	ra,32(sp)
 12034f0:	ddc00715 	stw	r23,28(sp)
 12034f4:	dd800615 	stw	r22,24(sp)
 12034f8:	dd400515 	stw	r21,20(sp)
 12034fc:	dd000415 	stw	r20,16(sp)
 1203500:	dcc00315 	stw	r19,12(sp)
 1203504:	dc400115 	stw	r17,4(sp)
 1203508:	dc000015 	stw	r16,0(sp)
 120350c:	14807116 	blt	r2,r18,12036d4 <quorem+0x1f8>
 1203510:	94bfffc4 	addi	r18,r18,-1
 1203514:	94ad883a 	add	r22,r18,r18
 1203518:	b5ad883a 	add	r22,r22,r22
 120351c:	2c400504 	addi	r17,r5,20
 1203520:	8da9883a 	add	r20,r17,r22
 1203524:	25400504 	addi	r21,r4,20
 1203528:	282f883a 	mov	r23,r5
 120352c:	adad883a 	add	r22,r21,r22
 1203530:	a1400017 	ldw	r5,0(r20)
 1203534:	2021883a 	mov	r16,r4
 1203538:	b1000017 	ldw	r4,0(r22)
 120353c:	29400044 	addi	r5,r5,1
 1203540:	120b0780 	call	120b078 <__udivsi3>
 1203544:	1027883a 	mov	r19,r2
 1203548:	10002c26 	beq	r2,zero,12035fc <quorem+0x120>
 120354c:	a813883a 	mov	r9,r21
 1203550:	8811883a 	mov	r8,r17
 1203554:	0009883a 	mov	r4,zero
 1203558:	000d883a 	mov	r6,zero
 120355c:	41c00017 	ldw	r7,0(r8)
 1203560:	49400017 	ldw	r5,0(r9)
 1203564:	42000104 	addi	r8,r8,4
 1203568:	38bfffcc 	andi	r2,r7,65535
 120356c:	14c5383a 	mul	r2,r2,r19
 1203570:	380ed43a 	srli	r7,r7,16
 1203574:	28ffffcc 	andi	r3,r5,65535
 1203578:	2085883a 	add	r2,r4,r2
 120357c:	1008d43a 	srli	r4,r2,16
 1203580:	3ccf383a 	mul	r7,r7,r19
 1203584:	198d883a 	add	r6,r3,r6
 1203588:	10ffffcc 	andi	r3,r2,65535
 120358c:	30c7c83a 	sub	r3,r6,r3
 1203590:	280ad43a 	srli	r5,r5,16
 1203594:	21c9883a 	add	r4,r4,r7
 1203598:	180dd43a 	srai	r6,r3,16
 120359c:	20bfffcc 	andi	r2,r4,65535
 12035a0:	288bc83a 	sub	r5,r5,r2
 12035a4:	298b883a 	add	r5,r5,r6
 12035a8:	280e943a 	slli	r7,r5,16
 12035ac:	18ffffcc 	andi	r3,r3,65535
 12035b0:	2008d43a 	srli	r4,r4,16
 12035b4:	38ceb03a 	or	r7,r7,r3
 12035b8:	49c00015 	stw	r7,0(r9)
 12035bc:	280dd43a 	srai	r6,r5,16
 12035c0:	4a400104 	addi	r9,r9,4
 12035c4:	a23fe52e 	bgeu	r20,r8,120355c <__alt_mem_instruction_tcm+0xff20355c>
 12035c8:	b0800017 	ldw	r2,0(r22)
 12035cc:	10000b1e 	bne	r2,zero,12035fc <quorem+0x120>
 12035d0:	b0bfff04 	addi	r2,r22,-4
 12035d4:	a880082e 	bgeu	r21,r2,12035f8 <quorem+0x11c>
 12035d8:	b0ffff17 	ldw	r3,-4(r22)
 12035dc:	18000326 	beq	r3,zero,12035ec <quorem+0x110>
 12035e0:	00000506 	br	12035f8 <quorem+0x11c>
 12035e4:	10c00017 	ldw	r3,0(r2)
 12035e8:	1800031e 	bne	r3,zero,12035f8 <quorem+0x11c>
 12035ec:	10bfff04 	addi	r2,r2,-4
 12035f0:	94bfffc4 	addi	r18,r18,-1
 12035f4:	a8bffb36 	bltu	r21,r2,12035e4 <__alt_mem_instruction_tcm+0xff2035e4>
 12035f8:	84800415 	stw	r18,16(r16)
 12035fc:	8009883a 	mov	r4,r16
 1203600:	b80b883a 	mov	r5,r23
 1203604:	12075c40 	call	12075c4 <__mcmp>
 1203608:	10002616 	blt	r2,zero,12036a4 <quorem+0x1c8>
 120360c:	9cc00044 	addi	r19,r19,1
 1203610:	a80d883a 	mov	r6,r21
 1203614:	000b883a 	mov	r5,zero
 1203618:	31000017 	ldw	r4,0(r6)
 120361c:	88800017 	ldw	r2,0(r17)
 1203620:	31800104 	addi	r6,r6,4
 1203624:	20ffffcc 	andi	r3,r4,65535
 1203628:	194b883a 	add	r5,r3,r5
 120362c:	10ffffcc 	andi	r3,r2,65535
 1203630:	28c7c83a 	sub	r3,r5,r3
 1203634:	1004d43a 	srli	r2,r2,16
 1203638:	2008d43a 	srli	r4,r4,16
 120363c:	180bd43a 	srai	r5,r3,16
 1203640:	18ffffcc 	andi	r3,r3,65535
 1203644:	2089c83a 	sub	r4,r4,r2
 1203648:	2149883a 	add	r4,r4,r5
 120364c:	2004943a 	slli	r2,r4,16
 1203650:	8c400104 	addi	r17,r17,4
 1203654:	200bd43a 	srai	r5,r4,16
 1203658:	10c6b03a 	or	r3,r2,r3
 120365c:	30ffff15 	stw	r3,-4(r6)
 1203660:	a47fed2e 	bgeu	r20,r17,1203618 <__alt_mem_instruction_tcm+0xff203618>
 1203664:	9485883a 	add	r2,r18,r18
 1203668:	1085883a 	add	r2,r2,r2
 120366c:	a887883a 	add	r3,r21,r2
 1203670:	18800017 	ldw	r2,0(r3)
 1203674:	10000b1e 	bne	r2,zero,12036a4 <quorem+0x1c8>
 1203678:	18bfff04 	addi	r2,r3,-4
 120367c:	a880082e 	bgeu	r21,r2,12036a0 <quorem+0x1c4>
 1203680:	18ffff17 	ldw	r3,-4(r3)
 1203684:	18000326 	beq	r3,zero,1203694 <quorem+0x1b8>
 1203688:	00000506 	br	12036a0 <quorem+0x1c4>
 120368c:	10c00017 	ldw	r3,0(r2)
 1203690:	1800031e 	bne	r3,zero,12036a0 <quorem+0x1c4>
 1203694:	10bfff04 	addi	r2,r2,-4
 1203698:	94bfffc4 	addi	r18,r18,-1
 120369c:	a8bffb36 	bltu	r21,r2,120368c <__alt_mem_instruction_tcm+0xff20368c>
 12036a0:	84800415 	stw	r18,16(r16)
 12036a4:	9805883a 	mov	r2,r19
 12036a8:	dfc00817 	ldw	ra,32(sp)
 12036ac:	ddc00717 	ldw	r23,28(sp)
 12036b0:	dd800617 	ldw	r22,24(sp)
 12036b4:	dd400517 	ldw	r21,20(sp)
 12036b8:	dd000417 	ldw	r20,16(sp)
 12036bc:	dcc00317 	ldw	r19,12(sp)
 12036c0:	dc800217 	ldw	r18,8(sp)
 12036c4:	dc400117 	ldw	r17,4(sp)
 12036c8:	dc000017 	ldw	r16,0(sp)
 12036cc:	dec00904 	addi	sp,sp,36
 12036d0:	f800283a 	ret
 12036d4:	0005883a 	mov	r2,zero
 12036d8:	003ff306 	br	12036a8 <__alt_mem_instruction_tcm+0xff2036a8>

012036dc <_dtoa_r>:
 12036dc:	20801017 	ldw	r2,64(r4)
 12036e0:	deffde04 	addi	sp,sp,-136
 12036e4:	dd401d15 	stw	r21,116(sp)
 12036e8:	dcc01b15 	stw	r19,108(sp)
 12036ec:	dc801a15 	stw	r18,104(sp)
 12036f0:	dc401915 	stw	r17,100(sp)
 12036f4:	dc001815 	stw	r16,96(sp)
 12036f8:	dfc02115 	stw	ra,132(sp)
 12036fc:	df002015 	stw	fp,128(sp)
 1203700:	ddc01f15 	stw	r23,124(sp)
 1203704:	dd801e15 	stw	r22,120(sp)
 1203708:	dd001c15 	stw	r20,112(sp)
 120370c:	d9c00315 	stw	r7,12(sp)
 1203710:	2021883a 	mov	r16,r4
 1203714:	302b883a 	mov	r21,r6
 1203718:	2825883a 	mov	r18,r5
 120371c:	dc402417 	ldw	r17,144(sp)
 1203720:	3027883a 	mov	r19,r6
 1203724:	10000826 	beq	r2,zero,1203748 <_dtoa_r+0x6c>
 1203728:	21801117 	ldw	r6,68(r4)
 120372c:	00c00044 	movi	r3,1
 1203730:	100b883a 	mov	r5,r2
 1203734:	1986983a 	sll	r3,r3,r6
 1203738:	11800115 	stw	r6,4(r2)
 120373c:	10c00215 	stw	r3,8(r2)
 1203740:	1206dac0 	call	1206dac <_Bfree>
 1203744:	80001015 	stw	zero,64(r16)
 1203748:	a8002d16 	blt	r21,zero,1203800 <_dtoa_r+0x124>
 120374c:	88000015 	stw	zero,0(r17)
 1203750:	a8dffc2c 	andhi	r3,r21,32752
 1203754:	009ffc34 	movhi	r2,32752
 1203758:	18801b26 	beq	r3,r2,12037c8 <_dtoa_r+0xec>
 120375c:	9009883a 	mov	r4,r18
 1203760:	980b883a 	mov	r5,r19
 1203764:	000d883a 	mov	r6,zero
 1203768:	000f883a 	mov	r7,zero
 120376c:	120c1f00 	call	120c1f0 <__eqdf2>
 1203770:	10002a1e 	bne	r2,zero,120381c <_dtoa_r+0x140>
 1203774:	d8c02317 	ldw	r3,140(sp)
 1203778:	d9002517 	ldw	r4,148(sp)
 120377c:	00800044 	movi	r2,1
 1203780:	18800015 	stw	r2,0(r3)
 1203784:	2001a226 	beq	r4,zero,1203e10 <_dtoa_r+0x734>
 1203788:	008048b4 	movhi	r2,290
 120378c:	10ac7c44 	addi	r2,r2,-19983
 1203790:	20800015 	stw	r2,0(r4)
 1203794:	10bfffc4 	addi	r2,r2,-1
 1203798:	dfc02117 	ldw	ra,132(sp)
 120379c:	df002017 	ldw	fp,128(sp)
 12037a0:	ddc01f17 	ldw	r23,124(sp)
 12037a4:	dd801e17 	ldw	r22,120(sp)
 12037a8:	dd401d17 	ldw	r21,116(sp)
 12037ac:	dd001c17 	ldw	r20,112(sp)
 12037b0:	dcc01b17 	ldw	r19,108(sp)
 12037b4:	dc801a17 	ldw	r18,104(sp)
 12037b8:	dc401917 	ldw	r17,100(sp)
 12037bc:	dc001817 	ldw	r16,96(sp)
 12037c0:	dec02204 	addi	sp,sp,136
 12037c4:	f800283a 	ret
 12037c8:	d8c02317 	ldw	r3,140(sp)
 12037cc:	0089c3c4 	movi	r2,9999
 12037d0:	18800015 	stw	r2,0(r3)
 12037d4:	90017c26 	beq	r18,zero,1203dc8 <_dtoa_r+0x6ec>
 12037d8:	008048b4 	movhi	r2,290
 12037dc:	10ac8804 	addi	r2,r2,-19936
 12037e0:	d9002517 	ldw	r4,148(sp)
 12037e4:	203fec26 	beq	r4,zero,1203798 <__alt_mem_instruction_tcm+0xff203798>
 12037e8:	10c000c7 	ldb	r3,3(r2)
 12037ec:	18017d1e 	bne	r3,zero,1203de4 <_dtoa_r+0x708>
 12037f0:	10c000c4 	addi	r3,r2,3
 12037f4:	d9802517 	ldw	r6,148(sp)
 12037f8:	30c00015 	stw	r3,0(r6)
 12037fc:	003fe606 	br	1203798 <__alt_mem_instruction_tcm+0xff203798>
 1203800:	04e00034 	movhi	r19,32768
 1203804:	9cffffc4 	addi	r19,r19,-1
 1203808:	00800044 	movi	r2,1
 120380c:	ace6703a 	and	r19,r21,r19
 1203810:	88800015 	stw	r2,0(r17)
 1203814:	982b883a 	mov	r21,r19
 1203818:	003fcd06 	br	1203750 <__alt_mem_instruction_tcm+0xff203750>
 120381c:	d8800204 	addi	r2,sp,8
 1203820:	a822d53a 	srli	r17,r21,20
 1203824:	d8800015 	stw	r2,0(sp)
 1203828:	8009883a 	mov	r4,r16
 120382c:	900b883a 	mov	r5,r18
 1203830:	980d883a 	mov	r6,r19
 1203834:	d9c00104 	addi	r7,sp,4
 1203838:	12079380 	call	1207938 <__d2b>
 120383c:	1039883a 	mov	fp,r2
 1203840:	88016a1e 	bne	r17,zero,1203dec <_dtoa_r+0x710>
 1203844:	dd000217 	ldw	r20,8(sp)
 1203848:	dc400117 	ldw	r17,4(sp)
 120384c:	00befbc4 	movi	r2,-1041
 1203850:	a463883a 	add	r17,r20,r17
 1203854:	8882ea16 	blt	r17,r2,1204400 <_dtoa_r+0xd24>
 1203858:	00bf0384 	movi	r2,-1010
 120385c:	1445c83a 	sub	r2,r2,r17
 1203860:	89010484 	addi	r4,r17,1042
 1203864:	a8aa983a 	sll	r21,r21,r2
 1203868:	9108d83a 	srl	r4,r18,r4
 120386c:	a908b03a 	or	r4,r21,r4
 1203870:	120d5800 	call	120d580 <__floatunsidf>
 1203874:	017f8434 	movhi	r5,65040
 1203878:	01800044 	movi	r6,1
 120387c:	1009883a 	mov	r4,r2
 1203880:	194b883a 	add	r5,r3,r5
 1203884:	8c7fffc4 	addi	r17,r17,-1
 1203888:	d9800f15 	stw	r6,60(sp)
 120388c:	000d883a 	mov	r6,zero
 1203890:	01cffe34 	movhi	r7,16376
 1203894:	120cb580 	call	120cb58 <__subdf3>
 1203898:	0198dbf4 	movhi	r6,25455
 120389c:	01cff4f4 	movhi	r7,16339
 12038a0:	1009883a 	mov	r4,r2
 12038a4:	180b883a 	mov	r5,r3
 12038a8:	3190d844 	addi	r6,r6,17249
 12038ac:	39e1e9c4 	addi	r7,r7,-30809
 12038b0:	120c4340 	call	120c434 <__muldf3>
 12038b4:	01a2d874 	movhi	r6,35681
 12038b8:	01cff1f4 	movhi	r7,16327
 12038bc:	180b883a 	mov	r5,r3
 12038c0:	31b22cc4 	addi	r6,r6,-14157
 12038c4:	39e28a04 	addi	r7,r7,-30168
 12038c8:	1009883a 	mov	r4,r2
 12038cc:	120b0880 	call	120b088 <__adddf3>
 12038d0:	8809883a 	mov	r4,r17
 12038d4:	102d883a 	mov	r22,r2
 12038d8:	182b883a 	mov	r21,r3
 12038dc:	120d4b00 	call	120d4b0 <__floatsidf>
 12038e0:	019427f4 	movhi	r6,20639
 12038e4:	01cff4f4 	movhi	r7,16339
 12038e8:	1009883a 	mov	r4,r2
 12038ec:	180b883a 	mov	r5,r3
 12038f0:	319e7ec4 	addi	r6,r6,31227
 12038f4:	39d104c4 	addi	r7,r7,17427
 12038f8:	120c4340 	call	120c434 <__muldf3>
 12038fc:	b009883a 	mov	r4,r22
 1203900:	a80b883a 	mov	r5,r21
 1203904:	100d883a 	mov	r6,r2
 1203908:	180f883a 	mov	r7,r3
 120390c:	120b0880 	call	120b088 <__adddf3>
 1203910:	1009883a 	mov	r4,r2
 1203914:	180b883a 	mov	r5,r3
 1203918:	102d883a 	mov	r22,r2
 120391c:	182b883a 	mov	r21,r3
 1203920:	120d4280 	call	120d428 <__fixdfsi>
 1203924:	b009883a 	mov	r4,r22
 1203928:	a80b883a 	mov	r5,r21
 120392c:	000d883a 	mov	r6,zero
 1203930:	000f883a 	mov	r7,zero
 1203934:	d8800515 	stw	r2,20(sp)
 1203938:	120c3540 	call	120c354 <__ledf2>
 120393c:	10023116 	blt	r2,zero,1204204 <_dtoa_r+0xb28>
 1203940:	d8c00517 	ldw	r3,20(sp)
 1203944:	00800584 	movi	r2,22
 1203948:	10c21f36 	bltu	r2,r3,12041c8 <_dtoa_r+0xaec>
 120394c:	180490fa 	slli	r2,r3,3
 1203950:	00c048b4 	movhi	r3,290
 1203954:	18eca304 	addi	r3,r3,-19828
 1203958:	1885883a 	add	r2,r3,r2
 120395c:	11000017 	ldw	r4,0(r2)
 1203960:	11400117 	ldw	r5,4(r2)
 1203964:	900d883a 	mov	r6,r18
 1203968:	980f883a 	mov	r7,r19
 120396c:	120c2740 	call	120c274 <__gedf2>
 1203970:	0082a70e 	bge	zero,r2,1204410 <_dtoa_r+0xd34>
 1203974:	d9000517 	ldw	r4,20(sp)
 1203978:	d8000c15 	stw	zero,48(sp)
 120397c:	213fffc4 	addi	r4,r4,-1
 1203980:	d9000515 	stw	r4,20(sp)
 1203984:	a463c83a 	sub	r17,r20,r17
 1203988:	8dbfffc4 	addi	r22,r17,-1
 120398c:	b0021916 	blt	r22,zero,12041f4 <_dtoa_r+0xb18>
 1203990:	d8000815 	stw	zero,32(sp)
 1203994:	d8800517 	ldw	r2,20(sp)
 1203998:	10020e16 	blt	r2,zero,12041d4 <_dtoa_r+0xaf8>
 120399c:	b0ad883a 	add	r22,r22,r2
 12039a0:	d8800a15 	stw	r2,40(sp)
 12039a4:	d8000915 	stw	zero,36(sp)
 12039a8:	d8c00317 	ldw	r3,12(sp)
 12039ac:	00800244 	movi	r2,9
 12039b0:	10c11a36 	bltu	r2,r3,1203e1c <_dtoa_r+0x740>
 12039b4:	00800144 	movi	r2,5
 12039b8:	10c4fc0e 	bge	r2,r3,1204dac <_dtoa_r+0x16d0>
 12039bc:	18ffff04 	addi	r3,r3,-4
 12039c0:	d8c00315 	stw	r3,12(sp)
 12039c4:	0029883a 	mov	r20,zero
 12039c8:	d9800317 	ldw	r6,12(sp)
 12039cc:	008000c4 	movi	r2,3
 12039d0:	3083bd26 	beq	r6,r2,12048c8 <_dtoa_r+0x11ec>
 12039d4:	1183670e 	bge	r2,r6,1204774 <_dtoa_r+0x1098>
 12039d8:	d8c00317 	ldw	r3,12(sp)
 12039dc:	00800104 	movi	r2,4
 12039e0:	1882e726 	beq	r3,r2,1204580 <_dtoa_r+0xea4>
 12039e4:	00800144 	movi	r2,5
 12039e8:	1884f21e 	bne	r3,r2,1204db4 <_dtoa_r+0x16d8>
 12039ec:	00800044 	movi	r2,1
 12039f0:	d8800b15 	stw	r2,44(sp)
 12039f4:	d8c02217 	ldw	r3,136(sp)
 12039f8:	d9000517 	ldw	r4,20(sp)
 12039fc:	1907883a 	add	r3,r3,r4
 1203a00:	19800044 	addi	r6,r3,1
 1203a04:	d8c00d15 	stw	r3,52(sp)
 1203a08:	d9800615 	stw	r6,24(sp)
 1203a0c:	0183c30e 	bge	zero,r6,120491c <_dtoa_r+0x1240>
 1203a10:	d9800617 	ldw	r6,24(sp)
 1203a14:	3023883a 	mov	r17,r6
 1203a18:	80001115 	stw	zero,68(r16)
 1203a1c:	008005c4 	movi	r2,23
 1203a20:	1184f62e 	bgeu	r2,r6,1204dfc <_dtoa_r+0x1720>
 1203a24:	00c00044 	movi	r3,1
 1203a28:	00800104 	movi	r2,4
 1203a2c:	1085883a 	add	r2,r2,r2
 1203a30:	11000504 	addi	r4,r2,20
 1203a34:	180b883a 	mov	r5,r3
 1203a38:	18c00044 	addi	r3,r3,1
 1203a3c:	313ffb2e 	bgeu	r6,r4,1203a2c <__alt_mem_instruction_tcm+0xff203a2c>
 1203a40:	81401115 	stw	r5,68(r16)
 1203a44:	8009883a 	mov	r4,r16
 1203a48:	1206d040 	call	1206d04 <_Balloc>
 1203a4c:	d8800715 	stw	r2,28(sp)
 1203a50:	80801015 	stw	r2,64(r16)
 1203a54:	00800384 	movi	r2,14
 1203a58:	1440fd36 	bltu	r2,r17,1203e50 <_dtoa_r+0x774>
 1203a5c:	a000fc26 	beq	r20,zero,1203e50 <_dtoa_r+0x774>
 1203a60:	d8800517 	ldw	r2,20(sp)
 1203a64:	0083b90e 	bge	zero,r2,120494c <_dtoa_r+0x1270>
 1203a68:	d8c00517 	ldw	r3,20(sp)
 1203a6c:	108003cc 	andi	r2,r2,15
 1203a70:	100490fa 	slli	r2,r2,3
 1203a74:	182fd13a 	srai	r23,r3,4
 1203a78:	00c048b4 	movhi	r3,290
 1203a7c:	18eca304 	addi	r3,r3,-19828
 1203a80:	1885883a 	add	r2,r3,r2
 1203a84:	b8c0040c 	andi	r3,r23,16
 1203a88:	12c00017 	ldw	r11,0(r2)
 1203a8c:	12800117 	ldw	r10,4(r2)
 1203a90:	18039726 	beq	r3,zero,12048f0 <_dtoa_r+0x1214>
 1203a94:	008048b4 	movhi	r2,290
 1203a98:	10ac9904 	addi	r2,r2,-19868
 1203a9c:	11800817 	ldw	r6,32(r2)
 1203aa0:	11c00917 	ldw	r7,36(r2)
 1203aa4:	9009883a 	mov	r4,r18
 1203aa8:	980b883a 	mov	r5,r19
 1203aac:	da801615 	stw	r10,88(sp)
 1203ab0:	dac01515 	stw	r11,84(sp)
 1203ab4:	120b9240 	call	120b924 <__divdf3>
 1203ab8:	da801617 	ldw	r10,88(sp)
 1203abc:	dac01517 	ldw	r11,84(sp)
 1203ac0:	bdc003cc 	andi	r23,r23,15
 1203ac4:	044000c4 	movi	r17,3
 1203ac8:	d8800e15 	stw	r2,56(sp)
 1203acc:	182b883a 	mov	r21,r3
 1203ad0:	b8001126 	beq	r23,zero,1203b18 <_dtoa_r+0x43c>
 1203ad4:	050048b4 	movhi	r20,290
 1203ad8:	a52c9904 	addi	r20,r20,-19868
 1203adc:	5805883a 	mov	r2,r11
 1203ae0:	5007883a 	mov	r3,r10
 1203ae4:	b980004c 	andi	r6,r23,1
 1203ae8:	1009883a 	mov	r4,r2
 1203aec:	b82fd07a 	srai	r23,r23,1
 1203af0:	180b883a 	mov	r5,r3
 1203af4:	30000426 	beq	r6,zero,1203b08 <_dtoa_r+0x42c>
 1203af8:	a1800017 	ldw	r6,0(r20)
 1203afc:	a1c00117 	ldw	r7,4(r20)
 1203b00:	8c400044 	addi	r17,r17,1
 1203b04:	120c4340 	call	120c434 <__muldf3>
 1203b08:	a5000204 	addi	r20,r20,8
 1203b0c:	b83ff51e 	bne	r23,zero,1203ae4 <__alt_mem_instruction_tcm+0xff203ae4>
 1203b10:	1017883a 	mov	r11,r2
 1203b14:	1815883a 	mov	r10,r3
 1203b18:	d9000e17 	ldw	r4,56(sp)
 1203b1c:	a80b883a 	mov	r5,r21
 1203b20:	580d883a 	mov	r6,r11
 1203b24:	500f883a 	mov	r7,r10
 1203b28:	120b9240 	call	120b924 <__divdf3>
 1203b2c:	1029883a 	mov	r20,r2
 1203b30:	182b883a 	mov	r21,r3
 1203b34:	d9800c17 	ldw	r6,48(sp)
 1203b38:	30000626 	beq	r6,zero,1203b54 <_dtoa_r+0x478>
 1203b3c:	a009883a 	mov	r4,r20
 1203b40:	a80b883a 	mov	r5,r21
 1203b44:	000d883a 	mov	r6,zero
 1203b48:	01cffc34 	movhi	r7,16368
 1203b4c:	120c3540 	call	120c354 <__ledf2>
 1203b50:	10043216 	blt	r2,zero,1204c1c <_dtoa_r+0x1540>
 1203b54:	8809883a 	mov	r4,r17
 1203b58:	120d4b00 	call	120d4b0 <__floatsidf>
 1203b5c:	1009883a 	mov	r4,r2
 1203b60:	180b883a 	mov	r5,r3
 1203b64:	a00d883a 	mov	r6,r20
 1203b68:	a80f883a 	mov	r7,r21
 1203b6c:	120c4340 	call	120c434 <__muldf3>
 1203b70:	000d883a 	mov	r6,zero
 1203b74:	1009883a 	mov	r4,r2
 1203b78:	180b883a 	mov	r5,r3
 1203b7c:	01d00734 	movhi	r7,16412
 1203b80:	120b0880 	call	120b088 <__adddf3>
 1203b84:	1023883a 	mov	r17,r2
 1203b88:	d9800617 	ldw	r6,24(sp)
 1203b8c:	00bf3034 	movhi	r2,64704
 1203b90:	1885883a 	add	r2,r3,r2
 1203b94:	d8800e15 	stw	r2,56(sp)
 1203b98:	30032e26 	beq	r6,zero,1204854 <_dtoa_r+0x1178>
 1203b9c:	d8c00517 	ldw	r3,20(sp)
 1203ba0:	da800617 	ldw	r10,24(sp)
 1203ba4:	d8c01215 	stw	r3,72(sp)
 1203ba8:	d9000b17 	ldw	r4,44(sp)
 1203bac:	2003b026 	beq	r4,zero,1204a70 <_dtoa_r+0x1394>
 1203bb0:	50bfffc4 	addi	r2,r10,-1
 1203bb4:	100490fa 	slli	r2,r2,3
 1203bb8:	00c048b4 	movhi	r3,290
 1203bbc:	18eca304 	addi	r3,r3,-19828
 1203bc0:	1885883a 	add	r2,r3,r2
 1203bc4:	11800017 	ldw	r6,0(r2)
 1203bc8:	11c00117 	ldw	r7,4(r2)
 1203bcc:	d8800717 	ldw	r2,28(sp)
 1203bd0:	0009883a 	mov	r4,zero
 1203bd4:	014ff834 	movhi	r5,16352
 1203bd8:	da801615 	stw	r10,88(sp)
 1203bdc:	15c00044 	addi	r23,r2,1
 1203be0:	120b9240 	call	120b924 <__divdf3>
 1203be4:	d9c00e17 	ldw	r7,56(sp)
 1203be8:	880d883a 	mov	r6,r17
 1203bec:	1009883a 	mov	r4,r2
 1203bf0:	180b883a 	mov	r5,r3
 1203bf4:	120cb580 	call	120cb58 <__subdf3>
 1203bf8:	a80b883a 	mov	r5,r21
 1203bfc:	a009883a 	mov	r4,r20
 1203c00:	d8c01015 	stw	r3,64(sp)
 1203c04:	d8800e15 	stw	r2,56(sp)
 1203c08:	120d4280 	call	120d428 <__fixdfsi>
 1203c0c:	1009883a 	mov	r4,r2
 1203c10:	d8801715 	stw	r2,92(sp)
 1203c14:	120d4b00 	call	120d4b0 <__floatsidf>
 1203c18:	a009883a 	mov	r4,r20
 1203c1c:	a80b883a 	mov	r5,r21
 1203c20:	100d883a 	mov	r6,r2
 1203c24:	180f883a 	mov	r7,r3
 1203c28:	120cb580 	call	120cb58 <__subdf3>
 1203c2c:	da001717 	ldw	r8,92(sp)
 1203c30:	1829883a 	mov	r20,r3
 1203c34:	d8c00717 	ldw	r3,28(sp)
 1203c38:	d9000e17 	ldw	r4,56(sp)
 1203c3c:	d9401017 	ldw	r5,64(sp)
 1203c40:	42000c04 	addi	r8,r8,48
 1203c44:	1023883a 	mov	r17,r2
 1203c48:	1a000005 	stb	r8,0(r3)
 1203c4c:	880d883a 	mov	r6,r17
 1203c50:	a00f883a 	mov	r7,r20
 1203c54:	402b883a 	mov	r21,r8
 1203c58:	120c2740 	call	120c274 <__gedf2>
 1203c5c:	00844516 	blt	zero,r2,1204d74 <_dtoa_r+0x1698>
 1203c60:	0009883a 	mov	r4,zero
 1203c64:	014ffc34 	movhi	r5,16368
 1203c68:	880d883a 	mov	r6,r17
 1203c6c:	a00f883a 	mov	r7,r20
 1203c70:	120cb580 	call	120cb58 <__subdf3>
 1203c74:	d9000e17 	ldw	r4,56(sp)
 1203c78:	d9401017 	ldw	r5,64(sp)
 1203c7c:	100d883a 	mov	r6,r2
 1203c80:	180f883a 	mov	r7,r3
 1203c84:	120c2740 	call	120c274 <__gedf2>
 1203c88:	da801617 	ldw	r10,88(sp)
 1203c8c:	00843616 	blt	zero,r2,1204d68 <_dtoa_r+0x168c>
 1203c90:	00800044 	movi	r2,1
 1203c94:	12806e0e 	bge	r2,r10,1203e50 <_dtoa_r+0x774>
 1203c98:	d9000717 	ldw	r4,28(sp)
 1203c9c:	dd801315 	stw	r22,76(sp)
 1203ca0:	dc001115 	stw	r16,68(sp)
 1203ca4:	2295883a 	add	r10,r4,r10
 1203ca8:	dcc01415 	stw	r19,80(sp)
 1203cac:	502d883a 	mov	r22,r10
 1203cb0:	dcc01017 	ldw	r19,64(sp)
 1203cb4:	b821883a 	mov	r16,r23
 1203cb8:	dc801015 	stw	r18,64(sp)
 1203cbc:	dc800e17 	ldw	r18,56(sp)
 1203cc0:	00000906 	br	1203ce8 <_dtoa_r+0x60c>
 1203cc4:	120cb580 	call	120cb58 <__subdf3>
 1203cc8:	1009883a 	mov	r4,r2
 1203ccc:	180b883a 	mov	r5,r3
 1203cd0:	900d883a 	mov	r6,r18
 1203cd4:	980f883a 	mov	r7,r19
 1203cd8:	120c3540 	call	120c354 <__ledf2>
 1203cdc:	10040e16 	blt	r2,zero,1204d18 <_dtoa_r+0x163c>
 1203ce0:	b821883a 	mov	r16,r23
 1203ce4:	bd841026 	beq	r23,r22,1204d28 <_dtoa_r+0x164c>
 1203ce8:	9009883a 	mov	r4,r18
 1203cec:	980b883a 	mov	r5,r19
 1203cf0:	000d883a 	mov	r6,zero
 1203cf4:	01d00934 	movhi	r7,16420
 1203cf8:	120c4340 	call	120c434 <__muldf3>
 1203cfc:	000d883a 	mov	r6,zero
 1203d00:	01d00934 	movhi	r7,16420
 1203d04:	8809883a 	mov	r4,r17
 1203d08:	a00b883a 	mov	r5,r20
 1203d0c:	1025883a 	mov	r18,r2
 1203d10:	1827883a 	mov	r19,r3
 1203d14:	120c4340 	call	120c434 <__muldf3>
 1203d18:	180b883a 	mov	r5,r3
 1203d1c:	1009883a 	mov	r4,r2
 1203d20:	1823883a 	mov	r17,r3
 1203d24:	1029883a 	mov	r20,r2
 1203d28:	120d4280 	call	120d428 <__fixdfsi>
 1203d2c:	1009883a 	mov	r4,r2
 1203d30:	102b883a 	mov	r21,r2
 1203d34:	120d4b00 	call	120d4b0 <__floatsidf>
 1203d38:	a009883a 	mov	r4,r20
 1203d3c:	880b883a 	mov	r5,r17
 1203d40:	100d883a 	mov	r6,r2
 1203d44:	180f883a 	mov	r7,r3
 1203d48:	120cb580 	call	120cb58 <__subdf3>
 1203d4c:	ad400c04 	addi	r21,r21,48
 1203d50:	1009883a 	mov	r4,r2
 1203d54:	180b883a 	mov	r5,r3
 1203d58:	900d883a 	mov	r6,r18
 1203d5c:	980f883a 	mov	r7,r19
 1203d60:	85400005 	stb	r21,0(r16)
 1203d64:	1023883a 	mov	r17,r2
 1203d68:	1829883a 	mov	r20,r3
 1203d6c:	120c3540 	call	120c354 <__ledf2>
 1203d70:	bdc00044 	addi	r23,r23,1
 1203d74:	0009883a 	mov	r4,zero
 1203d78:	014ffc34 	movhi	r5,16368
 1203d7c:	880d883a 	mov	r6,r17
 1203d80:	a00f883a 	mov	r7,r20
 1203d84:	103fcf0e 	bge	r2,zero,1203cc4 <__alt_mem_instruction_tcm+0xff203cc4>
 1203d88:	d9801217 	ldw	r6,72(sp)
 1203d8c:	dc001117 	ldw	r16,68(sp)
 1203d90:	d9800515 	stw	r6,20(sp)
 1203d94:	8009883a 	mov	r4,r16
 1203d98:	e00b883a 	mov	r5,fp
 1203d9c:	1206dac0 	call	1206dac <_Bfree>
 1203da0:	d8c00517 	ldw	r3,20(sp)
 1203da4:	d9002317 	ldw	r4,140(sp)
 1203da8:	d9802517 	ldw	r6,148(sp)
 1203dac:	b8000005 	stb	zero,0(r23)
 1203db0:	18800044 	addi	r2,r3,1
 1203db4:	20800015 	stw	r2,0(r4)
 1203db8:	30027226 	beq	r6,zero,1204784 <_dtoa_r+0x10a8>
 1203dbc:	35c00015 	stw	r23,0(r6)
 1203dc0:	d8800717 	ldw	r2,28(sp)
 1203dc4:	003e7406 	br	1203798 <__alt_mem_instruction_tcm+0xff203798>
 1203dc8:	00800434 	movhi	r2,16
 1203dcc:	10bfffc4 	addi	r2,r2,-1
 1203dd0:	a8aa703a 	and	r21,r21,r2
 1203dd4:	a83e801e 	bne	r21,zero,12037d8 <__alt_mem_instruction_tcm+0xff2037d8>
 1203dd8:	008048b4 	movhi	r2,290
 1203ddc:	10ac8504 	addi	r2,r2,-19948
 1203de0:	003e7f06 	br	12037e0 <__alt_mem_instruction_tcm+0xff2037e0>
 1203de4:	10c00204 	addi	r3,r2,8
 1203de8:	003e8206 	br	12037f4 <__alt_mem_instruction_tcm+0xff2037f4>
 1203dec:	01400434 	movhi	r5,16
 1203df0:	297fffc4 	addi	r5,r5,-1
 1203df4:	994a703a 	and	r5,r19,r5
 1203df8:	9009883a 	mov	r4,r18
 1203dfc:	8c7f0044 	addi	r17,r17,-1023
 1203e00:	294ffc34 	orhi	r5,r5,16368
 1203e04:	dd000217 	ldw	r20,8(sp)
 1203e08:	d8000f15 	stw	zero,60(sp)
 1203e0c:	003e9f06 	br	120388c <__alt_mem_instruction_tcm+0xff20388c>
 1203e10:	008048b4 	movhi	r2,290
 1203e14:	10ac7c04 	addi	r2,r2,-19984
 1203e18:	003e5f06 	br	1203798 <__alt_mem_instruction_tcm+0xff203798>
 1203e1c:	80001115 	stw	zero,68(r16)
 1203e20:	8009883a 	mov	r4,r16
 1203e24:	000b883a 	mov	r5,zero
 1203e28:	1206d040 	call	1206d04 <_Balloc>
 1203e2c:	01bfffc4 	movi	r6,-1
 1203e30:	d8800715 	stw	r2,28(sp)
 1203e34:	80801015 	stw	r2,64(r16)
 1203e38:	00800044 	movi	r2,1
 1203e3c:	d9800615 	stw	r6,24(sp)
 1203e40:	d8800b15 	stw	r2,44(sp)
 1203e44:	d8002215 	stw	zero,136(sp)
 1203e48:	d9800d15 	stw	r6,52(sp)
 1203e4c:	d8000315 	stw	zero,12(sp)
 1203e50:	d8800117 	ldw	r2,4(sp)
 1203e54:	10008e16 	blt	r2,zero,1204090 <_dtoa_r+0x9b4>
 1203e58:	d9000517 	ldw	r4,20(sp)
 1203e5c:	00c00384 	movi	r3,14
 1203e60:	19008b16 	blt	r3,r4,1204090 <_dtoa_r+0x9b4>
 1203e64:	200490fa 	slli	r2,r4,3
 1203e68:	00c048b4 	movhi	r3,290
 1203e6c:	d9802217 	ldw	r6,136(sp)
 1203e70:	18eca304 	addi	r3,r3,-19828
 1203e74:	1885883a 	add	r2,r3,r2
 1203e78:	14400017 	ldw	r17,0(r2)
 1203e7c:	15000117 	ldw	r20,4(r2)
 1203e80:	3001c716 	blt	r6,zero,12045a0 <_dtoa_r+0xec4>
 1203e84:	880d883a 	mov	r6,r17
 1203e88:	a00f883a 	mov	r7,r20
 1203e8c:	9009883a 	mov	r4,r18
 1203e90:	980b883a 	mov	r5,r19
 1203e94:	120b9240 	call	120b924 <__divdf3>
 1203e98:	180b883a 	mov	r5,r3
 1203e9c:	1009883a 	mov	r4,r2
 1203ea0:	120d4280 	call	120d428 <__fixdfsi>
 1203ea4:	1009883a 	mov	r4,r2
 1203ea8:	102d883a 	mov	r22,r2
 1203eac:	120d4b00 	call	120d4b0 <__floatsidf>
 1203eb0:	1009883a 	mov	r4,r2
 1203eb4:	180b883a 	mov	r5,r3
 1203eb8:	880d883a 	mov	r6,r17
 1203ebc:	a00f883a 	mov	r7,r20
 1203ec0:	120c4340 	call	120c434 <__muldf3>
 1203ec4:	9009883a 	mov	r4,r18
 1203ec8:	980b883a 	mov	r5,r19
 1203ecc:	100d883a 	mov	r6,r2
 1203ed0:	180f883a 	mov	r7,r3
 1203ed4:	120cb580 	call	120cb58 <__subdf3>
 1203ed8:	d9000717 	ldw	r4,28(sp)
 1203edc:	d9800617 	ldw	r6,24(sp)
 1203ee0:	180b883a 	mov	r5,r3
 1203ee4:	b0c00c04 	addi	r3,r22,48
 1203ee8:	20c00005 	stb	r3,0(r4)
 1203eec:	25c00044 	addi	r23,r4,1
 1203ef0:	01000044 	movi	r4,1
 1203ef4:	1011883a 	mov	r8,r2
 1203ef8:	2807883a 	mov	r3,r5
 1203efc:	31003d26 	beq	r6,r4,1203ff4 <_dtoa_r+0x918>
 1203f00:	000d883a 	mov	r6,zero
 1203f04:	01d00934 	movhi	r7,16420
 1203f08:	1009883a 	mov	r4,r2
 1203f0c:	120c4340 	call	120c434 <__muldf3>
 1203f10:	1009883a 	mov	r4,r2
 1203f14:	180b883a 	mov	r5,r3
 1203f18:	000d883a 	mov	r6,zero
 1203f1c:	000f883a 	mov	r7,zero
 1203f20:	1027883a 	mov	r19,r2
 1203f24:	182b883a 	mov	r21,r3
 1203f28:	120c1f00 	call	120c1f0 <__eqdf2>
 1203f2c:	103f9926 	beq	r2,zero,1203d94 <__alt_mem_instruction_tcm+0xff203d94>
 1203f30:	d8c00617 	ldw	r3,24(sp)
 1203f34:	d9000717 	ldw	r4,28(sp)
 1203f38:	b825883a 	mov	r18,r23
 1203f3c:	18bfffc4 	addi	r2,r3,-1
 1203f40:	20ad883a 	add	r22,r4,r2
 1203f44:	dc000315 	stw	r16,12(sp)
 1203f48:	00000a06 	br	1203f74 <_dtoa_r+0x898>
 1203f4c:	120c4340 	call	120c434 <__muldf3>
 1203f50:	1009883a 	mov	r4,r2
 1203f54:	180b883a 	mov	r5,r3
 1203f58:	000d883a 	mov	r6,zero
 1203f5c:	000f883a 	mov	r7,zero
 1203f60:	1027883a 	mov	r19,r2
 1203f64:	182b883a 	mov	r21,r3
 1203f68:	b825883a 	mov	r18,r23
 1203f6c:	120c1f00 	call	120c1f0 <__eqdf2>
 1203f70:	10022626 	beq	r2,zero,120480c <_dtoa_r+0x1130>
 1203f74:	880d883a 	mov	r6,r17
 1203f78:	a00f883a 	mov	r7,r20
 1203f7c:	9809883a 	mov	r4,r19
 1203f80:	a80b883a 	mov	r5,r21
 1203f84:	120b9240 	call	120b924 <__divdf3>
 1203f88:	180b883a 	mov	r5,r3
 1203f8c:	1009883a 	mov	r4,r2
 1203f90:	120d4280 	call	120d428 <__fixdfsi>
 1203f94:	1009883a 	mov	r4,r2
 1203f98:	1021883a 	mov	r16,r2
 1203f9c:	120d4b00 	call	120d4b0 <__floatsidf>
 1203fa0:	1009883a 	mov	r4,r2
 1203fa4:	180b883a 	mov	r5,r3
 1203fa8:	880d883a 	mov	r6,r17
 1203fac:	a00f883a 	mov	r7,r20
 1203fb0:	120c4340 	call	120c434 <__muldf3>
 1203fb4:	9809883a 	mov	r4,r19
 1203fb8:	a80b883a 	mov	r5,r21
 1203fbc:	100d883a 	mov	r6,r2
 1203fc0:	180f883a 	mov	r7,r3
 1203fc4:	120cb580 	call	120cb58 <__subdf3>
 1203fc8:	82000c04 	addi	r8,r16,48
 1203fcc:	92000005 	stb	r8,0(r18)
 1203fd0:	1009883a 	mov	r4,r2
 1203fd4:	180b883a 	mov	r5,r3
 1203fd8:	000d883a 	mov	r6,zero
 1203fdc:	01d00934 	movhi	r7,16420
 1203fe0:	1011883a 	mov	r8,r2
 1203fe4:	bdc00044 	addi	r23,r23,1
 1203fe8:	95bfd81e 	bne	r18,r22,1203f4c <__alt_mem_instruction_tcm+0xff203f4c>
 1203fec:	802d883a 	mov	r22,r16
 1203ff0:	dc000317 	ldw	r16,12(sp)
 1203ff4:	4009883a 	mov	r4,r8
 1203ff8:	180b883a 	mov	r5,r3
 1203ffc:	400d883a 	mov	r6,r8
 1204000:	180f883a 	mov	r7,r3
 1204004:	120b0880 	call	120b088 <__adddf3>
 1204008:	8809883a 	mov	r4,r17
 120400c:	a00b883a 	mov	r5,r20
 1204010:	100d883a 	mov	r6,r2
 1204014:	180f883a 	mov	r7,r3
 1204018:	1027883a 	mov	r19,r2
 120401c:	1825883a 	mov	r18,r3
 1204020:	120c3540 	call	120c354 <__ledf2>
 1204024:	10000816 	blt	r2,zero,1204048 <_dtoa_r+0x96c>
 1204028:	8809883a 	mov	r4,r17
 120402c:	a00b883a 	mov	r5,r20
 1204030:	980d883a 	mov	r6,r19
 1204034:	900f883a 	mov	r7,r18
 1204038:	120c1f00 	call	120c1f0 <__eqdf2>
 120403c:	103f551e 	bne	r2,zero,1203d94 <__alt_mem_instruction_tcm+0xff203d94>
 1204040:	b580004c 	andi	r22,r22,1
 1204044:	b03f5326 	beq	r22,zero,1203d94 <__alt_mem_instruction_tcm+0xff203d94>
 1204048:	bd7fffc3 	ldbu	r21,-1(r23)
 120404c:	b8bfffc4 	addi	r2,r23,-1
 1204050:	1007883a 	mov	r3,r2
 1204054:	01400e44 	movi	r5,57
 1204058:	d9800717 	ldw	r6,28(sp)
 120405c:	00000506 	br	1204074 <_dtoa_r+0x998>
 1204060:	18ffffc4 	addi	r3,r3,-1
 1204064:	30825e26 	beq	r6,r2,12049e0 <_dtoa_r+0x1304>
 1204068:	1d400003 	ldbu	r21,0(r3)
 120406c:	102f883a 	mov	r23,r2
 1204070:	10bfffc4 	addi	r2,r2,-1
 1204074:	a9003fcc 	andi	r4,r21,255
 1204078:	2100201c 	xori	r4,r4,128
 120407c:	213fe004 	addi	r4,r4,-128
 1204080:	217ff726 	beq	r4,r5,1204060 <__alt_mem_instruction_tcm+0xff204060>
 1204084:	aa000044 	addi	r8,r21,1
 1204088:	12000005 	stb	r8,0(r2)
 120408c:	003f4106 	br	1203d94 <__alt_mem_instruction_tcm+0xff203d94>
 1204090:	d8c00b17 	ldw	r3,44(sp)
 1204094:	18006726 	beq	r3,zero,1204234 <_dtoa_r+0xb58>
 1204098:	d9000317 	ldw	r4,12(sp)
 120409c:	00c00044 	movi	r3,1
 12040a0:	19016a0e 	bge	r3,r4,120464c <_dtoa_r+0xf70>
 12040a4:	d8800617 	ldw	r2,24(sp)
 12040a8:	d8c00917 	ldw	r3,36(sp)
 12040ac:	157fffc4 	addi	r21,r2,-1
 12040b0:	1d420716 	blt	r3,r21,12048d0 <_dtoa_r+0x11f4>
 12040b4:	1d6bc83a 	sub	r21,r3,r21
 12040b8:	d8800617 	ldw	r2,24(sp)
 12040bc:	1002c716 	blt	r2,zero,1204bdc <_dtoa_r+0x1500>
 12040c0:	dd000817 	ldw	r20,32(sp)
 12040c4:	d8800617 	ldw	r2,24(sp)
 12040c8:	d9800817 	ldw	r6,32(sp)
 12040cc:	8009883a 	mov	r4,r16
 12040d0:	01400044 	movi	r5,1
 12040d4:	308d883a 	add	r6,r6,r2
 12040d8:	d9800815 	stw	r6,32(sp)
 12040dc:	b0ad883a 	add	r22,r22,r2
 12040e0:	12071040 	call	1207104 <__i2b>
 12040e4:	1023883a 	mov	r17,r2
 12040e8:	a0000826 	beq	r20,zero,120410c <_dtoa_r+0xa30>
 12040ec:	0580070e 	bge	zero,r22,120410c <_dtoa_r+0xa30>
 12040f0:	b005883a 	mov	r2,r22
 12040f4:	a5812016 	blt	r20,r22,1204578 <_dtoa_r+0xe9c>
 12040f8:	d8c00817 	ldw	r3,32(sp)
 12040fc:	a0a9c83a 	sub	r20,r20,r2
 1204100:	b0adc83a 	sub	r22,r22,r2
 1204104:	1887c83a 	sub	r3,r3,r2
 1204108:	d8c00815 	stw	r3,32(sp)
 120410c:	d9000917 	ldw	r4,36(sp)
 1204110:	0100140e 	bge	zero,r4,1204164 <_dtoa_r+0xa88>
 1204114:	d9800b17 	ldw	r6,44(sp)
 1204118:	3001e526 	beq	r6,zero,12048b0 <_dtoa_r+0x11d4>
 120411c:	05400e0e 	bge	zero,r21,1204158 <_dtoa_r+0xa7c>
 1204120:	880b883a 	mov	r5,r17
 1204124:	8009883a 	mov	r4,r16
 1204128:	a80d883a 	mov	r6,r21
 120412c:	120733c0 	call	120733c <__pow5mult>
 1204130:	e00d883a 	mov	r6,fp
 1204134:	8009883a 	mov	r4,r16
 1204138:	100b883a 	mov	r5,r2
 120413c:	1023883a 	mov	r17,r2
 1204140:	12071400 	call	1207140 <__multiply>
 1204144:	102f883a 	mov	r23,r2
 1204148:	e00b883a 	mov	r5,fp
 120414c:	8009883a 	mov	r4,r16
 1204150:	1206dac0 	call	1206dac <_Bfree>
 1204154:	b839883a 	mov	fp,r23
 1204158:	d8800917 	ldw	r2,36(sp)
 120415c:	154dc83a 	sub	r6,r2,r21
 1204160:	3001281e 	bne	r6,zero,1204604 <_dtoa_r+0xf28>
 1204164:	05c00044 	movi	r23,1
 1204168:	8009883a 	mov	r4,r16
 120416c:	b80b883a 	mov	r5,r23
 1204170:	12071040 	call	1207104 <__i2b>
 1204174:	d8c00a17 	ldw	r3,40(sp)
 1204178:	102b883a 	mov	r21,r2
 120417c:	00c0310e 	bge	zero,r3,1204244 <_dtoa_r+0xb68>
 1204180:	8009883a 	mov	r4,r16
 1204184:	100b883a 	mov	r5,r2
 1204188:	180d883a 	mov	r6,r3
 120418c:	120733c0 	call	120733c <__pow5mult>
 1204190:	d9000317 	ldw	r4,12(sp)
 1204194:	102b883a 	mov	r21,r2
 1204198:	b9011f0e 	bge	r23,r4,1204618 <_dtoa_r+0xf3c>
 120419c:	0027883a 	mov	r19,zero
 12041a0:	a8800417 	ldw	r2,16(r21)
 12041a4:	10800104 	addi	r2,r2,4
 12041a8:	1085883a 	add	r2,r2,r2
 12041ac:	1085883a 	add	r2,r2,r2
 12041b0:	a885883a 	add	r2,r21,r2
 12041b4:	11000017 	ldw	r4,0(r2)
 12041b8:	1206fec0 	call	1206fec <__hi0bits>
 12041bc:	00c00804 	movi	r3,32
 12041c0:	1885c83a 	sub	r2,r3,r2
 12041c4:	00002506 	br	120425c <_dtoa_r+0xb80>
 12041c8:	01800044 	movi	r6,1
 12041cc:	d9800c15 	stw	r6,48(sp)
 12041d0:	003dec06 	br	1203984 <__alt_mem_instruction_tcm+0xff203984>
 12041d4:	d8c00817 	ldw	r3,32(sp)
 12041d8:	d9000517 	ldw	r4,20(sp)
 12041dc:	d8000a15 	stw	zero,40(sp)
 12041e0:	1907c83a 	sub	r3,r3,r4
 12041e4:	010dc83a 	sub	r6,zero,r4
 12041e8:	d8c00815 	stw	r3,32(sp)
 12041ec:	d9800915 	stw	r6,36(sp)
 12041f0:	003ded06 	br	12039a8 <__alt_mem_instruction_tcm+0xff2039a8>
 12041f4:	05adc83a 	sub	r22,zero,r22
 12041f8:	dd800815 	stw	r22,32(sp)
 12041fc:	002d883a 	mov	r22,zero
 1204200:	003de406 	br	1203994 <__alt_mem_instruction_tcm+0xff203994>
 1204204:	d9000517 	ldw	r4,20(sp)
 1204208:	120d4b00 	call	120d4b0 <__floatsidf>
 120420c:	1009883a 	mov	r4,r2
 1204210:	180b883a 	mov	r5,r3
 1204214:	b00d883a 	mov	r6,r22
 1204218:	a80f883a 	mov	r7,r21
 120421c:	120c1f00 	call	120c1f0 <__eqdf2>
 1204220:	103dc726 	beq	r2,zero,1203940 <__alt_mem_instruction_tcm+0xff203940>
 1204224:	d8800517 	ldw	r2,20(sp)
 1204228:	10bfffc4 	addi	r2,r2,-1
 120422c:	d8800515 	stw	r2,20(sp)
 1204230:	003dc306 	br	1203940 <__alt_mem_instruction_tcm+0xff203940>
 1204234:	dd400917 	ldw	r21,36(sp)
 1204238:	dd000817 	ldw	r20,32(sp)
 120423c:	0023883a 	mov	r17,zero
 1204240:	003fa906 	br	12040e8 <__alt_mem_instruction_tcm+0xff2040e8>
 1204244:	d9800317 	ldw	r6,12(sp)
 1204248:	b981670e 	bge	r23,r6,12047e8 <_dtoa_r+0x110c>
 120424c:	0027883a 	mov	r19,zero
 1204250:	d8c00a17 	ldw	r3,40(sp)
 1204254:	183fd21e 	bne	r3,zero,12041a0 <__alt_mem_instruction_tcm+0xff2041a0>
 1204258:	00800044 	movi	r2,1
 120425c:	1585883a 	add	r2,r2,r22
 1204260:	108007cc 	andi	r2,r2,31
 1204264:	10005f26 	beq	r2,zero,12043e4 <_dtoa_r+0xd08>
 1204268:	00c00804 	movi	r3,32
 120426c:	1887c83a 	sub	r3,r3,r2
 1204270:	01000104 	movi	r4,4
 1204274:	20c2dd0e 	bge	r4,r3,1204dec <_dtoa_r+0x1710>
 1204278:	d9000817 	ldw	r4,32(sp)
 120427c:	00c00704 	movi	r3,28
 1204280:	1885c83a 	sub	r2,r3,r2
 1204284:	2089883a 	add	r4,r4,r2
 1204288:	d9000815 	stw	r4,32(sp)
 120428c:	a0a9883a 	add	r20,r20,r2
 1204290:	b0ad883a 	add	r22,r22,r2
 1204294:	d8800817 	ldw	r2,32(sp)
 1204298:	0080050e 	bge	zero,r2,12042b0 <_dtoa_r+0xbd4>
 120429c:	e00b883a 	mov	r5,fp
 12042a0:	8009883a 	mov	r4,r16
 12042a4:	100d883a 	mov	r6,r2
 12042a8:	120747c0 	call	120747c <__lshift>
 12042ac:	1039883a 	mov	fp,r2
 12042b0:	0580050e 	bge	zero,r22,12042c8 <_dtoa_r+0xbec>
 12042b4:	a80b883a 	mov	r5,r21
 12042b8:	8009883a 	mov	r4,r16
 12042bc:	b00d883a 	mov	r6,r22
 12042c0:	120747c0 	call	120747c <__lshift>
 12042c4:	102b883a 	mov	r21,r2
 12042c8:	d8c00c17 	ldw	r3,48(sp)
 12042cc:	1801161e 	bne	r3,zero,1204728 <_dtoa_r+0x104c>
 12042d0:	d8c00617 	ldw	r3,24(sp)
 12042d4:	00c12d0e 	bge	zero,r3,120478c <_dtoa_r+0x10b0>
 12042d8:	d8c00b17 	ldw	r3,44(sp)
 12042dc:	1800571e 	bne	r3,zero,120443c <_dtoa_r+0xd60>
 12042e0:	dc800717 	ldw	r18,28(sp)
 12042e4:	dcc00617 	ldw	r19,24(sp)
 12042e8:	9029883a 	mov	r20,r18
 12042ec:	00000206 	br	12042f8 <_dtoa_r+0xc1c>
 12042f0:	1206dd40 	call	1206dd4 <__multadd>
 12042f4:	1039883a 	mov	fp,r2
 12042f8:	e009883a 	mov	r4,fp
 12042fc:	a80b883a 	mov	r5,r21
 1204300:	12034dc0 	call	12034dc <quorem>
 1204304:	10800c04 	addi	r2,r2,48
 1204308:	90800005 	stb	r2,0(r18)
 120430c:	94800044 	addi	r18,r18,1
 1204310:	9507c83a 	sub	r3,r18,r20
 1204314:	8009883a 	mov	r4,r16
 1204318:	e00b883a 	mov	r5,fp
 120431c:	01800284 	movi	r6,10
 1204320:	000f883a 	mov	r7,zero
 1204324:	1cfff216 	blt	r3,r19,12042f0 <__alt_mem_instruction_tcm+0xff2042f0>
 1204328:	1011883a 	mov	r8,r2
 120432c:	d8800617 	ldw	r2,24(sp)
 1204330:	00822e0e 	bge	zero,r2,1204bec <_dtoa_r+0x1510>
 1204334:	d9000717 	ldw	r4,28(sp)
 1204338:	0025883a 	mov	r18,zero
 120433c:	20af883a 	add	r23,r4,r2
 1204340:	e00b883a 	mov	r5,fp
 1204344:	01800044 	movi	r6,1
 1204348:	8009883a 	mov	r4,r16
 120434c:	da001715 	stw	r8,92(sp)
 1204350:	120747c0 	call	120747c <__lshift>
 1204354:	1009883a 	mov	r4,r2
 1204358:	a80b883a 	mov	r5,r21
 120435c:	1039883a 	mov	fp,r2
 1204360:	12075c40 	call	12075c4 <__mcmp>
 1204364:	da001717 	ldw	r8,92(sp)
 1204368:	00816e0e 	bge	zero,r2,1204924 <_dtoa_r+0x1248>
 120436c:	b93fffc3 	ldbu	r4,-1(r23)
 1204370:	b8bfffc4 	addi	r2,r23,-1
 1204374:	1007883a 	mov	r3,r2
 1204378:	01800e44 	movi	r6,57
 120437c:	d9c00717 	ldw	r7,28(sp)
 1204380:	00000506 	br	1204398 <_dtoa_r+0xcbc>
 1204384:	18ffffc4 	addi	r3,r3,-1
 1204388:	38811926 	beq	r7,r2,12047f0 <_dtoa_r+0x1114>
 120438c:	19000003 	ldbu	r4,0(r3)
 1204390:	102f883a 	mov	r23,r2
 1204394:	10bfffc4 	addi	r2,r2,-1
 1204398:	21403fcc 	andi	r5,r4,255
 120439c:	2940201c 	xori	r5,r5,128
 12043a0:	297fe004 	addi	r5,r5,-128
 12043a4:	29bff726 	beq	r5,r6,1204384 <__alt_mem_instruction_tcm+0xff204384>
 12043a8:	21000044 	addi	r4,r4,1
 12043ac:	11000005 	stb	r4,0(r2)
 12043b0:	8009883a 	mov	r4,r16
 12043b4:	a80b883a 	mov	r5,r21
 12043b8:	1206dac0 	call	1206dac <_Bfree>
 12043bc:	883e7526 	beq	r17,zero,1203d94 <__alt_mem_instruction_tcm+0xff203d94>
 12043c0:	90000426 	beq	r18,zero,12043d4 <_dtoa_r+0xcf8>
 12043c4:	94400326 	beq	r18,r17,12043d4 <_dtoa_r+0xcf8>
 12043c8:	8009883a 	mov	r4,r16
 12043cc:	900b883a 	mov	r5,r18
 12043d0:	1206dac0 	call	1206dac <_Bfree>
 12043d4:	8009883a 	mov	r4,r16
 12043d8:	880b883a 	mov	r5,r17
 12043dc:	1206dac0 	call	1206dac <_Bfree>
 12043e0:	003e6c06 	br	1203d94 <__alt_mem_instruction_tcm+0xff203d94>
 12043e4:	00800704 	movi	r2,28
 12043e8:	d9800817 	ldw	r6,32(sp)
 12043ec:	a0a9883a 	add	r20,r20,r2
 12043f0:	b0ad883a 	add	r22,r22,r2
 12043f4:	308d883a 	add	r6,r6,r2
 12043f8:	d9800815 	stw	r6,32(sp)
 12043fc:	003fa506 	br	1204294 <__alt_mem_instruction_tcm+0xff204294>
 1204400:	013efb84 	movi	r4,-1042
 1204404:	246bc83a 	sub	r21,r4,r17
 1204408:	9548983a 	sll	r4,r18,r21
 120440c:	003d1806 	br	1203870 <__alt_mem_instruction_tcm+0xff203870>
 1204410:	d8000c15 	stw	zero,48(sp)
 1204414:	003d5b06 	br	1203984 <__alt_mem_instruction_tcm+0xff203984>
 1204418:	880b883a 	mov	r5,r17
 120441c:	8009883a 	mov	r4,r16
 1204420:	01800284 	movi	r6,10
 1204424:	000f883a 	mov	r7,zero
 1204428:	1206dd40 	call	1206dd4 <__multadd>
 120442c:	1023883a 	mov	r17,r2
 1204430:	d8800d17 	ldw	r2,52(sp)
 1204434:	0082550e 	bge	zero,r2,1204d8c <_dtoa_r+0x16b0>
 1204438:	d8800615 	stw	r2,24(sp)
 120443c:	0500050e 	bge	zero,r20,1204454 <_dtoa_r+0xd78>
 1204440:	880b883a 	mov	r5,r17
 1204444:	8009883a 	mov	r4,r16
 1204448:	a00d883a 	mov	r6,r20
 120444c:	120747c0 	call	120747c <__lshift>
 1204450:	1023883a 	mov	r17,r2
 1204454:	98016a1e 	bne	r19,zero,1204a00 <_dtoa_r+0x1324>
 1204458:	8829883a 	mov	r20,r17
 120445c:	d9000617 	ldw	r4,24(sp)
 1204460:	dcc00717 	ldw	r19,28(sp)
 1204464:	9480004c 	andi	r18,r18,1
 1204468:	20bfffc4 	addi	r2,r4,-1
 120446c:	9885883a 	add	r2,r19,r2
 1204470:	d8800415 	stw	r2,16(sp)
 1204474:	dc800615 	stw	r18,24(sp)
 1204478:	e009883a 	mov	r4,fp
 120447c:	a80b883a 	mov	r5,r21
 1204480:	12034dc0 	call	12034dc <quorem>
 1204484:	e009883a 	mov	r4,fp
 1204488:	880b883a 	mov	r5,r17
 120448c:	102f883a 	mov	r23,r2
 1204490:	12075c40 	call	12075c4 <__mcmp>
 1204494:	8009883a 	mov	r4,r16
 1204498:	a80b883a 	mov	r5,r21
 120449c:	a00d883a 	mov	r6,r20
 12044a0:	102d883a 	mov	r22,r2
 12044a4:	12076240 	call	1207624 <__mdiff>
 12044a8:	1007883a 	mov	r3,r2
 12044ac:	10800317 	ldw	r2,12(r2)
 12044b0:	bc800c04 	addi	r18,r23,48
 12044b4:	1000971e 	bne	r2,zero,1204714 <_dtoa_r+0x1038>
 12044b8:	180b883a 	mov	r5,r3
 12044bc:	e009883a 	mov	r4,fp
 12044c0:	d8c01515 	stw	r3,84(sp)
 12044c4:	12075c40 	call	12075c4 <__mcmp>
 12044c8:	d8c01517 	ldw	r3,84(sp)
 12044cc:	8009883a 	mov	r4,r16
 12044d0:	d8801515 	stw	r2,84(sp)
 12044d4:	180b883a 	mov	r5,r3
 12044d8:	1206dac0 	call	1206dac <_Bfree>
 12044dc:	d8801517 	ldw	r2,84(sp)
 12044e0:	1000041e 	bne	r2,zero,12044f4 <_dtoa_r+0xe18>
 12044e4:	d9800317 	ldw	r6,12(sp)
 12044e8:	3000021e 	bne	r6,zero,12044f4 <_dtoa_r+0xe18>
 12044ec:	d8c00617 	ldw	r3,24(sp)
 12044f0:	18007626 	beq	r3,zero,12046cc <_dtoa_r+0xff0>
 12044f4:	b0005b16 	blt	r22,zero,1204664 <_dtoa_r+0xf88>
 12044f8:	b000041e 	bne	r22,zero,120450c <_dtoa_r+0xe30>
 12044fc:	d9000317 	ldw	r4,12(sp)
 1204500:	2000021e 	bne	r4,zero,120450c <_dtoa_r+0xe30>
 1204504:	d8c00617 	ldw	r3,24(sp)
 1204508:	18005626 	beq	r3,zero,1204664 <_dtoa_r+0xf88>
 120450c:	00814d16 	blt	zero,r2,1204a44 <_dtoa_r+0x1368>
 1204510:	d8c00417 	ldw	r3,16(sp)
 1204514:	9d800044 	addi	r22,r19,1
 1204518:	9c800005 	stb	r18,0(r19)
 120451c:	b02f883a 	mov	r23,r22
 1204520:	98c14c26 	beq	r19,r3,1204a54 <_dtoa_r+0x1378>
 1204524:	e00b883a 	mov	r5,fp
 1204528:	8009883a 	mov	r4,r16
 120452c:	01800284 	movi	r6,10
 1204530:	000f883a 	mov	r7,zero
 1204534:	1206dd40 	call	1206dd4 <__multadd>
 1204538:	1039883a 	mov	fp,r2
 120453c:	8d006d26 	beq	r17,r20,12046f4 <_dtoa_r+0x1018>
 1204540:	880b883a 	mov	r5,r17
 1204544:	01800284 	movi	r6,10
 1204548:	000f883a 	mov	r7,zero
 120454c:	8009883a 	mov	r4,r16
 1204550:	1206dd40 	call	1206dd4 <__multadd>
 1204554:	a00b883a 	mov	r5,r20
 1204558:	8009883a 	mov	r4,r16
 120455c:	01800284 	movi	r6,10
 1204560:	000f883a 	mov	r7,zero
 1204564:	1023883a 	mov	r17,r2
 1204568:	1206dd40 	call	1206dd4 <__multadd>
 120456c:	1029883a 	mov	r20,r2
 1204570:	b027883a 	mov	r19,r22
 1204574:	003fc006 	br	1204478 <__alt_mem_instruction_tcm+0xff204478>
 1204578:	a005883a 	mov	r2,r20
 120457c:	003ede06 	br	12040f8 <__alt_mem_instruction_tcm+0xff2040f8>
 1204580:	01000044 	movi	r4,1
 1204584:	d9000b15 	stw	r4,44(sp)
 1204588:	d9802217 	ldw	r6,136(sp)
 120458c:	0180dc0e 	bge	zero,r6,1204900 <_dtoa_r+0x1224>
 1204590:	3023883a 	mov	r17,r6
 1204594:	d9800d15 	stw	r6,52(sp)
 1204598:	d9800615 	stw	r6,24(sp)
 120459c:	003d1e06 	br	1203a18 <__alt_mem_instruction_tcm+0xff203a18>
 12045a0:	d8800617 	ldw	r2,24(sp)
 12045a4:	00be3716 	blt	zero,r2,1203e84 <__alt_mem_instruction_tcm+0xff203e84>
 12045a8:	1000be1e 	bne	r2,zero,12048a4 <_dtoa_r+0x11c8>
 12045ac:	8809883a 	mov	r4,r17
 12045b0:	a00b883a 	mov	r5,r20
 12045b4:	000d883a 	mov	r6,zero
 12045b8:	01d00534 	movhi	r7,16404
 12045bc:	120c4340 	call	120c434 <__muldf3>
 12045c0:	1009883a 	mov	r4,r2
 12045c4:	180b883a 	mov	r5,r3
 12045c8:	900d883a 	mov	r6,r18
 12045cc:	980f883a 	mov	r7,r19
 12045d0:	120c2740 	call	120c274 <__gedf2>
 12045d4:	002b883a 	mov	r21,zero
 12045d8:	0023883a 	mov	r17,zero
 12045dc:	10007a16 	blt	r2,zero,12047c8 <_dtoa_r+0x10ec>
 12045e0:	d9002217 	ldw	r4,136(sp)
 12045e4:	ddc00717 	ldw	r23,28(sp)
 12045e8:	0108303a 	nor	r4,zero,r4
 12045ec:	d9000515 	stw	r4,20(sp)
 12045f0:	8009883a 	mov	r4,r16
 12045f4:	a80b883a 	mov	r5,r21
 12045f8:	1206dac0 	call	1206dac <_Bfree>
 12045fc:	883f751e 	bne	r17,zero,12043d4 <__alt_mem_instruction_tcm+0xff2043d4>
 1204600:	003de406 	br	1203d94 <__alt_mem_instruction_tcm+0xff203d94>
 1204604:	e00b883a 	mov	r5,fp
 1204608:	8009883a 	mov	r4,r16
 120460c:	120733c0 	call	120733c <__pow5mult>
 1204610:	1039883a 	mov	fp,r2
 1204614:	003ed306 	br	1204164 <__alt_mem_instruction_tcm+0xff204164>
 1204618:	903ee01e 	bne	r18,zero,120419c <__alt_mem_instruction_tcm+0xff20419c>
 120461c:	00800434 	movhi	r2,16
 1204620:	10bfffc4 	addi	r2,r2,-1
 1204624:	9884703a 	and	r2,r19,r2
 1204628:	103f081e 	bne	r2,zero,120424c <__alt_mem_instruction_tcm+0xff20424c>
 120462c:	9cdffc2c 	andhi	r19,r19,32752
 1204630:	983f0626 	beq	r19,zero,120424c <__alt_mem_instruction_tcm+0xff20424c>
 1204634:	d8800817 	ldw	r2,32(sp)
 1204638:	b5800044 	addi	r22,r22,1
 120463c:	04c00044 	movi	r19,1
 1204640:	10800044 	addi	r2,r2,1
 1204644:	d8800815 	stw	r2,32(sp)
 1204648:	003f0106 	br	1204250 <__alt_mem_instruction_tcm+0xff204250>
 120464c:	d9800f17 	ldw	r6,60(sp)
 1204650:	30016826 	beq	r6,zero,1204bf4 <_dtoa_r+0x1518>
 1204654:	10810cc4 	addi	r2,r2,1075
 1204658:	dd400917 	ldw	r21,36(sp)
 120465c:	dd000817 	ldw	r20,32(sp)
 1204660:	003e9906 	br	12040c8 <__alt_mem_instruction_tcm+0xff2040c8>
 1204664:	9011883a 	mov	r8,r18
 1204668:	4007883a 	mov	r3,r8
 120466c:	e02d883a 	mov	r22,fp
 1204670:	0080100e 	bge	zero,r2,12046b4 <_dtoa_r+0xfd8>
 1204674:	01800044 	movi	r6,1
 1204678:	8009883a 	mov	r4,r16
 120467c:	e00b883a 	mov	r5,fp
 1204680:	da001515 	stw	r8,84(sp)
 1204684:	da001715 	stw	r8,92(sp)
 1204688:	120747c0 	call	120747c <__lshift>
 120468c:	1009883a 	mov	r4,r2
 1204690:	a80b883a 	mov	r5,r21
 1204694:	102d883a 	mov	r22,r2
 1204698:	12075c40 	call	12075c4 <__mcmp>
 120469c:	d8c01517 	ldw	r3,84(sp)
 12046a0:	da001717 	ldw	r8,92(sp)
 12046a4:	0081a50e 	bge	zero,r2,1204d3c <_dtoa_r+0x1660>
 12046a8:	00800e44 	movi	r2,57
 12046ac:	40817b26 	beq	r8,r2,1204c9c <_dtoa_r+0x15c0>
 12046b0:	40c00044 	addi	r3,r8,1
 12046b4:	8825883a 	mov	r18,r17
 12046b8:	9dc00044 	addi	r23,r19,1
 12046bc:	98c00005 	stb	r3,0(r19)
 12046c0:	a023883a 	mov	r17,r20
 12046c4:	b039883a 	mov	fp,r22
 12046c8:	003f3906 	br	12043b0 <__alt_mem_instruction_tcm+0xff2043b0>
 12046cc:	00800e44 	movi	r2,57
 12046d0:	9011883a 	mov	r8,r18
 12046d4:	90817226 	beq	r18,r2,1204ca0 <_dtoa_r+0x15c4>
 12046d8:	0580010e 	bge	zero,r22,12046e0 <_dtoa_r+0x1004>
 12046dc:	ba000c44 	addi	r8,r23,49
 12046e0:	8825883a 	mov	r18,r17
 12046e4:	9dc00044 	addi	r23,r19,1
 12046e8:	9a000005 	stb	r8,0(r19)
 12046ec:	a023883a 	mov	r17,r20
 12046f0:	003f2f06 	br	12043b0 <__alt_mem_instruction_tcm+0xff2043b0>
 12046f4:	880b883a 	mov	r5,r17
 12046f8:	8009883a 	mov	r4,r16
 12046fc:	01800284 	movi	r6,10
 1204700:	000f883a 	mov	r7,zero
 1204704:	1206dd40 	call	1206dd4 <__multadd>
 1204708:	1023883a 	mov	r17,r2
 120470c:	1029883a 	mov	r20,r2
 1204710:	003f9706 	br	1204570 <__alt_mem_instruction_tcm+0xff204570>
 1204714:	8009883a 	mov	r4,r16
 1204718:	180b883a 	mov	r5,r3
 120471c:	1206dac0 	call	1206dac <_Bfree>
 1204720:	00800044 	movi	r2,1
 1204724:	003f7306 	br	12044f4 <__alt_mem_instruction_tcm+0xff2044f4>
 1204728:	e009883a 	mov	r4,fp
 120472c:	a80b883a 	mov	r5,r21
 1204730:	12075c40 	call	12075c4 <__mcmp>
 1204734:	103ee60e 	bge	r2,zero,12042d0 <__alt_mem_instruction_tcm+0xff2042d0>
 1204738:	8009883a 	mov	r4,r16
 120473c:	e00b883a 	mov	r5,fp
 1204740:	01800284 	movi	r6,10
 1204744:	000f883a 	mov	r7,zero
 1204748:	1206dd40 	call	1206dd4 <__multadd>
 120474c:	d9000517 	ldw	r4,20(sp)
 1204750:	d9800b17 	ldw	r6,44(sp)
 1204754:	1039883a 	mov	fp,r2
 1204758:	213fffc4 	addi	r4,r4,-1
 120475c:	d9000515 	stw	r4,20(sp)
 1204760:	303f2d1e 	bne	r6,zero,1204418 <__alt_mem_instruction_tcm+0xff204418>
 1204764:	d9000d17 	ldw	r4,52(sp)
 1204768:	0101780e 	bge	zero,r4,1204d4c <_dtoa_r+0x1670>
 120476c:	d9000615 	stw	r4,24(sp)
 1204770:	003edb06 	br	12042e0 <__alt_mem_instruction_tcm+0xff2042e0>
 1204774:	00800084 	movi	r2,2
 1204778:	30818e1e 	bne	r6,r2,1204db4 <_dtoa_r+0x16d8>
 120477c:	d8000b15 	stw	zero,44(sp)
 1204780:	003f8106 	br	1204588 <__alt_mem_instruction_tcm+0xff204588>
 1204784:	d8800717 	ldw	r2,28(sp)
 1204788:	003c0306 	br	1203798 <__alt_mem_instruction_tcm+0xff203798>
 120478c:	d9000317 	ldw	r4,12(sp)
 1204790:	00800084 	movi	r2,2
 1204794:	113ed00e 	bge	r2,r4,12042d8 <__alt_mem_instruction_tcm+0xff2042d8>
 1204798:	d8c00617 	ldw	r3,24(sp)
 120479c:	183f901e 	bne	r3,zero,12045e0 <__alt_mem_instruction_tcm+0xff2045e0>
 12047a0:	a80b883a 	mov	r5,r21
 12047a4:	8009883a 	mov	r4,r16
 12047a8:	01800144 	movi	r6,5
 12047ac:	000f883a 	mov	r7,zero
 12047b0:	1206dd40 	call	1206dd4 <__multadd>
 12047b4:	e009883a 	mov	r4,fp
 12047b8:	100b883a 	mov	r5,r2
 12047bc:	102b883a 	mov	r21,r2
 12047c0:	12075c40 	call	12075c4 <__mcmp>
 12047c4:	00bf860e 	bge	zero,r2,12045e0 <__alt_mem_instruction_tcm+0xff2045e0>
 12047c8:	d9800717 	ldw	r6,28(sp)
 12047cc:	00800c44 	movi	r2,49
 12047d0:	30800005 	stb	r2,0(r6)
 12047d4:	d8800517 	ldw	r2,20(sp)
 12047d8:	35c00044 	addi	r23,r6,1
 12047dc:	10800044 	addi	r2,r2,1
 12047e0:	d8800515 	stw	r2,20(sp)
 12047e4:	003f8206 	br	12045f0 <__alt_mem_instruction_tcm+0xff2045f0>
 12047e8:	903e981e 	bne	r18,zero,120424c <__alt_mem_instruction_tcm+0xff20424c>
 12047ec:	003f8b06 	br	120461c <__alt_mem_instruction_tcm+0xff20461c>
 12047f0:	d9800517 	ldw	r6,20(sp)
 12047f4:	d8c00717 	ldw	r3,28(sp)
 12047f8:	00800c44 	movi	r2,49
 12047fc:	31800044 	addi	r6,r6,1
 1204800:	d9800515 	stw	r6,20(sp)
 1204804:	18800005 	stb	r2,0(r3)
 1204808:	003ee906 	br	12043b0 <__alt_mem_instruction_tcm+0xff2043b0>
 120480c:	dc000317 	ldw	r16,12(sp)
 1204810:	003d6006 	br	1203d94 <__alt_mem_instruction_tcm+0xff203d94>
 1204814:	8809883a 	mov	r4,r17
 1204818:	120d4b00 	call	120d4b0 <__floatsidf>
 120481c:	a009883a 	mov	r4,r20
 1204820:	a80b883a 	mov	r5,r21
 1204824:	100d883a 	mov	r6,r2
 1204828:	180f883a 	mov	r7,r3
 120482c:	120c4340 	call	120c434 <__muldf3>
 1204830:	1009883a 	mov	r4,r2
 1204834:	180b883a 	mov	r5,r3
 1204838:	000d883a 	mov	r6,zero
 120483c:	01d00734 	movhi	r7,16412
 1204840:	120b0880 	call	120b088 <__adddf3>
 1204844:	1023883a 	mov	r17,r2
 1204848:	00bf3034 	movhi	r2,64704
 120484c:	1885883a 	add	r2,r3,r2
 1204850:	d8800e15 	stw	r2,56(sp)
 1204854:	a009883a 	mov	r4,r20
 1204858:	a80b883a 	mov	r5,r21
 120485c:	000d883a 	mov	r6,zero
 1204860:	01d00534 	movhi	r7,16404
 1204864:	120cb580 	call	120cb58 <__subdf3>
 1204868:	d9c00e17 	ldw	r7,56(sp)
 120486c:	1009883a 	mov	r4,r2
 1204870:	180b883a 	mov	r5,r3
 1204874:	880d883a 	mov	r6,r17
 1204878:	102b883a 	mov	r21,r2
 120487c:	1829883a 	mov	r20,r3
 1204880:	120c2740 	call	120c274 <__gedf2>
 1204884:	00807716 	blt	zero,r2,1204a64 <_dtoa_r+0x1388>
 1204888:	d8800e17 	ldw	r2,56(sp)
 120488c:	a809883a 	mov	r4,r21
 1204890:	a00b883a 	mov	r5,r20
 1204894:	11e0003c 	xorhi	r7,r2,32768
 1204898:	880d883a 	mov	r6,r17
 120489c:	120c3540 	call	120c354 <__ledf2>
 12048a0:	103d6b0e 	bge	r2,zero,1203e50 <__alt_mem_instruction_tcm+0xff203e50>
 12048a4:	002b883a 	mov	r21,zero
 12048a8:	0023883a 	mov	r17,zero
 12048ac:	003f4c06 	br	12045e0 <__alt_mem_instruction_tcm+0xff2045e0>
 12048b0:	d9800917 	ldw	r6,36(sp)
 12048b4:	e00b883a 	mov	r5,fp
 12048b8:	8009883a 	mov	r4,r16
 12048bc:	120733c0 	call	120733c <__pow5mult>
 12048c0:	1039883a 	mov	fp,r2
 12048c4:	003e2706 	br	1204164 <__alt_mem_instruction_tcm+0xff204164>
 12048c8:	d8000b15 	stw	zero,44(sp)
 12048cc:	003c4906 	br	12039f4 <__alt_mem_instruction_tcm+0xff2039f4>
 12048d0:	d9000917 	ldw	r4,36(sp)
 12048d4:	d9800a17 	ldw	r6,40(sp)
 12048d8:	dd400915 	stw	r21,36(sp)
 12048dc:	a905c83a 	sub	r2,r21,r4
 12048e0:	308d883a 	add	r6,r6,r2
 12048e4:	d9800a15 	stw	r6,40(sp)
 12048e8:	002b883a 	mov	r21,zero
 12048ec:	003df206 	br	12040b8 <__alt_mem_instruction_tcm+0xff2040b8>
 12048f0:	dc800e15 	stw	r18,56(sp)
 12048f4:	982b883a 	mov	r21,r19
 12048f8:	04400084 	movi	r17,2
 12048fc:	003c7406 	br	1203ad0 <__alt_mem_instruction_tcm+0xff203ad0>
 1204900:	04400044 	movi	r17,1
 1204904:	dc400d15 	stw	r17,52(sp)
 1204908:	dc400615 	stw	r17,24(sp)
 120490c:	dc402215 	stw	r17,136(sp)
 1204910:	80001115 	stw	zero,68(r16)
 1204914:	000b883a 	mov	r5,zero
 1204918:	003c4a06 	br	1203a44 <__alt_mem_instruction_tcm+0xff203a44>
 120491c:	3023883a 	mov	r17,r6
 1204920:	003ffb06 	br	1204910 <__alt_mem_instruction_tcm+0xff204910>
 1204924:	1000021e 	bne	r2,zero,1204930 <_dtoa_r+0x1254>
 1204928:	4200004c 	andi	r8,r8,1
 120492c:	403e8f1e 	bne	r8,zero,120436c <__alt_mem_instruction_tcm+0xff20436c>
 1204930:	01000c04 	movi	r4,48
 1204934:	00000106 	br	120493c <_dtoa_r+0x1260>
 1204938:	102f883a 	mov	r23,r2
 120493c:	b8bfffc4 	addi	r2,r23,-1
 1204940:	10c00007 	ldb	r3,0(r2)
 1204944:	193ffc26 	beq	r3,r4,1204938 <__alt_mem_instruction_tcm+0xff204938>
 1204948:	003e9906 	br	12043b0 <__alt_mem_instruction_tcm+0xff2043b0>
 120494c:	d9000517 	ldw	r4,20(sp)
 1204950:	012fc83a 	sub	r23,zero,r4
 1204954:	b800ad26 	beq	r23,zero,1204c0c <_dtoa_r+0x1530>
 1204958:	b88003cc 	andi	r2,r23,15
 120495c:	100490fa 	slli	r2,r2,3
 1204960:	00c048b4 	movhi	r3,290
 1204964:	18eca304 	addi	r3,r3,-19828
 1204968:	1885883a 	add	r2,r3,r2
 120496c:	11800017 	ldw	r6,0(r2)
 1204970:	11c00117 	ldw	r7,4(r2)
 1204974:	b82fd13a 	srai	r23,r23,4
 1204978:	9009883a 	mov	r4,r18
 120497c:	980b883a 	mov	r5,r19
 1204980:	120c4340 	call	120c434 <__muldf3>
 1204984:	1029883a 	mov	r20,r2
 1204988:	182b883a 	mov	r21,r3
 120498c:	b800f426 	beq	r23,zero,1204d60 <_dtoa_r+0x1684>
 1204990:	020048b4 	movhi	r8,290
 1204994:	422c9904 	addi	r8,r8,-19868
 1204998:	8029883a 	mov	r20,r16
 120499c:	04400084 	movi	r17,2
 12049a0:	4021883a 	mov	r16,r8
 12049a4:	b980004c 	andi	r6,r23,1
 12049a8:	1009883a 	mov	r4,r2
 12049ac:	b82fd07a 	srai	r23,r23,1
 12049b0:	180b883a 	mov	r5,r3
 12049b4:	30000426 	beq	r6,zero,12049c8 <_dtoa_r+0x12ec>
 12049b8:	81800017 	ldw	r6,0(r16)
 12049bc:	81c00117 	ldw	r7,4(r16)
 12049c0:	8c400044 	addi	r17,r17,1
 12049c4:	120c4340 	call	120c434 <__muldf3>
 12049c8:	84000204 	addi	r16,r16,8
 12049cc:	b83ff51e 	bne	r23,zero,12049a4 <__alt_mem_instruction_tcm+0xff2049a4>
 12049d0:	a021883a 	mov	r16,r20
 12049d4:	182b883a 	mov	r21,r3
 12049d8:	1029883a 	mov	r20,r2
 12049dc:	003c5506 	br	1203b34 <__alt_mem_instruction_tcm+0xff203b34>
 12049e0:	d9800517 	ldw	r6,20(sp)
 12049e4:	d9000717 	ldw	r4,28(sp)
 12049e8:	00c00c04 	movi	r3,48
 12049ec:	31800044 	addi	r6,r6,1
 12049f0:	d9800515 	stw	r6,20(sp)
 12049f4:	20c00005 	stb	r3,0(r4)
 12049f8:	02000c44 	movi	r8,49
 12049fc:	003da206 	br	1204088 <__alt_mem_instruction_tcm+0xff204088>
 1204a00:	89400117 	ldw	r5,4(r17)
 1204a04:	8009883a 	mov	r4,r16
 1204a08:	1206d040 	call	1206d04 <_Balloc>
 1204a0c:	89800417 	ldw	r6,16(r17)
 1204a10:	11000304 	addi	r4,r2,12
 1204a14:	89400304 	addi	r5,r17,12
 1204a18:	31800084 	addi	r6,r6,2
 1204a1c:	318d883a 	add	r6,r6,r6
 1204a20:	318d883a 	add	r6,r6,r6
 1204a24:	1027883a 	mov	r19,r2
 1204a28:	120694c0 	call	120694c <memcpy>
 1204a2c:	8009883a 	mov	r4,r16
 1204a30:	980b883a 	mov	r5,r19
 1204a34:	01800044 	movi	r6,1
 1204a38:	120747c0 	call	120747c <__lshift>
 1204a3c:	1029883a 	mov	r20,r2
 1204a40:	003e8606 	br	120445c <__alt_mem_instruction_tcm+0xff20445c>
 1204a44:	00800e44 	movi	r2,57
 1204a48:	90809526 	beq	r18,r2,1204ca0 <_dtoa_r+0x15c4>
 1204a4c:	92000044 	addi	r8,r18,1
 1204a50:	003f2306 	br	12046e0 <__alt_mem_instruction_tcm+0xff2046e0>
 1204a54:	9011883a 	mov	r8,r18
 1204a58:	8825883a 	mov	r18,r17
 1204a5c:	a023883a 	mov	r17,r20
 1204a60:	003e3706 	br	1204340 <__alt_mem_instruction_tcm+0xff204340>
 1204a64:	002b883a 	mov	r21,zero
 1204a68:	0023883a 	mov	r17,zero
 1204a6c:	003f5606 	br	12047c8 <__alt_mem_instruction_tcm+0xff2047c8>
 1204a70:	51bfffc4 	addi	r6,r10,-1
 1204a74:	300490fa 	slli	r2,r6,3
 1204a78:	00c048b4 	movhi	r3,290
 1204a7c:	18eca304 	addi	r3,r3,-19828
 1204a80:	1885883a 	add	r2,r3,r2
 1204a84:	d9c00e17 	ldw	r7,56(sp)
 1204a88:	11000017 	ldw	r4,0(r2)
 1204a8c:	11400117 	ldw	r5,4(r2)
 1204a90:	d8800717 	ldw	r2,28(sp)
 1204a94:	d9801015 	stw	r6,64(sp)
 1204a98:	880d883a 	mov	r6,r17
 1204a9c:	da801615 	stw	r10,88(sp)
 1204aa0:	15c00044 	addi	r23,r2,1
 1204aa4:	120c4340 	call	120c434 <__muldf3>
 1204aa8:	a80b883a 	mov	r5,r21
 1204aac:	a009883a 	mov	r4,r20
 1204ab0:	d8c01115 	stw	r3,68(sp)
 1204ab4:	d8800e15 	stw	r2,56(sp)
 1204ab8:	120d4280 	call	120d428 <__fixdfsi>
 1204abc:	1009883a 	mov	r4,r2
 1204ac0:	1023883a 	mov	r17,r2
 1204ac4:	120d4b00 	call	120d4b0 <__floatsidf>
 1204ac8:	a009883a 	mov	r4,r20
 1204acc:	a80b883a 	mov	r5,r21
 1204ad0:	100d883a 	mov	r6,r2
 1204ad4:	180f883a 	mov	r7,r3
 1204ad8:	120cb580 	call	120cb58 <__subdf3>
 1204adc:	1813883a 	mov	r9,r3
 1204ae0:	d8c00717 	ldw	r3,28(sp)
 1204ae4:	8c400c04 	addi	r17,r17,48
 1204ae8:	1011883a 	mov	r8,r2
 1204aec:	1c400005 	stb	r17,0(r3)
 1204af0:	da801617 	ldw	r10,88(sp)
 1204af4:	00800044 	movi	r2,1
 1204af8:	50802326 	beq	r10,r2,1204b88 <_dtoa_r+0x14ac>
 1204afc:	d8800717 	ldw	r2,28(sp)
 1204b00:	b82b883a 	mov	r21,r23
 1204b04:	dc001315 	stw	r16,76(sp)
 1204b08:	12a9883a 	add	r20,r2,r10
 1204b0c:	4807883a 	mov	r3,r9
 1204b10:	4005883a 	mov	r2,r8
 1204b14:	dc801415 	stw	r18,80(sp)
 1204b18:	000d883a 	mov	r6,zero
 1204b1c:	01d00934 	movhi	r7,16420
 1204b20:	1009883a 	mov	r4,r2
 1204b24:	180b883a 	mov	r5,r3
 1204b28:	120c4340 	call	120c434 <__muldf3>
 1204b2c:	180b883a 	mov	r5,r3
 1204b30:	1009883a 	mov	r4,r2
 1204b34:	1821883a 	mov	r16,r3
 1204b38:	1025883a 	mov	r18,r2
 1204b3c:	120d4280 	call	120d428 <__fixdfsi>
 1204b40:	1009883a 	mov	r4,r2
 1204b44:	1023883a 	mov	r17,r2
 1204b48:	120d4b00 	call	120d4b0 <__floatsidf>
 1204b4c:	9009883a 	mov	r4,r18
 1204b50:	800b883a 	mov	r5,r16
 1204b54:	100d883a 	mov	r6,r2
 1204b58:	180f883a 	mov	r7,r3
 1204b5c:	8c400c04 	addi	r17,r17,48
 1204b60:	120cb580 	call	120cb58 <__subdf3>
 1204b64:	ad400044 	addi	r21,r21,1
 1204b68:	ac7fffc5 	stb	r17,-1(r21)
 1204b6c:	ad3fea1e 	bne	r21,r20,1204b18 <__alt_mem_instruction_tcm+0xff204b18>
 1204b70:	1813883a 	mov	r9,r3
 1204b74:	d8c01017 	ldw	r3,64(sp)
 1204b78:	dc001317 	ldw	r16,76(sp)
 1204b7c:	dc801417 	ldw	r18,80(sp)
 1204b80:	1011883a 	mov	r8,r2
 1204b84:	b8ef883a 	add	r23,r23,r3
 1204b88:	d9000e17 	ldw	r4,56(sp)
 1204b8c:	d9401117 	ldw	r5,68(sp)
 1204b90:	000d883a 	mov	r6,zero
 1204b94:	01cff834 	movhi	r7,16352
 1204b98:	da001715 	stw	r8,92(sp)
 1204b9c:	da401515 	stw	r9,84(sp)
 1204ba0:	120b0880 	call	120b088 <__adddf3>
 1204ba4:	da001717 	ldw	r8,92(sp)
 1204ba8:	da401517 	ldw	r9,84(sp)
 1204bac:	1009883a 	mov	r4,r2
 1204bb0:	400d883a 	mov	r6,r8
 1204bb4:	480f883a 	mov	r7,r9
 1204bb8:	180b883a 	mov	r5,r3
 1204bbc:	120c3540 	call	120c354 <__ledf2>
 1204bc0:	da001717 	ldw	r8,92(sp)
 1204bc4:	da401517 	ldw	r9,84(sp)
 1204bc8:	10003b0e 	bge	r2,zero,1204cb8 <_dtoa_r+0x15dc>
 1204bcc:	d9001217 	ldw	r4,72(sp)
 1204bd0:	bd7fffc3 	ldbu	r21,-1(r23)
 1204bd4:	d9000515 	stw	r4,20(sp)
 1204bd8:	003d1c06 	br	120404c <__alt_mem_instruction_tcm+0xff20404c>
 1204bdc:	d8c00817 	ldw	r3,32(sp)
 1204be0:	18a9c83a 	sub	r20,r3,r2
 1204be4:	0005883a 	mov	r2,zero
 1204be8:	003d3706 	br	12040c8 <__alt_mem_instruction_tcm+0xff2040c8>
 1204bec:	00800044 	movi	r2,1
 1204bf0:	003dd006 	br	1204334 <__alt_mem_instruction_tcm+0xff204334>
 1204bf4:	d8c00217 	ldw	r3,8(sp)
 1204bf8:	00800d84 	movi	r2,54
 1204bfc:	dd400917 	ldw	r21,36(sp)
 1204c00:	10c5c83a 	sub	r2,r2,r3
 1204c04:	dd000817 	ldw	r20,32(sp)
 1204c08:	003d2f06 	br	12040c8 <__alt_mem_instruction_tcm+0xff2040c8>
 1204c0c:	9029883a 	mov	r20,r18
 1204c10:	982b883a 	mov	r21,r19
 1204c14:	04400084 	movi	r17,2
 1204c18:	003bc606 	br	1203b34 <__alt_mem_instruction_tcm+0xff203b34>
 1204c1c:	d8800617 	ldw	r2,24(sp)
 1204c20:	103efc26 	beq	r2,zero,1204814 <__alt_mem_instruction_tcm+0xff204814>
 1204c24:	d8c00d17 	ldw	r3,52(sp)
 1204c28:	00fc890e 	bge	zero,r3,1203e50 <__alt_mem_instruction_tcm+0xff203e50>
 1204c2c:	a80b883a 	mov	r5,r21
 1204c30:	a009883a 	mov	r4,r20
 1204c34:	000d883a 	mov	r6,zero
 1204c38:	01d00934 	movhi	r7,16420
 1204c3c:	120c4340 	call	120c434 <__muldf3>
 1204c40:	89000044 	addi	r4,r17,1
 1204c44:	1029883a 	mov	r20,r2
 1204c48:	182b883a 	mov	r21,r3
 1204c4c:	120d4b00 	call	120d4b0 <__floatsidf>
 1204c50:	a009883a 	mov	r4,r20
 1204c54:	a80b883a 	mov	r5,r21
 1204c58:	100d883a 	mov	r6,r2
 1204c5c:	180f883a 	mov	r7,r3
 1204c60:	120c4340 	call	120c434 <__muldf3>
 1204c64:	1009883a 	mov	r4,r2
 1204c68:	180b883a 	mov	r5,r3
 1204c6c:	000d883a 	mov	r6,zero
 1204c70:	01d00734 	movhi	r7,16412
 1204c74:	120b0880 	call	120b088 <__adddf3>
 1204c78:	d9000517 	ldw	r4,20(sp)
 1204c7c:	1023883a 	mov	r17,r2
 1204c80:	00bf3034 	movhi	r2,64704
 1204c84:	213fffc4 	addi	r4,r4,-1
 1204c88:	1885883a 	add	r2,r3,r2
 1204c8c:	d9001215 	stw	r4,72(sp)
 1204c90:	d8800e15 	stw	r2,56(sp)
 1204c94:	da800d17 	ldw	r10,52(sp)
 1204c98:	003bc306 	br	1203ba8 <__alt_mem_instruction_tcm+0xff203ba8>
 1204c9c:	b039883a 	mov	fp,r22
 1204ca0:	01000e44 	movi	r4,57
 1204ca4:	8825883a 	mov	r18,r17
 1204ca8:	9dc00044 	addi	r23,r19,1
 1204cac:	99000005 	stb	r4,0(r19)
 1204cb0:	a023883a 	mov	r17,r20
 1204cb4:	003dae06 	br	1204370 <__alt_mem_instruction_tcm+0xff204370>
 1204cb8:	d9800e17 	ldw	r6,56(sp)
 1204cbc:	d9c01117 	ldw	r7,68(sp)
 1204cc0:	0009883a 	mov	r4,zero
 1204cc4:	014ff834 	movhi	r5,16352
 1204cc8:	da001715 	stw	r8,92(sp)
 1204ccc:	da401515 	stw	r9,84(sp)
 1204cd0:	120cb580 	call	120cb58 <__subdf3>
 1204cd4:	da001717 	ldw	r8,92(sp)
 1204cd8:	da401517 	ldw	r9,84(sp)
 1204cdc:	1009883a 	mov	r4,r2
 1204ce0:	180b883a 	mov	r5,r3
 1204ce4:	400d883a 	mov	r6,r8
 1204ce8:	480f883a 	mov	r7,r9
 1204cec:	120c2740 	call	120c274 <__gedf2>
 1204cf0:	00bc570e 	bge	zero,r2,1203e50 <__alt_mem_instruction_tcm+0xff203e50>
 1204cf4:	01000c04 	movi	r4,48
 1204cf8:	00000106 	br	1204d00 <_dtoa_r+0x1624>
 1204cfc:	102f883a 	mov	r23,r2
 1204d00:	b8bfffc4 	addi	r2,r23,-1
 1204d04:	10c00007 	ldb	r3,0(r2)
 1204d08:	193ffc26 	beq	r3,r4,1204cfc <__alt_mem_instruction_tcm+0xff204cfc>
 1204d0c:	d9801217 	ldw	r6,72(sp)
 1204d10:	d9800515 	stw	r6,20(sp)
 1204d14:	003c1f06 	br	1203d94 <__alt_mem_instruction_tcm+0xff203d94>
 1204d18:	d8801217 	ldw	r2,72(sp)
 1204d1c:	dc001117 	ldw	r16,68(sp)
 1204d20:	d8800515 	stw	r2,20(sp)
 1204d24:	003cc906 	br	120404c <__alt_mem_instruction_tcm+0xff20404c>
 1204d28:	dd801317 	ldw	r22,76(sp)
 1204d2c:	dc001117 	ldw	r16,68(sp)
 1204d30:	dcc01417 	ldw	r19,80(sp)
 1204d34:	dc801017 	ldw	r18,64(sp)
 1204d38:	003c4506 	br	1203e50 <__alt_mem_instruction_tcm+0xff203e50>
 1204d3c:	103e5d1e 	bne	r2,zero,12046b4 <__alt_mem_instruction_tcm+0xff2046b4>
 1204d40:	4080004c 	andi	r2,r8,1
 1204d44:	103e5b26 	beq	r2,zero,12046b4 <__alt_mem_instruction_tcm+0xff2046b4>
 1204d48:	003e5706 	br	12046a8 <__alt_mem_instruction_tcm+0xff2046a8>
 1204d4c:	d8c00317 	ldw	r3,12(sp)
 1204d50:	00800084 	movi	r2,2
 1204d54:	10c00a16 	blt	r2,r3,1204d80 <_dtoa_r+0x16a4>
 1204d58:	d9000d17 	ldw	r4,52(sp)
 1204d5c:	003e8306 	br	120476c <__alt_mem_instruction_tcm+0xff20476c>
 1204d60:	04400084 	movi	r17,2
 1204d64:	003b7306 	br	1203b34 <__alt_mem_instruction_tcm+0xff203b34>
 1204d68:	d9801217 	ldw	r6,72(sp)
 1204d6c:	d9800515 	stw	r6,20(sp)
 1204d70:	003cb606 	br	120404c <__alt_mem_instruction_tcm+0xff20404c>
 1204d74:	d9001217 	ldw	r4,72(sp)
 1204d78:	d9000515 	stw	r4,20(sp)
 1204d7c:	003c0506 	br	1203d94 <__alt_mem_instruction_tcm+0xff203d94>
 1204d80:	d9800d17 	ldw	r6,52(sp)
 1204d84:	d9800615 	stw	r6,24(sp)
 1204d88:	003e8306 	br	1204798 <__alt_mem_instruction_tcm+0xff204798>
 1204d8c:	d9800317 	ldw	r6,12(sp)
 1204d90:	00800084 	movi	r2,2
 1204d94:	11800216 	blt	r2,r6,1204da0 <_dtoa_r+0x16c4>
 1204d98:	d8800d17 	ldw	r2,52(sp)
 1204d9c:	003da606 	br	1204438 <__alt_mem_instruction_tcm+0xff204438>
 1204da0:	d8800d17 	ldw	r2,52(sp)
 1204da4:	d8800615 	stw	r2,24(sp)
 1204da8:	003e7b06 	br	1204798 <__alt_mem_instruction_tcm+0xff204798>
 1204dac:	05000044 	movi	r20,1
 1204db0:	003b0506 	br	12039c8 <__alt_mem_instruction_tcm+0xff2039c8>
 1204db4:	8009883a 	mov	r4,r16
 1204db8:	80001115 	stw	zero,68(r16)
 1204dbc:	000b883a 	mov	r5,zero
 1204dc0:	1206d040 	call	1206d04 <_Balloc>
 1204dc4:	d8800715 	stw	r2,28(sp)
 1204dc8:	d8c00717 	ldw	r3,28(sp)
 1204dcc:	00bfffc4 	movi	r2,-1
 1204dd0:	01000044 	movi	r4,1
 1204dd4:	d8800615 	stw	r2,24(sp)
 1204dd8:	80c01015 	stw	r3,64(r16)
 1204ddc:	d9000b15 	stw	r4,44(sp)
 1204de0:	d8002215 	stw	zero,136(sp)
 1204de4:	d8800d15 	stw	r2,52(sp)
 1204de8:	003c1906 	br	1203e50 <__alt_mem_instruction_tcm+0xff203e50>
 1204dec:	193d2926 	beq	r3,r4,1204294 <__alt_mem_instruction_tcm+0xff204294>
 1204df0:	00c00f04 	movi	r3,60
 1204df4:	1885c83a 	sub	r2,r3,r2
 1204df8:	003d7b06 	br	12043e8 <__alt_mem_instruction_tcm+0xff2043e8>
 1204dfc:	000b883a 	mov	r5,zero
 1204e00:	003b1006 	br	1203a44 <__alt_mem_instruction_tcm+0xff203a44>

01204e04 <_fflush_r>:
 1204e04:	defffb04 	addi	sp,sp,-20
 1204e08:	dcc00315 	stw	r19,12(sp)
 1204e0c:	dc000015 	stw	r16,0(sp)
 1204e10:	dfc00415 	stw	ra,16(sp)
 1204e14:	dc800215 	stw	r18,8(sp)
 1204e18:	dc400115 	stw	r17,4(sp)
 1204e1c:	2027883a 	mov	r19,r4
 1204e20:	2821883a 	mov	r16,r5
 1204e24:	20000226 	beq	r4,zero,1204e30 <_fflush_r+0x2c>
 1204e28:	20800e17 	ldw	r2,56(r4)
 1204e2c:	10005326 	beq	r2,zero,1204f7c <_fflush_r+0x178>
 1204e30:	8080030b 	ldhu	r2,12(r16)
 1204e34:	10ffffcc 	andi	r3,r2,65535
 1204e38:	18e0001c 	xori	r3,r3,32768
 1204e3c:	18e00004 	addi	r3,r3,-32768
 1204e40:	18002c26 	beq	r3,zero,1204ef4 <_fflush_r+0xf0>
 1204e44:	10c0020c 	andi	r3,r2,8
 1204e48:	1800321e 	bne	r3,zero,1204f14 <_fflush_r+0x110>
 1204e4c:	80c00117 	ldw	r3,4(r16)
 1204e50:	10820014 	ori	r2,r2,2048
 1204e54:	8080030d 	sth	r2,12(r16)
 1204e58:	00c0570e 	bge	zero,r3,1204fb8 <_fflush_r+0x1b4>
 1204e5c:	82000a17 	ldw	r8,40(r16)
 1204e60:	40002426 	beq	r8,zero,1204ef4 <_fflush_r+0xf0>
 1204e64:	9c400017 	ldw	r17,0(r19)
 1204e68:	10c4000c 	andi	r3,r2,4096
 1204e6c:	98000015 	stw	zero,0(r19)
 1204e70:	18004626 	beq	r3,zero,1204f8c <_fflush_r+0x188>
 1204e74:	81801417 	ldw	r6,80(r16)
 1204e78:	10c0010c 	andi	r3,r2,4
 1204e7c:	18000626 	beq	r3,zero,1204e98 <_fflush_r+0x94>
 1204e80:	80c00117 	ldw	r3,4(r16)
 1204e84:	80800c17 	ldw	r2,48(r16)
 1204e88:	30cdc83a 	sub	r6,r6,r3
 1204e8c:	10000226 	beq	r2,zero,1204e98 <_fflush_r+0x94>
 1204e90:	80800f17 	ldw	r2,60(r16)
 1204e94:	308dc83a 	sub	r6,r6,r2
 1204e98:	81400717 	ldw	r5,28(r16)
 1204e9c:	9809883a 	mov	r4,r19
 1204ea0:	000f883a 	mov	r7,zero
 1204ea4:	403ee83a 	callr	r8
 1204ea8:	00ffffc4 	movi	r3,-1
 1204eac:	10c04526 	beq	r2,r3,1204fc4 <_fflush_r+0x1c0>
 1204eb0:	80c0030b 	ldhu	r3,12(r16)
 1204eb4:	81000417 	ldw	r4,16(r16)
 1204eb8:	80000115 	stw	zero,4(r16)
 1204ebc:	197dffcc 	andi	r5,r3,63487
 1204ec0:	8140030d 	sth	r5,12(r16)
 1204ec4:	81000015 	stw	r4,0(r16)
 1204ec8:	18c4000c 	andi	r3,r3,4096
 1204ecc:	18000126 	beq	r3,zero,1204ed4 <_fflush_r+0xd0>
 1204ed0:	80801415 	stw	r2,80(r16)
 1204ed4:	81400c17 	ldw	r5,48(r16)
 1204ed8:	9c400015 	stw	r17,0(r19)
 1204edc:	28000526 	beq	r5,zero,1204ef4 <_fflush_r+0xf0>
 1204ee0:	80801004 	addi	r2,r16,64
 1204ee4:	28800226 	beq	r5,r2,1204ef0 <_fflush_r+0xec>
 1204ee8:	9809883a 	mov	r4,r19
 1204eec:	12055200 	call	1205520 <_free_r>
 1204ef0:	80000c15 	stw	zero,48(r16)
 1204ef4:	0005883a 	mov	r2,zero
 1204ef8:	dfc00417 	ldw	ra,16(sp)
 1204efc:	dcc00317 	ldw	r19,12(sp)
 1204f00:	dc800217 	ldw	r18,8(sp)
 1204f04:	dc400117 	ldw	r17,4(sp)
 1204f08:	dc000017 	ldw	r16,0(sp)
 1204f0c:	dec00504 	addi	sp,sp,20
 1204f10:	f800283a 	ret
 1204f14:	84800417 	ldw	r18,16(r16)
 1204f18:	903ff626 	beq	r18,zero,1204ef4 <__alt_mem_instruction_tcm+0xff204ef4>
 1204f1c:	84400017 	ldw	r17,0(r16)
 1204f20:	108000cc 	andi	r2,r2,3
 1204f24:	84800015 	stw	r18,0(r16)
 1204f28:	8ca3c83a 	sub	r17,r17,r18
 1204f2c:	10001526 	beq	r2,zero,1204f84 <_fflush_r+0x180>
 1204f30:	0005883a 	mov	r2,zero
 1204f34:	80800215 	stw	r2,8(r16)
 1204f38:	04400316 	blt	zero,r17,1204f48 <_fflush_r+0x144>
 1204f3c:	003fed06 	br	1204ef4 <__alt_mem_instruction_tcm+0xff204ef4>
 1204f40:	90a5883a 	add	r18,r18,r2
 1204f44:	047feb0e 	bge	zero,r17,1204ef4 <__alt_mem_instruction_tcm+0xff204ef4>
 1204f48:	80800917 	ldw	r2,36(r16)
 1204f4c:	81400717 	ldw	r5,28(r16)
 1204f50:	880f883a 	mov	r7,r17
 1204f54:	900d883a 	mov	r6,r18
 1204f58:	9809883a 	mov	r4,r19
 1204f5c:	103ee83a 	callr	r2
 1204f60:	88a3c83a 	sub	r17,r17,r2
 1204f64:	00bff616 	blt	zero,r2,1204f40 <__alt_mem_instruction_tcm+0xff204f40>
 1204f68:	80c0030b 	ldhu	r3,12(r16)
 1204f6c:	00bfffc4 	movi	r2,-1
 1204f70:	18c01014 	ori	r3,r3,64
 1204f74:	80c0030d 	sth	r3,12(r16)
 1204f78:	003fdf06 	br	1204ef8 <__alt_mem_instruction_tcm+0xff204ef8>
 1204f7c:	12053ac0 	call	12053ac <__sinit>
 1204f80:	003fab06 	br	1204e30 <__alt_mem_instruction_tcm+0xff204e30>
 1204f84:	80800517 	ldw	r2,20(r16)
 1204f88:	003fea06 	br	1204f34 <__alt_mem_instruction_tcm+0xff204f34>
 1204f8c:	81400717 	ldw	r5,28(r16)
 1204f90:	000d883a 	mov	r6,zero
 1204f94:	9809883a 	mov	r4,r19
 1204f98:	01c00044 	movi	r7,1
 1204f9c:	403ee83a 	callr	r8
 1204fa0:	100d883a 	mov	r6,r2
 1204fa4:	00bfffc4 	movi	r2,-1
 1204fa8:	30801326 	beq	r6,r2,1204ff8 <_fflush_r+0x1f4>
 1204fac:	8080030b 	ldhu	r2,12(r16)
 1204fb0:	82000a17 	ldw	r8,40(r16)
 1204fb4:	003fb006 	br	1204e78 <__alt_mem_instruction_tcm+0xff204e78>
 1204fb8:	80c00f17 	ldw	r3,60(r16)
 1204fbc:	00ffa716 	blt	zero,r3,1204e5c <__alt_mem_instruction_tcm+0xff204e5c>
 1204fc0:	003fcc06 	br	1204ef4 <__alt_mem_instruction_tcm+0xff204ef4>
 1204fc4:	98c00017 	ldw	r3,0(r19)
 1204fc8:	183fb926 	beq	r3,zero,1204eb0 <__alt_mem_instruction_tcm+0xff204eb0>
 1204fcc:	01000744 	movi	r4,29
 1204fd0:	19000226 	beq	r3,r4,1204fdc <_fflush_r+0x1d8>
 1204fd4:	01000584 	movi	r4,22
 1204fd8:	1900101e 	bne	r3,r4,120501c <_fflush_r+0x218>
 1204fdc:	8080030b 	ldhu	r2,12(r16)
 1204fe0:	80c00417 	ldw	r3,16(r16)
 1204fe4:	80000115 	stw	zero,4(r16)
 1204fe8:	10bdffcc 	andi	r2,r2,63487
 1204fec:	8080030d 	sth	r2,12(r16)
 1204ff0:	80c00015 	stw	r3,0(r16)
 1204ff4:	003fb706 	br	1204ed4 <__alt_mem_instruction_tcm+0xff204ed4>
 1204ff8:	98800017 	ldw	r2,0(r19)
 1204ffc:	103feb26 	beq	r2,zero,1204fac <__alt_mem_instruction_tcm+0xff204fac>
 1205000:	00c00744 	movi	r3,29
 1205004:	10c00226 	beq	r2,r3,1205010 <_fflush_r+0x20c>
 1205008:	00c00584 	movi	r3,22
 120500c:	10ffd61e 	bne	r2,r3,1204f68 <__alt_mem_instruction_tcm+0xff204f68>
 1205010:	9c400015 	stw	r17,0(r19)
 1205014:	0005883a 	mov	r2,zero
 1205018:	003fb706 	br	1204ef8 <__alt_mem_instruction_tcm+0xff204ef8>
 120501c:	80c0030b 	ldhu	r3,12(r16)
 1205020:	18c01014 	ori	r3,r3,64
 1205024:	80c0030d 	sth	r3,12(r16)
 1205028:	003fb306 	br	1204ef8 <__alt_mem_instruction_tcm+0xff204ef8>

0120502c <fflush>:
 120502c:	20000526 	beq	r4,zero,1205044 <fflush+0x18>
 1205030:	008048b4 	movhi	r2,290
 1205034:	10b45c04 	addi	r2,r2,-11920
 1205038:	200b883a 	mov	r5,r4
 120503c:	11000017 	ldw	r4,0(r2)
 1205040:	1204e041 	jmpi	1204e04 <_fflush_r>
 1205044:	008048b4 	movhi	r2,290
 1205048:	10b45b04 	addi	r2,r2,-11924
 120504c:	11000017 	ldw	r4,0(r2)
 1205050:	01404834 	movhi	r5,288
 1205054:	29538104 	addi	r5,r5,19972
 1205058:	1205d6c1 	jmpi	1205d6c <_fwalk_reent>

0120505c <__fp_lock>:
 120505c:	0005883a 	mov	r2,zero
 1205060:	f800283a 	ret

01205064 <__fp_unlock>:
 1205064:	0005883a 	mov	r2,zero
 1205068:	f800283a 	ret

0120506c <_cleanup_r>:
 120506c:	01404874 	movhi	r5,289
 1205070:	2967ae04 	addi	r5,r5,-24904
 1205074:	1205cb41 	jmpi	1205cb4 <_fwalk>

01205078 <__sinit.part.1>:
 1205078:	defff604 	addi	sp,sp,-40
 120507c:	00c04834 	movhi	r3,288
 1205080:	dfc00915 	stw	ra,36(sp)
 1205084:	df000815 	stw	fp,32(sp)
 1205088:	ddc00715 	stw	r23,28(sp)
 120508c:	dd800615 	stw	r22,24(sp)
 1205090:	dd400515 	stw	r21,20(sp)
 1205094:	dd000415 	stw	r20,16(sp)
 1205098:	dcc00315 	stw	r19,12(sp)
 120509c:	dc800215 	stw	r18,8(sp)
 12050a0:	dc400115 	stw	r17,4(sp)
 12050a4:	dc000015 	stw	r16,0(sp)
 12050a8:	18d41b04 	addi	r3,r3,20588
 12050ac:	24000117 	ldw	r16,4(r4)
 12050b0:	20c00f15 	stw	r3,60(r4)
 12050b4:	07000044 	movi	fp,1
 12050b8:	00c000c4 	movi	r3,3
 12050bc:	2080bb04 	addi	r2,r4,748
 12050c0:	20c0b915 	stw	r3,740(r4)
 12050c4:	27000e15 	stw	fp,56(r4)
 12050c8:	2080ba15 	stw	r2,744(r4)
 12050cc:	2000b815 	stw	zero,736(r4)
 12050d0:	05c00204 	movi	r23,8
 12050d4:	00800104 	movi	r2,4
 12050d8:	2025883a 	mov	r18,r4
 12050dc:	b80d883a 	mov	r6,r23
 12050e0:	81001704 	addi	r4,r16,92
 12050e4:	000b883a 	mov	r5,zero
 12050e8:	80000015 	stw	zero,0(r16)
 12050ec:	80000115 	stw	zero,4(r16)
 12050f0:	80000215 	stw	zero,8(r16)
 12050f4:	8080030d 	sth	r2,12(r16)
 12050f8:	80001915 	stw	zero,100(r16)
 12050fc:	8000038d 	sth	zero,14(r16)
 1205100:	80000415 	stw	zero,16(r16)
 1205104:	80000515 	stw	zero,20(r16)
 1205108:	80000615 	stw	zero,24(r16)
 120510c:	1206be00 	call	1206be0 <memset>
 1205110:	05804874 	movhi	r22,289
 1205114:	94400217 	ldw	r17,8(r18)
 1205118:	05404874 	movhi	r21,289
 120511c:	05004874 	movhi	r20,289
 1205120:	04c04874 	movhi	r19,289
 1205124:	b5a11804 	addi	r22,r22,-31648
 1205128:	ad612f04 	addi	r21,r21,-31556
 120512c:	a5214e04 	addi	r20,r20,-31432
 1205130:	9ce16504 	addi	r19,r19,-31340
 1205134:	85800815 	stw	r22,32(r16)
 1205138:	85400915 	stw	r21,36(r16)
 120513c:	85000a15 	stw	r20,40(r16)
 1205140:	84c00b15 	stw	r19,44(r16)
 1205144:	84000715 	stw	r16,28(r16)
 1205148:	00800284 	movi	r2,10
 120514c:	89001704 	addi	r4,r17,92
 1205150:	b80d883a 	mov	r6,r23
 1205154:	000b883a 	mov	r5,zero
 1205158:	88000015 	stw	zero,0(r17)
 120515c:	88000115 	stw	zero,4(r17)
 1205160:	88000215 	stw	zero,8(r17)
 1205164:	8880030d 	sth	r2,12(r17)
 1205168:	88001915 	stw	zero,100(r17)
 120516c:	8f00038d 	sth	fp,14(r17)
 1205170:	88000415 	stw	zero,16(r17)
 1205174:	88000515 	stw	zero,20(r17)
 1205178:	88000615 	stw	zero,24(r17)
 120517c:	1206be00 	call	1206be0 <memset>
 1205180:	94000317 	ldw	r16,12(r18)
 1205184:	00800484 	movi	r2,18
 1205188:	8c400715 	stw	r17,28(r17)
 120518c:	8d800815 	stw	r22,32(r17)
 1205190:	8d400915 	stw	r21,36(r17)
 1205194:	8d000a15 	stw	r20,40(r17)
 1205198:	8cc00b15 	stw	r19,44(r17)
 120519c:	8080030d 	sth	r2,12(r16)
 12051a0:	00800084 	movi	r2,2
 12051a4:	80000015 	stw	zero,0(r16)
 12051a8:	80000115 	stw	zero,4(r16)
 12051ac:	80000215 	stw	zero,8(r16)
 12051b0:	80001915 	stw	zero,100(r16)
