
simple_socket_client.elf:     file format elf32-littlenios2
simple_socket_client.elf
architecture: nios2:r1, flags 0x00000112:
EXEC_P, HAS_SYMS, D_PAGED
start address 0x00000240

Program Header:
    LOAD off    0x00001000 vaddr 0x00000000 paddr 0x00000000 align 2**12
         filesz 0x00000020 memsz 0x00000020 flags r-x
    LOAD off    0x00001020 vaddr 0x00000020 paddr 0x00000020 align 2**12
         filesz 0x00052054 memsz 0x00052054 flags r-x
    LOAD off    0x00053074 vaddr 0x00052074 paddr 0x00054330 align 2**12
         filesz 0x000022bc memsz 0x000022bc flags rw-
    LOAD off    0x000555ec vaddr 0x000565ec paddr 0x000565ec align 2**12
         filesz 0x00000000 memsz 0x0000a3a4 flags rw-

Sections:
Idx Name          Size      VMA       LMA       File off  Algn
  0 .entry        00000020  00000000  00000000  00001000  2**5
                  CONTENTS, ALLOC, LOAD, READONLY, CODE
  1 .exceptions   00000220  00000020  00000020  00001020  2**2
                  CONTENTS, ALLOC, LOAD, READONLY, CODE
  2 .text         0004c0d4  00000240  00000240  00001240  2**2
                  CONTENTS, ALLOC, LOAD, READONLY, CODE
  3 .rodata       00005d60  0004c314  0004c314  0004d314  2**2
                  CONTENTS, ALLOC, LOAD, READONLY, DATA
  4 .rwdata       000022bc  00052074  00054330  00053074  2**2
                  CONTENTS, ALLOC, LOAD, DATA, SMALL_DATA
  5 .bss          0000a3a4  000565ec  000565ec  000555ec  2**2
                  ALLOC, SMALL_DATA
  6 .sdram        00000000  00060990  00060990  00055330  2**0
                  CONTENTS
  7 .sram         00000000  08000000  08000000  00055330  2**0
                  CONTENTS
  8 .onchip_memory2 00000000  08200000  08200000  00055330  2**0
                  CONTENTS
  9 .descriptor_memory 00000000  08220000  08220000  00055330  2**0
                  CONTENTS
 10 .cfi_flash    00000000  0a000000  0a000000  00055330  2**0
                  CONTENTS
 11 .comment      00000023  00000000  00000000  00055330  2**0
                  CONTENTS, READONLY
 12 .debug_aranges 00001c80  00000000  00000000  00055358  2**3
                  CONTENTS, READONLY, DEBUGGING
 13 .debug_info   0006b470  00000000  00000000  00056fd8  2**0
                  CONTENTS, READONLY, DEBUGGING
 14 .debug_abbrev 00016466  00000000  00000000  000c2448  2**0
                  CONTENTS, READONLY, DEBUGGING
 15 .debug_line   0001e088  00000000  00000000  000d88ae  2**0
                  CONTENTS, READONLY, DEBUGGING
 16 .debug_frame  00009010  00000000  00000000  000f6938  2**2
                  CONTENTS, READONLY, DEBUGGING
 17 .debug_str    0000c419  00000000  00000000  000ff948  2**0
                  CONTENTS, READONLY, DEBUGGING
 18 .debug_loc    0001cd7e  00000000  00000000  0010bd61  2**0
                  CONTENTS, READONLY, DEBUGGING
 19 .debug_alt_sim_info 00000060  00000000  00000000  00128ae0  2**2
                  CONTENTS, READONLY, DEBUGGING
 20 .debug_ranges 00001510  00000000  00000000  00128b40  2**3
                  CONTENTS, READONLY, DEBUGGING
 21 .thread_model 00000006  00000000  00000000  00135488  2**0
                  CONTENTS, READONLY
 22 .cpu          00000003  00000000  00000000  0013548e  2**0
                  CONTENTS, READONLY
 23 .qsys         00000001  00000000  00000000  00135491  2**0
                  CONTENTS, READONLY
 24 .simulation_enabled 00000001  00000000  00000000  00135492  2**0
                  CONTENTS, READONLY
 25 .sysid_hash   00000004  00000000  00000000  00135493  2**0
                  CONTENTS, READONLY
 26 .sysid_base   00000004  00000000  00000000  00135497  2**0
                  CONTENTS, READONLY
 27 .sysid_time   00000004  00000000  00000000  0013549b  2**0
                  CONTENTS, READONLY
 28 .stderr_dev   00000009  00000000  00000000  0013549f  2**0
                  CONTENTS, READONLY
 29 .stdin_dev    00000009  00000000  00000000  001354a8  2**0
                  CONTENTS, READONLY
 30 .stdout_dev   00000009  00000000  00000000  001354b1  2**0
                  CONTENTS, READONLY
 31 .sopc_system_name 00000010  00000000  00000000  001354ba  2**0
                  CONTENTS, READONLY
 32 .jdi          00004110  00000000  00000000  001354ca  2**0
                  CONTENTS, READONLY
 33 .sopcinfo     001281ed  00000000  00000000  001395da  2**0
                  CONTENTS, READONLY
SYMBOL TABLE:
00000000 l    d  .entry	00000000 .entry
00000020 l    d  .exceptions	00000000 .exceptions
00000240 l    d  .text	00000000 .text
0004c314 l    d  .rodata	00000000 .rodata
00052074 l    d  .rwdata	00000000 .rwdata
000565ec l    d  .bss	00000000 .bss
00060990 l    d  .sdram	00000000 .sdram
08000000 l    d  .sram	00000000 .sram
08200000 l    d  .onchip_memory2	00000000 .onchip_memory2
08220000 l    d  .descriptor_memory	00000000 .descriptor_memory
0a000000 l    d  .cfi_flash	00000000 .cfi_flash
00000000 l    d  .comment	00000000 .comment
00000000 l    d  .debug_aranges	00000000 .debug_aranges
00000000 l    d  .debug_info	00000000 .debug_info
00000000 l    d  .debug_abbrev	00000000 .debug_abbrev
00000000 l    d  .debug_line	00000000 .debug_line
00000000 l    d  .debug_frame	00000000 .debug_frame
00000000 l    d  .debug_str	00000000 .debug_str
00000000 l    d  .debug_loc	00000000 .debug_loc
00000000 l    d  .debug_alt_sim_info	00000000 .debug_alt_sim_info
00000000 l    d  .debug_ranges	00000000 .debug_ranges
00000000 l    df *ABS*	00000000 D:\Altera\IU3-17M\Gutnikov\povs\lab3_povs\DE2_115_WEB_SERVER_RGMII_ENET0\Software\web_server_bsp/obj/HAL/src/crt0.o
00000288 l       .text	00000000 alt_after_alt_main
00000000 l    df *ABS*	00000000 alt_irq_handler.c
00000000 l    df *ABS*	00000000 alt_instruction_exception_entry.c
00000000 l    df *ABS*	00000000 alt_error_handler.c
00000000 l    df *ABS*	00000000 iniche_init.c
00000000 l    df *ABS*	00000000 led.c
00000000 l    df *ABS*	00000000 network_utilities.c
00000000 l    df *ABS*	00000000 simple_socket_client.c
000565fc l     O .bss	00000004 SSSCommand.4718
00002804 l     F .text	00000074 init_button_pio
00002794 l     F .text	00000070 handle_button_interrupts
00000000 l    df *ABS*	00000000 tse_my_system.c
00000000 l    df *ABS*	00000000 ctype_.c
0004d5b1 l     O .rodata	00000180 _ctype_b
00000000 l    df *ABS*	00000000 fprintf.c
00000000 l    df *ABS*	00000000 fwrite.c
00000000 l    df *ABS*	00000000 getc.c
00000000 l    df *ABS*	00000000 impure.c
000521ac l     O .rwdata	00000424 impure_data
00000000 l    df *ABS*	00000000 memcpy.c
00000000 l    df *ABS*	00000000 memmove.c
00000000 l    df *ABS*	00000000 memset.c
00000000 l    df *ABS*	00000000 perror.c
00000000 l    df *ABS*	00000000 printf.c
00000000 l    df *ABS*	00000000 putc.c
00000000 l    df *ABS*	00000000 putchar.c
00000000 l    df *ABS*	00000000 puts.c
00000000 l    df *ABS*	00000000 rand.c
00000000 l    df *ABS*	00000000 rget.c
00000000 l    df *ABS*	00000000 sprintf.c
00000000 l    df *ABS*	00000000 strchr.c
00000000 l    df *ABS*	00000000 strerror.c
00000000 l    df *ABS*	00000000 strlen.c
00000000 l    df *ABS*	00000000 vfprintf.c
0004ddb2 l     O .rodata	00000010 zeroes.4166
0004ddc2 l     O .rodata	00000010 blanks.4165
00000000 l    df *ABS*	00000000 u_strerr.c
00000000 l    df *ABS*	00000000 vfprintf.c
0004ddd2 l     O .rodata	00000010 zeroes.4181
0004dde2 l     O .rodata	00000010 blanks.4180
00000000 l    df *ABS*	00000000 wbuf.c
00000000 l    df *ABS*	00000000 wsetup.c
00000000 l    df *ABS*	00000000 dtoa.c
00007dd8 l     F .text	00000200 quorem
00000000 l    df *ABS*	00000000 fflush.c
00000000 l    df *ABS*	00000000 findfp.c
00009958 l     F .text	00000008 __fp_lock
00009960 l     F .text	00000008 __fp_unlock
00009974 l     F .text	000001a0 __sinit.part.1
00000000 l    df *ABS*	00000000 fputc.c
00000000 l    df *ABS*	00000000 fputs.c
00000000 l    df *ABS*	00000000 mallocr.c
00000000 l    df *ABS*	00000000 fvwrite.c
00000000 l    df *ABS*	00000000 fwalk.c
00000000 l    df *ABS*	00000000 locale.c
000525f0 l     O .rwdata	00000020 lc_ctype_charset
000525d0 l     O .rwdata	00000020 lc_message_charset
00052610 l     O .rwdata	00000038 lconv
00000000 l    df *ABS*	00000000 makebuf.c
00000000 l    df *ABS*	00000000 mallocr.c
00000000 l    df *ABS*	00000000 memchr.c
00000000 l    df *ABS*	00000000 mprec.c
0004de10 l     O .rodata	0000000c p05.2678
00000000 l    df *ABS*	00000000 mallocr.c
00000000 l    df *ABS*	00000000 refill.c
0000c8c8 l     F .text	0000001c lflush
00000000 l    df *ABS*	00000000 s_fpclassify.c
00000000 l    df *ABS*	00000000 sbrkr.c
00000000 l    df *ABS*	00000000 stdio.c
00000000 l    df *ABS*	00000000 strcmp.c
00000000 l    df *ABS*	00000000 vfprintf.c
0004df34 l     O .rodata	00000010 zeroes.4110
0004df44 l     O .rodata	00000010 blanks.4109
00000000 l    df *ABS*	00000000 vfprintf.c
0000df64 l     F .text	000000fc __sprint_r.part.0
0004df64 l     O .rodata	00000010 blanks.4125
0004df54 l     O .rodata	00000010 zeroes.4126
00000000 l    df *ABS*	00000000 writer.c
00000000 l    df *ABS*	00000000 closer.c
00000000 l    df *ABS*	00000000 mallocr.c
00000000 l    df *ABS*	00000000 fclose.c
00000000 l    df *ABS*	00000000 fputwc.c
00000000 l    df *ABS*	00000000 fstatr.c
00000000 l    df *ABS*	00000000 int_errno.c
00000000 l    df *ABS*	00000000 isattyr.c
00000000 l    df *ABS*	00000000 lseekr.c
00000000 l    df *ABS*	00000000 readr.c
00000000 l    df *ABS*	00000000 wcrtomb.c
00000000 l    df *ABS*	00000000 wctomb_r.c
00000000 l    df *ABS*	00000000 libgcc2.c
00000000 l    df *ABS*	00000000 libgcc2.c
00000000 l    df *ABS*	00000000 libgcc2.c
00000000 l    df *ABS*	00000000 lib2-divmod.c
00010770 l     F .text	0000006c udivmodsi4
00000000 l    df *ABS*	00000000 adddf3.c
00000000 l    df *ABS*	00000000 divdf3.c
00000000 l    df *ABS*	00000000 eqdf2.c
00000000 l    df *ABS*	00000000 gedf2.c
00000000 l    df *ABS*	00000000 ledf2.c
00000000 l    df *ABS*	00000000 muldf3.c
00000000 l    df *ABS*	00000000 subdf3.c
00000000 l    df *ABS*	00000000 fixdfsi.c
00000000 l    df *ABS*	00000000 floatsidf.c
00000000 l    df *ABS*	00000000 floatunsidf.c
00000000 l    df *ABS*	00000000 libgcc2.c
00000000 l    df *ABS*	00000000 libgcc2.c
00000000 l    df *ABS*	00000000 alt_flash_dev.c
00000000 l    df *ABS*	00000000 alt_fstat.c
00012f54 l     F .text	00000050 alt_get_errno
00000000 l    df *ABS*	00000000 alt_iic.c
00000000 l    df *ABS*	00000000 alt_iic_isr_register.c
00000000 l    df *ABS*	00000000 alt_irq_vars.c
00000000 l    df *ABS*	00000000 alt_isatty.c
00013324 l     F .text	00000050 alt_get_errno
00000000 l    df *ABS*	00000000 alt_load.c
00013418 l     F .text	00000064 alt_load_section
00000000 l    df *ABS*	00000000 alt_lseek.c
000134fc l     F .text	00000050 alt_get_errno
00000000 l    df *ABS*	00000000 alt_main.c
00000000 l    df *ABS*	00000000 alt_sbrk.c
0005420c l     O .rwdata	00000004 heap_end
00000000 l    df *ABS*	00000000 alt_env_lock.c
00054210 l     O .rwdata	00000004 lockid
00056638 l     O .bss	00000004 locks
00000000 l    df *ABS*	00000000 alt_malloc_lock.c
00054214 l     O .rwdata	00000004 lockid
00056640 l     O .bss	00000004 locks
00000000 l    df *ABS*	00000000 os_core.c
00015090 l     F .text	00000044 OS_InitMisc
000150d4 l     F .text	00000068 OS_InitRdyList
00015234 l     F .text	000000e0 OS_InitTCBList
00014fb4 l     F .text	000000dc OS_InitEventList
0001513c l     F .text	0000007c OS_InitTaskIdle
000151b8 l     F .text	0000007c OS_InitTaskStat
00015494 l     F .text	00000070 OS_SchedNew
00000000 l    df *ABS*	00000000 os_dbg.c
00000000 l    df *ABS*	00000000 os_flag.c
00017288 l     F .text	00000110 OS_FlagTaskRdy
00016fe0 l     F .text	000001c4 OS_FlagBlock
00000000 l    df *ABS*	00000000 os_mem.c
00000000 l    df *ABS*	00000000 os_q.c
00000000 l    df *ABS*	00000000 os_sem.c
00000000 l    df *ABS*	00000000 os_task.c
00000000 l    df *ABS*	00000000 os_time.c
00000000 l    df *ABS*	00000000 alt_sys_init.c
0001b724 l     F .text	00000038 alt_dev_reg
00052a50 l     O .rwdata	000000dc cfi_flash
00052b2c l     O .rwdata	0000106c jtag_uart
00053b98 l     O .rwdata	00000124 lcd
00053cbc l     O .rwdata	00000030 sgdma_rx
00053cec l     O .rwdata	00000030 sgdma_tx
00053d1c l     O .rwdata	000000d0 rs232
00053dec l     O .rwdata	00000030 altera_ro_zipfs
00000000 l    df *ABS*	00000000 altera_avalon_cfi_flash.c
0001ba40 l     F .text	00000038 alt_flash_device_register
00000000 l    df *ABS*	00000000 altera_avalon_cfi_flash_table.c
0001c87c l     F .text	00000080 alt_read_16bit_query_entry
00000000 l    df *ABS*	00000000 altera_avalon_jtag_uart_fd.c
00000000 l    df *ABS*	00000000 altera_avalon_jtag_uart_init.c
0001d9d0 l     F .text	000002a4 altera_avalon_jtag_uart_irq
0001dc74 l     F .text	00000110 altera_avalon_jtag_uart_timeout
00000000 l    df *ABS*	00000000 altera_avalon_jtag_uart_ioctl.c
00000000 l    df *ABS*	00000000 altera_avalon_jtag_uart_read.c
00000000 l    df *ABS*	00000000 altera_avalon_jtag_uart_write.c
00000000 l    df *ABS*	00000000 altera_avalon_lcd_16207.c
00054290 l     O .rwdata	00000004 colstart
0001e44c l     F .text	000000b4 lcd_write_command
0001e500 l     F .text	000000d4 lcd_write_data
0001e5d4 l     F .text	000000cc lcd_clear_screen
0001e6a0 l     F .text	000001e8 lcd_repaint_screen
0001e888 l     F .text	000000c8 lcd_scroll_up
0001e950 l     F .text	000002a0 lcd_handle_escape
0001f110 l     F .text	000000ac alt_lcd_16207_timeout
00000000 l    df *ABS*	00000000 altera_avalon_lcd_16207_fd.c
00000000 l    df *ABS*	00000000 altera_avalon_sgdma.c
0001f380 l     F .text	00000050 alt_get_errno
0001ff94 l     F .text	000000b8 alt_avalon_sgdma_irq
00000000 l    df *ABS*	00000000 altera_avalon_timer_sc.c
000200f0 l     F .text	00000074 alt_avalon_timer_sc_irq
00000000 l    df *ABS*	00000000 altera_avalon_tse.c
0005669a l     O .bss	00000001 tse_system_count.4577
0005669b l     O .bss	00000001 is_init.4659
00000000 l    df *ABS*	00000000 altera_avalon_uart_fd.c
00000000 l    df *ABS*	00000000 altera_avalon_uart_init.c
000253f0 l     F .text	00000098 altera_avalon_uart_irq
00025488 l     F .text	00000138 altera_avalon_uart_rxirq
000255c0 l     F .text	000001a4 altera_avalon_uart_txirq
00000000 l    df *ABS*	00000000 altera_avalon_uart_read.c
000257b8 l     F .text	00000050 alt_get_errno
00000000 l    df *ABS*	00000000 altera_avalon_uart_write.c
00025a70 l     F .text	00000050 alt_get_errno
00000000 l    df *ABS*	00000000 altera_ro_zipfs.c
00025cf8 l     F .text	00000074 read_word
00025d6c l     F .text	00000054 read_word_inc
00025dc0 l     F .text	00000044 read_half_word
00025e04 l     F .text	00000054 read_half_word_inc
00025e58 l     F .text	00000118 check_file_header
0002609c l     F .text	000000a4 check_directory_table
00026140 l     F .text	000000ac find_directory_entry
000261ec l     F .text	00000178 find_file_entry_by_name
00026364 l     F .text	000001a0 find_file_entry
00000000 l    df *ABS*	00000000 ins_tse_mac.c
00000000 l    df *ABS*	00000000 alt_iniche_close.c
00000000 l    df *ABS*	00000000 alt_iniche_dev.c
00000000 l    df *ABS*	00000000 alt_iniche_read.c
00000000 l    df *ABS*	00000000 alt_iniche_write.c
00000000 l    df *ABS*	00000000 ipnet.c
00000000 l    df *ABS*	00000000 ipstart.c
00056804 l     O .bss	0000003c closers
000566b0 l     O .bss	00000004 nclosers
00000000 l    df *ABS*	00000000 igmp_cmn.c
00000000 l    df *ABS*	00000000 bsdsock.c
00000000 l    df *ABS*	00000000 cksum.c
000542ac l     O .rwdata	00000004 cksum_select
00000000 l    df *ABS*	00000000 in_utils.c
00056840 l     O .bss	00000018 tistring
00000000 l    df *ABS*	00000000 netmain.c
00000000 l    df *ABS*	00000000 parseip.c
00056858 l     O .bss	0000001e nearBuf.4342
00000000 l    df *ABS*	00000000 tk_crnos.c
00000000 l    df *ABS*	00000000 pktalloc.c
00000000 l    df *ABS*	00000000 q.c
00000000 l    df *ABS*	00000000 asm_cksum.o
0002d3d4 l       .text	00000000 done
0002d264 l       .text	00000000 asm1
0002d390 l       .text	00000000 loop0
0002d28c l       .text	00000000 loop
0002d3ac l       .text	00000000 fold
00000000 l    df *ABS*	00000000 brdutils.c
000566e4 l     O .bss	00000004 kbd_init.3959
000566e0 l     O .bss	00000004 cpu_statusreg
00000000 l    df *ABS*	00000000 osportco.c
00000000 l    df *ABS*	00000000 targnios.c
00000000 l    df *ABS*	00000000 nptcp.c
00056718 l     O .bss	00000004 in_tcptick
00000000 l    df *ABS*	00000000 rawsock.c
00000000 l    df *ABS*	00000000 sockcall.c
00031730 l     F .text	0000008c sockargs
00030a7c l     F .text	000001d4 t_getname
00000000 l    df *ABS*	00000000 socket.c
00000000 l    df *ABS*	00000000 socket2.c
00000000 l    df *ABS*	00000000 soselect.c
00000000 l    df *ABS*	00000000 tcp_in.c
00000000 l    df *ABS*	00000000 tcp_out.c
00039208 l     F .text	000000c8 bld_options
00000000 l    df *ABS*	00000000 tcp_subr.c
00000000 l    df *ABS*	00000000 tcp_timr.c
00000000 l    df *ABS*	00000000 tcp_usr.c
00000000 l    df *ABS*	00000000 tcpport.c
00000000 l    df *ABS*	00000000 udpsock.c
00000000 l    df *ABS*	00000000 alt_alarm_start.c
00000000 l    df *ABS*	00000000 alt_close.c
0003ba14 l     F .text	00000050 alt_get_errno
00000000 l    df *ABS*	00000000 alt_dcache_flush.c
00000000 l    df *ABS*	00000000 alt_dcache_flush_all.c
00000000 l    df *ABS*	00000000 alt_dev.c
0003bbec l     F .text	0000002c alt_dev_null_write
00000000 l    df *ABS*	00000000 alt_dev_llist_insert.c
0003bc18 l     F .text	00000050 alt_get_errno
00000000 l    df *ABS*	00000000 alt_do_ctors.c
00000000 l    df *ABS*	00000000 alt_do_dtors.c
00000000 l    df *ABS*	00000000 alt_errno.c
00000000 l    df *ABS*	00000000 alt_find_dev.c
00000000 l    df *ABS*	00000000 alt_fs_reg.c
00000000 l    df *ABS*	00000000 alt_icache_flush_all.c
00000000 l    df *ABS*	00000000 alt_io_redirect.c
0003bfa4 l     F .text	000000c0 alt_open_fd
00000000 l    df *ABS*	00000000 alt_open.c
0003c0dc l     F .text	00000050 alt_get_errno
0003c12c l     F .text	000000cc alt_file_locked
00000000 l    df *ABS*	00000000 alt_read.c
0003c350 l     F .text	00000050 alt_get_errno
00000000 l    df *ABS*	00000000 alt_release_fd.c
00000000 l    df *ABS*	00000000 alt_remap_cached.c
00000000 l    df *ABS*	00000000 alt_tick.c
00000000 l    df *ABS*	00000000 alt_uncached_free.c
00000000 l    df *ABS*	00000000 alt_uncached_malloc.c
00000000 l    df *ABS*	00000000 alt_usleep.c
00000000 l    df *ABS*	00000000 alt_write.c
0003c8a8 l     F .text	00000050 alt_get_errno
00000000 l    df *ABS*	00000000 altera_nios2_gen2_irq.c
00000000 l    df *ABS*	00000000 os_cpu_a.o
00000040 l       *ABS*	00000000 OSCtxSw_SWITCH_PC
00000000 l    df *ABS*	00000000 os_cpu_c.c
00000014 l       *ABS*	00000000 OSTCBNext_OFFSET
00000032 l       *ABS*	00000000 OSTCBPrio_OFFSET
00000000 l       *ABS*	00000000 OSTCBStkPtr_OFFSET
00000000 l    df *ABS*	00000000 altera_avalon_cfi_flash_amd.c
0003d27c l     F .text	000000cc alt_write_word_amd
0003d160 l     F .text	0000011c alt_wait_for_command_to_complete_amd
00000000 l    df *ABS*	00000000 altera_avalon_cfi_flash_intel.c
0003d550 l     F .text	00000178 alt_unlock_block_intel
0003d6c8 l     F .text	000000d4 alt_write_word_intel
00000000 l    df *ABS*	00000000 allports.c
00056750 l     O .bss	00000004 inside_pktdemux
00000000 l    df *ABS*	00000000 timeouts.c
0003dc48 l     F .text	00000194 check_interval_timers
0005675c l     O .bss	00000004 numtimers
00000000 l    df *ABS*	00000000 tk_misc.c
00000000 l    df *ABS*	00000000 alt_iniche_fcntl.c
00000000 l    df *ABS*	00000000 et_arp.c
00056760 l     O .bss	00000004 arp_timer
00056768 l     O .bss	00000004 cachetime
00000000 l    df *ABS*	00000000 iface.c
00000000 l    df *ABS*	00000000 ip.c
0005431c l     O .rwdata	00000004 uid
00000000 l    df *ABS*	00000000 ip_reasm.c
00000000 l    df *ABS*	00000000 ipdemux.c
00000000 l    df *ABS*	00000000 ipmc.c
00000000 l    df *ABS*	00000000 ipport.c
00000000 l    df *ABS*	00000000 ipraw.c
00000000 l    df *ABS*	00000000 iproute.c
00000000 l    df *ABS*	00000000 udp.c
000567a8 l     O .bss	00000002 usocket
00000000 l    df *ABS*	00000000 igmp.c
00000000 l    df *ABS*	00000000 igmp2.c
00000000 l    df *ABS*	00000000 ipopt.c
00000000 l    df *ABS*	00000000 u_mctest.c
00054324 l     O .rwdata	00000004 iCounter.4715
00000000 l    df *ABS*	00000000 memdev.c
00000000 l    df *ABS*	00000000 tcpcksum.c
00000000 l    df *ABS*	00000000 udp_open.c
00000000 l    df *ABS*	00000000 in_pcb.c
00000000 l    df *ABS*	00000000 vfsfiles.c
00000000 l    df *ABS*	00000000 vfsport.c
00000000 l    df *ABS*	00000000 alt_busy_sleep.c
00000000 l    df *ABS*	00000000 alt_fcntl.c
0004a26c l     F .text	00000050 alt_get_errno
00000000 l    df *ABS*	00000000 alt_find_file.c
00000000 l    df *ABS*	00000000 alt_get_fd.c
00000000 l    df *ABS*	00000000 alt_icache_flush.c
00000000 l    df *ABS*	00000000 icmp.c
000541cc l     O .rwdata	00000018 dsts
00000000 l    df *ABS*	00000000 atexit.c
00000000 l    df *ABS*	00000000 atoi.c
00000000 l    df *ABS*	00000000 exit.c
00000000 l    df *ABS*	00000000 malign.c
00000000 l    df *ABS*	00000000 mallocr.c
00000000 l    df *ABS*	00000000 malloc.c
00000000 l    df *ABS*	00000000 memcmp.c
00000000 l    df *ABS*	00000000 strcpy.c
00000000 l    df *ABS*	00000000 strncmp.c
00000000 l    df *ABS*	00000000 strtol.c
00000000 l    df *ABS*	00000000 vprintf.c
00000000 l    df *ABS*	00000000 vsprintf.c
00000000 l    df *ABS*	00000000 __atexit.c
00000000 l    df *ABS*	00000000 __call_atexit.c
00000000 l    df *ABS*	00000000 vfprintfr_1.c
00000000 l    df *ABS*	00000000 alt_exit.c
00056740 g     O .bss	00000004 alt_instruction_exception_handler
000030ec g     F .text	00000018 putchar
0006058c g     O .bss	00000014 soq
0000c1b0 g     F .text	00000074 _mprec_log10
00021460 g     F .text	000000d8 alt_tse_get_mac_info
00054262 g     O .rwdata	00000002 OSTaskNameSize
0000c29c g     F .text	0000008c __any_on
0000f8b4 g     F .text	00000054 _isatty_r
0004de1c g     O .rodata	00000028 __mprec_tinytens
0003fa08 g     F .text	0000072c ip_write_internal
00013620 g     F .text	000000d4 alt_main
0004bb98 g     F .text	00000090 strcpy
0002ce60 g     F .text	000000a4 pk_free
00003104 g     F .text	000000b8 _puts_r
0001c348 g     F .text	00000040 alt_read_query_entry_32bit
0005c8f0 g     O .bss	00000100 alt_irq
0005406c g     O .rwdata	00000009 rtp_priority
0000f908 g     F .text	0000005c _lseek_r
0004b540 g     F .text	00000330 icmp_timex
0002e488 g     F .text	00000040 m_freem
00049c1c g     F .text	00000048 vgetc
0002d544 g     F .text	0000001c clock_c
00056730 g     O .bss	00000004 tcp_optionbuf
0003f538 g     F .text	00000070 if_getbynum
00017aec g     F .text	000000d0 OS_MemInit
0001bb08 g     F .text	000002a8 alt_flash_cfi_write
0002c5c8 g     F .text	0000006c TK_OSTaskQuery
0002d244 g       .text	00000000 asm_cksum
00054330 g       *ABS*	00000000 __flash_rwdata_start
0002501c g     F .text	000000f0 marvell_cfg_rgmii
0001b6c0 g     F .text	00000064 OSTimeSet
00049b24 g     F .text	000000f8 vgetc_locked
0002dd80 g     F .text	00000020 post_task_setup
0004307c g     F .text	00000348 ipr_stats
0003aa2c g     F .text	00000118 tcp_attach
0002f850 g     F .text	00000084 tcp_tick
0002b108 g     F .text	00000074 print_ipad
0002c4c4 g     F .text	00000104 tcp_wakeup
00011a04 g     F .text	00000084 .hidden __eqdf2
000565f4 g     O .bss	00000004 last_flash_sector_offset
000566b4 g     O .bss	00000004 igmp_timers_are_running
00000f78 g     F .text	0000011c led_bit_toggle
00037c48 g     F .text	00000124 tcp_pulloutofband
0002263c g     F .text	00000210 alt_tse_phy_print_profile
00013d0c g     F .text	00000610 OSEventPendMulti
00060990 g       *ABS*	00000000 __alt_heap_start
0003cdd4 g     F .text	00000020 OSTaskCreateHook
00024dbc g     F .text	00000098 marvell_phy_cfg
00043414 g     F .text	000003d8 ip_rcv
000498c8 g     F .text	0000014c vfseek
00033e04 g     F .text	0000010c soqremque
000450d0 g     F .text	000007fc udpdemux
00027e48 g     F .text	00000104 tse_mac_close
00002f40 g     F .text	0000003c printf
0005677c g     O .bss	00000004 rt_mib
0005423a g     O .rwdata	00000002 OSMboxEn
0004bff0 g     F .text	00000024 vsprintf
0001f4f4 g     F .text	00000110 alt_avalon_sgdma_do_sync_transfer
00014370 g     F .text	0000007c OSIntEnter
0000f9c0 g     F .text	0000009c _wcrtomb_r
08000000 g       *ABS*	00000000 __alt_mem_sram
0000cc2c g     F .text	0000005c __sseek
00009ca8 g     F .text	00000010 __sinit
000442fc g     F .text	00000108 in_delmulti
00007b38 g     F .text	00000154 __swbuf_r
00056794 g     O .bss	00000004 so_evtmap_create
0005424a g     O .rwdata	00000002 OSQEn
00047fdc g     F .text	00000088 in_pcballoc
000542d0 g     O .rwdata	00000002 socket_defaults
0000a874 g     F .text	0000007c _setlocale_r
0003e3f0 g     F .text	00000454 send_arp
00009b14 g     F .text	00000064 __sfmoreglue
000489fc g     F .text	00000338 vfopen_locked
00056600 g     O .bss	00000004 SSSLEDCommandQ
000139e0 g     F .text	000000d0 __malloc_unlock
0003ce30 g     F .text	0000001c OSTaskStatHook
0003db38 g     F .text	00000054 prep_modules
0002a71c g     F .text	0000013c bsd_i_sockoptlen
00056648 g     O .bss	00000001 OSLockNesting
000034fc g     F .text	000005ec strerror
000216a4 g     F .text	00000a6c getPHYSpeed
00048f34 g     F .text	00000040 vfclose
0006062c g     O .bss	0000002c tcb
00054288 g     O .rwdata	00000002 OSDataSize
0003c4fc g     F .text	00000034 alt_remap_cached
00056649 g     O .bss	00000001 OSRunning
0003f280 g     F .text	000002b8 grat_arp
00001374 g     F .text	000001a8 get_ip_addr
0002beb0 g     F .text	00000094 inet_pton
0003f67c g     F .text	00000090 reg_type
00029590 g     F .text	00000184 igmp_fasttimo
000490d8 g     F .text	00000058 vunlink_flag_open_files
0001fbe0 g     F .text	000003b4 alt_avalon_sgdma_construct_descriptor_burst
00060658 g     O .bss	000000e0 tcpstat
00042974 g     F .text	00000348 ip_reasm_copy_queued_fragments_into_reassy_buffer
0002e9d0 g     F .text	0000009c dtom
0003910c g     F .text	000000fc tcp_setpersist
00030e0c g     F .text	00000188 t_getsockopt
00002c10 g     F .text	0000015c memmove
0002ee28 g     F .text	000005cc ip_output
0003ce74 g     F .text	0000001c OSInitHookBegin
0004b870 g     F .text	00000050 icmp_du
000542b0 g     O .rwdata	00000004 num_net_tasks
000567bc g     O .bss	00000004 vfiles
00054280 g     O .rwdata	00000002 OSTmrSize
00009c90 g     F .text	00000018 _cleanup
00041b50 g     F .text	000002b8 ip_reasm_process_first_fragment
0000b39c g     F .text	000000a8 _Balloc
000019ec g     F .text	000001a0 get_board_mac_addr
0005664c g     O .bss	00000004 OSIdleCtr
00056604 g     O .bss	00000004 SSSLEDLightshowSem
0002403c g     F .text	000001bc alt_tse_phy_set_adv_1000
0005429c g     O .rwdata	00000001 max_mac_system
00046948 g     F .text	000005c0 ip_setmoptions
00020714 g     F .text	000009fc alt_tse_system_add_sys
00011a88 g     F .text	000000e0 .hidden __gtdf2
00047a18 g     F .text	0000002c md_fseek
0003c9f0 g     F .text	00000020 altera_nios2_gen2_irq_init
0003cabc g       .text	00000000 OSStartTsk
00000000  w      *UND*	00000000 __errno
000157bc g     F .text	000002d4 OS_TCBInit
00041e08 g     F .text	00000088 ip_reassm
0001c4e0 g     F .text	00000050 alt_write_flash_command_32bit_device_16bit_mode
00060918 g     O .bss	00000010 udp_mib
00000000 g     F .entry	0000001c __reset
0003159c g     F .text	000000d4 t_shutdown
00002330 g     F .text	000001ec sss_handle_receive
00031074 g     F .text	00000138 t_recvfrom
000565ec g     O .bss	00000004 edge_capture
00054286 g     O .rwdata	00000002 OSTmrWheelTblSize
000470c4 g     F .text	000006c0 u_mctest_run
0001f750 g     F .text	00000074 alt_avalon_sgdma_construct_stream_to_mem_desc_burst
00044468 g     F .text	00000088 prep_ifaces
00000020 g       *ABS*	00000000 __flash_exceptions_start
000566d0 g     O .bss	00000001 to_netmain
0002cb08 g     F .text	000000cc pk_alloc
00054226 g     O .rwdata	00000002 OSEventSize
00000b8c g     F .text	000002f8 alt_SSSErrorHandler
00056650 g     O .bss	00000001 OSPrioHighRdy
0000f85c g     F .text	00000058 _fstat_r
0005208c g     O .rwdata	00000120 tse_mac_device
0002bac4 g     F .text	00000044 tk_nettick
0003cdf4 g     F .text	00000020 OSTaskDelHook
0001bff8 g     F .text	000002d4 alt_flash_program_block
00056624 g     O .bss	00000004 errno
000032c0 g     F .text	00000014 __srget
00034ffc g     F .text	000000c0 in_pcbnotify
0000cba8 g     F .text	00000008 __seofread
0003ca9c g       .text	00000000 OSStartHighRdy
00060220 g     O .bss	00000014 lilfreeq
0000028c g     F .text	00000644 alt_uCOSIIErrorHandler
00044518 g     F .text	00000028 evtmap_setup
00019fd0 g     F .text	000001ec OSTaskCreateExt
000566d4 g     O .bss	00000004 tcp_sleep_timeout
000347b0 g     F .text	000001b4 sbdrop
00056790 g     O .bss	00000004 net_system_exit
00060928 g     O .bss	00000068 icmp_mib
0000cefc g     F .text	00001068 ___svfiprintf_internal_r
00039ba4 g     F .text	00000074 tcp_getseq
000448f4 g     F .text	000000c0 ip_raw_alloc
00024908 g     F .text	000004b4 alt_tse_phy_set_common_speed
00016b2c g     F .text	00000068 OSFlagPendGetFlagsRdy
00054266 g     O .rwdata	00000002 OSTaskStatStkSize
0005fcf4 g     O .bss	00000010 pmac_groups
00032694 g     F .text	00000744 soreceive
00015c1c g     F .text	00000308 OSFlagAccept
000181c0 g     F .text	000000b8 OSQFlush
00017bbc g     F .text	00000140 OSQAccept
00056630 g     O .bss	00000004 alt_argv
0005c1e4 g       *ABS*	00000000 _gp
000433c4 g     F .text	00000050 ip_reasm_send_icmp_timex
0003c784 g     F .text	00000124 usleep
00048f74 g     F .text	00000048 vfflush
00060534 g     O .bss	00000040 resid_semaphore
0002afc8 g     F .text	00000140 hexdump
00041a18 g     F .text	000000a0 ip_reasm_incr_mem_useage
00029c0c g     F .text	0000007c igmp_leavegroup
00019e14 g     F .text	000001bc OSTaskCreate
000198d4 g     F .text	00000540 OSTaskChangePrio
00056644 g     O .bss	00000004 alt_heapsem
000399f4 g     F .text	000000f0 tcp_close
00015a90 g     F .text	0000018c OSDebugInit
0001a1bc g     F .text	000003e0 OSTaskDel
0004a03c g     F .text	0000005c vferror
0003c70c g     F .text	00000078 alt_uncached_malloc
00020218 g     F .text	00000060 tse_mac_initTransInfo2
00045d24 g     F .text	000000bc udp_alloc
00053ed4 g     O .rwdata	00000180 alt_fd_list
0005c9f0 g     O .bss	00000370 OSFlagTbl
0005671c g     O .bss	00000008 mbstat
000029d0 g     F .text	00000080 _getc_r
00002a50 g     F .text	00000088 getc
000030e4 g     F .text	00000008 _putchar_r
00014da0 g     F .text	000000b4 OS_EventTaskRemove
00046574 g     F .text	00000150 igmpv2_chk_set_timer
0002c284 g     F .text	0000002c TK_OSTimeDly
0003bdc4 g     F .text	00000090 alt_find_dev
00002ad8 g     F .text	00000138 memcpy
0002048c g     F .text	00000054 tse_mac_setMIImode
0003e004 g     F .text	00000088 task_stats
0003023c g     F .text	0000004c DOMAIN_CHECK
0002f3f4 g     F .text	00000038 in_broadcast
00054250 g     O .rwdata	00000002 OSRdyTblSize
00022110 g     F .text	00000048 alt_tse_phy_rd_mdio_addr
000567b8 g     O .bss	00000004 vfsystems
00045c5c g     F .text	000000c8 udp_socket
000566a4 g     O .bss	00000004 MaxMtu
00034cd8 g     F .text	00000140 sock_selscan
00009968 g     F .text	0000000c _cleanup_r
00012cc4 g     F .text	000000d0 .hidden __floatsidf
000417f0 g     F .text	000000c4 ip_reasm_match_frag_with_ire
00033f64 g     F .text	00000054 socantrcvmore
00020278 g     F .text	000000e4 tse_mac_sTxWrite
00002178 g     F .text	000001b8 sss_exec_command
00002f00 g     F .text	00000014 perror
0003be54 g     F .text	00000084 alt_fs_reg
0003c064 g     F .text	00000078 alt_io_redirect
00011b68 g     F .text	000000e0 .hidden __ltdf2
000566f8 g     O .bss	00000004 netq_intmask
0002be64 g     F .text	0000004c hextoa
0004c314 g       *ABS*	00000000 __DTOR_END__
0003139c g     F .text	00000200 t_send
0003ba64 g     F .text	000000d0 alt_close
00056724 g     O .bss	00000002 select_wait
000031bc g     F .text	00000014 puts
0002b640 g     F .text	00000044 std_out
0003bf08 g     F .text	0000009c alt_exception_cause_generated_bad_addr
00026504 g     F .text	00000090 alt_ro_zipfs_open
0005fd14 g     O .bss	00000030 tse_iniche_dev_driver_data
00049c64 g     F .text	00000124 vfslookup_locked
00031f60 g     F .text	00000098 soaccept
00013ab0 g     F .text	00000120 OSEventNameGet
00054234 g     O .rwdata	00000002 OSFlagMax
000605a0 g     O .bss	0000003c tcpmib
000317bc g     F .text	00000098 t_errno
00044540 g     F .text	000000e0 ip_raw_open
0000ca8c g     F .text	00000074 __fpclassifyd
0000c10c g     F .text	000000a4 __ratio
000143ec g     F .text	000000f4 OSIntExit
00054320 g     O .rwdata	00000004 ipRoutes
00049088 g     F .text	00000050 vfeof
0000f3d4 g     F .text	00000024 __vfiprintf_internal
00039e90 g     F .text	0000005c tcp_canceltimers
0005426e g     O .rwdata	00000002 OSTCBSize
0001f83c g     F .text	00000088 alt_avalon_sgdma_construct_mem_to_stream_desc_burst
00056651 g     O .bss	00000001 OSPrioCur
0001ded8 g     F .text	000002b4 altera_avalon_jtag_uart_read
0004baf4 g     F .text	00000014 malloc
000567b4 g     O .bss	00000004 inpcb_cachemiss
00002f14 g     F .text	0000002c _printf_r
0002c024 g     F .text	000000c4 inet46_addr
000567b0 g     O .bss	00000004 inpcb_cachehits
0001088c g     F .text	00000008 .hidden __udivsi3
00053e94 g     O .rwdata	0000000b tcp_outflags
0005fd44 g     O .bss	00000130 tse
00013374 g     F .text	000000a4 isatty
00021110 g     F .text	00000168 alt_tse_sys_enable_mdio_sharing
00054254 g     O .rwdata	00000002 OSStkWidth
0004de6c g     O .rodata	000000c8 __mprec_tens
00048878 g     F .text	00000070 vf_alloc_and_link_vop
00054248 g     O .rwdata	00000002 OSPtrSize
00056780 g     O .bss	00000004 ipr_curr_mem
00029248 g     F .text	0000006c exit_hook
000566b8 g     O .bss	00000004 igmp_cticks
000213e0 g     F .text	00000080 alt_tse_get_mac_info_index
0005670c g     O .bss	00000004 mheap_sem_ptr
00037fc0 g     F .text	0000004c ip4_tcpmss
0000a8f0 g     F .text	0000000c __locale_charset
00054228 g     O .rwdata	00000002 OSEventTblSize
0006089c g     O .bss	00000014 netlist
00032dd8 g     F .text	00000098 soshutdown
0003ca10 g       .text	00000000 OSCtxSw
0003dac8 g     F .text	0000004c packet_check
0004a5ec g     F .text	0000008c alt_icache_flush
000605dc g     O .bss	00000014 mbufq
00031f10 g     F .text	00000050 soabort
00056620 g     O .bss	00000004 __malloc_top_pad
00056654 g     O .bss	00000004 OSTCBList
0002d144 g     F .text	00000100 qdel
0003d920 g     F .text	00000168 station_state
00044a4c g     F .text	0000016c rt_lookup
0005673c g     O .bss	00000004 alt_fd_list_lock
000541f0 g     O .rwdata	00000004 __mb_cur_max
00029c88 g     F .text	00000318 igmp_validate
0000a920 g     F .text	0000000c _localeconv_r
00028fa0 g     F .text	000002a8 ip_startup
0003053c g     F .text	00000250 t_accept
000339f4 g     F .text	00000094 soisdisconnecting
0000b79c g     F .text	0000003c __i2b
0000a260 g     F .text	000004a4 __sfvwrite_r
0001f968 g     F .text	00000058 alt_avalon_sgdma_stop
000289bc g     F .text	000003a0 pktdemux
0005cd60 g     O .bss	00000c30 OSMemTbl
00056658 g     O .bss	00000001 OSTickStepState
000221b0 g     F .text	00000128 alt_tse_phy_wr_mdio_reg
0002d408 g     F .text	0000009c kbhit
00030c50 g     F .text	000001bc t_setsockopt
0000cb00 g     F .text	00000054 _sbrk_r
0003d348 g     F .text	00000080 alt_program_intel
00054054 g     O .rwdata	00000018 icmpdu_types
0002284c g     F .text	000006a0 alt_tse_mac_group_init
00049130 g     F .text	000001fc vunlink
00026c24 g     F .text	00000a5c tse_mac_init
0005424c g     O .rwdata	00000002 OSQMax
0002ae28 g     F .text	000000a4 ccksum
000488e8 g     F .text	000000c8 vf_alloc_buffer
000567a4 g     O .bss	00000004 cachedRoute
000542b8 g     O .rwdata	00000004 lilbufs
0005d990 g     O .bss	00000800 OSTaskStatStk
00047a44 g     F .text	00000024 md_ftell
0002aecc g     F .text	00000054 cksum
0001771c g     F .text	000000f8 OSMemNameGet
00031b34 g     F .text	0000011c sofree
000566ac g     O .bss	00000004 ifNumber
0005422c g     O .rwdata	00000002 OSFlagEn
0000f964 g     F .text	0000005c _read_r
00054272 g     O .rwdata	00000002 OSTimeTickHookEn
0003bb34 g     F .text	00000074 alt_dcache_flush
00017398 g     F .text	000000a0 OS_FlagUnlink
000186e0 g     F .text	00000168 OSQPost
000542f8 g     O .rwdata	00000004 alt_max_fd
0001c2cc g     F .text	0000003c alt_read_query_entry_8bit
00015364 g     F .text	00000064 OS_MemCopy
000542c0 g     O .rwdata	00000004 bigbufs
0003ab44 g     F .text	000000cc tcp_disconnect
000153c8 g     F .text	000000cc OS_Sched
0000f56c g     F .text	00000100 _fclose_r
0001762c g     F .text	000000f0 OSMemGet
0001a89c g     F .text	000001c0 OSTaskNameSet
0003d3c8 g     F .text	00000188 alt_erase_block_intel
00009928 g     F .text	00000030 fflush
0005661c g     O .bss	00000004 __malloc_max_sbrked_mem
0005665c g     O .bss	00000004 OSCtxSwCtr
00060198 g     O .bss	00000064 igmpstats
0003ce4c g     F .text	00000028 OSTimeTickHook
0002a858 g     F .text	00000108 bsd_getsockopt
00054236 g     O .rwdata	00000002 OSFlagNameSize
00060900 g     O .bss	00000018 ire_stats
00001134 g     F .text	000001ec LEDManagementTask
0003ad84 g     F .text	000001a0 udp_soinput
0002d098 g     F .text	000000ac putq
00014e54 g     F .text	000000fc OS_EventTaskRemoveMulti
000566cc g     O .bss	00000004 iniche_net_ready
0001089c g     F .text	0000089c .hidden __adddf3
00014c54 g     F .text	0000014c OS_EventTaskWaitMulti
00049ff4 g     F .text	00000048 isvfile
00032f68 g     F .text	00000430 sosetopt
0002b964 g     F .text	000000e0 netmain
0003800c g     F .text	000000f8 tcp_mss
0000beb4 g     F .text	0000011c __b2d
0002bb08 g     F .text	000002fc parse_ipad
00048858 g     F .text	00000020 get_vfopen_error
0005424e g     O .rwdata	00000002 OSQSize
000101e0 g     F .text	00000590 .hidden __umoddi3
0001354c g     F .text	000000d4 lseek
0003db8c g     F .text	000000bc inet_timer
000191e4 g     F .text	00000268 OSSemPend
000223a4 g     F .text	00000298 alt_tse_phy_add_profile_default
00023aa4 g     F .text	00000598 alt_tse_phy_get_cap
00001e94 g     F .text	0000021c sss_send_menu
000541e8 g     O .rwdata	00000004 _global_impure_ptr
0002b300 g     F .text	00000154 print_eth
00048d34 g     F .text	00000050 vfopen
0003c3a0 g     F .text	000000fc alt_read
0000c328 g     F .text	000005a0 _realloc_r
000008d0 g     F .text	000002bc alt_NetworkErrorHandler
00054238 g     O .rwdata	00000002 OSLowestPrio
00060990 g       *ABS*	00000000 __bss_end
00013234 g     F .text	000000f0 alt_iic_isr_register
0001f3d0 g     F .text	00000124 alt_avalon_sgdma_do_async_transfer
0002e378 g     F .text	00000110 m_free
0003cec8 g     F .text	00000020 OSTCBInitHook
00027e08 g     F .text	00000040 tse_mac_stats
0002cbd4 g     F .text	0000028c pk_validate
0005427e g     O .rwdata	00000002 OSTmrCfgTicksPerSec
0003c5c8 g     F .text	00000104 alt_tick
000485f4 g     F .text	0000023c in_pcblookup
0000fc20 g     F .text	000005c0 .hidden __udivdi3
0002e1f0 g     F .text	00000188 m_getnbuf
0002cf24 g     F .text	000000bc dump_buf_estats
0000f680 g     F .text	00000184 _fputwc_r
00023944 g     F .text	00000160 alt_tse_phy_check_link
00056778 g     O .bss	00000004 arpRepsOut
00054220 g     O .rwdata	00000002 OSEventEn
0004de44 g     O .rodata	00000028 __mprec_bigtens
0000b580 g     F .text	00000104 __s2b
0005427a g     O .rwdata	00000002 OSTmrCfgNameSize
00012d94 g     F .text	000000a4 .hidden __floatunsidf
0003d79c g     F .text	000000f4 netmain_init
00024f38 g     F .text	000000e4 marvell_cfg_sgmii
00023788 g     F .text	000001bc alt_tse_phy_restart_an
0000bc5c g     F .text	00000060 __mcmp
00025294 g     F .text	0000015c altera_avalon_uart_init
00039430 g     F .text	0000040c tcp_respond
0003b160 g     F .text	000002d8 udp4_sockbind
000566fc g     O .bss	00000004 old_mode
000299b8 g     F .text	00000254 igmp_joingroup
0002f51c g     F .text	00000334 so_icmpdu
00009cc8 g     F .text	00000018 __fp_lock_all
000567c8 g     O .bss	00000004 vfs_dir_stale
000131e8 g     F .text	0000004c alt_ic_irq_enabled
0005fd04 g     O .bss	00000010 pphy_profiles
00042cbc g     F .text	000000e0 ip_reasm_process_timer_tick
0004a098 g     F .text	00000058 vclearerr
0002ad4c g     F .text	000000dc bsd_setsockopt
0002e97c g     F .text	00000054 mbuf_len
000171a4 g     F .text	000000e4 OS_FlagInit
0003c530 g     F .text	00000098 alt_alarm_stop
00049dd0 g     F .text	000001cc strippath
0002c320 g     F .text	000001a4 tcp_sleep
0004bf48 g     F .text	00000024 strtol
0003ac10 g     F .text	000000d0 tcp_usrclosed
08220000 g       *ABS*	00000000 __alt_mem_descriptor_memory
000566e8 g     O .bss	00000004 cticks_factor
0005425c g     O .rwdata	00000002 OSTaskIdleStkSize
000480b8 g     F .text	0000020c in_pcbbind
00056628 g     O .bss	00000004 alt_irq_active
00018dcc g     F .text	000000b0 OSSemAccept
0001792c g     F .text	000000d8 OSMemPut
00026684 g     F .text	0000013c alt_ro_zipfs_seek
00017438 g     F .text	000001f4 OSMemCreate
00056660 g     O .bss	00000004 OSIdleCtrMax
000000fc g     F .exceptions	000000d0 alt_irq_handler
00053eac g     O .rwdata	00000028 alt_dev_null
000542d2 g     O .rwdata	00000001 tcprexmtthresh
00054270 g     O .rwdata	00000002 OSTicksPerSec
0003f70c g     F .text	00000090 if_killsocks
00040134 g     F .text	00000218 ip_write
000437ec g     F .text	000005d0 ip_rcv_phase2
00030a38 g     F .text	00000044 t_getsockname
0003078c g     F .text	00000268 t_connect
000542cc g     O .rwdata	00000004 TCPTV_MSL
00060234 g     O .bss	00000010 memestats
00023670 g     F .text	00000118 alt_tse_phy_init
0002d4a4 g     F .text	00000064 getch
0001c7e0 g     F .text	0000009c alt_set_flash_algorithm_func
0005414c g     O .rwdata	00000080 vfs_root_path
000309f4 g     F .text	00000044 t_getpeername
0001f9c0 g     F .text	00000064 alt_avalon_sgdma_check_descriptor_status
00041ab8 g     F .text	00000098 ip_reasm_decr_mem_useage
000340ec g     F .text	00000088 soreserve
0003ca10 g       .text	00000000 OSIntCtxSw
0002dfc4 g     F .text	00000034 npalloc
0003bba8 g     F .text	00000044 alt_dcache_flush_all
0000b684 g     F .text	00000068 __hi0bits
000567a0 g     O .bss	00000004 ipraw_eps
0002c87c g     F .text	0000028c pk_init
00047844 g     F .text	0000015c md_fread
00027680 g     F .text	000002e8 tse_mac_raw_send
00012c3c g     F .text	00000088 .hidden __fixdfsi
00060738 g     O .bss	00000064 intimers
000341c4 g     F .text	00000048 sbrelease
00035138 g     F .text	000000f0 ifd_clr
00034a60 g     F .text	0000008c sbdroprecord
0002b454 g     F .text	0000007c uslash
0003c8f8 g     F .text	000000f8 alt_write
0001c388 g     F .text	00000044 alt_write_flash_command_8bit_device_8bit_mode
00056774 g     O .bss	00000004 arpRepsIn
0003dddc g     F .text	00000168 in_timerset
00056664 g     O .bss	00000004 OSTCBFreeList
00054330 g       *ABS*	00000000 __ram_rwdata_end
0001944c g     F .text	0000016c OSSemPendAbort
00038104 g     F .text	00001008 tcp_output
0005674c g     O .bss	00000004 activehost
000542f0 g     O .rwdata	00000008 alt_dev_list
0002b75c g     F .text	00000208 parse_args
00056700 g     O .bss	00000004 global_TCPwakeup_setIndx
00009cf8 g     F .text	00000044 _fputc_r
00028128 g     F .text	00000068 write
0001fb00 g     F .text	00000080 alt_avalon_sgdma_enable_desc_poll
0002dff8 g     F .text	0000003c npfree
00002f7c g     F .text	000000a0 _putc_r
0003eabc g     F .text	000002c0 arpReply
0002af4c g     F .text	0000007c nextarg
00054274 g     O .rwdata	00000002 OSVersionNbr
000423f0 g     F .text	0000052c ip_reasm_process_subsequent_fragments
000542b4 g     O .rwdata	00000004 pton_error
00056878 g     O .bss	00002000 SSSInitialTaskStk
0005fe74 g     O .bss	00000014 rcvdq
000350bc g     F .text	0000007c tcp_notify
00052074 g       *ABS*	00000000 __ram_rodata_end
00012fa4 g     F .text	000000b0 fstat
000028a0 g     F .text	00000024 fprintf
00031ff8 g     F .text	000000b8 soconnect
000449f4 g     F .text	00000058 ip_raw_maxalloc
00011b68 g     F .text	000000e0 .hidden __ledf2
0002510c g     F .text	00000078 DP83848C_link_status_read
0001d648 g     F .text	000000d8 alt_check_primary_table
00001cb8 g     F .text	000000a0 SSSCreateOSDataStructs
00048574 g     F .text	00000080 in_setpeeraddr
0005421c g     O .rwdata	00000004 OSEndiannessTest
0002d508 g     F .text	0000003c clock_init
00048fbc g     F .text	000000cc vfgets
0003e174 g     F .text	00000188 et_send
0000b9d4 g     F .text	00000140 __pow5mult
0000e078 g     F .text	0000135c ___vfiprintf_internal_r
00056614 g     O .bss	00000004 __nlocale_changed
00010894 g     F .text	00000008 .hidden __umodsi3
0001be3c g     F .text	00000064 alt_flash_cfi_read
0001c580 g     F .text	00000038 alt_write_native_8bit
00041984 g     F .text	00000094 ip_reasm_check_mem_useage
0002be04 g     F .text	00000060 inet_addr
00032e70 g     F .text	000000f8 sorflush
0004bf6c g     F .text	00000020 vprintf
00060348 g     O .bss	000000fc global_tcb_ext
0004078c g     F .text	00000424 ip_fragment_lc
0005fe88 g     O .bss	00000300 netstatic
00030308 g     F .text	00000160 t_bind
0001f7c4 g     F .text	00000078 alt_avalon_sgdma_construct_mem_to_stream_desc
0005422e g     O .rwdata	00000002 OSFlagGrpSize
00047f08 g     F .text	000000d4 udp_close
0001f8c4 g     F .text	00000050 alt_avalon_sgdma_register_callback
0002db0c g     F .text	00000200 alt_iniche_init
00060990 g       *ABS*	00000000 end
0002d72c g     F .text	00000088 UNLOCK_NET_RESOURCE
000269d0 g     F .text	00000254 prep_tse_mac
00030f94 g     F .text	000000e0 t_recv
0001c3cc g     F .text	00000078 alt_write_flash_command_16bit_device_8bit_mode
0001ebf0 g     F .text	00000520 altera_avalon_lcd_16207_write
0004932c g     F .text	0000018c vfread
000288dc g     F .text	000000e0 netclose
0000251c g     F .text	00000278 SSSSimpleSocketServerTask
0004b8e0 g     F .text	0000000c _atoi_r
00025ac0 g     F .text	00000238 altera_avalon_uart_write
00020530 g     F .text	000001e4 alt_tse_phy_add_profile
0001c8fc g     F .text	000005c8 alt_read_cfi_table
000542dc g     O .rwdata	00000004 tcp_keepintvl
0001d884 g     F .text	0000014c altera_avalon_jtag_uart_init
00015628 g     F .text	000000cc OS_TaskStat
0005428c g     O .rwdata	00000004 tse_mac_name
000001cc g     F .exceptions	00000074 alt_instruction_exception_entry
00053e4c g     O .rwdata	00000018 tcp_protosw
0004c314 g       *ABS*	00000000 __CTOR_LIST__
000567c4 g     O .bss	00000004 vfopen_error
08000000 g       *ABS*	00000000 __alt_stack_pointer
00056734 g     O .bss	00000004 tcp_maxidle
000567ac g     O .bss	00000004 firstudp
0001fb80 g     F .text	00000060 alt_avalon_sgdma_disable_desc_poll
00020164 g     F .text	00000088 alt_avalon_timer_sc_init
000251e4 g     F .text	00000060 altera_avalon_uart_write_fd
00012e38 g     F .text	00000064 .hidden __clzsi2
00025244 g     F .text	00000050 altera_avalon_uart_close_fd
0001e18c g     F .text	000002c0 altera_avalon_jtag_uart_write
0001f604 g     F .text	00000070 alt_avalon_sgdma_construct_mem_to_mem_desc
0001ba78 g     F .text	00000090 alt_flash_cfi_init
00009cb8 g     F .text	00000004 __sfp_lock_acquire
0000b2b4 g     F .text	000000e8 memchr
00015314 g     F .text	00000050 OS_MemClr
00005b18 g     F .text	00001ffc ___vfprintf_internal_r
0003cae0 g     F .text	000002f4 OSTaskStkInit
000032d4 g     F .text	00000058 _sprintf_r
0001f6f4 g     F .text	0000005c alt_avalon_sgdma_construct_stream_to_mem_desc
00009f70 g     F .text	000002f0 _free_r
000466c4 g     F .text	00000140 igmpv2_chk4_rtr_alert_opt
0000a8fc g     F .text	00000010 __locale_mb_cur_max
00031670 g     F .text	000000c0 t_socketclose
00058878 g     O .bss	00002000 LED7SegLightshowTaskStk
000149b0 g     F .text	00000198 OS_EventTaskRdy
0004c128 g     F .text	00000194 __call_exitprocs
0000324c g     F .text	00000074 __srget_r
00027968 g     F .text	000000b0 tse_sgdmaRx_isr
00056668 g     O .bss	00000001 OSCPUUsage
00060188 g     O .bss	00000010 nets
0002d664 g     F .text	000000c8 LOCK_NET_RESOURCE
00056610 g     O .bss	00000004 __mlocale_changed
00027bc4 g     F .text	00000244 tse_mac_rcv
00030288 g     F .text	00000080 t_socket
000541f4 g     O .rwdata	00000004 __malloc_sbrk_base
00000240 g     F .text	0000004c _start
0003e12c g     F .text	00000048 etainit
00056744 g     O .bss	00000004 _alt_tick_rate
0003db14 g     F .text	00000024 mcastlist
00018278 g     F .text	000002fc OSQPend
00060244 g     O .bss	000000f0 pktlog
00046238 g     F .text	00000144 igmpv2_process_report
0003529c g     F .text	00000078 ifd_isset
00044fa4 g     F .text	0000012c del_route
0001fa24 g     F .text	00000054 alt_avalon_sgdma_open
00005b10 g     F .text	00000008 _user_strerror
0001b1c8 g     F .text	00000148 OSTimeDly
000031e8 g     F .text	00000064 rand
00001320 g     F .text	00000054 get_mac_addr
00031a64 g     F .text	000000d0 solisten
0000bb14 g     F .text	00000148 __lshift
00056748 g     O .bss	00000004 _alt_nticks
000222d8 g     F .text	000000cc alt_tse_phy_rd_mdio_reg
000280b8 g     F .text	00000070 read
0001b790 g     F .text	000002b0 alt_sys_init
00039ae4 g     F .text	00000048 tcp_quench
0000cd34 g     F .text	000001c8 __ssprint_r
0002b4d0 g     F .text	00000170 ns_printf
0003f5a8 g     F .text	000000d4 isbcast
0002d7b4 g     F .text	00000224 TK_NEWTASK
0004c014 g     F .text	00000114 __register_exitproc
00056669 g     O .bss	00000001 OSTaskCtr
000418b4 g     F .text	000000d0 ip_reasm_determine_type_of_frag
00056698 g     O .bss	00000001 phy_profile_count
0004bc28 g     F .text	000000c0 strncmp
0002136c g     F .text	00000074 alt_tse_get_mac_group_index
0001c308 g     F .text	00000040 alt_read_query_entry_16bit
0001b310 g     F .text	0000015c OSTimeDlyHMSM
00044620 g     F .text	000000b8 ip_raw_close
0000b7d8 g     F .text	000001fc __multiply
0005409c g     O .rwdata	000000b0 mdlist
0001dd84 g     F .text	00000068 altera_avalon_jtag_uart_close
000294b0 g     F .text	000000e0 igmp_input
000406c8 g     F .text	000000c4 ip_raw_write
00052074 g       *ABS*	00000000 __ram_rwdata_start
000494b8 g     F .text	000003b0 vfwrite_locked
0004c314 g       *ABS*	00000000 __ram_rodata_start
000567dc g     O .bss	00000028 __malloc_current_mallinfo
00054222 g     O .rwdata	00000002 OSEventMax
0002c0e8 g     F .text	00000068 inet_setport
0001c624 g     F .text	000001bc alt_set_flash_width_func
0000bfd0 g     F .text	0000013c __d2b
000195b8 g     F .text	00000110 OSSemPost
00037ad4 g     F .text	00000174 tcp_dooptions
00056608 g     O .bss	00000004 SSSLEDEventFlag
000338f4 g     F .text	00000100 soisconnected
00014568 g     F .text	000000d8 OSSchedUnlock
000444f0 g     F .text	00000028 netexit
0000151c g     F .text	000001d4 get_serial_number
000566c8 g     O .bss	00000004 nettick_wakes
00022158 g     F .text	00000058 alt_tse_phy_wr_mdio_addr
00056728 g     O .bss	00000001 tcpprintfs
0003df44 g     F .text	0000009c in_timerkill
00046114 g     F .text	00000124 igmpv2_input
0001d720 g     F .text	00000060 altera_avalon_jtag_uart_read_fd
0002af20 g     F .text	0000002c do_trap
0004a4f0 g     F .text	000000fc alt_get_fd
0002a960 g     F .text	000000f0 bsd_ioctl
0005666c g     O .bss	00000004 OSMemFreeList
000146ac g     F .text	000000ac OSStatInit
0002ec58 g     F .text	000001d0 tcp_rcv
0002b2bc g     F .text	00000044 panic
000567cc g     O .bss	00000004 vfs_open_files
0004a114 g     F .text	00000158 alt_busy_sleep
00028e14 g     F .text	0000018c ip2mac
00016f1c g     F .text	000000c4 OSFlagQuery
00034e18 g     F .text	000001e4 sock_select
000392d0 g     F .text	00000058 tcp_init
00056704 g     O .bss	00000004 cticks
000566d1 g     O .bss	00000001 to_nettick
00054258 g     O .rwdata	00000002 OSTaskCreateExtEn
0000f454 g     F .text	00000054 _close_r
00028190 g     F .text	000005f8 Netinit
0002dda0 g     F .text	00000038 prep_armintcp
000441b0 g     F .text	0000014c in_addmulti
00039328 g     F .text	00000108 tcp_template
000245e8 g     F .text	00000320 alt_tse_phy_get_common_speed
0002ea6c g     F .text	0000006c remque
0003cf50 g     F .text	00000210 alt_erase_block_amd
0004bf8c g     F .text	00000014 _vprintf_r
00035378 g     F .text	00000404 tcp_reass
00047b54 g     F .text	000001a0 tcp_cksum
0003b438 g     F .text	00000374 udp4_socksend
00048d84 g     F .text	000001b0 vfclose_locked
00035228 g     F .text	00000074 ifd_set
0004bb1c g     F .text	0000007c memcmp
00014994 g     F .text	0000001c OS_Dummy
0001d7e0 g     F .text	00000050 altera_avalon_jtag_uart_close_fd
000566a8 g     O .bss	00000004 NDEBUG
00060990 g       *ABS*	00000000 __alt_stack_base
000565f8 g     O .bss	00000004 last_flash_sector
0001d830 g     F .text	00000054 altera_avalon_jtag_uart_ioctl_fd
00034174 g     F .text	00000050 sbreserve
00056699 g     O .bss	00000001 mac_group_count
000446d8 g     F .text	0000021c ip_raw_input
000028c4 g     F .text	000000cc _fwrite_r
000542bc g     O .rwdata	00000004 lilbufsiz
00035314 g     F .text	00000064 ifd_get
00034058 g     F .text	00000094 sbwakeup
00007ca8 g     F .text	00000130 __swsetup_r
0001cec4 g     F .text	00000784 alt_read_cfi_width
00026890 g     F .text	00000140 altera_eth_tse_init
0005e190 g     O .bss	000001e0 OSQTbl
00037d6c g     F .text	00000254 tcp_xmit_timer
00027a18 g     F .text	000001ac tse_sgdma_read_init
00011138 g     F .text	000008cc .hidden __divdf3
00009b78 g     F .text	00000118 __sfp
000018b4 g     F .text	00000138 generate_mac_addr
0003f884 g     F .text	00000184 ip_bldhead
0000c224 g     F .text	00000078 __copybits
0003420c g     F .text	0000009c sbappend
00052648 g     O .rwdata	00000408 __malloc_av_
00009cc4 g     F .text	00000004 __sinit_lock_release
00056670 g     O .bss	00000004 OSTCBHighRdy
00011c48 g     F .text	00000724 .hidden __muldf3
0004034c g     F .text	0000037c ip_write2
0000cb54 g     F .text	00000054 __sread
00054318 g     O .rwdata	00000004 arp_ageout
00056674 g     O .bss	00000004 OSQFreeList
00022eec g     F .text	0000041c alt_tse_mac_get_phy
0003f79c g     F .text	000000e8 ip_init
0004a3dc g     F .text	00000114 alt_find_file
000449b4 g     F .text	00000040 ip_raw_free
0003e9b8 g     F .text	00000104 make_arp_entry
0003bc68 g     F .text	000000a4 alt_dev_llist_insert
000138c0 g     F .text	00000120 __malloc_lock
00002878 g     F .text	00000028 _fprintf_r
000136f4 g     F .text	000000b0 sbrk
0003ad20 g     F .text	00000064 udp_lookup
00003b80 g     F .text	00001f90 ___svfprintf_internal_r
0001f914 g     F .text	00000054 alt_avalon_sgdma_start
00013bd0 g     F .text	0000013c OSEventNameSet
00009700 g     F .text	00000228 _fflush_r
00021618 g     F .text	0000008c alt_tse_mac_set_duplex
0000f4a8 g     F .text	000000c4 _calloc_r
0002dee4 g     F .text	000000e0 npfree_base
00056678 g     O .bss	00000001 OSRdyGrp
000477fc g     F .text	00000028 md_fopen
00053e64 g     O .rwdata	00000018 udp_protosw
00054200 g     O .rwdata	00000008 alt_flash_dev_list
0001c494 g     F .text	0000004c alt_write_flash_command_16bit_device_16bit_mode
000484f4 g     F .text	00000080 in_setsockaddr
000565ec g       *ABS*	00000000 __bss_start
00001094 g     F .text	000000a0 LED7SegLightshowTask
000342a8 g     F .text	000000d4 sbappendrecord
000608b0 g     O .bss	00000050 ip_mib
00002d6c g     F .text	00000124 memset
000320b0 g     F .text	00000098 sodisconnect
00000ef8 g     F .text	00000080 main
00056634 g     O .bss	00000004 alt_envp
00056618 g     O .bss	00000004 __malloc_max_total_mem
00001e24 g     F .text	00000070 sss_reset_connection
0002e7b8 g     F .text	000001c4 m_adj
0001d780 g     F .text	00000060 altera_avalon_jtag_uart_write_fd
00007c8c g     F .text	0000001c __swbuf
000031d0 g     F .text	00000018 srand
00047a68 g     F .text	000000c8 md_fgetc
0004e084 g     O .rodata	00000100 OSUnMapTbl
00041210 g     F .text	0000028c ip_dump
0002c660 g     F .text	0000021c tk_stats
000542a0 g     O .rwdata	00000008 alt_iniche_dev_list
0005a878 g     O .bss	00000078 SSSLEDCommandQTbl
0001f1bc g     F .text	00000164 altera_avalon_lcd_16207_init
00054294 g     O .rwdata	00000008 alt_sgdma_list
00054252 g     O .rwdata	00000002 OSSemEn
000566ec g     O .bss	00000004 OS_TPS
0002fb00 g     F .text	0000073c rawip_usrreq
00016b94 g     F .text	00000388 OSFlagPost
0000cc88 g     F .text	00000008 __sclose
0002bfc8 g     F .text	0000005c print46_addr
08000000 g       *ABS*	00000000 __alt_heap_limit
0000f66c g     F .text	00000014 fclose
00014b48 g     F .text	0000010c OS_EventTaskWait
0004bce8 g     F .text	00000260 _strtol_r
0002b17c g     F .text	00000140 print_uptime
000156f4 g     F .text	000000c8 OS_TaskStatStkChk
0001a59c g     F .text	00000158 OSTaskDelReq
00007fd8 g     F .text	00001728 _dtoa_r
0000ab0c g     F .text	000007a8 _malloc_r
00047b30 g     F .text	00000024 md_unlink
00020404 g     F .text	00000088 tse_mac_SwReset
0000fb34 g     F .text	00000030 __ascii_wctomb
00048064 g     F .text	00000054 in_pcbdetach
000542fc g     O .rwdata	00000004 alt_errno
00054328 g     O .rwdata	00000004 mdlist_size
00014640 g     F .text	0000006c OSStart
0001c530 g     F .text	00000050 alt_write_flash_command_32bit_device_32bit_mode
00047094 g     F .text	00000030 u_mctest_init
00013864 g     F .text	0000005c __env_unlock
0000a704 g     F .text	000000b8 _fwalk
0001aa5c g     F .text	000001f8 OSTaskResume
00017a04 g     F .text	000000e8 OSMemQuery
0002c150 g     F .text	00000134 convert_ip
0003e844 g     F .text	00000174 find_oldest_arp
00054264 g     O .rwdata	00000002 OSTaskStatEn
0005676c g     O .bss	00000004 arpReqsIn
000489b0 g     F .text	0000004c vf_free_buffer
0001bea0 g     F .text	00000158 alt_write_value_to_flash
0004a2bc g     F .text	00000120 alt_fcntl
0005423e g     O .rwdata	00000002 OSMemMax
00018848 g     F .text	00000170 OSQPostFront
0001c5b8 g     F .text	00000038 alt_write_native_16bit
0002d3d8 g     F .text	00000030 dtrap
000542c8 g     O .rwdata	00000004 kb_last
0000301c g     F .text	000000c8 putc
000107dc g     F .text	00000054 .hidden __divsi3
000212b8 g     F .text	00000048 alt_tse_mac_set_common_speed
00056679 g     O .bss	00000003 OSRdyTbl
00054218 g     O .rwdata	00000002 OSDebugEn
0a000000 g       *ABS*	00000000 __alt_mem_cfi_flash
00026594 g     F .text	000000f0 alt_ro_zipfs_read
0002ddd8 g     F .text	0000010c npalloc_base
000292b4 g     F .text	000000cc ip_exit
00009e4c g     F .text	00000124 _malloc_trim_r
0004c314 g       *ABS*	00000000 __CTOR_END__
00026838 g     F .text	00000058 alt_ro_zipfs_check_valid
00054230 g     O .rwdata	00000002 OSFlagNodeSize
0002d560 g     F .text	00000068 cticks_hook
00054278 g     O .rwdata	00000002 OSTmrCfgMax
0003da88 g     F .text	00000040 sysuptime
0000cc90 g     F .text	000000a4 strcmp
000016f0 g     F .text	000001c4 generate_and_store_mac_addr
00042d9c g     F .text	000001b0 ip_reasm_delete_ire
00017cfc g     F .text	000001fc OSQCreate
0002d5c8 g     F .text	0000005c irq_Mask
0001a6f4 g     F .text	000001a8 OSTaskNameGet
00056754 g     O .bss	00000004 nextppp
000566dc g     O .bss	00000004 irq_level
00028788 g     F .text	00000154 fixup_subnet_mask
0004c314 g       *ABS*	00000000 __flash_rodata_start
000189b8 g     F .text	0000020c OSQPostOpt
00014758 g     F .text	0000021c OSTimeTick
000416c0 g     F .text	00000130 ip_copypkt
00054260 g     O .rwdata	00000002 OSTaskMax
0004c314 g       *ABS*	00000000 __DTOR_LIST__
00018e7c g     F .text	00000100 OSSemCreate
000566bc g     O .bss	00000004 igmp_all_hosts_group
00054284 g     O .rwdata	00000002 OSTmrWheelSize
00033fb8 g     F .text	00000038 sbselqueue
000566c4 g     O .bss	00000004 netmain_wakes
0003ed7c g     F .text	0000026c arprcv
0002c2b0 g     F .text	00000070 TK_OSTaskResume
00029fa0 g     F .text	0000041c igmp_print_stats
00011a04 g     F .text	00000084 .hidden __nedf2
0002e0a4 g     F .text	00000090 pffindtype
000267c0 g     F .text	00000078 alt_ro_zipfs_fstat
0005425a g     O .rwdata	00000002 OSTaskDelEn
000542e0 g     O .rwdata	00000004 tcp_sendspace
00049a14 g     F .text	00000110 vftell
000601fc g     O .bss	00000012 eth_prt_buf
000196c8 g     F .text	00000110 OSSemQuery
00017ef8 g     F .text	000002c8 OSQDel
00018574 g     F .text	0000016c OSQPendAbort
0001b75c g     F .text	00000034 alt_irq_init
00021278 g     F .text	00000040 alt_tse_mac_get_common_speed
00060574 g     O .bss	00000018 app_semaphore
0003c49c g     F .text	00000060 alt_release_fd
0002da94 g     F .text	00000078 post_app_sem
00029404 g     F .text	000000ac igmp_init
0004b924 g     F .text	0000001c memalign
0000332c g     F .text	0000006c sprintf
0004df74 g     O .rodata	00000100 .hidden __clz_tab
000479a0 g     F .text	00000078 md_fwrite
0005660c g     O .bss	00000004 _PathLocale
000566f0 g     O .bss	00000004 tcp_sleep_count
0002ead8 g     F .text	00000078 insque
0004b8c0 g     F .text	00000014 atexit
000567c0 g     O .bss	00000004 vfsfiles
0000f3f8 g     F .text	0000005c _write_r
0004bfa0 g     F .text	00000050 _vsprintf_r
000458cc g     F .text	000002a0 udp_send
000144e0 g     F .text	00000088 OSSchedLock
00029714 g     F .text	000002a4 igmp_send
0000a92c g     F .text	0000001c setlocale
00015f24 g     F .text	00000128 OSFlagCreate
0005a8f0 g     O .bss	00002000 LEDManagementTaskStk
0002d624 g     F .text	00000040 irq_Unmask
00030468 g     F .text	000000d4 t_listen
000541ec g     O .rwdata	00000004 _impure_ptr
00052074 g     O .rwdata	00000018 ssstask
0005662c g     O .bss	00000004 alt_argc
0003a364 g     F .text	000006c8 tcp_usrreq
0003af24 g     F .text	0000023c udp_usrreq
0002e034 g     F .text	00000034 ncpalloc
0003bd68 g     F .text	0000005c _do_dtors
0000a918 g     F .text	00000008 __locale_cjk_lang
0005422a g     O .rwdata	00000002 OSEventMultiEn
00054310 g     O .rwdata	00000004 pingdelay
0003e380 g     F .text	00000070 arp_send_pending
0005fc14 g     O .bss	000000e0 tse_mac_if
00045e4c g     F .text	000002c8 igmpv1_input
0000c8e4 g     F .text	000001a8 __srefill_r
0002dd0c g     F .text	00000074 pre_task_setup
00056710 g     O .bss	00000004 rcvdq_sem_ptr
0002a5fc g     F .text	00000120 bsd_getsockname
00042f4c g     F .text	00000130 ip_reasm_mark_compact_rfq
00001b8c g     F .text	0000012c FindLastFlashSectorOffset
0001604c g     F .text	00000270 OSFlagDel
0005667c g     O .bss	00000004 OSEventFreeList
00000020 g       .exceptions	00000000 alt_irq_entry
00056764 g     O .bss	00000004 arpcache
0004b238 g     F .text	00000308 icmp_destun
00044404 g     F .text	00000064 lookup_mcast
00049d88 g     F .text	00000048 vfslookup
00043dbc g     F .text	000003f4 ip_demux
0000be54 g     F .text	00000060 __ulp
000566f4 g     O .bss	00000004 tcp_wakeup_count
0001653c g     F .text	000005f0 OSFlagPend
00054276 g     O .rwdata	00000002 OSTmrEn
00009ce0 g     F .text	00000018 __fp_unlock_all
0002d9d8 g     F .text	000000bc wait_app_sem
0001f320 g     F .text	00000060 altera_avalon_lcd_16207_write_fd
00009d3c g     F .text	00000058 fputc
000542a8 g     O .rwdata	00000004 ipmcfail_str
00056708 g     O .bss	00000004 memtrapsize
0002e4c8 g     F .text	000002f0 m_copy
000542e8 g     O .rwdata	00000008 alt_fs_list
000605f0 g     O .bss	00000014 mfreeq
00015504 g     F .text	00000074 OS_StrCopy
00031a08 g     F .text	0000005c sobind
00047784 g     F .text	00000078 init_memdev
000565f0 g     O .bss	00000001 to_ssstask
0001c444 g     F .text	00000050 alt_write_flash_command_32bit_device_8bit_mode
0002eb50 g     F .text	00000108 nptcp_init
00054240 g     O .rwdata	00000002 OSMemNameSize
00060444 g     O .bss	000000f0 global_TCPwakeup_set
0003ce90 g     F .text	0000001c OSInitHookEnd
00033a88 g     F .text	000000c0 soisdisconnected
00000020 g       *ABS*	00000000 __ram_exceptions_start
0003e2fc g     F .text	00000084 arp_free_pending
0005426c g     O .rwdata	00000002 OSTCBPrioTblMax
0000a948 g     F .text	0000000c localeconv
00031c50 g     F .text	000002c0 soclose
00060334 g     O .bss	00000014 bigfreeq
08200000 g       *ABS*	00000000 __alt_mem_onchip_memory2
00054268 g     O .rwdata	00000002 OSTaskStatStkChkEn
0005430c g     O .rwdata	00000004 prompt
000542d8 g     O .rwdata	00000004 tcp_keepidle
00024440 g     F .text	000001a8 alt_tse_phy_set_adv_10
0002f938 g     F .text	000001c8 rawip_soinput
00013054 g     F .text	00000050 alt_ic_isr_register
00049868 g     F .text	00000060 vfwrite
0005423c g     O .rwdata	00000002 OSMemEn
00033d5c g     F .text	000000a8 soqinsque
00056798 g     O .bss	00000004 so_evtmap_delete
00002990 g     F .text	00000040 fwrite
00054246 g     O .rwdata	00000002 OSMutexEn
00056784 g     O .bss	00000004 h_ireq
00054330 g       *ABS*	00000000 _edata
00040bb0 g     F .text	000005bc ip_fragment
00025184 g     F .text	00000060 altera_avalon_uart_read_fd
00027f94 g     F .text	00000124 iniche_devices_init
00060604 g     O .bss	00000028 tcp_saveti
0002b684 g     F .text	000000d8 con_page
00060990 g       *ABS*	00000000 _end
00033398 g     F .text	000004a8 sogetopt
00012e9c g     F .text	00000068 alt_flash_open_dev
00056680 g     O .bss	00000001 OSIntNesting
00023308 g     F .text	00000240 alt_tse_mac_associate_phy
00053e1c g     O .rwdata	00000030 nettasks
0002cf04 g     F .text	00000020 pk_get_max_intrsafe_buf_len
0004149c g     F .text	00000224 iproute
0002f42c g     F .text	000000f0 np_stripoptions
0005679c g     O .bss	00000001 so_evtmap
00000240 g       *ABS*	00000000 __ram_exceptions_end
0001ddec g     F .text	000000ec altera_avalon_jtag_uart_ioctl
00009d94 g     F .text	0000009c _fputs_r
0001b46c g     F .text	000001f0 OSTimeDlyResume
00001d58 g     F .text	000000cc SSSCreateTasks
00044bb8 g     F .text	000003ec add_route
000163ec g     F .text	00000150 OSFlagNameSet
00028d5c g     F .text	000000b8 c_older
00034730 g     F .text	00000080 sbflush
00047824 g     F .text	00000020 md_fclose
0002c634 g     F .text	0000002c tk_yield
000020b0 g     F .text	000000c8 sss_handle_accept
0001ac54 g     F .text	000001c8 OSTaskStkChk
00013144 g     F .text	000000a4 alt_ic_irq_disable
00032148 g     F .text	0000054c sosend
00054242 g     O .rwdata	00000002 OSMemSize
0004116c g     F .text	000000a4 ip_mymach
0001fa78 g     F .text	00000088 alt_avalon_sgdma_construct_descriptor
0000cbb0 g     F .text	0000007c __swrite
000566d8 g     O .bss	00000004 cticks_initialized
00054314 g     O .rwdata	00000004 deflength
000311ac g     F .text	000001f0 t_sendto
000541f8 g     O .rwdata	00000004 __malloc_trim_threshold
00002e90 g     F .text	00000070 _perror_r
0000a90c g     F .text	0000000c __locale_msgcharset
00056684 g     O .bss	00000004 OSTCBCur
00031854 g     F .text	000001b4 socreate
0004b8ec g     F .text	00000038 exit
0006079c g     O .bss	00000100 arp_table
000567d8 g     O .bss	00000004 icmpdu_hook
00054244 g     O .rwdata	00000002 OSMemTblSize
0000a7bc g     F .text	000000b8 _fwalk_reent
0003dfe0 g     F .text	00000024 create_apptasks
000542d4 g     O .rwdata	00000004 tcp_ttl
0000bcbc g     F .text	00000198 __mdiff
00012f04 g     F .text	00000050 alt_flash_close_dev
0002e068 g     F .text	0000003c ncpfree
00010830 g     F .text	0000005c .hidden __modsi3
0004b940 g     F .text	000001b4 _memalign_r
000566a0 g     O .bss	00000004 MaxLnh
000541e4 g     O .rwdata	00000004 __ctype_ptr__
000204e0 g     F .text	00000050 tse_mac_setGMIImode
0002bf44 g     F .text	00000084 inet_ntop
00045de0 g     F .text	0000002c udp_maxalloc
00024e54 g     F .text	000000e4 marvell_cfg_gmii
08000000 g       *ABS*	00000000 __alt_data_end
00000020 g     F .exceptions	00000000 alt_exception
00009cbc g     F .text	00000004 __sfp_lock_release
0001431c g     F .text	00000054 OSInit
00000000 g       *ABS*	00000000 __alt_mem_sdram
00023548 g     F .text	00000128 alt_tse_phy_cfg_pcs
0001b030 g     F .text	0000012c OSTaskQuery
0003d890 g     F .text	00000090 icmp_port_du
00056738 g     O .bss	00000004 tcp_iss
00018d20 g     F .text	000000ac OS_QInit
000542c4 g     O .rwdata	00000004 bigbufsiz
0004b8d4 g     F .text	0000000c atoi
00015578 g     F .text	00000054 OS_StrLen
00039b2c g     F .text	00000078 tcp_putseq
00017814 g     F .text	00000118 OSMemNameSet
0004d4b0 g     O .rodata	00000101 _ctype_
0003437c g     F .text	000001dc sbappendaddr
000567d0 g     O .bss	00000004 vfs_total_rw_space
00046f08 g     F .text	00000108 ip_getmoptions
0005425e g     O .rwdata	00000002 OSTaskProfileEn
00045b6c g     F .text	000000f0 udpswap
00056688 g     O .bss	00000004 OSTime
00056714 g     O .bss	00000004 nextslow
00039c18 g     F .text	00000278 tcp_slowtimo
00025764 g     F .text	00000054 altera_avalon_uart_close
0003983c g     F .text	0000010c tcp_newtcpcb
0003efe8 g     F .text	00000188 send_via_arp
0004291c g     F .text	00000058 ip_reasm_find_ire
0005e370 g     O .bss	00000800 OSTaskIdleStk
0004c2d8 g     F .text	0000003c _exit
00049f9c g     F .text	00000058 isvfile_locked
0002abc8 g     F .text	00000184 bsd_select
0003b8d4 g     F .text	00000140 alt_alarm_start
000162bc g     F .text	00000130 OSFlagNameGet
00045e0c g     F .text	00000040 udp_free
0002cfe0 g     F .text	000000b8 getq
0004a0f0 g     F .text	00000024 prep_vfs
0001b65c g     F .text	00000064 OSTimeGet
00054308 g     O .rwdata	00000004 name
00034964 g     F .text	000000fc sbdropend
0000fbc0 g     F .text	00000060 .hidden __muldi3
0000a954 g     F .text	000001b8 __smakebuf_r
0001c5f0 g     F .text	00000034 alt_write_native_32bit
0003f170 g     F .text	00000110 cb_arpent_tmo
00003ae8 g     F .text	00000098 strlen
00046804 g     F .text	00000144 IPADDR_TO_NETP
0002aa50 g     F .text	00000034 bsd_inet_ntoa
0003ce14 g     F .text	0000001c OSTaskSwHook
0003c1f8 g     F .text	00000158 open
00047cf4 g     F .text	00000214 udp_open
0005eb70 g     O .bss	00000b40 OSEventTbl
00033f10 g     F .text	00000054 socantsendmore
000567d4 g     O .bss	00000004 vfs_total_dyna_files
00011a88 g     F .text	000000e0 .hidden __gedf2
0003c6cc g     F .text	00000040 alt_uncached_free
0005f6b0 g     O .bss	00000510 OSTCBTbl
00056770 g     O .bss	00000004 arpReqsOut
000197d8 g     F .text	000000fc OSSemSet
0005432c g     O .rwdata	00000004 http_root_path
00041e90 g     F .text	00000560 ip_reasm_compute_overlap
0001bdb0 g     F .text	0000008c alt_flash_cfi_get_info
000541fc g     O .rwdata	00000004 __wctomb
0000e060 g     F .text	00000018 __sprint_r
0002035c g     F .text	000000a8 tse_mac_aRxRead
0003bed8 g     F .text	00000030 alt_icache_flush_all
00003398 g     F .text	00000164 strchr
0006020e g     O .bss	00000012 ipreturn
0005678c g     O .bss	00000004 port_prep
00053e9f g     O .rwdata	0000000d tcp_backoff
00033888 g     F .text	0000006c soisconnecting
00000e84 g     F .text	00000074 SSSInitialTask
00009e30 g     F .text	0000001c fputs
00054208 g     O .rwdata	00000004 alt_priority_mask
0004637c g     F .text	000001f8 igmpv2_process_query
00034aec g     F .text	000001ec t_select
00018f7c g     F .text	00000268 OSSemDel
0003b7ac g     F .text	00000128 udp4_sockaddr
0005668c g     O .bss	00000004 OSFlagFreeList
000482c4 g     F .text	000001d8 in_pcbconnect
0005672c g     O .bss	00000004 dropline
00056788 g     O .bss	00000004 ire_cticks
000130a4 g     F .text	000000a0 alt_ic_irq_enable
00054224 g     O .rwdata	00000002 OSEventNameSize
00007b14 g     F .text	00000024 __vfprintf_internal
0002ba44 g     F .text	00000080 tk_netmain
0004849c g     F .text	00000058 in_pcbdisconnect
00056690 g     O .bss	00000001 OSStatRdy
0005fbc0 g     O .bss	00000054 OSTCBPrioTbl
00025808 g     F .text	00000268 altera_avalon_uart_read
0000fb64 g     F .text	0000005c _wctomb_r
000137a4 g     F .text	000000c0 __env_lock
0005426a g     O .rwdata	00000002 OSTaskSwHookEn
00054078 g     O .rwdata	00000024 mdio
00021538 g     F .text	000000e0 alt_tse_mac_set_speed
0001f674 g     F .text	00000080 alt_avalon_sgdma_construct_mem_to_mem_desc_burst
0002a3bc g     F .text	00000120 bsd_accept
000542e4 g     O .rwdata	00000004 tcp_recvspace
0001236c g     F .text	000008d0 .hidden __subdf3
0004c2bc g     F .text	0000001c _vfprintf_r
0003ace0 g     F .text	00000040 tcpinit
000566c0 g     O .bss	00000004 igmp_all_rtrs_group
0002f8d4 g     F .text	00000064 rawip_lookup
0003e08c g     F .text	000000a0 fcntl
0000b6ec g     F .text	000000b0 __lo0bits
00034558 g     F .text	000001d8 sbcompress
00054300 g     O .rwdata	00000008 alt_alarm_list
00039948 g     F .text	000000ac tcp_drop
00054232 g     O .rwdata	00000002 OSFlagWidth
0003bd0c g     F .text	0000005c _do_ctors
000241f8 g     F .text	00000248 alt_tse_phy_set_adv_100
00039eec g     F .text	00000478 tcp_timers
00029380 g     F .text	00000084 if_netnumber
00047010 g     F .text	00000084 ip_freemoptions
00033840 g     F .text	00000048 sohasoutofband
0000fa5c g     F .text	000000d8 wcrtomb
0003577c g     F .text	00002358 tcp_input
0002a4dc g     F .text	00000120 bsd_getpeername
0002aa84 g     F .text	00000144 bsd_recvfrom
00027f4c g     F .text	00000048 close
0003cee8 g     F .text	00000068 alt_program_amd
0005663c g     O .bss	00000004 alt_envsem
00056694 g     O .bss	00000004 OSIdleCtrRun
00014974 g     F .text	00000020 OSVersion
0005427c g     O .rwdata	00000002 OSTmrCfgWheelSize
0001347c g     F .text	00000080 alt_load
0001b15c g     F .text	0000006c OS_TaskStkClr
00048830 g     F .text	00000028 set_vfopen_error
00054256 g     O .rwdata	00000002 OSTaskCreateEn
00021300 g     F .text	0000006c alt_tse_get_system_index
00053e7c g     O .rwdata	00000018 rawip_protosw
00033ff0 g     F .text	00000068 sbwait
00014f50 g     F .text	00000064 OS_EventWaitListInit
0002004c g     F .text	000000a4 alt_avalon_sgdma_init
00056758 g     O .bss	00000004 port_1s_callout
0000f804 g     F .text	00000058 fputwc
0003ceac g     F .text	0000001c OSTaskIdleHook
0004bb08 g     F .text	00000014 free
00009cc0 g     F .text	00000004 __sinit_lock_acquire
0005669c g     O .bss	00000001 number_of_tse_mac
0000b46c g     F .text	00000114 __multadd
0001ae1c g     F .text	00000214 OSTaskSuspend
0000b444 g     F .text	00000028 _Bfree
000201ec g     F .text	0000002c no_printf
00033b48 g     F .text	00000214 sonewconn
0004a678 g     F .text	00000bc0 icmprcv
0002e134 g     F .text	000000bc pffindproto
00025f70 g     F .text	0000012c check_directory_header
000155cc g     F .text	0000005c OS_TaskIdle
00054282 g     O .rwdata	00000002 OSTmrTblSize
00018bc4 g     F .text	0000015c OSQQuery



Disassembly of section .entry:

00000000 <__reset>:
   0:	00840014 	movui	r2,4096
   4:	1001483a 	initi	r2
   8:	10bff804 	addi	r2,r2,-32
   c:	00bffd16 	blt	zero,r2,4 <__alt_mem_cfi_flash+0xf6000004>
  10:	00400034 	movhi	at,0
  14:	08409014 	ori	at,at,576
  18:	0800683a 	jmp	at
  1c:	00000000 	call	0 <__reset>

Disassembly of section .exceptions:

00000020 <alt_exception>:
  20:	deffed04 	addi	sp,sp,-76
  24:	dfc00015 	stw	ra,0(sp)
  28:	d8400215 	stw	at,8(sp)
  2c:	d8800315 	stw	r2,12(sp)
  30:	d8c00415 	stw	r3,16(sp)
  34:	d9000515 	stw	r4,20(sp)
  38:	d9400615 	stw	r5,24(sp)
  3c:	d9800715 	stw	r6,28(sp)
  40:	d9c00815 	stw	r7,32(sp)
  44:	000b307a 	rdctl	r5,estatus
  48:	da000915 	stw	r8,36(sp)
  4c:	da400a15 	stw	r9,40(sp)
  50:	da800b15 	stw	r10,44(sp)
  54:	dac00c15 	stw	r11,48(sp)
  58:	db000d15 	stw	r12,52(sp)
  5c:	db400e15 	stw	r13,56(sp)
  60:	db800f15 	stw	r14,60(sp)
  64:	dbc01015 	stw	r15,64(sp)
  68:	d9401115 	stw	r5,68(sp)
  6c:	ebffff04 	addi	r15,ea,-4
  70:	dbc01215 	stw	r15,72(sp)
  74:	0009313a 	rdctl	r4,ipending
  78:	2880004c 	andi	r2,r5,1
  7c:	10000326 	beq	r2,zero,8c <OSCtxSw_SWITCH_PC+0x4c>
  80:	20000226 	beq	r4,zero,8c <OSCtxSw_SWITCH_PC+0x4c>
  84:	00000fc0 	call	fc <alt_irq_handler>
  88:	00000706 	br	a8 <OSCtxSw_SWITCH_PC+0x68>
  8c:	df401215 	stw	ea,72(sp)
  90:	e8bfff17 	ldw	r2,-4(ea)
  94:	e93fff04 	addi	r4,ea,-4
  98:	00001cc0 	call	1cc <alt_instruction_exception_entry>
  9c:	1000021e 	bne	r2,zero,a8 <OSCtxSw_SWITCH_PC+0x68>
  a0:	ebffff04 	addi	r15,ea,-4
  a4:	dbc01215 	stw	r15,72(sp)
  a8:	d9401117 	ldw	r5,68(sp)
  ac:	df401217 	ldw	ea,72(sp)
  b0:	dfc00017 	ldw	ra,0(sp)
  b4:	2801707a 	wrctl	estatus,r5
  b8:	d8400217 	ldw	at,8(sp)
  bc:	d8800317 	ldw	r2,12(sp)
  c0:	d8c00417 	ldw	r3,16(sp)
  c4:	d9000517 	ldw	r4,20(sp)
  c8:	d9400617 	ldw	r5,24(sp)
  cc:	d9800717 	ldw	r6,28(sp)
  d0:	d9c00817 	ldw	r7,32(sp)
  d4:	da000917 	ldw	r8,36(sp)
  d8:	da400a17 	ldw	r9,40(sp)
  dc:	da800b17 	ldw	r10,44(sp)
  e0:	dac00c17 	ldw	r11,48(sp)
  e4:	db000d17 	ldw	r12,52(sp)
  e8:	db400e17 	ldw	r13,56(sp)
  ec:	db800f17 	ldw	r14,60(sp)
  f0:	dbc01017 	ldw	r15,64(sp)
  f4:	dec01304 	addi	sp,sp,76
  f8:	ef80083a 	eret

000000fc <alt_irq_handler>:
  fc:	defff904 	addi	sp,sp,-28
 100:	dfc00615 	stw	ra,24(sp)
 104:	df000515 	stw	fp,20(sp)
 108:	df000504 	addi	fp,sp,20
 10c:	00143700 	call	14370 <OSIntEnter>
 110:	0005313a 	rdctl	r2,ipending
 114:	e0bffe15 	stw	r2,-8(fp)
 118:	e0bffe17 	ldw	r2,-8(fp)
 11c:	e0bffb15 	stw	r2,-20(fp)
 120:	e03ffd15 	stw	zero,-12(fp)
 124:	00800044 	movi	r2,1
 128:	e0bffc15 	stw	r2,-16(fp)
 12c:	e0fffb17 	ldw	r3,-20(fp)
 130:	e0bffc17 	ldw	r2,-16(fp)
 134:	1884703a 	and	r2,r3,r2
 138:	10001426 	beq	r2,zero,18c <alt_irq_handler+0x90>
 13c:	008001b4 	movhi	r2,6
 140:	10b23c04 	addi	r2,r2,-14096
 144:	e0fffd17 	ldw	r3,-12(fp)
 148:	180690fa 	slli	r3,r3,3
 14c:	10c5883a 	add	r2,r2,r3
 150:	10c00017 	ldw	r3,0(r2)
 154:	008001b4 	movhi	r2,6
 158:	10b23c04 	addi	r2,r2,-14096
 15c:	e13ffd17 	ldw	r4,-12(fp)
 160:	200890fa 	slli	r4,r4,3
 164:	1105883a 	add	r2,r2,r4
 168:	10800104 	addi	r2,r2,4
 16c:	10800017 	ldw	r2,0(r2)
 170:	1009883a 	mov	r4,r2
 174:	183ee83a 	callr	r3
 178:	0001883a 	nop
 17c:	0005313a 	rdctl	r2,ipending
 180:	e0bfff15 	stw	r2,-4(fp)
 184:	e0bfff17 	ldw	r2,-4(fp)
 188:	00000706 	br	1a8 <alt_irq_handler+0xac>
 18c:	e0bffc17 	ldw	r2,-16(fp)
 190:	1085883a 	add	r2,r2,r2
 194:	e0bffc15 	stw	r2,-16(fp)
 198:	e0bffd17 	ldw	r2,-12(fp)
 19c:	10800044 	addi	r2,r2,1
 1a0:	e0bffd15 	stw	r2,-12(fp)
 1a4:	003fe106 	br	12c <__alt_mem_cfi_flash+0xf600012c>
 1a8:	e0bffb15 	stw	r2,-20(fp)
 1ac:	e0bffb17 	ldw	r2,-20(fp)
 1b0:	103fdb1e 	bne	r2,zero,120 <__alt_mem_cfi_flash+0xf6000120>
 1b4:	00143ec0 	call	143ec <OSIntExit>
 1b8:	e037883a 	mov	sp,fp
 1bc:	dfc00117 	ldw	ra,4(sp)
 1c0:	df000017 	ldw	fp,0(sp)
 1c4:	dec00204 	addi	sp,sp,8
 1c8:	f800283a 	ret

000001cc <alt_instruction_exception_entry>:
 1cc:	defffb04 	addi	sp,sp,-20
 1d0:	dfc00415 	stw	ra,16(sp)
 1d4:	df000315 	stw	fp,12(sp)
 1d8:	df000304 	addi	fp,sp,12
 1dc:	e13fff15 	stw	r4,-4(fp)
 1e0:	000531fa 	rdctl	r2,exception
 1e4:	e0bffd15 	stw	r2,-12(fp)
 1e8:	e0bffd17 	ldw	r2,-12(fp)
 1ec:	10801f0c 	andi	r2,r2,124
 1f0:	1004d0ba 	srli	r2,r2,2
 1f4:	e0bffd15 	stw	r2,-12(fp)
 1f8:	0005333a 	rdctl	r2,badaddr
 1fc:	e0bffe15 	stw	r2,-8(fp)
 200:	d0a95717 	ldw	r2,-23204(gp)
 204:	10000726 	beq	r2,zero,224 <alt_instruction_exception_entry+0x58>
 208:	d0a95717 	ldw	r2,-23204(gp)
 20c:	e0fffd17 	ldw	r3,-12(fp)
 210:	1809883a 	mov	r4,r3
 214:	e17fff17 	ldw	r5,-4(fp)
 218:	e1bffe17 	ldw	r6,-8(fp)
 21c:	103ee83a 	callr	r2
 220:	00000206 	br	22c <alt_instruction_exception_entry+0x60>
 224:	003da03a 	break	0
 228:	0005883a 	mov	r2,zero
 22c:	e037883a 	mov	sp,fp
 230:	dfc00117 	ldw	ra,4(sp)
 234:	df000017 	ldw	fp,0(sp)
 238:	dec00204 	addi	sp,sp,8
 23c:	f800283a 	ret

Disassembly of section .text:

00000240 <_start>:
     240:	00820014 	movui	r2,2048
     244:	10000033 	initd	0(r2)
     248:	10bff804 	addi	r2,r2,-32
     24c:	00bffd16 	blt	zero,r2,244 <__alt_mem_cfi_flash+0xf6000244>
     250:	06c20034 	movhi	sp,2048
     254:	dec00014 	ori	sp,sp,0
     258:	06800174 	movhi	gp,5
     25c:	d6b07914 	ori	gp,gp,49636
     260:	00800174 	movhi	r2,5
     264:	10997b14 	ori	r2,r2,26092
     268:	00c001b4 	movhi	r3,6
     26c:	18c26414 	ori	r3,r3,2448
     270:	10c00326 	beq	r2,r3,280 <_start+0x40>
     274:	10000015 	stw	zero,0(r2)
     278:	10800104 	addi	r2,r2,4
     27c:	10fffd36 	bltu	r2,r3,274 <__alt_mem_cfi_flash+0xf6000274>
     280:	001347c0 	call	1347c <alt_load>
     284:	00136200 	call	13620 <alt_main>

00000288 <alt_after_alt_main>:
     288:	003fff06 	br	288 <__alt_mem_cfi_flash+0xf6000288>

0000028c <alt_uCOSIIErrorHandler>:
     28c:	defffb04 	addi	sp,sp,-20
     290:	dfc00415 	stw	ra,16(sp)
     294:	df000315 	stw	fp,12(sp)
     298:	df000304 	addi	fp,sp,12
     29c:	2005883a 	mov	r2,r4
     2a0:	e17fff15 	stw	r5,-4(fp)
     2a4:	e0bffe05 	stb	r2,-8(fp)
     2a8:	e0bffe03 	ldbu	r2,-8(fp)
     2ac:	1000011e 	bne	r2,zero,2b4 <alt_uCOSIIErrorHandler+0x28>
     2b0:	00018206 	br	8bc <alt_uCOSIIErrorHandler+0x630>
     2b4:	00800084 	movi	r2,2
     2b8:	e0bffd15 	stw	r2,-12(fp)
     2bc:	00144e00 	call	144e0 <OSSchedLock>
     2c0:	e0bffe03 	ldbu	r2,-8(fp)
     2c4:	10c00a20 	cmpeqi	r3,r2,40
     2c8:	1800261e 	bne	r3,zero,364 <alt_uCOSIIErrorHandler+0xd8>
     2cc:	10c00a48 	cmpgei	r3,r2,41
     2d0:	1800121e 	bne	r3,zero,31c <alt_uCOSIIErrorHandler+0x90>
     2d4:	10c00120 	cmpeqi	r3,r2,4
     2d8:	18006e1e 	bne	r3,zero,494 <alt_uCOSIIErrorHandler+0x208>
     2dc:	10c00148 	cmpgei	r3,r2,5
     2e0:	1800071e 	bne	r3,zero,300 <alt_uCOSIIErrorHandler+0x74>
     2e4:	10c000a0 	cmpeqi	r3,r2,2
     2e8:	18008e1e 	bne	r3,zero,524 <alt_uCOSIIErrorHandler+0x298>
     2ec:	10c000c8 	cmpgei	r3,r2,3
     2f0:	1800731e 	bne	r3,zero,4c0 <alt_uCOSIIErrorHandler+0x234>
     2f4:	10800060 	cmpeqi	r2,r2,1
     2f8:	1000591e 	bne	r2,zero,460 <alt_uCOSIIErrorHandler+0x1d4>
     2fc:	0000de06 	br	678 <alt_uCOSIIErrorHandler+0x3ec>
     300:	10c00520 	cmpeqi	r3,r2,20
     304:	18004a1e 	bne	r3,zero,430 <alt_uCOSIIErrorHandler+0x1a4>
     308:	10c007a0 	cmpeqi	r3,r2,30
     30c:	1800b21e 	bne	r3,zero,5d8 <alt_uCOSIIErrorHandler+0x34c>
     310:	108002a0 	cmpeqi	r2,r2,10
     314:	1000771e 	bne	r2,zero,4f4 <alt_uCOSIIErrorHandler+0x268>
     318:	0000d706 	br	678 <alt_uCOSIIErrorHandler+0x3ec>
     31c:	10c01020 	cmpeqi	r3,r2,64
     320:	1800a21e 	bne	r3,zero,5ac <alt_uCOSIIErrorHandler+0x320>
     324:	10c01048 	cmpgei	r3,r2,65
     328:	1800071e 	bne	r3,zero,348 <alt_uCOSIIErrorHandler+0xbc>
     32c:	10c00f60 	cmpeqi	r3,r2,61
     330:	1800921e 	bne	r3,zero,57c <alt_uCOSIIErrorHandler+0x2f0>
     334:	10c00fa0 	cmpeqi	r3,r2,62
     338:	1800851e 	bne	r3,zero,550 <alt_uCOSIIErrorHandler+0x2c4>
     33c:	10800aa0 	cmpeqi	r2,r2,42
     340:	1000131e 	bne	r2,zero,390 <alt_uCOSIIErrorHandler+0x104>
     344:	0000cc06 	br	678 <alt_uCOSIIErrorHandler+0x3ec>
     348:	10c01920 	cmpeqi	r3,r2,100
     34c:	1800ae1e 	bne	r3,zero,608 <alt_uCOSIIErrorHandler+0x37c>
     350:	10c03fe0 	cmpeqi	r3,r2,255
     354:	1800b91e 	bne	r3,zero,63c <alt_uCOSIIErrorHandler+0x3b0>
     358:	108010a0 	cmpeqi	r2,r2,66
     35c:	1000201e 	bne	r2,zero,3e0 <alt_uCOSIIErrorHandler+0x154>
     360:	0000c506 	br	678 <alt_uCOSIIErrorHandler+0x3ec>
     364:	00800174 	movhi	r2,5
     368:	10907b04 	addi	r2,r2,16876
     36c:	10800017 	ldw	r2,0(r2)
     370:	10800317 	ldw	r2,12(r2)
     374:	01000174 	movhi	r4,5
     378:	2130c504 	addi	r4,r4,-15596
     37c:	01400044 	movi	r5,1
     380:	01800c44 	movi	r6,49
     384:	100f883a 	mov	r7,r2
     388:	00029900 	call	2990 <fwrite>
     38c:	0000d506 	br	6e4 <alt_uCOSIIErrorHandler+0x458>
     390:	00800174 	movhi	r2,5
     394:	10907b04 	addi	r2,r2,16876
     398:	10800017 	ldw	r2,0(r2)
     39c:	10800317 	ldw	r2,12(r2)
     3a0:	01000174 	movhi	r4,5
     3a4:	2130d204 	addi	r4,r4,-15544
     3a8:	01400044 	movi	r5,1
     3ac:	01800c44 	movi	r6,49
     3b0:	100f883a 	mov	r7,r2
     3b4:	00029900 	call	2990 <fwrite>
     3b8:	00800174 	movhi	r2,5
     3bc:	10907b04 	addi	r2,r2,16876
     3c0:	10800017 	ldw	r2,0(r2)
     3c4:	10800317 	ldw	r2,12(r2)
     3c8:	1009883a 	mov	r4,r2
     3cc:	01400174 	movhi	r5,5
     3d0:	2970df04 	addi	r5,r5,-15492
     3d4:	01800504 	movi	r6,20
     3d8:	00028a00 	call	28a0 <fprintf>
     3dc:	0000c106 	br	6e4 <alt_uCOSIIErrorHandler+0x458>
     3e0:	00800174 	movhi	r2,5
     3e4:	10907b04 	addi	r2,r2,16876
     3e8:	10800017 	ldw	r2,0(r2)
     3ec:	10800317 	ldw	r2,12(r2)
     3f0:	01000174 	movhi	r4,5
     3f4:	2130ec04 	addi	r4,r4,-15440
     3f8:	01400044 	movi	r5,1
     3fc:	01800a04 	movi	r6,40
     400:	100f883a 	mov	r7,r2
     404:	00029900 	call	2990 <fwrite>
     408:	00800174 	movhi	r2,5
     40c:	10907b04 	addi	r2,r2,16876
     410:	10800017 	ldw	r2,0(r2)
     414:	10800317 	ldw	r2,12(r2)
     418:	1009883a 	mov	r4,r2
     41c:	01400174 	movhi	r5,5
     420:	2970f704 	addi	r5,r5,-15396
     424:	01800284 	movi	r6,10
     428:	00028a00 	call	28a0 <fprintf>
     42c:	0000ad06 	br	6e4 <alt_uCOSIIErrorHandler+0x458>
     430:	e03ffd15 	stw	zero,-12(fp)
     434:	00800174 	movhi	r2,5
     438:	10907b04 	addi	r2,r2,16876
     43c:	10800017 	ldw	r2,0(r2)
     440:	10800317 	ldw	r2,12(r2)
     444:	01000174 	movhi	r4,5
     448:	21310004 	addi	r4,r4,-15360
     44c:	01400044 	movi	r5,1
     450:	01800c84 	movi	r6,50
     454:	100f883a 	mov	r7,r2
     458:	00029900 	call	2990 <fwrite>
     45c:	0000a106 	br	6e4 <alt_uCOSIIErrorHandler+0x458>
     460:	00800044 	movi	r2,1
     464:	e0bffd15 	stw	r2,-12(fp)
     468:	00800174 	movhi	r2,5
     46c:	10907b04 	addi	r2,r2,16876
     470:	10800017 	ldw	r2,0(r2)
     474:	10800317 	ldw	r2,12(r2)
     478:	01000174 	movhi	r4,5
     47c:	21310d04 	addi	r4,r4,-15308
     480:	01400044 	movi	r5,1
     484:	01801244 	movi	r6,73
     488:	100f883a 	mov	r7,r2
     48c:	00029900 	call	2990 <fwrite>
     490:	00009406 	br	6e4 <alt_uCOSIIErrorHandler+0x458>
     494:	00800174 	movhi	r2,5
     498:	10907b04 	addi	r2,r2,16876
     49c:	10800017 	ldw	r2,0(r2)
     4a0:	10800317 	ldw	r2,12(r2)
     4a4:	01000174 	movhi	r4,5
     4a8:	21312004 	addi	r4,r4,-15232
     4ac:	01400044 	movi	r5,1
     4b0:	01800c44 	movi	r6,49
     4b4:	100f883a 	mov	r7,r2
     4b8:	00029900 	call	2990 <fwrite>
     4bc:	00008906 	br	6e4 <alt_uCOSIIErrorHandler+0x458>
     4c0:	00800044 	movi	r2,1
     4c4:	e0bffd15 	stw	r2,-12(fp)
     4c8:	00800174 	movhi	r2,5
     4cc:	10907b04 	addi	r2,r2,16876
     4d0:	10800017 	ldw	r2,0(r2)
     4d4:	10800317 	ldw	r2,12(r2)
     4d8:	01000174 	movhi	r4,5
     4dc:	21312d04 	addi	r4,r4,-15180
     4e0:	01400044 	movi	r5,1
     4e4:	01800a44 	movi	r6,41
     4e8:	100f883a 	mov	r7,r2
     4ec:	00029900 	call	2990 <fwrite>
     4f0:	00007c06 	br	6e4 <alt_uCOSIIErrorHandler+0x458>
     4f4:	e03ffd15 	stw	zero,-12(fp)
     4f8:	00800174 	movhi	r2,5
     4fc:	10907b04 	addi	r2,r2,16876
     500:	10800017 	ldw	r2,0(r2)
     504:	10800317 	ldw	r2,12(r2)
     508:	01000174 	movhi	r4,5
     50c:	21313804 	addi	r4,r4,-15136
     510:	01400044 	movi	r5,1
     514:	01800a04 	movi	r6,40
     518:	100f883a 	mov	r7,r2
     51c:	00029900 	call	2990 <fwrite>
     520:	00007006 	br	6e4 <alt_uCOSIIErrorHandler+0x458>
     524:	00800174 	movhi	r2,5
     528:	10907b04 	addi	r2,r2,16876
     52c:	10800017 	ldw	r2,0(r2)
     530:	10800317 	ldw	r2,12(r2)
     534:	01000174 	movhi	r4,5
     538:	21314304 	addi	r4,r4,-15092
     53c:	01400044 	movi	r5,1
     540:	01800b04 	movi	r6,44
     544:	100f883a 	mov	r7,r2
     548:	00029900 	call	2990 <fwrite>
     54c:	00006506 	br	6e4 <alt_uCOSIIErrorHandler+0x458>
     550:	00800174 	movhi	r2,5
     554:	10907b04 	addi	r2,r2,16876
     558:	10800017 	ldw	r2,0(r2)
     55c:	10800317 	ldw	r2,12(r2)
     560:	01000174 	movhi	r4,5
     564:	21314f04 	addi	r4,r4,-15044
     568:	01400044 	movi	r5,1
     56c:	01800884 	movi	r6,34
     570:	100f883a 	mov	r7,r2
     574:	00029900 	call	2990 <fwrite>
     578:	00005a06 	br	6e4 <alt_uCOSIIErrorHandler+0x458>
     57c:	e03ffd15 	stw	zero,-12(fp)
     580:	00800174 	movhi	r2,5
     584:	10907b04 	addi	r2,r2,16876
     588:	10800017 	ldw	r2,0(r2)
     58c:	10800317 	ldw	r2,12(r2)
     590:	01000174 	movhi	r4,5
     594:	21315804 	addi	r4,r4,-15008
     598:	01400044 	movi	r5,1
     59c:	01800bc4 	movi	r6,47
     5a0:	100f883a 	mov	r7,r2
     5a4:	00029900 	call	2990 <fwrite>
     5a8:	00004e06 	br	6e4 <alt_uCOSIIErrorHandler+0x458>
     5ac:	00800174 	movhi	r2,5
     5b0:	10907b04 	addi	r2,r2,16876
     5b4:	10800017 	ldw	r2,0(r2)
     5b8:	10800317 	ldw	r2,12(r2)
     5bc:	01000174 	movhi	r4,5
     5c0:	21316404 	addi	r4,r4,-14960
     5c4:	01400044 	movi	r5,1
     5c8:	018009c4 	movi	r6,39
     5cc:	100f883a 	mov	r7,r2
     5d0:	00029900 	call	2990 <fwrite>
     5d4:	00004306 	br	6e4 <alt_uCOSIIErrorHandler+0x458>
     5d8:	e03ffd15 	stw	zero,-12(fp)
     5dc:	00800174 	movhi	r2,5
     5e0:	10907b04 	addi	r2,r2,16876
     5e4:	10800017 	ldw	r2,0(r2)
     5e8:	10800317 	ldw	r2,12(r2)
     5ec:	01000174 	movhi	r4,5
     5f0:	21316e04 	addi	r4,r4,-14920
     5f4:	01400044 	movi	r5,1
     5f8:	01800a84 	movi	r6,42
     5fc:	100f883a 	mov	r7,r2
     600:	00029900 	call	2990 <fwrite>
     604:	00003706 	br	6e4 <alt_uCOSIIErrorHandler+0x458>
     608:	00800044 	movi	r2,1
     60c:	e0bffd15 	stw	r2,-12(fp)
     610:	00800174 	movhi	r2,5
     614:	10907b04 	addi	r2,r2,16876
     618:	10800017 	ldw	r2,0(r2)
     61c:	10800317 	ldw	r2,12(r2)
     620:	01000174 	movhi	r4,5
     624:	21317904 	addi	r4,r4,-14876
     628:	01400044 	movi	r5,1
     62c:	01800c04 	movi	r6,48
     630:	100f883a 	mov	r7,r2
     634:	00029900 	call	2990 <fwrite>
     638:	00002a06 	br	6e4 <alt_uCOSIIErrorHandler+0x458>
     63c:	00800084 	movi	r2,2
     640:	e0bffd15 	stw	r2,-12(fp)
     644:	01000174 	movhi	r4,5
     648:	21318604 	addi	r4,r4,-14824
     64c:	0002f400 	call	2f40 <printf>
     650:	00800174 	movhi	r2,5
     654:	10907b04 	addi	r2,r2,16876
     658:	10800017 	ldw	r2,0(r2)
     65c:	10800317 	ldw	r2,12(r2)
     660:	1009883a 	mov	r4,r2
     664:	01400174 	movhi	r5,5
     668:	29719604 	addi	r5,r5,-14760
     66c:	e1bfff17 	ldw	r6,-4(fp)
     670:	00028a00 	call	28a0 <fprintf>
     674:	00001b06 	br	6e4 <alt_uCOSIIErrorHandler+0x458>
     678:	01000174 	movhi	r4,5
     67c:	2131a104 	addi	r4,r4,-14716
     680:	00031bc0 	call	31bc <puts>
     684:	00800174 	movhi	r2,5
     688:	10907b04 	addi	r2,r2,16876
     68c:	10800017 	ldw	r2,0(r2)
     690:	10800317 	ldw	r2,12(r2)
     694:	01000174 	movhi	r4,5
     698:	2131af04 	addi	r4,r4,-14660
     69c:	01400044 	movi	r5,1
     6a0:	01800404 	movi	r6,16
     6a4:	100f883a 	mov	r7,r2
     6a8:	00029900 	call	2990 <fwrite>
     6ac:	00800174 	movhi	r2,5
     6b0:	10907b04 	addi	r2,r2,16876
     6b4:	10800017 	ldw	r2,0(r2)
     6b8:	10c00317 	ldw	r3,12(r2)
     6bc:	e0bffe03 	ldbu	r2,-8(fp)
     6c0:	1809883a 	mov	r4,r3
     6c4:	01400174 	movhi	r5,5
     6c8:	2971b404 	addi	r5,r5,-14640
     6cc:	100d883a 	mov	r6,r2
     6d0:	00028a00 	call	28a0 <fprintf>
     6d4:	01000174 	movhi	r4,5
     6d8:	2131b904 	addi	r4,r4,-14620
     6dc:	0002f000 	call	2f00 <perror>
     6e0:	0001883a 	nop
     6e4:	e0bffd17 	ldw	r2,-12(fp)
     6e8:	10c00060 	cmpeqi	r3,r2,1
     6ec:	1800041e 	bne	r3,zero,700 <alt_uCOSIIErrorHandler+0x474>
     6f0:	0080442e 	bgeu	zero,r2,804 <alt_uCOSIIErrorHandler+0x578>
     6f4:	108000a0 	cmpeqi	r2,r2,2
     6f8:	1000201e 	bne	r2,zero,77c <alt_uCOSIIErrorHandler+0x4f0>
     6fc:	00006106 	br	884 <alt_uCOSIIErrorHandler+0x5f8>
     700:	01000174 	movhi	r4,5
     704:	2131c704 	addi	r4,r4,-14564
     708:	0002f400 	call	2f40 <printf>
     70c:	00800174 	movhi	r2,5
     710:	10907b04 	addi	r2,r2,16876
     714:	10800017 	ldw	r2,0(r2)
     718:	10800317 	ldw	r2,12(r2)
     71c:	01000174 	movhi	r4,5
     720:	2131d404 	addi	r4,r4,-14512
     724:	01400044 	movi	r5,1
     728:	01800904 	movi	r6,36
     72c:	100f883a 	mov	r7,r2
     730:	00029900 	call	2990 <fwrite>
     734:	00800174 	movhi	r2,5
     738:	10907b04 	addi	r2,r2,16876
     73c:	10800017 	ldw	r2,0(r2)
     740:	10800317 	ldw	r2,12(r2)
     744:	01000174 	movhi	r4,5
     748:	2131de04 	addi	r4,r4,-14472
     74c:	01400044 	movi	r5,1
     750:	01800a04 	movi	r6,40
     754:	100f883a 	mov	r7,r2
     758:	00029900 	call	2990 <fwrite>
     75c:	00145680 	call	14568 <OSSchedUnlock>
     760:	01003fc4 	movi	r4,255
     764:	001a1bc0 	call	1a1bc <OSTaskDel>
     768:	e0bffe03 	ldbu	r2,-8(fp)
     76c:	1009883a 	mov	r4,r2
     770:	000b883a 	mov	r5,zero
     774:	000028c0 	call	28c <alt_uCOSIIErrorHandler>
     778:	00004f06 	br	8b8 <alt_uCOSIIErrorHandler+0x62c>
     77c:	01000174 	movhi	r4,5
     780:	2131e904 	addi	r4,r4,-14428
     784:	0002f400 	call	2f40 <printf>
     788:	00800174 	movhi	r2,5
     78c:	10907b04 	addi	r2,r2,16876
     790:	10800017 	ldw	r2,0(r2)
     794:	10800317 	ldw	r2,12(r2)
     798:	01000174 	movhi	r4,5
     79c:	2131f704 	addi	r4,r4,-14372
     7a0:	01400044 	movi	r5,1
     7a4:	01800984 	movi	r6,38
     7a8:	100f883a 	mov	r7,r2
     7ac:	00029900 	call	2990 <fwrite>
     7b0:	00800174 	movhi	r2,5
     7b4:	10907b04 	addi	r2,r2,16876
     7b8:	10800017 	ldw	r2,0(r2)
     7bc:	10800317 	ldw	r2,12(r2)
     7c0:	01000174 	movhi	r4,5
     7c4:	21320104 	addi	r4,r4,-14332
     7c8:	01400044 	movi	r5,1
     7cc:	01800bc4 	movi	r6,47
     7d0:	100f883a 	mov	r7,r2
     7d4:	00029900 	call	2990 <fwrite>
     7d8:	00800174 	movhi	r2,5
     7dc:	10907b04 	addi	r2,r2,16876
     7e0:	10800017 	ldw	r2,0(r2)
     7e4:	10800317 	ldw	r2,12(r2)
     7e8:	01000174 	movhi	r4,5
     7ec:	21320d04 	addi	r4,r4,-14284
     7f0:	01400044 	movi	r5,1
     7f4:	01800cc4 	movi	r6,51
     7f8:	100f883a 	mov	r7,r2
     7fc:	00029900 	call	2990 <fwrite>
     800:	003fff06 	br	800 <__alt_mem_cfi_flash+0xf6000800>
     804:	00800174 	movhi	r2,5
     808:	10907b04 	addi	r2,r2,16876
     80c:	10800017 	ldw	r2,0(r2)
     810:	10800317 	ldw	r2,12(r2)
     814:	01000174 	movhi	r4,5
     818:	21321a04 	addi	r4,r4,-14232
     81c:	01400044 	movi	r5,1
     820:	01800904 	movi	r6,36
     824:	100f883a 	mov	r7,r2
     828:	00029900 	call	2990 <fwrite>
     82c:	00800174 	movhi	r2,5
     830:	10907b04 	addi	r2,r2,16876
     834:	10800017 	ldw	r2,0(r2)
     838:	10800317 	ldw	r2,12(r2)
     83c:	01000174 	movhi	r4,5
     840:	21322404 	addi	r4,r4,-14192
     844:	01400044 	movi	r5,1
     848:	01800c84 	movi	r6,50
     84c:	100f883a 	mov	r7,r2
     850:	00029900 	call	2990 <fwrite>
     854:	00800174 	movhi	r2,5
     858:	10907b04 	addi	r2,r2,16876
     85c:	10800017 	ldw	r2,0(r2)
     860:	10800317 	ldw	r2,12(r2)
     864:	01000174 	movhi	r4,5
     868:	21323104 	addi	r4,r4,-14140
     86c:	01400044 	movi	r5,1
     870:	01800f84 	movi	r6,62
     874:	100f883a 	mov	r7,r2
     878:	00029900 	call	2990 <fwrite>
     87c:	00145680 	call	14568 <OSSchedUnlock>
     880:	00000e06 	br	8bc <alt_uCOSIIErrorHandler+0x630>
     884:	01000174 	movhi	r4,5
     888:	21324104 	addi	r4,r4,-14076
     88c:	00031bc0 	call	31bc <puts>
     890:	00800174 	movhi	r2,5
     894:	10907b04 	addi	r2,r2,16876
     898:	10800017 	ldw	r2,0(r2)
     89c:	10800317 	ldw	r2,12(r2)
     8a0:	01000174 	movhi	r4,5
     8a4:	21324f04 	addi	r4,r4,-14020
     8a8:	01400044 	movi	r5,1
     8ac:	01800ac4 	movi	r6,43
     8b0:	100f883a 	mov	r7,r2
     8b4:	00029900 	call	2990 <fwrite>
     8b8:	003fff06 	br	8b8 <__alt_mem_cfi_flash+0xf60008b8>
     8bc:	e037883a 	mov	sp,fp
     8c0:	dfc00117 	ldw	ra,4(sp)
     8c4:	df000017 	ldw	fp,0(sp)
     8c8:	dec00204 	addi	sp,sp,8
     8cc:	f800283a 	ret

000008d0 <alt_NetworkErrorHandler>:
     8d0:	defffb04 	addi	sp,sp,-20
     8d4:	dfc00415 	stw	ra,16(sp)
     8d8:	df000315 	stw	fp,12(sp)
     8dc:	df000304 	addi	fp,sp,12
     8e0:	2005883a 	mov	r2,r4
     8e4:	e17fff15 	stw	r5,-4(fp)
     8e8:	e0bffe05 	stb	r2,-8(fp)
     8ec:	e0bffe03 	ldbu	r2,-8(fp)
     8f0:	1000011e 	bne	r2,zero,8f8 <alt_NetworkErrorHandler+0x28>
     8f4:	0000a006 	br	b78 <alt_NetworkErrorHandler+0x2a8>
     8f8:	00800084 	movi	r2,2
     8fc:	e0bffd15 	stw	r2,-12(fp)
     900:	00144e00 	call	144e0 <OSSchedLock>
     904:	e0bffe03 	ldbu	r2,-8(fp)
     908:	10803fd8 	cmpnei	r2,r2,255
     90c:	1000121e 	bne	r2,zero,958 <alt_NetworkErrorHandler+0x88>
     910:	00800084 	movi	r2,2
     914:	e0bffd15 	stw	r2,-12(fp)
     918:	01000174 	movhi	r4,5
     91c:	21325a04 	addi	r4,r4,-13976
     920:	0002f400 	call	2f40 <printf>
     924:	00800174 	movhi	r2,5
     928:	10907b04 	addi	r2,r2,16876
     92c:	10800017 	ldw	r2,0(r2)
     930:	10800317 	ldw	r2,12(r2)
     934:	1009883a 	mov	r4,r2
     938:	01400174 	movhi	r5,5
     93c:	29726904 	addi	r5,r5,-13916
     940:	e1bfff17 	ldw	r6,-4(fp)
     944:	00028a00 	call	28a0 <fprintf>
     948:	01000174 	movhi	r4,5
     94c:	21326d04 	addi	r4,r4,-13900
     950:	0002f000 	call	2f00 <perror>
     954:	00001206 	br	9a0 <alt_NetworkErrorHandler+0xd0>
     958:	00800044 	movi	r2,1
     95c:	e0bffd15 	stw	r2,-12(fp)
     960:	01000174 	movhi	r4,5
     964:	21327304 	addi	r4,r4,-13876
     968:	00031bc0 	call	31bc <puts>
     96c:	00800174 	movhi	r2,5
     970:	10907b04 	addi	r2,r2,16876
     974:	10800017 	ldw	r2,0(r2)
     978:	10c00317 	ldw	r3,12(r2)
     97c:	e0bffe03 	ldbu	r2,-8(fp)
     980:	1809883a 	mov	r4,r3
     984:	01400174 	movhi	r5,5
     988:	29727904 	addi	r5,r5,-13852
     98c:	100d883a 	mov	r6,r2
     990:	00028a00 	call	28a0 <fprintf>
     994:	01000174 	movhi	r4,5
     998:	21326d04 	addi	r4,r4,-13900
     99c:	0002f000 	call	2f00 <perror>
     9a0:	e0bffd17 	ldw	r2,-12(fp)
     9a4:	10c00060 	cmpeqi	r3,r2,1
     9a8:	1800041e 	bne	r3,zero,9bc <alt_NetworkErrorHandler+0xec>
     9ac:	0080442e 	bgeu	zero,r2,ac0 <alt_NetworkErrorHandler+0x1f0>
     9b0:	108000a0 	cmpeqi	r2,r2,2
     9b4:	1000201e 	bne	r2,zero,a38 <alt_NetworkErrorHandler+0x168>
     9b8:	00006106 	br	b40 <alt_NetworkErrorHandler+0x270>
     9bc:	01000174 	movhi	r4,5
     9c0:	21328004 	addi	r4,r4,-13824
     9c4:	0002f400 	call	2f40 <printf>
     9c8:	00800174 	movhi	r2,5
     9cc:	10907b04 	addi	r2,r2,16876
     9d0:	10800017 	ldw	r2,0(r2)
     9d4:	10800317 	ldw	r2,12(r2)
     9d8:	01000174 	movhi	r4,5
     9dc:	21328c04 	addi	r4,r4,-13776
     9e0:	01400044 	movi	r5,1
     9e4:	018007c4 	movi	r6,31
     9e8:	100f883a 	mov	r7,r2
     9ec:	00029900 	call	2990 <fwrite>
     9f0:	00800174 	movhi	r2,5
     9f4:	10907b04 	addi	r2,r2,16876
     9f8:	10800017 	ldw	r2,0(r2)
     9fc:	10800317 	ldw	r2,12(r2)
     a00:	01000174 	movhi	r4,5
     a04:	21329404 	addi	r4,r4,-13744
     a08:	01400044 	movi	r5,1
     a0c:	018008c4 	movi	r6,35
     a10:	100f883a 	mov	r7,r2
     a14:	00029900 	call	2990 <fwrite>
     a18:	00145680 	call	14568 <OSSchedUnlock>
     a1c:	01003fc4 	movi	r4,255
     a20:	001a1bc0 	call	1a1bc <OSTaskDel>
     a24:	e0bffe03 	ldbu	r2,-8(fp)
     a28:	1009883a 	mov	r4,r2
     a2c:	000b883a 	mov	r5,zero
     a30:	000028c0 	call	28c <alt_uCOSIIErrorHandler>
     a34:	00004f06 	br	b74 <alt_NetworkErrorHandler+0x2a4>
     a38:	01000174 	movhi	r4,5
     a3c:	21329d04 	addi	r4,r4,-13708
     a40:	0002f400 	call	2f40 <printf>
     a44:	00800174 	movhi	r2,5
     a48:	10907b04 	addi	r2,r2,16876
     a4c:	10800017 	ldw	r2,0(r2)
     a50:	10800317 	ldw	r2,12(r2)
     a54:	01000174 	movhi	r4,5
     a58:	2132a904 	addi	r4,r4,-13660
     a5c:	01400044 	movi	r5,1
     a60:	01800884 	movi	r6,34
     a64:	100f883a 	mov	r7,r2
     a68:	00029900 	call	2990 <fwrite>
     a6c:	00800174 	movhi	r2,5
     a70:	10907b04 	addi	r2,r2,16876
     a74:	10800017 	ldw	r2,0(r2)
     a78:	10800317 	ldw	r2,12(r2)
     a7c:	01000174 	movhi	r4,5
     a80:	2132b204 	addi	r4,r4,-13624
     a84:	01400044 	movi	r5,1
     a88:	01800a84 	movi	r6,42
     a8c:	100f883a 	mov	r7,r2
     a90:	00029900 	call	2990 <fwrite>
     a94:	00800174 	movhi	r2,5
     a98:	10907b04 	addi	r2,r2,16876
     a9c:	10800017 	ldw	r2,0(r2)
     aa0:	10800317 	ldw	r2,12(r2)
     aa4:	01000174 	movhi	r4,5
     aa8:	2132bd04 	addi	r4,r4,-13580
     aac:	01400044 	movi	r5,1
     ab0:	01800b84 	movi	r6,46
     ab4:	100f883a 	mov	r7,r2
     ab8:	00029900 	call	2990 <fwrite>
     abc:	003fff06 	br	abc <__alt_mem_cfi_flash+0xf6000abc>
     ac0:	00800174 	movhi	r2,5
     ac4:	10907b04 	addi	r2,r2,16876
     ac8:	10800017 	ldw	r2,0(r2)
     acc:	10800317 	ldw	r2,12(r2)
     ad0:	01000174 	movhi	r4,5
     ad4:	2132c904 	addi	r4,r4,-13532
     ad8:	01400044 	movi	r5,1
     adc:	01800804 	movi	r6,32
     ae0:	100f883a 	mov	r7,r2
     ae4:	00029900 	call	2990 <fwrite>
     ae8:	00800174 	movhi	r2,5
     aec:	10907b04 	addi	r2,r2,16876
     af0:	10800017 	ldw	r2,0(r2)
     af4:	10800317 	ldw	r2,12(r2)
     af8:	01000174 	movhi	r4,5
     afc:	2132d204 	addi	r4,r4,-13496
     b00:	01400044 	movi	r5,1
     b04:	01800d84 	movi	r6,54
     b08:	100f883a 	mov	r7,r2
     b0c:	00029900 	call	2990 <fwrite>
     b10:	00800174 	movhi	r2,5
     b14:	10907b04 	addi	r2,r2,16876
     b18:	10800017 	ldw	r2,0(r2)
     b1c:	10800317 	ldw	r2,12(r2)
     b20:	01000174 	movhi	r4,5
     b24:	2132e004 	addi	r4,r4,-13440
     b28:	01400044 	movi	r5,1
     b2c:	01800e44 	movi	r6,57
     b30:	100f883a 	mov	r7,r2
     b34:	00029900 	call	2990 <fwrite>
     b38:	00145680 	call	14568 <OSSchedUnlock>
     b3c:	00000e06 	br	b78 <alt_NetworkErrorHandler+0x2a8>
     b40:	01000174 	movhi	r4,5
     b44:	2132ef04 	addi	r4,r4,-13380
     b48:	00031bc0 	call	31bc <puts>
     b4c:	00800174 	movhi	r2,5
     b50:	10907b04 	addi	r2,r2,16876
     b54:	10800017 	ldw	r2,0(r2)
     b58:	10800317 	ldw	r2,12(r2)
     b5c:	01000174 	movhi	r4,5
     b60:	2132fc04 	addi	r4,r4,-13328
     b64:	01400044 	movi	r5,1
     b68:	01800984 	movi	r6,38
     b6c:	100f883a 	mov	r7,r2
     b70:	00029900 	call	2990 <fwrite>
     b74:	003fff06 	br	b74 <__alt_mem_cfi_flash+0xf6000b74>
     b78:	e037883a 	mov	sp,fp
     b7c:	dfc00117 	ldw	ra,4(sp)
     b80:	df000017 	ldw	fp,0(sp)
     b84:	dec00204 	addi	sp,sp,8
     b88:	f800283a 	ret

00000b8c <alt_SSSErrorHandler>:
     b8c:	defffb04 	addi	sp,sp,-20
     b90:	dfc00415 	stw	ra,16(sp)
     b94:	df000315 	stw	fp,12(sp)
     b98:	df000304 	addi	fp,sp,12
     b9c:	2005883a 	mov	r2,r4
     ba0:	e17fff15 	stw	r5,-4(fp)
     ba4:	e0bffe05 	stb	r2,-8(fp)
     ba8:	e0bffe03 	ldbu	r2,-8(fp)
     bac:	1000011e 	bne	r2,zero,bb4 <alt_SSSErrorHandler+0x28>
     bb0:	0000af06 	br	e70 <alt_SSSErrorHandler+0x2e4>
     bb4:	e0bffe03 	ldbu	r2,-8(fp)
     bb8:	1000021e 	bne	r2,zero,bc4 <alt_SSSErrorHandler+0x38>
     bbc:	0005883a 	mov	r2,zero
     bc0:	00000106 	br	bc8 <alt_SSSErrorHandler+0x3c>
     bc4:	00800084 	movi	r2,2
     bc8:	e0bffd15 	stw	r2,-12(fp)
     bcc:	00144e00 	call	144e0 <OSSchedLock>
     bd0:	e0bffe03 	ldbu	r2,-8(fp)
     bd4:	10c007a0 	cmpeqi	r3,r2,30
     bd8:	1800111e 	bne	r3,zero,c20 <alt_SSSErrorHandler+0x94>
     bdc:	10803fe0 	cmpeqi	r2,r2,255
     be0:	10001b26 	beq	r2,zero,c50 <alt_SSSErrorHandler+0xc4>
     be4:	00800084 	movi	r2,2
     be8:	e0bffd15 	stw	r2,-12(fp)
     bec:	01000174 	movhi	r4,5
     bf0:	21330604 	addi	r4,r4,-13288
     bf4:	0002f400 	call	2f40 <printf>
     bf8:	00800174 	movhi	r2,5
     bfc:	10907b04 	addi	r2,r2,16876
     c00:	10800017 	ldw	r2,0(r2)
     c04:	10800317 	ldw	r2,12(r2)
     c08:	1009883a 	mov	r4,r2
     c0c:	01400174 	movhi	r5,5
     c10:	29731404 	addi	r5,r5,-13232
     c14:	e1bfff17 	ldw	r6,-4(fp)
     c18:	00028a00 	call	28a0 <fprintf>
     c1c:	00001e06 	br	c98 <alt_SSSErrorHandler+0x10c>
     c20:	e03ffd15 	stw	zero,-12(fp)
     c24:	00800174 	movhi	r2,5
     c28:	10907b04 	addi	r2,r2,16876
     c2c:	10800017 	ldw	r2,0(r2)
     c30:	10800317 	ldw	r2,12(r2)
     c34:	01000174 	movhi	r4,5
     c38:	21331704 	addi	r4,r4,-13220
     c3c:	01400044 	movi	r5,1
     c40:	01800c84 	movi	r6,50
     c44:	100f883a 	mov	r7,r2
     c48:	00029900 	call	2990 <fwrite>
     c4c:	00001206 	br	c98 <alt_SSSErrorHandler+0x10c>
     c50:	00800084 	movi	r2,2
     c54:	e0bffd15 	stw	r2,-12(fp)
     c58:	01000174 	movhi	r4,5
     c5c:	21332404 	addi	r4,r4,-13168
     c60:	00031bc0 	call	31bc <puts>
     c64:	00800174 	movhi	r2,5
     c68:	10907b04 	addi	r2,r2,16876
     c6c:	10800017 	ldw	r2,0(r2)
     c70:	10c00317 	ldw	r3,12(r2)
     c74:	e0bffe03 	ldbu	r2,-8(fp)
     c78:	1809883a 	mov	r4,r3
     c7c:	01400174 	movhi	r5,5
     c80:	29732904 	addi	r5,r5,-13148
     c84:	100d883a 	mov	r6,r2
     c88:	00028a00 	call	28a0 <fprintf>
     c8c:	01000174 	movhi	r4,5
     c90:	21332f04 	addi	r4,r4,-13124
     c94:	0002f000 	call	2f00 <perror>
     c98:	e0bffd17 	ldw	r2,-12(fp)
     c9c:	10c00060 	cmpeqi	r3,r2,1
     ca0:	1800041e 	bne	r3,zero,cb4 <alt_SSSErrorHandler+0x128>
     ca4:	0080442e 	bgeu	zero,r2,db8 <alt_SSSErrorHandler+0x22c>
     ca8:	108000a0 	cmpeqi	r2,r2,2
     cac:	1000201e 	bne	r2,zero,d30 <alt_SSSErrorHandler+0x1a4>
     cb0:	00006106 	br	e38 <alt_SSSErrorHandler+0x2ac>
     cb4:	01000174 	movhi	r4,5
     cb8:	21333404 	addi	r4,r4,-13104
     cbc:	0002f400 	call	2f40 <printf>
     cc0:	00800174 	movhi	r2,5
     cc4:	10907b04 	addi	r2,r2,16876
     cc8:	10800017 	ldw	r2,0(r2)
     ccc:	10800317 	ldw	r2,12(r2)
     cd0:	01000174 	movhi	r4,5
     cd4:	21333f04 	addi	r4,r4,-13060
     cd8:	01400044 	movi	r5,1
     cdc:	018006c4 	movi	r6,27
     ce0:	100f883a 	mov	r7,r2
     ce4:	00029900 	call	2990 <fwrite>
     ce8:	00800174 	movhi	r2,5
     cec:	10907b04 	addi	r2,r2,16876
     cf0:	10800017 	ldw	r2,0(r2)
     cf4:	10800317 	ldw	r2,12(r2)
     cf8:	01000174 	movhi	r4,5
     cfc:	21334604 	addi	r4,r4,-13032
     d00:	01400044 	movi	r5,1
     d04:	018007c4 	movi	r6,31
     d08:	100f883a 	mov	r7,r2
     d0c:	00029900 	call	2990 <fwrite>
     d10:	00145680 	call	14568 <OSSchedUnlock>
     d14:	01003fc4 	movi	r4,255
     d18:	001a1bc0 	call	1a1bc <OSTaskDel>
     d1c:	e0bffe03 	ldbu	r2,-8(fp)
     d20:	1009883a 	mov	r4,r2
     d24:	000b883a 	mov	r5,zero
     d28:	000028c0 	call	28c <alt_uCOSIIErrorHandler>
     d2c:	00004f06 	br	e6c <alt_SSSErrorHandler+0x2e0>
     d30:	01000174 	movhi	r4,5
     d34:	21334e04 	addi	r4,r4,-13000
     d38:	0002f400 	call	2f40 <printf>
     d3c:	00800174 	movhi	r2,5
     d40:	10907b04 	addi	r2,r2,16876
     d44:	10800017 	ldw	r2,0(r2)
     d48:	10800317 	ldw	r2,12(r2)
     d4c:	01000174 	movhi	r4,5
     d50:	21335904 	addi	r4,r4,-12956
     d54:	01400044 	movi	r5,1
     d58:	01800784 	movi	r6,30
     d5c:	100f883a 	mov	r7,r2
     d60:	00029900 	call	2990 <fwrite>
     d64:	00800174 	movhi	r2,5
     d68:	10907b04 	addi	r2,r2,16876
     d6c:	10800017 	ldw	r2,0(r2)
     d70:	10800317 	ldw	r2,12(r2)
     d74:	01000174 	movhi	r4,5
     d78:	21336104 	addi	r4,r4,-12924
     d7c:	01400044 	movi	r5,1
     d80:	01800984 	movi	r6,38
     d84:	100f883a 	mov	r7,r2
     d88:	00029900 	call	2990 <fwrite>
     d8c:	00800174 	movhi	r2,5
     d90:	10907b04 	addi	r2,r2,16876
     d94:	10800017 	ldw	r2,0(r2)
     d98:	10800317 	ldw	r2,12(r2)
     d9c:	01000174 	movhi	r4,5
     da0:	21336b04 	addi	r4,r4,-12884
     da4:	01400044 	movi	r5,1
     da8:	01800a84 	movi	r6,42
     dac:	100f883a 	mov	r7,r2
     db0:	00029900 	call	2990 <fwrite>
     db4:	003fff06 	br	db4 <__alt_mem_cfi_flash+0xf6000db4>
     db8:	00800174 	movhi	r2,5
     dbc:	10907b04 	addi	r2,r2,16876
     dc0:	10800017 	ldw	r2,0(r2)
     dc4:	10800317 	ldw	r2,12(r2)
     dc8:	01000174 	movhi	r4,5
     dcc:	21337604 	addi	r4,r4,-12840
     dd0:	01400044 	movi	r5,1
     dd4:	018006c4 	movi	r6,27
     dd8:	100f883a 	mov	r7,r2
     ddc:	00029900 	call	2990 <fwrite>
     de0:	00800174 	movhi	r2,5
     de4:	10907b04 	addi	r2,r2,16876
     de8:	10800017 	ldw	r2,0(r2)
     dec:	10800317 	ldw	r2,12(r2)
     df0:	01000174 	movhi	r4,5
     df4:	21337d04 	addi	r4,r4,-12812
     df8:	01400044 	movi	r5,1
     dfc:	01800f44 	movi	r6,61
     e00:	100f883a 	mov	r7,r2
     e04:	00029900 	call	2990 <fwrite>
     e08:	00800174 	movhi	r2,5
     e0c:	10907b04 	addi	r2,r2,16876
     e10:	10800017 	ldw	r2,0(r2)
     e14:	10800317 	ldw	r2,12(r2)
     e18:	01000174 	movhi	r4,5
     e1c:	21338d04 	addi	r4,r4,-12748
     e20:	01400044 	movi	r5,1
     e24:	01800b84 	movi	r6,46
     e28:	100f883a 	mov	r7,r2
     e2c:	00029900 	call	2990 <fwrite>
     e30:	00145680 	call	14568 <OSSchedUnlock>
     e34:	00000e06 	br	e70 <alt_SSSErrorHandler+0x2e4>
     e38:	01000174 	movhi	r4,5
     e3c:	21339904 	addi	r4,r4,-12700
     e40:	00031bc0 	call	31bc <puts>
     e44:	00800174 	movhi	r2,5
     e48:	10907b04 	addi	r2,r2,16876
     e4c:	10800017 	ldw	r2,0(r2)
     e50:	10800317 	ldw	r2,12(r2)
     e54:	01000174 	movhi	r4,5
     e58:	2133a504 	addi	r4,r4,-12652
     e5c:	01400044 	movi	r5,1
     e60:	01800844 	movi	r6,33
     e64:	100f883a 	mov	r7,r2
     e68:	00029900 	call	2990 <fwrite>
     e6c:	003fff06 	br	e6c <__alt_mem_cfi_flash+0xf6000e6c>
     e70:	e037883a 	mov	sp,fp
     e74:	dfc00117 	ldw	ra,4(sp)
     e78:	df000017 	ldw	fp,0(sp)
     e7c:	dec00204 	addi	sp,sp,8
     e80:	f800283a 	ret

00000e84 <SSSInitialTask>:
     e84:	defffc04 	addi	sp,sp,-16
     e88:	dfc00315 	stw	ra,12(sp)
     e8c:	df000215 	stw	fp,8(sp)
     e90:	df000204 	addi	fp,sp,8
     e94:	e13fff15 	stw	r4,-4(fp)
     e98:	002db0c0 	call	2db0c <alt_iniche_init>
     e9c:	002b9640 	call	2b964 <netmain>
     ea0:	00000206 	br	eac <SSSInitialTask+0x28>
     ea4:	01000084 	movi	r4,2
     ea8:	001b1c80 	call	1b1c8 <OSTimeDly>
     eac:	00800174 	movhi	r2,5
     eb0:	1099b304 	addi	r2,r2,26316
     eb4:	10800017 	ldw	r2,0(r2)
     eb8:	103ffa26 	beq	r2,zero,ea4 <__alt_mem_cfi_flash+0xf6000ea4>
     ebc:	01000174 	movhi	r4,5
     ec0:	2133b404 	addi	r4,r4,-12592
     ec4:	00031bc0 	call	31bc <puts>
     ec8:	01000174 	movhi	r4,5
     ecc:	21081d04 	addi	r4,r4,8308
     ed0:	002d7b40 	call	2d7b4 <TK_NEWTASK>
     ed4:	0001cb80 	call	1cb8 <SSSCreateOSDataStructs>
     ed8:	01003fc4 	movi	r4,255
     edc:	001a1bc0 	call	1a1bc <OSTaskDel>
     ee0:	e0bffe05 	stb	r2,-8(fp)
     ee4:	e0bffe03 	ldbu	r2,-8(fp)
     ee8:	1009883a 	mov	r4,r2
     eec:	000b883a 	mov	r5,zero
     ef0:	000028c0 	call	28c <alt_uCOSIIErrorHandler>
     ef4:	003fff06 	br	ef4 <__alt_mem_cfi_flash+0xf6000ef4>

00000ef8 <main>:
     ef8:	defff504 	addi	sp,sp,-44
     efc:	dfc00a15 	stw	ra,40(sp)
     f00:	df000915 	stw	fp,36(sp)
     f04:	df000904 	addi	fp,sp,36
     f08:	e13ffd15 	stw	r4,-12(fp)
     f0c:	e17ffe15 	stw	r5,-8(fp)
     f10:	e1bfff15 	stw	r6,-4(fp)
     f14:	0009883a 	mov	r4,zero
     f18:	001b6c00 	call	1b6c0 <OSTimeSet>
     f1c:	00800144 	movi	r2,5
     f20:	d8800015 	stw	r2,0(sp)
     f24:	00800174 	movhi	r2,5
     f28:	109a1e04 	addi	r2,r2,26744
     f2c:	d8800115 	stw	r2,4(sp)
     f30:	00820004 	movi	r2,2048
     f34:	d8800215 	stw	r2,8(sp)
     f38:	d8000315 	stw	zero,12(sp)
     f3c:	d8000415 	stw	zero,16(sp)
     f40:	01000034 	movhi	r4,0
     f44:	2103a104 	addi	r4,r4,3716
     f48:	000b883a 	mov	r5,zero
     f4c:	018001b4 	movhi	r6,6
     f50:	31a21e04 	addi	r6,r6,-30600
     f54:	01c00144 	movi	r7,5
     f58:	0019fd00 	call	19fd0 <OSTaskCreateExt>
     f5c:	e0bffc05 	stb	r2,-16(fp)
     f60:	e0bffc03 	ldbu	r2,-16(fp)
     f64:	1009883a 	mov	r4,r2
     f68:	000b883a 	mov	r5,zero
     f6c:	000028c0 	call	28c <alt_uCOSIIErrorHandler>
     f70:	00146400 	call	14640 <OSStart>
     f74:	003fff06 	br	f74 <__alt_mem_cfi_flash+0xf6000f74>

00000f78 <led_bit_toggle>:
     f78:	defffc04 	addi	sp,sp,-16
     f7c:	dfc00315 	stw	ra,12(sp)
     f80:	df000215 	stw	fp,8(sp)
     f84:	df000204 	addi	fp,sp,8
     f88:	2005883a 	mov	r2,r4
     f8c:	e0bfff0d 	sth	r2,-4(fp)
     f90:	00800174 	movhi	r2,5
     f94:	10998204 	addi	r2,r2,26120
     f98:	10c00017 	ldw	r3,0(r2)
     f9c:	e0bffe84 	addi	r2,fp,-6
     fa0:	1809883a 	mov	r4,r3
     fa4:	100b883a 	mov	r5,r2
     fa8:	0016f1c0 	call	16f1c <OSFlagQuery>
     fac:	e0bffe0d 	sth	r2,-8(fp)
     fb0:	e0bffe83 	ldbu	r2,-6(fp)
     fb4:	10803fcc 	andi	r2,r2,255
     fb8:	1009883a 	mov	r4,r2
     fbc:	000b883a 	mov	r5,zero
     fc0:	000028c0 	call	28c <alt_uCOSIIErrorHandler>
     fc4:	e0ffff0b 	ldhu	r3,-4(fp)
     fc8:	e0bffe0b 	ldhu	r2,-8(fp)
     fcc:	1884703a 	and	r2,r3,r2
     fd0:	10bfffcc 	andi	r2,r2,65535
     fd4:	10001026 	beq	r2,zero,1018 <led_bit_toggle+0xa0>
     fd8:	00800174 	movhi	r2,5
     fdc:	10998204 	addi	r2,r2,26120
     fe0:	11000017 	ldw	r4,0(r2)
     fe4:	e0ffff0b 	ldhu	r3,-4(fp)
     fe8:	e0bffe84 	addi	r2,fp,-6
     fec:	180b883a 	mov	r5,r3
     ff0:	000d883a 	mov	r6,zero
     ff4:	100f883a 	mov	r7,r2
     ff8:	0016b940 	call	16b94 <OSFlagPost>
     ffc:	e0bffe0d 	sth	r2,-8(fp)
    1000:	e0bffe83 	ldbu	r2,-6(fp)
    1004:	10803fcc 	andi	r2,r2,255
    1008:	1009883a 	mov	r4,r2
    100c:	000b883a 	mov	r5,zero
    1010:	000028c0 	call	28c <alt_uCOSIIErrorHandler>
    1014:	00000f06 	br	1054 <led_bit_toggle+0xdc>
    1018:	00800174 	movhi	r2,5
    101c:	10998204 	addi	r2,r2,26120
    1020:	11000017 	ldw	r4,0(r2)
    1024:	e0ffff0b 	ldhu	r3,-4(fp)
    1028:	e0bffe84 	addi	r2,fp,-6
    102c:	180b883a 	mov	r5,r3
    1030:	01800044 	movi	r6,1
    1034:	100f883a 	mov	r7,r2
    1038:	0016b940 	call	16b94 <OSFlagPost>
    103c:	e0bffe0d 	sth	r2,-8(fp)
    1040:	e0bffe83 	ldbu	r2,-6(fp)
    1044:	10803fcc 	andi	r2,r2,255
    1048:	1009883a 	mov	r4,r2
    104c:	000b883a 	mov	r5,zero
    1050:	000028c0 	call	28c <alt_uCOSIIErrorHandler>
    1054:	e0fffe0b 	ldhu	r3,-8(fp)
    1058:	00824034 	movhi	r2,2304
    105c:	10802004 	addi	r2,r2,128
    1060:	10c00035 	stwio	r3,0(r2)
    1064:	e0bffe0b 	ldhu	r2,-8(fp)
    1068:	10803fcc 	andi	r2,r2,255
    106c:	01000174 	movhi	r4,5
    1070:	2133bd04 	addi	r4,r4,-12556
    1074:	100b883a 	mov	r5,r2
    1078:	0002f400 	call	2f40 <printf>
    107c:	0001883a 	nop
    1080:	e037883a 	mov	sp,fp
    1084:	dfc00117 	ldw	ra,4(sp)
    1088:	df000017 	ldw	fp,0(sp)
    108c:	dec00204 	addi	sp,sp,8
    1090:	f800283a 	ret

00001094 <LED7SegLightshowTask>:
    1094:	defffd04 	addi	sp,sp,-12
    1098:	dfc00215 	stw	ra,8(sp)
    109c:	df000115 	stw	fp,4(sp)
    10a0:	df000104 	addi	fp,sp,4
    10a4:	0009883a 	mov	r4,zero
    10a8:	000b883a 	mov	r5,zero
    10ac:	000d883a 	mov	r6,zero
    10b0:	01c00c84 	movi	r7,50
    10b4:	001b3100 	call	1b310 <OSTimeDlyHMSM>
    10b8:	00800174 	movhi	r2,5
    10bc:	10998104 	addi	r2,r2,26116
    10c0:	10c00017 	ldw	r3,0(r2)
    10c4:	e0bfff84 	addi	r2,fp,-2
    10c8:	1809883a 	mov	r4,r3
    10cc:	000b883a 	mov	r5,zero
    10d0:	100d883a 	mov	r6,r2
    10d4:	00191e40 	call	191e4 <OSSemPend>
    10d8:	e0bfff83 	ldbu	r2,-2(fp)
    10dc:	10803fcc 	andi	r2,r2,255
    10e0:	1009883a 	mov	r4,r2
    10e4:	000b883a 	mov	r5,zero
    10e8:	000028c0 	call	28c <alt_uCOSIIErrorHandler>
    10ec:	00031e80 	call	31e8 <rand>
    10f0:	e0bfff0d 	sth	r2,-4(fp)
    10f4:	e0ffff0b 	ldhu	r3,-4(fp)
    10f8:	00824034 	movhi	r2,2304
    10fc:	10801004 	addi	r2,r2,64
    1100:	10c00035 	stwio	r3,0(r2)
    1104:	00800174 	movhi	r2,5
    1108:	10998104 	addi	r2,r2,26116
    110c:	10800017 	ldw	r2,0(r2)
    1110:	1009883a 	mov	r4,r2
    1114:	00195b80 	call	195b8 <OSSemPost>
    1118:	e0bfff85 	stb	r2,-2(fp)
    111c:	e0bfff83 	ldbu	r2,-2(fp)
    1120:	10803fcc 	andi	r2,r2,255
    1124:	1009883a 	mov	r4,r2
    1128:	000b883a 	mov	r5,zero
    112c:	000028c0 	call	28c <alt_uCOSIIErrorHandler>
    1130:	003fdc06 	br	10a4 <__alt_mem_cfi_flash+0xf60010a4>

00001134 <LEDManagementTask>:
    1134:	defffb04 	addi	sp,sp,-20
    1138:	dfc00415 	stw	ra,16(sp)
    113c:	df000315 	stw	fp,12(sp)
    1140:	df000304 	addi	fp,sp,12
    1144:	00800044 	movi	r2,1
    1148:	e0bffd05 	stb	r2,-12(fp)
    114c:	00800174 	movhi	r2,5
    1150:	10998004 	addi	r2,r2,26112
    1154:	10c00017 	ldw	r3,0(r2)
    1158:	e0bfff04 	addi	r2,fp,-4
    115c:	1809883a 	mov	r4,r3
    1160:	000b883a 	mov	r5,zero
    1164:	100d883a 	mov	r6,r2
    1168:	00182780 	call	18278 <OSQPend>
    116c:	e0bffe15 	stw	r2,-8(fp)
    1170:	e0bfff03 	ldbu	r2,-4(fp)
    1174:	10803fcc 	andi	r2,r2,255
    1178:	1009883a 	mov	r4,r2
    117c:	000b883a 	mov	r5,zero
    1180:	000028c0 	call	28c <alt_uCOSIIErrorHandler>
    1184:	e0bffe17 	ldw	r2,-8(fp)
    1188:	10bff404 	addi	r2,r2,-48
    118c:	10c00928 	cmpgeui	r3,r2,36
    1190:	1800611e 	bne	r3,zero,1318 <LEDManagementTask+0x1e4>
    1194:	100690ba 	slli	r3,r2,2
    1198:	00800034 	movhi	r2,0
    119c:	10846b04 	addi	r2,r2,4524
    11a0:	1885883a 	add	r2,r3,r2
    11a4:	10800017 	ldw	r2,0(r2)
    11a8:	1000683a 	jmp	r2
    11ac:	0000123c 	xorhi	zero,zero,72
    11b0:	00001248 	cmpgei	zero,zero,73
    11b4:	00001254 	movui	zero,73
    11b8:	00001260 	cmpeqi	zero,zero,73
    11bc:	0000126c 	andhi	zero,zero,73
    11c0:	00001278 	rdprs	zero,zero,73
    11c4:	00001284 	movi	zero,74
    11c8:	00001290 	cmplti	zero,zero,74
    11cc:	00001318 	cmpnei	zero,zero,76
    11d0:	00001318 	cmpnei	zero,zero,76
    11d4:	00001318 	cmpnei	zero,zero,76
    11d8:	00001318 	cmpnei	zero,zero,76
    11dc:	00001318 	cmpnei	zero,zero,76
    11e0:	00001318 	cmpnei	zero,zero,76
    11e4:	00001318 	cmpnei	zero,zero,76
    11e8:	00001318 	cmpnei	zero,zero,76
    11ec:	00001318 	cmpnei	zero,zero,76
    11f0:	00001318 	cmpnei	zero,zero,76
    11f4:	00001318 	cmpnei	zero,zero,76
    11f8:	00001318 	cmpnei	zero,zero,76
    11fc:	00001318 	cmpnei	zero,zero,76
    1200:	00001318 	cmpnei	zero,zero,76
    1204:	00001318 	cmpnei	zero,zero,76
    1208:	00001318 	cmpnei	zero,zero,76
    120c:	00001318 	cmpnei	zero,zero,76
    1210:	00001318 	cmpnei	zero,zero,76
    1214:	00001318 	cmpnei	zero,zero,76
    1218:	00001318 	cmpnei	zero,zero,76
    121c:	00001318 	cmpnei	zero,zero,76
    1220:	00001318 	cmpnei	zero,zero,76
    1224:	00001318 	cmpnei	zero,zero,76
    1228:	00001318 	cmpnei	zero,zero,76
    122c:	00001318 	cmpnei	zero,zero,76
    1230:	00001318 	cmpnei	zero,zero,76
    1234:	00001318 	cmpnei	zero,zero,76
    1238:	0000129c 	xori	zero,zero,74
    123c:	01000044 	movi	r4,1
    1240:	0000f780 	call	f78 <led_bit_toggle>
    1244:	00003506 	br	131c <LEDManagementTask+0x1e8>
    1248:	01000084 	movi	r4,2
    124c:	0000f780 	call	f78 <led_bit_toggle>
    1250:	00003206 	br	131c <LEDManagementTask+0x1e8>
    1254:	01000104 	movi	r4,4
    1258:	0000f780 	call	f78 <led_bit_toggle>
    125c:	00002f06 	br	131c <LEDManagementTask+0x1e8>
    1260:	01000204 	movi	r4,8
    1264:	0000f780 	call	f78 <led_bit_toggle>
    1268:	00002c06 	br	131c <LEDManagementTask+0x1e8>
    126c:	01000404 	movi	r4,16
    1270:	0000f780 	call	f78 <led_bit_toggle>
    1274:	00002906 	br	131c <LEDManagementTask+0x1e8>
    1278:	01000804 	movi	r4,32
    127c:	0000f780 	call	f78 <led_bit_toggle>
    1280:	00002606 	br	131c <LEDManagementTask+0x1e8>
    1284:	01001004 	movi	r4,64
    1288:	0000f780 	call	f78 <led_bit_toggle>
    128c:	00002306 	br	131c <LEDManagementTask+0x1e8>
    1290:	01002004 	movi	r4,128
    1294:	0000f780 	call	f78 <led_bit_toggle>
    1298:	00002006 	br	131c <LEDManagementTask+0x1e8>
    129c:	e0bffd03 	ldbu	r2,-12(fp)
    12a0:	10000e1e 	bne	r2,zero,12dc <LEDManagementTask+0x1a8>
    12a4:	00800174 	movhi	r2,5
    12a8:	10998104 	addi	r2,r2,26116
    12ac:	10800017 	ldw	r2,0(r2)
    12b0:	1009883a 	mov	r4,r2
    12b4:	00195b80 	call	195b8 <OSSemPost>
    12b8:	e0bfff05 	stb	r2,-4(fp)
    12bc:	e0bfff03 	ldbu	r2,-4(fp)
    12c0:	10803fcc 	andi	r2,r2,255
    12c4:	1009883a 	mov	r4,r2
    12c8:	000b883a 	mov	r5,zero
    12cc:	000028c0 	call	28c <alt_uCOSIIErrorHandler>
    12d0:	00800044 	movi	r2,1
    12d4:	e0bffd05 	stb	r2,-12(fp)
    12d8:	00001006 	br	131c <LEDManagementTask+0x1e8>
    12dc:	00800174 	movhi	r2,5
    12e0:	10998104 	addi	r2,r2,26116
    12e4:	10c00017 	ldw	r3,0(r2)
    12e8:	e0bfff04 	addi	r2,fp,-4
    12ec:	1809883a 	mov	r4,r3
    12f0:	000b883a 	mov	r5,zero
    12f4:	100d883a 	mov	r6,r2
    12f8:	00191e40 	call	191e4 <OSSemPend>
    12fc:	e0bfff03 	ldbu	r2,-4(fp)
    1300:	10803fcc 	andi	r2,r2,255
    1304:	1009883a 	mov	r4,r2
    1308:	000b883a 	mov	r5,zero
    130c:	000028c0 	call	28c <alt_uCOSIIErrorHandler>
    1310:	e03ffd05 	stb	zero,-12(fp)
    1314:	00000106 	br	131c <LEDManagementTask+0x1e8>
    1318:	0001883a 	nop
    131c:	003f8b06 	br	114c <__alt_mem_cfi_flash+0xf600114c>

00001320 <get_mac_addr>:
    1320:	defffb04 	addi	sp,sp,-20
    1324:	dfc00415 	stw	ra,16(sp)
    1328:	df000315 	stw	fp,12(sp)
    132c:	df000304 	addi	fp,sp,12
    1330:	e13ffe15 	stw	r4,-8(fp)
    1334:	e17fff15 	stw	r5,-4(fp)
    1338:	e03ffd15 	stw	zero,-12(fp)
    133c:	e13fff17 	ldw	r4,-4(fp)
    1340:	00019ec0 	call	19ec <get_board_mac_addr>
    1344:	e0bffd15 	stw	r2,-12(fp)
    1348:	e0bffd17 	ldw	r2,-12(fp)
    134c:	10000326 	beq	r2,zero,135c <get_mac_addr+0x3c>
    1350:	e13fff17 	ldw	r4,-4(fp)
    1354:	00018b40 	call	18b4 <generate_mac_addr>
    1358:	e0bffd15 	stw	r2,-12(fp)
    135c:	e0bffd17 	ldw	r2,-12(fp)
    1360:	e037883a 	mov	sp,fp
    1364:	dfc00117 	ldw	ra,4(sp)
    1368:	df000017 	ldw	fp,0(sp)
    136c:	dec00204 	addi	sp,sp,8
    1370:	f800283a 	ret

00001374 <get_ip_addr>:
    1374:	defff904 	addi	sp,sp,-28
    1378:	dfc00615 	stw	ra,24(sp)
    137c:	df000515 	stw	fp,20(sp)
    1380:	df000504 	addi	fp,sp,20
    1384:	e13ffc15 	stw	r4,-16(fp)
    1388:	e17ffd15 	stw	r5,-12(fp)
    138c:	e1bffe15 	stw	r6,-8(fp)
    1390:	e1ffff15 	stw	r7,-4(fp)
    1394:	e0fffd17 	ldw	r3,-12(fp)
    1398:	00aa85b4 	movhi	r2,43542
    139c:	10aa3004 	addi	r2,r2,-22336
    13a0:	18800015 	stw	r2,0(r3)
    13a4:	e0ffff17 	ldw	r3,-4(fp)
    13a8:	008045b4 	movhi	r2,278
    13ac:	10aa3004 	addi	r2,r2,-22336
    13b0:	18800015 	stw	r2,0(r3)
    13b4:	e0fffe17 	ldw	r3,-8(fp)
    13b8:	00804034 	movhi	r2,256
    13bc:	10bfffc4 	addi	r2,r2,-1
    13c0:	18800015 	stw	r2,0(r3)
    13c4:	e0800217 	ldw	r2,8(fp)
    13c8:	10000015 	stw	zero,0(r2)
    13cc:	e0bffd17 	ldw	r2,-12(fp)
    13d0:	10800017 	ldw	r2,0(r2)
    13d4:	1006d63a 	srli	r3,r2,24
    13d8:	e0bffd17 	ldw	r2,-12(fp)
    13dc:	10800017 	ldw	r2,0(r2)
    13e0:	1004d23a 	srli	r2,r2,8
    13e4:	10bfc00c 	andi	r2,r2,65280
    13e8:	1886b03a 	or	r3,r3,r2
    13ec:	e0bffd17 	ldw	r2,-12(fp)
    13f0:	10800017 	ldw	r2,0(r2)
    13f4:	10bfc00c 	andi	r2,r2,65280
    13f8:	1004923a 	slli	r2,r2,8
    13fc:	1886b03a 	or	r3,r3,r2
    1400:	e0bffd17 	ldw	r2,-12(fp)
    1404:	10800017 	ldw	r2,0(r2)
    1408:	1004963a 	slli	r2,r2,24
    140c:	1884b03a 	or	r2,r3,r2
    1410:	100ad63a 	srli	r5,r2,24
    1414:	e0bffd17 	ldw	r2,-12(fp)
    1418:	10800017 	ldw	r2,0(r2)
    141c:	1006d63a 	srli	r3,r2,24
    1420:	e0bffd17 	ldw	r2,-12(fp)
    1424:	10800017 	ldw	r2,0(r2)
    1428:	1004d23a 	srli	r2,r2,8
    142c:	10bfc00c 	andi	r2,r2,65280
    1430:	1886b03a 	or	r3,r3,r2
    1434:	e0bffd17 	ldw	r2,-12(fp)
    1438:	10800017 	ldw	r2,0(r2)
    143c:	10bfc00c 	andi	r2,r2,65280
    1440:	1004923a 	slli	r2,r2,8
    1444:	1886b03a 	or	r3,r3,r2
    1448:	e0bffd17 	ldw	r2,-12(fp)
    144c:	10800017 	ldw	r2,0(r2)
    1450:	1004963a 	slli	r2,r2,24
    1454:	1884b03a 	or	r2,r3,r2
    1458:	1004d43a 	srli	r2,r2,16
    145c:	11803fcc 	andi	r6,r2,255
    1460:	e0bffd17 	ldw	r2,-12(fp)
    1464:	10800017 	ldw	r2,0(r2)
    1468:	1006d63a 	srli	r3,r2,24
    146c:	e0bffd17 	ldw	r2,-12(fp)
    1470:	10800017 	ldw	r2,0(r2)
    1474:	1004d23a 	srli	r2,r2,8
    1478:	10bfc00c 	andi	r2,r2,65280
    147c:	1886b03a 	or	r3,r3,r2
    1480:	e0bffd17 	ldw	r2,-12(fp)
    1484:	10800017 	ldw	r2,0(r2)
    1488:	10bfc00c 	andi	r2,r2,65280
    148c:	1004923a 	slli	r2,r2,8
    1490:	1886b03a 	or	r3,r3,r2
    1494:	e0bffd17 	ldw	r2,-12(fp)
    1498:	10800017 	ldw	r2,0(r2)
    149c:	1004963a 	slli	r2,r2,24
    14a0:	1884b03a 	or	r2,r3,r2
    14a4:	1004d23a 	srli	r2,r2,8
    14a8:	11c03fcc 	andi	r7,r2,255
    14ac:	e0bffd17 	ldw	r2,-12(fp)
    14b0:	10800017 	ldw	r2,0(r2)
    14b4:	1006d63a 	srli	r3,r2,24
    14b8:	e0bffd17 	ldw	r2,-12(fp)
    14bc:	10800017 	ldw	r2,0(r2)
    14c0:	1004d23a 	srli	r2,r2,8
    14c4:	10bfc00c 	andi	r2,r2,65280
    14c8:	1886b03a 	or	r3,r3,r2
    14cc:	e0bffd17 	ldw	r2,-12(fp)
    14d0:	10800017 	ldw	r2,0(r2)
    14d4:	10bfc00c 	andi	r2,r2,65280
    14d8:	1004923a 	slli	r2,r2,8
    14dc:	1886b03a 	or	r3,r3,r2
    14e0:	e0bffd17 	ldw	r2,-12(fp)
    14e4:	10800017 	ldw	r2,0(r2)
    14e8:	1004963a 	slli	r2,r2,24
    14ec:	1884b03a 	or	r2,r3,r2
    14f0:	10803fcc 	andi	r2,r2,255
    14f4:	d8800015 	stw	r2,0(sp)
    14f8:	01000174 	movhi	r4,5
    14fc:	2133c504 	addi	r4,r4,-12524
    1500:	0002f400 	call	2f40 <printf>
    1504:	00800044 	movi	r2,1
    1508:	e037883a 	mov	sp,fp
    150c:	dfc00117 	ldw	ra,4(sp)
    1510:	df000017 	ldw	fp,0(sp)
    1514:	dec00204 	addi	sp,sp,8
    1518:	f800283a 	ret

0000151c <get_serial_number>:
    151c:	defff904 	addi	sp,sp,-28
    1520:	dfc00615 	stw	ra,24(sp)
    1524:	df000515 	stw	fp,20(sp)
    1528:	df000504 	addi	fp,sp,20
    152c:	e03ffb15 	stw	zero,-20(fp)
    1530:	e03ffc15 	stw	zero,-16(fp)
    1534:	00006606 	br	16d0 <get_serial_number+0x1b4>
    1538:	01000174 	movhi	r4,5
    153c:	2133ce04 	addi	r4,r4,-12488
    1540:	00031bc0 	call	31bc <puts>
    1544:	01000174 	movhi	r4,5
    1548:	2133de04 	addi	r4,r4,-12424
    154c:	00031bc0 	call	31bc <puts>
    1550:	01000174 	movhi	r4,5
    1554:	2133ee04 	addi	r4,r4,-12360
    1558:	0002f400 	call	2f40 <printf>
    155c:	e03ffc15 	stw	zero,-16(fp)
    1560:	00002a06 	br	160c <get_serial_number+0xf0>
    1564:	00800174 	movhi	r2,5
    1568:	10907b04 	addi	r2,r2,16876
    156c:	10800017 	ldw	r2,0(r2)
    1570:	10800117 	ldw	r2,4(r2)
    1574:	1009883a 	mov	r4,r2
    1578:	0002a500 	call	2a50 <getc>
    157c:	1009883a 	mov	r4,r2
    1580:	e0fffd04 	addi	r3,fp,-12
    1584:	e0bffc17 	ldw	r2,-16(fp)
    1588:	1885883a 	add	r2,r3,r2
    158c:	11000005 	stb	r4,0(r2)
    1590:	e0fffd04 	addi	r3,fp,-12
    1594:	e0bffc17 	ldw	r2,-16(fp)
    1598:	1885883a 	add	r2,r3,r2
    159c:	10800003 	ldbu	r2,0(r2)
    15a0:	10c03fcc 	andi	r3,r2,255
    15a4:	18c0201c 	xori	r3,r3,128
    15a8:	18ffe004 	addi	r3,r3,-128
    15ac:	00800174 	movhi	r2,5
    15b0:	10907b04 	addi	r2,r2,16876
    15b4:	10800017 	ldw	r2,0(r2)
    15b8:	10800217 	ldw	r2,8(r2)
    15bc:	1809883a 	mov	r4,r3
    15c0:	100b883a 	mov	r5,r2
    15c4:	000301c0 	call	301c <putc>
    15c8:	e0fffd04 	addi	r3,fp,-12
    15cc:	e0bffc17 	ldw	r2,-16(fp)
    15d0:	1885883a 	add	r2,r3,r2
    15d4:	10800003 	ldbu	r2,0(r2)
    15d8:	10803fcc 	andi	r2,r2,255
    15dc:	1080201c 	xori	r2,r2,128
    15e0:	10bfe004 	addi	r2,r2,-128
    15e4:	10800218 	cmpnei	r2,r2,8
    15e8:	1000051e 	bne	r2,zero,1600 <get_serial_number+0xe4>
    15ec:	e0bffc17 	ldw	r2,-16(fp)
    15f0:	10000316 	blt	r2,zero,1600 <get_serial_number+0xe4>
    15f4:	e0bffc17 	ldw	r2,-16(fp)
    15f8:	10bfffc4 	addi	r2,r2,-1
    15fc:	e0bffc15 	stw	r2,-16(fp)
    1600:	e0bffc17 	ldw	r2,-16(fp)
    1604:	10800044 	addi	r2,r2,1
    1608:	e0bffc15 	stw	r2,-16(fp)
    160c:	e0bffc17 	ldw	r2,-16(fp)
    1610:	10800250 	cmplti	r2,r2,9
    1614:	103fd31e 	bne	r2,zero,1564 <__alt_mem_cfi_flash+0xf6001564>
    1618:	01000284 	movi	r4,10
    161c:	00030ec0 	call	30ec <putchar>
    1620:	e03ffc15 	stw	zero,-16(fp)
    1624:	00002706 	br	16c4 <get_serial_number+0x1a8>
    1628:	00800174 	movhi	r2,5
    162c:	10907904 	addi	r2,r2,16868
    1630:	10c00017 	ldw	r3,0(r2)
    1634:	e13ffd04 	addi	r4,fp,-12
    1638:	e0bffc17 	ldw	r2,-16(fp)
    163c:	2085883a 	add	r2,r4,r2
    1640:	10800003 	ldbu	r2,0(r2)
    1644:	10803fcc 	andi	r2,r2,255
    1648:	1080201c 	xori	r2,r2,128
    164c:	10bfe004 	addi	r2,r2,-128
    1650:	10800044 	addi	r2,r2,1
    1654:	1885883a 	add	r2,r3,r2
    1658:	10800003 	ldbu	r2,0(r2)
    165c:	10803fcc 	andi	r2,r2,255
    1660:	1080010c 	andi	r2,r2,4
    1664:	10000f26 	beq	r2,zero,16a4 <get_serial_number+0x188>
    1668:	e0bffb17 	ldw	r2,-20(fp)
    166c:	108002a4 	muli	r2,r2,10
    1670:	e0bffb15 	stw	r2,-20(fp)
    1674:	e0fffd04 	addi	r3,fp,-12
    1678:	e0bffc17 	ldw	r2,-16(fp)
    167c:	1885883a 	add	r2,r3,r2
    1680:	10800003 	ldbu	r2,0(r2)
    1684:	10c03fcc 	andi	r3,r2,255
    1688:	18c0201c 	xori	r3,r3,128
    168c:	18ffe004 	addi	r3,r3,-128
    1690:	e0bffb17 	ldw	r2,-20(fp)
    1694:	1885883a 	add	r2,r3,r2
    1698:	10bff404 	addi	r2,r2,-48
    169c:	e0bffb15 	stw	r2,-20(fp)
    16a0:	00000506 	br	16b8 <get_serial_number+0x19c>
    16a4:	e03ffb15 	stw	zero,-20(fp)
    16a8:	01000174 	movhi	r4,5
    16ac:	2133fc04 	addi	r4,r4,-12304
    16b0:	00031bc0 	call	31bc <puts>
    16b4:	00000606 	br	16d0 <get_serial_number+0x1b4>
    16b8:	e0bffc17 	ldw	r2,-16(fp)
    16bc:	10800044 	addi	r2,r2,1
    16c0:	e0bffc15 	stw	r2,-16(fp)
    16c4:	e0bffc17 	ldw	r2,-16(fp)
    16c8:	10800250 	cmplti	r2,r2,9
    16cc:	103fd61e 	bne	r2,zero,1628 <__alt_mem_cfi_flash+0xf6001628>
    16d0:	e0bffb17 	ldw	r2,-20(fp)
    16d4:	103f9826 	beq	r2,zero,1538 <__alt_mem_cfi_flash+0xf6001538>
    16d8:	e0bffb17 	ldw	r2,-20(fp)
    16dc:	e037883a 	mov	sp,fp
    16e0:	dfc00117 	ldw	ra,4(sp)
    16e4:	df000017 	ldw	fp,0(sp)
    16e8:	dec00204 	addi	sp,sp,8
    16ec:	f800283a 	ret

000016f0 <generate_and_store_mac_addr>:
    16f0:	deffef04 	addi	sp,sp,-68
    16f4:	dfc01015 	stw	ra,64(sp)
    16f8:	df000f15 	stw	fp,60(sp)
    16fc:	df000f04 	addi	fp,sp,60
    1700:	00bfffc4 	movi	r2,-1
    1704:	e0bff115 	stw	r2,-60(fp)
    1708:	e03ff215 	stw	zero,-56(fp)
    170c:	01000174 	movhi	r4,5
    1710:	21340b04 	addi	r4,r4,-12244
    1714:	00031bc0 	call	31bc <puts>
    1718:	01000174 	movhi	r4,5
    171c:	21341b04 	addi	r4,r4,-12180
    1720:	00031bc0 	call	31bc <puts>
    1724:	01000174 	movhi	r4,5
    1728:	21342c04 	addi	r4,r4,-12112
    172c:	00031bc0 	call	31bc <puts>
    1730:	000151c0 	call	151c <get_serial_number>
    1734:	e0bff215 	stw	r2,-56(fp)
    1738:	e0bff217 	ldw	r2,-56(fp)
    173c:	10005726 	beq	r2,zero,189c <generate_and_store_mac_addr+0x1ac>
    1740:	00bfff84 	movi	r2,-2
    1744:	e0bff805 	stb	r2,-32(fp)
    1748:	00801684 	movi	r2,90
    174c:	e0bff845 	stb	r2,-31(fp)
    1750:	e03ff885 	stb	zero,-30(fp)
    1754:	e03ff8c5 	stb	zero,-29(fp)
    1758:	e03ff905 	stb	zero,-28(fp)
    175c:	008001c4 	movi	r2,7
    1760:	e0bff945 	stb	r2,-27(fp)
    1764:	00bffb44 	movi	r2,-19
    1768:	e0bff985 	stb	r2,-26(fp)
    176c:	00bfffc4 	movi	r2,-1
    1770:	e0bff9c5 	stb	r2,-25(fp)
    1774:	e0bff217 	ldw	r2,-56(fp)
    1778:	10bfc00c 	andi	r2,r2,65280
    177c:	1004d23a 	srli	r2,r2,8
    1780:	e0bffa05 	stb	r2,-24(fp)
    1784:	e0bff217 	ldw	r2,-56(fp)
    1788:	e0bffa45 	stb	r2,-23(fp)
    178c:	00bfffc4 	movi	r2,-1
    1790:	e0bffa85 	stb	r2,-22(fp)
    1794:	00bfffc4 	movi	r2,-1
    1798:	e0bffac5 	stb	r2,-21(fp)
    179c:	00bff004 	movi	r2,-64
    17a0:	e0bffb05 	stb	r2,-20(fp)
    17a4:	00bfea04 	movi	r2,-88
    17a8:	e0bffb45 	stb	r2,-19(fp)
    17ac:	00800544 	movi	r2,21
    17b0:	e0bffb85 	stb	r2,-18(fp)
    17b4:	00bfea84 	movi	r2,-86
    17b8:	e0bffbc5 	stb	r2,-17(fp)
    17bc:	00bfffc4 	movi	r2,-1
    17c0:	e0bffc05 	stb	r2,-16(fp)
    17c4:	00bfffc4 	movi	r2,-1
    17c8:	e0bffc45 	stb	r2,-15(fp)
    17cc:	00bfffc4 	movi	r2,-1
    17d0:	e0bffc85 	stb	r2,-14(fp)
    17d4:	00bfffc4 	movi	r2,-1
    17d8:	e0bffcc5 	stb	r2,-13(fp)
    17dc:	00bfffc4 	movi	r2,-1
    17e0:	e0bffd05 	stb	r2,-12(fp)
    17e4:	00bfffc4 	movi	r2,-1
    17e8:	e0bffd45 	stb	r2,-11(fp)
    17ec:	00bfffc4 	movi	r2,-1
    17f0:	e0bffd85 	stb	r2,-10(fp)
    17f4:	e03ffdc5 	stb	zero,-9(fp)
    17f8:	00bff004 	movi	r2,-64
    17fc:	e0bffe05 	stb	r2,-8(fp)
    1800:	00bfea04 	movi	r2,-88
    1804:	e0bffe45 	stb	r2,-7(fp)
    1808:	00800544 	movi	r2,21
    180c:	e0bffe85 	stb	r2,-6(fp)
    1810:	00800044 	movi	r2,1
    1814:	e0bffec5 	stb	r2,-5(fp)
    1818:	00bfffc4 	movi	r2,-1
    181c:	e0bfff05 	stb	r2,-4(fp)
    1820:	00bfffc4 	movi	r2,-1
    1824:	e0bfff45 	stb	r2,-3(fp)
    1828:	00bfffc4 	movi	r2,-1
    182c:	e0bfff85 	stb	r2,-2(fp)
    1830:	00bfffc4 	movi	r2,-1
    1834:	e0bfffc5 	stb	r2,-1(fp)
    1838:	01000174 	movhi	r4,5
    183c:	21343304 	addi	r4,r4,-12084
    1840:	0012e9c0 	call	12e9c <alt_flash_open_dev>
    1844:	e0bff315 	stw	r2,-52(fp)
    1848:	e0bff317 	ldw	r2,-52(fp)
    184c:	10001326 	beq	r2,zero,189c <generate_and_store_mac_addr+0x1ac>
    1850:	d0a90417 	ldw	r2,-23536(gp)
    1854:	1007883a 	mov	r3,r2
    1858:	e0bff317 	ldw	r2,-52(fp)
    185c:	e0bff415 	stw	r2,-48(fp)
    1860:	e0fff515 	stw	r3,-44(fp)
    1864:	e0bff804 	addi	r2,fp,-32
    1868:	e0bff615 	stw	r2,-40(fp)
    186c:	00800804 	movi	r2,32
    1870:	e0bff715 	stw	r2,-36(fp)
    1874:	e0bff417 	ldw	r2,-48(fp)
    1878:	10800517 	ldw	r2,20(r2)
    187c:	e13ff417 	ldw	r4,-48(fp)
    1880:	e17ff517 	ldw	r5,-44(fp)
    1884:	e1bff617 	ldw	r6,-40(fp)
    1888:	e1fff717 	ldw	r7,-36(fp)
    188c:	103ee83a 	callr	r2
    1890:	e13ff317 	ldw	r4,-52(fp)
    1894:	0012f040 	call	12f04 <alt_flash_close_dev>
    1898:	e03ff115 	stw	zero,-60(fp)
    189c:	e0bff117 	ldw	r2,-60(fp)
    18a0:	e037883a 	mov	sp,fp
    18a4:	dfc00117 	ldw	ra,4(sp)
    18a8:	df000017 	ldw	fp,0(sp)
    18ac:	dec00204 	addi	sp,sp,8
    18b0:	f800283a 	ret

000018b4 <generate_mac_addr>:
    18b4:	defff804 	addi	sp,sp,-32
    18b8:	dfc00715 	stw	ra,28(sp)
    18bc:	df000615 	stw	fp,24(sp)
    18c0:	df000604 	addi	fp,sp,24
    18c4:	e13fff15 	stw	r4,-4(fp)
    18c8:	00bfffc4 	movi	r2,-1
    18cc:	e0bffd15 	stw	r2,-12(fp)
    18d0:	e03ffe15 	stw	zero,-8(fp)
    18d4:	01000174 	movhi	r4,5
    18d8:	21343704 	addi	r4,r4,-12068
    18dc:	00031bc0 	call	31bc <puts>
    18e0:	01000174 	movhi	r4,5
    18e4:	21344704 	addi	r4,r4,-12004
    18e8:	00031bc0 	call	31bc <puts>
    18ec:	000151c0 	call	151c <get_serial_number>
    18f0:	e0bffe15 	stw	r2,-8(fp)
    18f4:	e0bffe17 	ldw	r2,-8(fp)
    18f8:	10003626 	beq	r2,zero,19d4 <generate_mac_addr+0x120>
    18fc:	e0bfff17 	ldw	r2,-4(fp)
    1900:	10000005 	stb	zero,0(r2)
    1904:	e0bfff17 	ldw	r2,-4(fp)
    1908:	10800044 	addi	r2,r2,1
    190c:	00c001c4 	movi	r3,7
    1910:	10c00005 	stb	r3,0(r2)
    1914:	e0bfff17 	ldw	r2,-4(fp)
    1918:	10800084 	addi	r2,r2,2
    191c:	00fffb44 	movi	r3,-19
    1920:	10c00005 	stb	r3,0(r2)
    1924:	e0bfff17 	ldw	r2,-4(fp)
    1928:	108000c4 	addi	r2,r2,3
    192c:	00ffffc4 	movi	r3,-1
    1930:	10c00005 	stb	r3,0(r2)
    1934:	e0bfff17 	ldw	r2,-4(fp)
    1938:	10800104 	addi	r2,r2,4
    193c:	e0fffe17 	ldw	r3,-8(fp)
    1940:	18ffc00c 	andi	r3,r3,65280
    1944:	1806d23a 	srli	r3,r3,8
    1948:	10c00005 	stb	r3,0(r2)
    194c:	e0bfff17 	ldw	r2,-4(fp)
    1950:	10800144 	addi	r2,r2,5
    1954:	e0fffe17 	ldw	r3,-8(fp)
    1958:	10c00005 	stb	r3,0(r2)
    195c:	e0bfff17 	ldw	r2,-4(fp)
    1960:	10800003 	ldbu	r2,0(r2)
    1964:	11403fcc 	andi	r5,r2,255
    1968:	e0bfff17 	ldw	r2,-4(fp)
    196c:	10800044 	addi	r2,r2,1
    1970:	10800003 	ldbu	r2,0(r2)
    1974:	11803fcc 	andi	r6,r2,255
    1978:	e0bfff17 	ldw	r2,-4(fp)
    197c:	10800084 	addi	r2,r2,2
    1980:	10800003 	ldbu	r2,0(r2)
    1984:	11c03fcc 	andi	r7,r2,255
    1988:	e0bfff17 	ldw	r2,-4(fp)
    198c:	108000c4 	addi	r2,r2,3
    1990:	10800003 	ldbu	r2,0(r2)
    1994:	11003fcc 	andi	r4,r2,255
    1998:	e0bfff17 	ldw	r2,-4(fp)
    199c:	10800104 	addi	r2,r2,4
    19a0:	10800003 	ldbu	r2,0(r2)
    19a4:	10c03fcc 	andi	r3,r2,255
    19a8:	e0bfff17 	ldw	r2,-4(fp)
    19ac:	10800144 	addi	r2,r2,5
    19b0:	10800003 	ldbu	r2,0(r2)
    19b4:	10803fcc 	andi	r2,r2,255
    19b8:	d9000015 	stw	r4,0(sp)
    19bc:	d8c00115 	stw	r3,4(sp)
    19c0:	d8800215 	stw	r2,8(sp)
    19c4:	01000174 	movhi	r4,5
    19c8:	21344b04 	addi	r4,r4,-11988
    19cc:	0002f400 	call	2f40 <printf>
    19d0:	e03ffd15 	stw	zero,-12(fp)
    19d4:	e0bffd17 	ldw	r2,-12(fp)
    19d8:	e037883a 	mov	sp,fp
    19dc:	dfc00117 	ldw	ra,4(sp)
    19e0:	df000017 	ldw	fp,0(sp)
    19e4:	dec00204 	addi	sp,sp,8
    19e8:	f800283a 	ret

000019ec <get_board_mac_addr>:
    19ec:	defff804 	addi	sp,sp,-32
    19f0:	dfc00715 	stw	ra,28(sp)
    19f4:	df000615 	stw	fp,24(sp)
    19f8:	df000604 	addi	fp,sp,24
    19fc:	e13fff15 	stw	r4,-4(fp)
    1a00:	e03ffd15 	stw	zero,-12(fp)
    1a04:	d1290404 	addi	r4,gp,-23536
    1a08:	0001b8c0 	call	1b8c <FindLastFlashSectorOffset>
    1a0c:	e0bffd15 	stw	r2,-12(fp)
    1a10:	e0bffd17 	ldw	r2,-12(fp)
    1a14:	1000041e 	bne	r2,zero,1a28 <get_board_mac_addr+0x3c>
    1a18:	d0e90417 	ldw	r3,-23536(gp)
    1a1c:	00828034 	movhi	r2,2560
    1a20:	1885883a 	add	r2,r3,r2
    1a24:	d0a90515 	stw	r2,-23532(gp)
    1a28:	e0bffd17 	ldw	r2,-12(fp)
    1a2c:	1000081e 	bne	r2,zero,1a50 <get_board_mac_addr+0x64>
    1a30:	d0a90517 	ldw	r2,-23532(gp)
    1a34:	10800037 	ldwio	r2,0(r2)
    1a38:	e0bffe15 	stw	r2,-8(fp)
    1a3c:	e0bffe17 	ldw	r2,-8(fp)
    1a40:	1096bfa0 	cmpeqi	r2,r2,23294
    1a44:	1000021e 	bne	r2,zero,1a50 <get_board_mac_addr+0x64>
    1a48:	00016f00 	call	16f0 <generate_and_store_mac_addr>
    1a4c:	e0bffd15 	stw	r2,-12(fp)
    1a50:	e0bffd17 	ldw	r2,-12(fp)
    1a54:	1000471e 	bne	r2,zero,1b74 <get_board_mac_addr+0x188>
    1a58:	d0a90517 	ldw	r2,-23532(gp)
    1a5c:	10800104 	addi	r2,r2,4
    1a60:	10800023 	ldbuio	r2,0(r2)
    1a64:	10803fcc 	andi	r2,r2,255
    1a68:	1007883a 	mov	r3,r2
    1a6c:	e0bfff17 	ldw	r2,-4(fp)
    1a70:	10c00005 	stb	r3,0(r2)
    1a74:	e0bfff17 	ldw	r2,-4(fp)
    1a78:	10800044 	addi	r2,r2,1
    1a7c:	d0e90517 	ldw	r3,-23532(gp)
    1a80:	18c00144 	addi	r3,r3,5
    1a84:	18c00023 	ldbuio	r3,0(r3)
    1a88:	18c03fcc 	andi	r3,r3,255
    1a8c:	10c00005 	stb	r3,0(r2)
    1a90:	e0bfff17 	ldw	r2,-4(fp)
    1a94:	10800084 	addi	r2,r2,2
    1a98:	d0e90517 	ldw	r3,-23532(gp)
    1a9c:	18c00184 	addi	r3,r3,6
    1aa0:	18c00023 	ldbuio	r3,0(r3)
    1aa4:	18c03fcc 	andi	r3,r3,255
    1aa8:	10c00005 	stb	r3,0(r2)
    1aac:	e0bfff17 	ldw	r2,-4(fp)
    1ab0:	108000c4 	addi	r2,r2,3
    1ab4:	d0e90517 	ldw	r3,-23532(gp)
    1ab8:	18c001c4 	addi	r3,r3,7
    1abc:	18c00023 	ldbuio	r3,0(r3)
    1ac0:	18c03fcc 	andi	r3,r3,255
    1ac4:	10c00005 	stb	r3,0(r2)
    1ac8:	e0bfff17 	ldw	r2,-4(fp)
    1acc:	10800104 	addi	r2,r2,4
    1ad0:	d0e90517 	ldw	r3,-23532(gp)
    1ad4:	18c00204 	addi	r3,r3,8
    1ad8:	18c00023 	ldbuio	r3,0(r3)
    1adc:	18c03fcc 	andi	r3,r3,255
    1ae0:	10c00005 	stb	r3,0(r2)
    1ae4:	e0bfff17 	ldw	r2,-4(fp)
    1ae8:	10800144 	addi	r2,r2,5
    1aec:	d0e90517 	ldw	r3,-23532(gp)
    1af0:	18c00244 	addi	r3,r3,9
    1af4:	18c00023 	ldbuio	r3,0(r3)
    1af8:	18c03fcc 	andi	r3,r3,255
    1afc:	10c00005 	stb	r3,0(r2)
    1b00:	e0bfff17 	ldw	r2,-4(fp)
    1b04:	10800003 	ldbu	r2,0(r2)
    1b08:	11403fcc 	andi	r5,r2,255
    1b0c:	e0bfff17 	ldw	r2,-4(fp)
    1b10:	10800044 	addi	r2,r2,1
    1b14:	10800003 	ldbu	r2,0(r2)
    1b18:	11803fcc 	andi	r6,r2,255
    1b1c:	e0bfff17 	ldw	r2,-4(fp)
    1b20:	10800084 	addi	r2,r2,2
    1b24:	10800003 	ldbu	r2,0(r2)
    1b28:	11c03fcc 	andi	r7,r2,255
    1b2c:	e0bfff17 	ldw	r2,-4(fp)
    1b30:	108000c4 	addi	r2,r2,3
    1b34:	10800003 	ldbu	r2,0(r2)
    1b38:	11003fcc 	andi	r4,r2,255
    1b3c:	e0bfff17 	ldw	r2,-4(fp)
    1b40:	10800104 	addi	r2,r2,4
    1b44:	10800003 	ldbu	r2,0(r2)
    1b48:	10c03fcc 	andi	r3,r2,255
    1b4c:	e0bfff17 	ldw	r2,-4(fp)
    1b50:	10800144 	addi	r2,r2,5
    1b54:	10800003 	ldbu	r2,0(r2)
    1b58:	10803fcc 	andi	r2,r2,255
    1b5c:	d9000015 	stw	r4,0(sp)
    1b60:	d8c00115 	stw	r3,4(sp)
    1b64:	d8800215 	stw	r2,8(sp)
    1b68:	01000174 	movhi	r4,5
    1b6c:	21344b04 	addi	r4,r4,-11988
    1b70:	0002f400 	call	2f40 <printf>
    1b74:	e0bffd17 	ldw	r2,-12(fp)
    1b78:	e037883a 	mov	sp,fp
    1b7c:	dfc00117 	ldw	ra,4(sp)
    1b80:	df000017 	ldw	fp,0(sp)
    1b84:	dec00204 	addi	sp,sp,8
    1b88:	f800283a 	ret

00001b8c <FindLastFlashSectorOffset>:
    1b8c:	defff304 	addi	sp,sp,-52
    1b90:	dfc00c15 	stw	ra,48(sp)
    1b94:	df000b15 	stw	fp,44(sp)
    1b98:	df000b04 	addi	fp,sp,44
    1b9c:	e13fff15 	stw	r4,-4(fp)
    1ba0:	e03ff815 	stw	zero,-32(fp)
    1ba4:	01000174 	movhi	r4,5
    1ba8:	21343304 	addi	r4,r4,-12084
    1bac:	0012e9c0 	call	12e9c <alt_flash_open_dev>
    1bb0:	e0bff915 	stw	r2,-28(fp)
    1bb4:	e0bff917 	ldw	r2,-28(fp)
    1bb8:	1000021e 	bne	r2,zero,1bc4 <FindLastFlashSectorOffset+0x38>
    1bbc:	00bfffc4 	movi	r2,-1
    1bc0:	e0bff815 	stw	r2,-32(fp)
    1bc4:	e0bff817 	ldw	r2,-32(fp)
    1bc8:	10000d1e 	bne	r2,zero,1c00 <FindLastFlashSectorOffset+0x74>
    1bcc:	e0bff917 	ldw	r2,-28(fp)
    1bd0:	e0bffa15 	stw	r2,-24(fp)
    1bd4:	e0bffd04 	addi	r2,fp,-12
    1bd8:	e0bffb15 	stw	r2,-20(fp)
    1bdc:	e0bffe04 	addi	r2,fp,-8
    1be0:	e0bffc15 	stw	r2,-16(fp)
    1be4:	e0bffa17 	ldw	r2,-24(fp)
    1be8:	10800717 	ldw	r2,28(r2)
    1bec:	e13ffa17 	ldw	r4,-24(fp)
    1bf0:	e17ffb17 	ldw	r5,-20(fp)
    1bf4:	e1bffc17 	ldw	r6,-16(fp)
    1bf8:	103ee83a 	callr	r2
    1bfc:	e0bff815 	stw	r2,-32(fp)
    1c00:	e0bff817 	ldw	r2,-32(fp)
    1c04:	1000211e 	bne	r2,zero,1c8c <FindLastFlashSectorOffset+0x100>
    1c08:	e0bffd17 	ldw	r2,-12(fp)
    1c0c:	e0bff515 	stw	r2,-44(fp)
    1c10:	00800044 	movi	r2,1
    1c14:	e0bff715 	stw	r2,-36(fp)
    1c18:	00001006 	br	1c5c <FindLastFlashSectorOffset+0xd0>
    1c1c:	e0fffd17 	ldw	r3,-12(fp)
    1c20:	e0bff717 	ldw	r2,-36(fp)
    1c24:	1004913a 	slli	r2,r2,4
    1c28:	1885883a 	add	r2,r3,r2
    1c2c:	10800017 	ldw	r2,0(r2)
    1c30:	e0fff517 	ldw	r3,-44(fp)
    1c34:	18c00017 	ldw	r3,0(r3)
    1c38:	1880050e 	bge	r3,r2,1c50 <FindLastFlashSectorOffset+0xc4>
    1c3c:	e0fffd17 	ldw	r3,-12(fp)
    1c40:	e0bff717 	ldw	r2,-36(fp)
    1c44:	1004913a 	slli	r2,r2,4
    1c48:	1885883a 	add	r2,r3,r2
    1c4c:	e0bff515 	stw	r2,-44(fp)
    1c50:	e0bff717 	ldw	r2,-36(fp)
    1c54:	10800044 	addi	r2,r2,1
    1c58:	e0bff715 	stw	r2,-36(fp)
    1c5c:	e0bffe17 	ldw	r2,-8(fp)
    1c60:	e0fff717 	ldw	r3,-36(fp)
    1c64:	18bfed16 	blt	r3,r2,1c1c <__alt_mem_cfi_flash+0xf6001c1c>
    1c68:	e0bff517 	ldw	r2,-44(fp)
    1c6c:	10c00017 	ldw	r3,0(r2)
    1c70:	e0bff517 	ldw	r2,-44(fp)
    1c74:	10800117 	ldw	r2,4(r2)
    1c78:	1887883a 	add	r3,r3,r2
    1c7c:	e0bff517 	ldw	r2,-44(fp)
    1c80:	10800317 	ldw	r2,12(r2)
    1c84:	1885c83a 	sub	r2,r3,r2
    1c88:	e0bff615 	stw	r2,-40(fp)
    1c8c:	e0bff817 	ldw	r2,-32(fp)
    1c90:	1000031e 	bne	r2,zero,1ca0 <FindLastFlashSectorOffset+0x114>
    1c94:	e0fff617 	ldw	r3,-40(fp)
    1c98:	e0bfff17 	ldw	r2,-4(fp)
    1c9c:	10c00015 	stw	r3,0(r2)
    1ca0:	e0bff817 	ldw	r2,-32(fp)
    1ca4:	e037883a 	mov	sp,fp
    1ca8:	dfc00117 	ldw	ra,4(sp)
    1cac:	df000017 	ldw	fp,0(sp)
    1cb0:	dec00204 	addi	sp,sp,8
    1cb4:	f800283a 	ret

00001cb8 <SSSCreateOSDataStructs>:
    1cb8:	defffd04 	addi	sp,sp,-12
    1cbc:	dfc00215 	stw	ra,8(sp)
    1cc0:	df000115 	stw	fp,4(sp)
    1cc4:	df000104 	addi	fp,sp,4
    1cc8:	010001b4 	movhi	r4,6
    1ccc:	212a1e04 	addi	r4,r4,-22408
    1cd0:	01400784 	movi	r5,30
    1cd4:	0017cfc0 	call	17cfc <OSQCreate>
    1cd8:	d0a90715 	stw	r2,-23524(gp)
    1cdc:	d0a90717 	ldw	r2,-23524(gp)
    1ce0:	1000041e 	bne	r2,zero,1cf4 <SSSCreateOSDataStructs+0x3c>
    1ce4:	01003fc4 	movi	r4,255
    1ce8:	01400174 	movhi	r5,5
    1cec:	29745a04 	addi	r5,r5,-11928
    1cf0:	000028c0 	call	28c <alt_uCOSIIErrorHandler>
    1cf4:	01000044 	movi	r4,1
    1cf8:	0018e7c0 	call	18e7c <OSSemCreate>
    1cfc:	d0a90815 	stw	r2,-23520(gp)
    1d00:	d0a90817 	ldw	r2,-23520(gp)
    1d04:	1000041e 	bne	r2,zero,1d18 <SSSCreateOSDataStructs+0x60>
    1d08:	01003fc4 	movi	r4,255
    1d0c:	01400174 	movhi	r5,5
    1d10:	29746304 	addi	r5,r5,-11892
    1d14:	000028c0 	call	28c <alt_uCOSIIErrorHandler>
    1d18:	0009883a 	mov	r4,zero
    1d1c:	e17fff04 	addi	r5,fp,-4
    1d20:	0015f240 	call	15f24 <OSFlagCreate>
    1d24:	d0a90915 	stw	r2,-23516(gp)
    1d28:	d0a90917 	ldw	r2,-23516(gp)
    1d2c:	1000051e 	bne	r2,zero,1d44 <SSSCreateOSDataStructs+0x8c>
    1d30:	e0bfff03 	ldbu	r2,-4(fp)
    1d34:	10803fcc 	andi	r2,r2,255
    1d38:	1009883a 	mov	r4,r2
    1d3c:	000b883a 	mov	r5,zero
    1d40:	000028c0 	call	28c <alt_uCOSIIErrorHandler>
    1d44:	e037883a 	mov	sp,fp
    1d48:	dfc00117 	ldw	ra,4(sp)
    1d4c:	df000017 	ldw	fp,0(sp)
    1d50:	dec00204 	addi	sp,sp,8
    1d54:	f800283a 	ret

00001d58 <SSSCreateTasks>:
    1d58:	defff804 	addi	sp,sp,-32
    1d5c:	dfc00715 	stw	ra,28(sp)
    1d60:	df000615 	stw	fp,24(sp)
    1d64:	df000604 	addi	fp,sp,24
    1d68:	00800484 	movi	r2,18
    1d6c:	d8800015 	stw	r2,0(sp)
    1d70:	008001b4 	movhi	r2,6
    1d74:	10a21e04 	addi	r2,r2,-30600
    1d78:	d8800115 	stw	r2,4(sp)
    1d7c:	00820004 	movi	r2,2048
    1d80:	d8800215 	stw	r2,8(sp)
    1d84:	d8000315 	stw	zero,12(sp)
    1d88:	d8000415 	stw	zero,16(sp)
    1d8c:	01000034 	movhi	r4,0
    1d90:	21042504 	addi	r4,r4,4244
    1d94:	000b883a 	mov	r5,zero
    1d98:	018001b4 	movhi	r6,6
    1d9c:	31aa1d04 	addi	r6,r6,-22412
    1da0:	01c00484 	movi	r7,18
    1da4:	0019fd00 	call	19fd0 <OSTaskCreateExt>
    1da8:	e0bfff05 	stb	r2,-4(fp)
    1dac:	e0bfff03 	ldbu	r2,-4(fp)
    1db0:	1009883a 	mov	r4,r2
    1db4:	000b883a 	mov	r5,zero
    1db8:	000028c0 	call	28c <alt_uCOSIIErrorHandler>
    1dbc:	008001c4 	movi	r2,7
    1dc0:	d8800015 	stw	r2,0(sp)
    1dc4:	008001b4 	movhi	r2,6
    1dc8:	10aa3c04 	addi	r2,r2,-22288
    1dcc:	d8800115 	stw	r2,4(sp)
    1dd0:	00820004 	movi	r2,2048
    1dd4:	d8800215 	stw	r2,8(sp)
    1dd8:	d8000315 	stw	zero,12(sp)
    1ddc:	d8000415 	stw	zero,16(sp)
    1de0:	01000034 	movhi	r4,0
    1de4:	21044d04 	addi	r4,r4,4404
    1de8:	000b883a 	mov	r5,zero
    1dec:	018001b4 	movhi	r6,6
    1df0:	31b23b04 	addi	r6,r6,-14100
    1df4:	01c001c4 	movi	r7,7
    1df8:	0019fd00 	call	19fd0 <OSTaskCreateExt>
    1dfc:	e0bfff05 	stb	r2,-4(fp)
    1e00:	e0bfff03 	ldbu	r2,-4(fp)
    1e04:	1009883a 	mov	r4,r2
    1e08:	000b883a 	mov	r5,zero
    1e0c:	000028c0 	call	28c <alt_uCOSIIErrorHandler>
    1e10:	e037883a 	mov	sp,fp
    1e14:	dfc00117 	ldw	ra,4(sp)
    1e18:	df000017 	ldw	fp,0(sp)
    1e1c:	dec00204 	addi	sp,sp,8
    1e20:	f800283a 	ret

00001e24 <sss_reset_connection>:
    1e24:	defffd04 	addi	sp,sp,-12
    1e28:	dfc00215 	stw	ra,8(sp)
    1e2c:	df000115 	stw	fp,4(sp)
    1e30:	df000104 	addi	fp,sp,4
    1e34:	e13fff15 	stw	r4,-4(fp)
    1e38:	e13fff17 	ldw	r4,-4(fp)
    1e3c:	000b883a 	mov	r5,zero
    1e40:	01817c04 	movi	r6,1520
    1e44:	0002d6c0 	call	2d6c <memset>
    1e48:	e0bfff17 	ldw	r2,-4(fp)
    1e4c:	00ffffc4 	movi	r3,-1
    1e50:	10c00115 	stw	r3,4(r2)
    1e54:	e0bfff17 	ldw	r2,-4(fp)
    1e58:	10000015 	stw	zero,0(r2)
    1e5c:	e0bfff17 	ldw	r2,-4(fp)
    1e60:	10c00304 	addi	r3,r2,12
    1e64:	e0bfff17 	ldw	r2,-4(fp)
    1e68:	10c17b15 	stw	r3,1516(r2)
    1e6c:	e0bfff17 	ldw	r2,-4(fp)
    1e70:	10c00304 	addi	r3,r2,12
    1e74:	e0bfff17 	ldw	r2,-4(fp)
    1e78:	10c17a15 	stw	r3,1512(r2)
    1e7c:	0001883a 	nop
    1e80:	e037883a 	mov	sp,fp
    1e84:	dfc00117 	ldw	ra,4(sp)
    1e88:	df000017 	ldw	fp,0(sp)
    1e8c:	dec00204 	addi	sp,sp,8
    1e90:	f800283a 	ret

00001e94 <sss_send_menu>:
    1e94:	defe8504 	addi	sp,sp,-1516
    1e98:	dfc17a15 	stw	ra,1512(sp)
    1e9c:	df017915 	stw	fp,1508(sp)
    1ea0:	df017904 	addi	fp,sp,1508
    1ea4:	e13fff15 	stw	r4,-4(fp)
    1ea8:	e0be8804 	addi	r2,fp,-1504
    1eac:	e0be8715 	stw	r2,-1508(fp)
    1eb0:	e0fe8717 	ldw	r3,-1508(fp)
    1eb4:	00800174 	movhi	r2,5
    1eb8:	10b46d04 	addi	r2,r2,-11852
    1ebc:	1809883a 	mov	r4,r3
    1ec0:	1007883a 	mov	r3,r2
    1ec4:	00800904 	movi	r2,36
    1ec8:	180b883a 	mov	r5,r3
    1ecc:	100d883a 	mov	r6,r2
    1ed0:	0002ad80 	call	2ad8 <memcpy>
    1ed4:	008008c4 	movi	r2,35
    1ed8:	1007883a 	mov	r3,r2
    1edc:	e0be8717 	ldw	r2,-1508(fp)
    1ee0:	10c5883a 	add	r2,r2,r3
    1ee4:	e0be8715 	stw	r2,-1508(fp)
    1ee8:	e0fe8717 	ldw	r3,-1508(fp)
    1eec:	00800174 	movhi	r2,5
    1ef0:	10b47604 	addi	r2,r2,-11816
    1ef4:	1809883a 	mov	r4,r3
    1ef8:	1007883a 	mov	r3,r2
    1efc:	00800904 	movi	r2,36
    1f00:	180b883a 	mov	r5,r3
    1f04:	100d883a 	mov	r6,r2
    1f08:	0002ad80 	call	2ad8 <memcpy>
    1f0c:	008008c4 	movi	r2,35
    1f10:	1007883a 	mov	r3,r2
    1f14:	e0be8717 	ldw	r2,-1508(fp)
    1f18:	10c5883a 	add	r2,r2,r3
    1f1c:	e0be8715 	stw	r2,-1508(fp)
    1f20:	e0fe8717 	ldw	r3,-1508(fp)
    1f24:	00800174 	movhi	r2,5
    1f28:	10b46d04 	addi	r2,r2,-11852
    1f2c:	1809883a 	mov	r4,r3
    1f30:	1007883a 	mov	r3,r2
    1f34:	00800904 	movi	r2,36
    1f38:	180b883a 	mov	r5,r3
    1f3c:	100d883a 	mov	r6,r2
    1f40:	0002ad80 	call	2ad8 <memcpy>
    1f44:	008008c4 	movi	r2,35
    1f48:	1007883a 	mov	r3,r2
    1f4c:	e0be8717 	ldw	r2,-1508(fp)
    1f50:	10c5883a 	add	r2,r2,r3
    1f54:	e0be8715 	stw	r2,-1508(fp)
    1f58:	e0fe8717 	ldw	r3,-1508(fp)
    1f5c:	00800174 	movhi	r2,5
    1f60:	10b47f04 	addi	r2,r2,-11780
    1f64:	1809883a 	mov	r4,r3
    1f68:	1007883a 	mov	r3,r2
    1f6c:	00800844 	movi	r2,33
    1f70:	180b883a 	mov	r5,r3
    1f74:	100d883a 	mov	r6,r2
    1f78:	0002ad80 	call	2ad8 <memcpy>
    1f7c:	00800804 	movi	r2,32
    1f80:	1007883a 	mov	r3,r2
    1f84:	e0be8717 	ldw	r2,-1508(fp)
    1f88:	10c5883a 	add	r2,r2,r3
    1f8c:	e0be8715 	stw	r2,-1508(fp)
    1f90:	e0fe8717 	ldw	r3,-1508(fp)
    1f94:	00800174 	movhi	r2,5
    1f98:	10b48804 	addi	r2,r2,-11744
    1f9c:	1809883a 	mov	r4,r3
    1fa0:	1007883a 	mov	r3,r2
    1fa4:	00800784 	movi	r2,30
    1fa8:	180b883a 	mov	r5,r3
    1fac:	100d883a 	mov	r6,r2
    1fb0:	0002ad80 	call	2ad8 <memcpy>
    1fb4:	00800744 	movi	r2,29
    1fb8:	1007883a 	mov	r3,r2
    1fbc:	e0be8717 	ldw	r2,-1508(fp)
    1fc0:	10c5883a 	add	r2,r2,r3
    1fc4:	e0be8715 	stw	r2,-1508(fp)
    1fc8:	e0fe8717 	ldw	r3,-1508(fp)
    1fcc:	00800174 	movhi	r2,5
    1fd0:	10b49004 	addi	r2,r2,-11712
    1fd4:	1809883a 	mov	r4,r3
    1fd8:	1007883a 	mov	r3,r2
    1fdc:	008005c4 	movi	r2,23
    1fe0:	180b883a 	mov	r5,r3
    1fe4:	100d883a 	mov	r6,r2
    1fe8:	0002ad80 	call	2ad8 <memcpy>
    1fec:	00800584 	movi	r2,22
    1ff0:	1007883a 	mov	r3,r2
    1ff4:	e0be8717 	ldw	r2,-1508(fp)
    1ff8:	10c5883a 	add	r2,r2,r3
    1ffc:	e0be8715 	stw	r2,-1508(fp)
    2000:	e0fe8717 	ldw	r3,-1508(fp)
    2004:	00800174 	movhi	r2,5
    2008:	10b46d04 	addi	r2,r2,-11852
    200c:	1809883a 	mov	r4,r3
    2010:	1007883a 	mov	r3,r2
    2014:	00800904 	movi	r2,36
    2018:	180b883a 	mov	r5,r3
    201c:	100d883a 	mov	r6,r2
    2020:	0002ad80 	call	2ad8 <memcpy>
    2024:	008008c4 	movi	r2,35
    2028:	1007883a 	mov	r3,r2
    202c:	e0be8717 	ldw	r2,-1508(fp)
    2030:	10c5883a 	add	r2,r2,r3
    2034:	e0be8715 	stw	r2,-1508(fp)
    2038:	e0fe8717 	ldw	r3,-1508(fp)
    203c:	00800174 	movhi	r2,5
    2040:	10b49604 	addi	r2,r2,-11688
    2044:	1809883a 	mov	r4,r3
    2048:	1007883a 	mov	r3,r2
    204c:	00800904 	movi	r2,36
    2050:	180b883a 	mov	r5,r3
    2054:	100d883a 	mov	r6,r2
    2058:	0002ad80 	call	2ad8 <memcpy>
    205c:	008008c4 	movi	r2,35
    2060:	1007883a 	mov	r3,r2
    2064:	e0be8717 	ldw	r2,-1508(fp)
    2068:	10c5883a 	add	r2,r2,r3
    206c:	e0be8715 	stw	r2,-1508(fp)
    2070:	e0bfff17 	ldw	r2,-4(fp)
    2074:	11000117 	ldw	r4,4(r2)
    2078:	e0fe8717 	ldw	r3,-1508(fp)
    207c:	e0be8804 	addi	r2,fp,-1504
    2080:	1885c83a 	sub	r2,r3,r2
    2084:	e0fe8804 	addi	r3,fp,-1504
    2088:	180b883a 	mov	r5,r3
    208c:	100d883a 	mov	r6,r2
    2090:	000f883a 	mov	r7,zero
    2094:	003139c0 	call	3139c <t_send>
    2098:	0001883a 	nop
    209c:	e037883a 	mov	sp,fp
    20a0:	dfc00117 	ldw	ra,4(sp)
    20a4:	df000017 	ldw	fp,0(sp)
    20a8:	dec00204 	addi	sp,sp,8
    20ac:	f800283a 	ret

000020b0 <sss_handle_accept>:
    20b0:	defff604 	addi	sp,sp,-40
    20b4:	dfc00915 	stw	ra,36(sp)
    20b8:	df000815 	stw	fp,32(sp)
    20bc:	df000804 	addi	fp,sp,32
    20c0:	e13ffe15 	stw	r4,-8(fp)
    20c4:	e17fff15 	stw	r5,-4(fp)
    20c8:	00800404 	movi	r2,16
    20cc:	e0bff915 	stw	r2,-28(fp)
    20d0:	e0bfff17 	ldw	r2,-4(fp)
    20d4:	10800117 	ldw	r2,4(r2)
    20d8:	10bfffd8 	cmpnei	r2,r2,-1
    20dc:	10001a1e 	bne	r2,zero,2148 <sss_handle_accept+0x98>
    20e0:	e0fffa04 	addi	r3,fp,-24
    20e4:	e0bff904 	addi	r2,fp,-28
    20e8:	e13ffe17 	ldw	r4,-8(fp)
    20ec:	180b883a 	mov	r5,r3
    20f0:	100d883a 	mov	r6,r2
    20f4:	002a3bc0 	call	2a3bc <bsd_accept>
    20f8:	e0bff815 	stw	r2,-32(fp)
    20fc:	e0bff817 	ldw	r2,-32(fp)
    2100:	1000050e 	bge	r2,zero,2118 <sss_handle_accept+0x68>
    2104:	01003fc4 	movi	r4,255
    2108:	01400174 	movhi	r5,5
    210c:	29749f04 	addi	r5,r5,-11652
    2110:	00008d00 	call	8d0 <alt_NetworkErrorHandler>
    2114:	00001206 	br	2160 <sss_handle_accept+0xb0>
    2118:	e0bfff17 	ldw	r2,-4(fp)
    211c:	e0fff817 	ldw	r3,-32(fp)
    2120:	10c00115 	stw	r3,4(r2)
    2124:	e13fff17 	ldw	r4,-4(fp)
    2128:	0001e940 	call	1e94 <sss_send_menu>
    212c:	e13ffb17 	ldw	r4,-20(fp)
    2130:	002aa500 	call	2aa50 <bsd_inet_ntoa>
    2134:	01000174 	movhi	r4,5
    2138:	2134a804 	addi	r4,r4,-11616
    213c:	100b883a 	mov	r5,r2
    2140:	0002f400 	call	2f40 <printf>
    2144:	00000706 	br	2164 <sss_handle_accept+0xb4>
    2148:	e13ffb17 	ldw	r4,-20(fp)
    214c:	002aa500 	call	2aa50 <bsd_inet_ntoa>
    2150:	01000174 	movhi	r4,5
    2154:	2134b704 	addi	r4,r4,-11556
    2158:	100b883a 	mov	r5,r2
    215c:	0002f400 	call	2f40 <printf>
    2160:	0001883a 	nop
    2164:	e037883a 	mov	sp,fp
    2168:	dfc00117 	ldw	ra,4(sp)
    216c:	df000017 	ldw	fp,0(sp)
    2170:	dec00204 	addi	sp,sp,8
    2174:	f800283a 	ret

00002178 <sss_exec_command>:
    2178:	defe8304 	addi	sp,sp,-1524
    217c:	dfc17c15 	stw	ra,1520(sp)
    2180:	df017b15 	stw	fp,1516(sp)
    2184:	df017b04 	addi	fp,sp,1516
    2188:	e13fff15 	stw	r4,-4(fp)
    218c:	e0bfff17 	ldw	r2,-4(fp)
    2190:	10817b17 	ldw	r2,1516(r2)
    2194:	1007883a 	mov	r3,r2
    2198:	e0bfff17 	ldw	r2,-4(fp)
    219c:	10817a17 	ldw	r2,1512(r2)
    21a0:	1885c83a 	sub	r2,r3,r2
    21a4:	e0be8515 	stw	r2,-1516(fp)
    21a8:	e0be8784 	addi	r2,fp,-1506
    21ac:	e0be8615 	stw	r2,-1512(fp)
    21b0:	00800c04 	movi	r2,48
    21b4:	d0a90615 	stw	r2,-23528(gp)
    21b8:	00004906 	br	22e0 <sss_exec_command+0x168>
    21bc:	e0bfff17 	ldw	r2,-4(fp)
    21c0:	10817a17 	ldw	r2,1512(r2)
    21c4:	11000044 	addi	r4,r2,1
    21c8:	e0ffff17 	ldw	r3,-4(fp)
    21cc:	19017a15 	stw	r4,1512(r3)
    21d0:	10800003 	ldbu	r2,0(r2)
    21d4:	e0be8705 	stb	r2,-1508(fp)
    21d8:	00800174 	movhi	r2,5
    21dc:	10907904 	addi	r2,r2,16868
    21e0:	10c00017 	ldw	r3,0(r2)
    21e4:	e0be8703 	ldbu	r2,-1508(fp)
    21e8:	10800044 	addi	r2,r2,1
    21ec:	1885883a 	add	r2,r3,r2
    21f0:	10800003 	ldbu	r2,0(r2)
    21f4:	10803fcc 	andi	r2,r2,255
    21f8:	108000cc 	andi	r2,r2,3
    21fc:	10800098 	cmpnei	r2,r2,2
    2200:	1000031e 	bne	r2,zero,2210 <sss_exec_command+0x98>
    2204:	e0be8703 	ldbu	r2,-1508(fp)
    2208:	10bff804 	addi	r2,r2,-32
    220c:	00000106 	br	2214 <sss_exec_command+0x9c>
    2210:	e0be8703 	ldbu	r2,-1508(fp)
    2214:	d0a90615 	stw	r2,-23528(gp)
    2218:	d0a90617 	ldw	r2,-23528(gp)
    221c:	10800830 	cmpltui	r2,r2,32
    2220:	10002f1e 	bne	r2,zero,22e0 <sss_exec_command+0x168>
    2224:	d0a90617 	ldw	r2,-23528(gp)
    2228:	10801fe8 	cmpgeui	r2,r2,127
    222c:	10002c1e 	bne	r2,zero,22e0 <sss_exec_command+0x168>
    2230:	d0a90617 	ldw	r2,-23528(gp)
    2234:	10803fcc 	andi	r2,r2,255
    2238:	1080201c 	xori	r2,r2,128
    223c:	10bfe004 	addi	r2,r2,-128
    2240:	e13e8617 	ldw	r4,-1512(fp)
    2244:	01400174 	movhi	r5,5
    2248:	2974c604 	addi	r5,r5,-11496
    224c:	100d883a 	mov	r6,r2
    2250:	000332c0 	call	332c <sprintf>
    2254:	1007883a 	mov	r3,r2
    2258:	e0be8617 	ldw	r2,-1512(fp)
    225c:	10c5883a 	add	r2,r2,r3
    2260:	e0be8615 	stw	r2,-1512(fp)
    2264:	d0a90617 	ldw	r2,-23528(gp)
    2268:	10801458 	cmpnei	r2,r2,81
    226c:	1000121e 	bne	r2,zero,22b8 <sss_exec_command+0x140>
    2270:	e0fe8617 	ldw	r3,-1512(fp)
    2274:	00800174 	movhi	r2,5
    2278:	10b4d004 	addi	r2,r2,-11456
    227c:	1809883a 	mov	r4,r3
    2280:	1007883a 	mov	r3,r2
    2284:	008006c4 	movi	r2,27
    2288:	180b883a 	mov	r5,r3
    228c:	100d883a 	mov	r6,r2
    2290:	0002ad80 	call	2ad8 <memcpy>
    2294:	00800684 	movi	r2,26
    2298:	1007883a 	mov	r3,r2
    229c:	e0be8617 	ldw	r2,-1512(fp)
    22a0:	10c5883a 	add	r2,r2,r3
    22a4:	e0be8615 	stw	r2,-1512(fp)
    22a8:	e0bfff17 	ldw	r2,-4(fp)
    22ac:	00c00044 	movi	r3,1
    22b0:	10c00215 	stw	r3,8(r2)
    22b4:	00000a06 	br	22e0 <sss_exec_command+0x168>
    22b8:	d0a90717 	ldw	r2,-23524(gp)
    22bc:	d0e90617 	ldw	r3,-23528(gp)
    22c0:	1009883a 	mov	r4,r2
    22c4:	180b883a 	mov	r5,r3
    22c8:	00186e00 	call	186e0 <OSQPost>
    22cc:	e0be8745 	stb	r2,-1507(fp)
    22d0:	e0be8743 	ldbu	r2,-1507(fp)
    22d4:	1009883a 	mov	r4,r2
    22d8:	000b883a 	mov	r5,zero
    22dc:	0000b8c0 	call	b8c <alt_SSSErrorHandler>
    22e0:	e0be8517 	ldw	r2,-1516(fp)
    22e4:	10ffffc4 	addi	r3,r2,-1
    22e8:	e0fe8515 	stw	r3,-1516(fp)
    22ec:	103fb31e 	bne	r2,zero,21bc <__alt_mem_cfi_flash+0xf60021bc>
    22f0:	e0bfff17 	ldw	r2,-4(fp)
    22f4:	11000117 	ldw	r4,4(r2)
    22f8:	e0fe8617 	ldw	r3,-1512(fp)
    22fc:	e0be8784 	addi	r2,fp,-1506
    2300:	1885c83a 	sub	r2,r3,r2
    2304:	e0fe8784 	addi	r3,fp,-1506
    2308:	180b883a 	mov	r5,r3
    230c:	100d883a 	mov	r6,r2
    2310:	000f883a 	mov	r7,zero
    2314:	003139c0 	call	3139c <t_send>
    2318:	0001883a 	nop
    231c:	e037883a 	mov	sp,fp
    2320:	dfc00117 	ldw	ra,4(sp)
    2324:	df000017 	ldw	fp,0(sp)
    2328:	dec00204 	addi	sp,sp,8
    232c:	f800283a 	ret

00002330 <sss_handle_receive>:
    2330:	defffa04 	addi	sp,sp,-24
    2334:	dfc00515 	stw	ra,20(sp)
    2338:	df000415 	stw	fp,16(sp)
    233c:	df000404 	addi	fp,sp,16
    2340:	e13fff15 	stw	r4,-4(fp)
    2344:	e03ffc15 	stw	zero,-16(fp)
    2348:	e03ffd15 	stw	zero,-12(fp)
    234c:	e0bfff17 	ldw	r2,-4(fp)
    2350:	10c00304 	addi	r3,r2,12
    2354:	e0bfff17 	ldw	r2,-4(fp)
    2358:	10c17a15 	stw	r3,1512(r2)
    235c:	e0bfff17 	ldw	r2,-4(fp)
    2360:	10c00304 	addi	r3,r2,12
    2364:	e0bfff17 	ldw	r2,-4(fp)
    2368:	10c17b15 	stw	r3,1516(r2)
    236c:	01000174 	movhi	r4,5
    2370:	2134d704 	addi	r4,r4,-11428
    2374:	00031bc0 	call	31bc <puts>
    2378:	00005506 	br	24d0 <sss_handle_receive+0x1a0>
    237c:	e0bfff17 	ldw	r2,-4(fp)
    2380:	10800304 	addi	r2,r2,12
    2384:	1009883a 	mov	r4,r2
    2388:	01400284 	movi	r5,10
    238c:	00033980 	call	3398 <strchr>
    2390:	e0bffe15 	stw	r2,-8(fp)
    2394:	e0bffe17 	ldw	r2,-8(fp)
    2398:	10000326 	beq	r2,zero,23a8 <sss_handle_receive+0x78>
    239c:	e13fff17 	ldw	r4,-4(fp)
    23a0:	00021780 	call	2178 <sss_exec_command>
    23a4:	00001c06 	br	2418 <sss_handle_receive+0xe8>
    23a8:	e0bfff17 	ldw	r2,-4(fp)
    23ac:	11000117 	ldw	r4,4(r2)
    23b0:	e0bfff17 	ldw	r2,-4(fp)
    23b4:	10c17b17 	ldw	r3,1516(r2)
    23b8:	e0bfff17 	ldw	r2,-4(fp)
    23bc:	10800304 	addi	r2,r2,12
    23c0:	100b883a 	mov	r5,r2
    23c4:	e0bfff17 	ldw	r2,-4(fp)
    23c8:	10817b17 	ldw	r2,1516(r2)
    23cc:	2885c83a 	sub	r2,r5,r2
    23d0:	108176c4 	addi	r2,r2,1499
    23d4:	180b883a 	mov	r5,r3
    23d8:	100d883a 	mov	r6,r2
    23dc:	000f883a 	mov	r7,zero
    23e0:	0030f940 	call	30f94 <t_recv>
    23e4:	e0bffd15 	stw	r2,-12(fp)
    23e8:	e0bffd17 	ldw	r2,-12(fp)
    23ec:	00800a0e 	bge	zero,r2,2418 <sss_handle_receive+0xe8>
    23f0:	e0bfff17 	ldw	r2,-4(fp)
    23f4:	10c17b17 	ldw	r3,1516(r2)
    23f8:	e0bffd17 	ldw	r2,-12(fp)
    23fc:	1887883a 	add	r3,r3,r2
    2400:	e0bfff17 	ldw	r2,-4(fp)
    2404:	10c17b15 	stw	r3,1516(r2)
    2408:	e0bfff17 	ldw	r2,-4(fp)
    240c:	10817b17 	ldw	r2,1516(r2)
    2410:	10800044 	addi	r2,r2,1
    2414:	10000005 	stb	zero,0(r2)
    2418:	e0bfff17 	ldw	r2,-4(fp)
    241c:	10800217 	ldw	r2,8(r2)
    2420:	10000226 	beq	r2,zero,242c <sss_handle_receive+0xfc>
    2424:	00800084 	movi	r2,2
    2428:	00000106 	br	2430 <sss_handle_receive+0x100>
    242c:	0005883a 	mov	r2,zero
    2430:	e0ffff17 	ldw	r3,-4(fp)
    2434:	18800015 	stw	r2,0(r3)
    2438:	e0bfff17 	ldw	r2,-4(fp)
    243c:	10817a17 	ldw	r2,1512(r2)
    2440:	1007883a 	mov	r3,r2
    2444:	e0bfff17 	ldw	r2,-4(fp)
    2448:	10800304 	addi	r2,r2,12
    244c:	1885c83a 	sub	r2,r3,r2
    2450:	e0bffc15 	stw	r2,-16(fp)
    2454:	e0bfff17 	ldw	r2,-4(fp)
    2458:	11000304 	addi	r4,r2,12
    245c:	e0bfff17 	ldw	r2,-4(fp)
    2460:	10c17a17 	ldw	r3,1512(r2)
    2464:	e0bfff17 	ldw	r2,-4(fp)
    2468:	10817b17 	ldw	r2,1516(r2)
    246c:	100b883a 	mov	r5,r2
    2470:	e0bfff17 	ldw	r2,-4(fp)
    2474:	10817a17 	ldw	r2,1512(r2)
    2478:	2885c83a 	sub	r2,r5,r2
    247c:	180b883a 	mov	r5,r3
    2480:	100d883a 	mov	r6,r2
    2484:	0002c100 	call	2c10 <memmove>
    2488:	e0bfff17 	ldw	r2,-4(fp)
    248c:	10c00304 	addi	r3,r2,12
    2490:	e0bfff17 	ldw	r2,-4(fp)
    2494:	10c17a15 	stw	r3,1512(r2)
    2498:	e0bfff17 	ldw	r2,-4(fp)
    249c:	10c17b17 	ldw	r3,1516(r2)
    24a0:	e0bffc17 	ldw	r2,-16(fp)
    24a4:	0085c83a 	sub	r2,zero,r2
    24a8:	1887883a 	add	r3,r3,r2
    24ac:	e0bfff17 	ldw	r2,-4(fp)
    24b0:	10c17b15 	stw	r3,1516(r2)
    24b4:	e0bfff17 	ldw	r2,-4(fp)
    24b8:	10c17b17 	ldw	r3,1516(r2)
    24bc:	e0bffc17 	ldw	r2,-16(fp)
    24c0:	1809883a 	mov	r4,r3
    24c4:	000b883a 	mov	r5,zero
    24c8:	100d883a 	mov	r6,r2
    24cc:	0002d6c0 	call	2d6c <memset>
    24d0:	e0bfff17 	ldw	r2,-4(fp)
    24d4:	10800017 	ldw	r2,0(r2)
    24d8:	10800098 	cmpnei	r2,r2,2
    24dc:	103fa71e 	bne	r2,zero,237c <__alt_mem_cfi_flash+0xf600237c>
    24e0:	01000174 	movhi	r4,5
    24e4:	2134e104 	addi	r4,r4,-11388
    24e8:	00031bc0 	call	31bc <puts>
    24ec:	e0bfff17 	ldw	r2,-4(fp)
    24f0:	10800117 	ldw	r2,4(r2)
    24f4:	1009883a 	mov	r4,r2
    24f8:	0027f4c0 	call	27f4c <close>
    24fc:	e13fff17 	ldw	r4,-4(fp)
    2500:	0001e240 	call	1e24 <sss_reset_connection>
    2504:	0001883a 	nop
    2508:	e037883a 	mov	sp,fp
    250c:	dfc00117 	ldw	ra,4(sp)
    2510:	df000017 	ldw	fp,0(sp)
    2514:	dec00204 	addi	sp,sp,8
    2518:	f800283a 	ret

0000251c <SSSSimpleSocketServerTask>:
    251c:	defef404 	addi	sp,sp,-1072
    2520:	dfc10b15 	stw	ra,1068(sp)
    2524:	df010a15 	stw	fp,1064(sp)
    2528:	df010a04 	addi	fp,sp,1064
    252c:	e03ef615 	stw	zero,-1064(fp)
    2530:	00800c44 	movi	r2,49
    2534:	e0bffb05 	stb	r2,-20(fp)
    2538:	00800344 	movi	r2,13
    253c:	e0bffb45 	stb	r2,-19(fp)
    2540:	00800284 	movi	r2,10
    2544:	e0bffb85 	stb	r2,-18(fp)
    2548:	00810004 	movi	r2,1024
    254c:	e0bef715 	stw	r2,-1060(fp)
    2550:	008003c4 	movi	r2,15
    2554:	d0a90215 	stw	r2,-23544(gp)
    2558:	00028040 	call	2804 <init_button_pio>
    255c:	01000084 	movi	r4,2
    2560:	01400044 	movi	r5,1
    2564:	000d883a 	mov	r6,zero
    2568:	00302880 	call	30288 <t_socket>
    256c:	e0bef815 	stw	r2,-1056(fp)
    2570:	e0bef817 	ldw	r2,-1056(fp)
    2574:	1000040e 	bge	r2,zero,2588 <SSSSimpleSocketServerTask+0x6c>
    2578:	01003fc4 	movi	r4,255
    257c:	01400174 	movhi	r5,5
    2580:	2974eb04 	addi	r5,r5,-11348
    2584:	00008d00 	call	8d0 <alt_NetworkErrorHandler>
    2588:	00800084 	movi	r2,2
    258c:	e0bffc0d 	sth	r2,-16(fp)
    2590:	00878004 	movi	r2,7680
    2594:	e0bffc8d 	sth	r2,-14(fp)
    2598:	01000174 	movhi	r4,5
    259c:	2134f404 	addi	r4,r4,-11312
    25a0:	002be040 	call	2be04 <inet_addr>
    25a4:	e0bffd15 	stw	r2,-12(fp)
    25a8:	e0bffc04 	addi	r2,fp,-16
    25ac:	e13ef817 	ldw	r4,-1056(fp)
    25b0:	100b883a 	mov	r5,r2
    25b4:	01800404 	movi	r6,16
    25b8:	003078c0 	call	3078c <t_connect>
    25bc:	e0bef915 	stw	r2,-1052(fp)
    25c0:	e0bef917 	ldw	r2,-1052(fp)
    25c4:	10000426 	beq	r2,zero,25d8 <SSSSimpleSocketServerTask+0xbc>
    25c8:	01000174 	movhi	r4,5
    25cc:	2134f804 	addi	r4,r4,-11296
    25d0:	00031bc0 	call	31bc <puts>
    25d4:	00006a06 	br	2780 <SSSSimpleSocketServerTask+0x264>
    25d8:	e0befb04 	addi	r2,fp,-1044
    25dc:	e13ef817 	ldw	r4,-1056(fp)
    25e0:	100b883a 	mov	r5,r2
    25e4:	e1bef717 	ldw	r6,-1060(fp)
    25e8:	000f883a 	mov	r7,zero
    25ec:	0030f940 	call	30f94 <t_recv>
    25f0:	e0bef915 	stw	r2,-1052(fp)
    25f4:	e0bef917 	ldw	r2,-1052(fp)
    25f8:	10bfffd8 	cmpnei	r2,r2,-1
    25fc:	1000041e 	bne	r2,zero,2610 <SSSSimpleSocketServerTask+0xf4>
    2600:	01000174 	movhi	r4,5
    2604:	21350004 	addi	r4,r4,-11264
    2608:	00031bc0 	call	31bc <puts>
    260c:	00005c06 	br	2780 <SSSSimpleSocketServerTask+0x264>
    2610:	e0befb04 	addi	r2,fp,-1044
    2614:	1009883a 	mov	r4,r2
    2618:	0002f400 	call	2f40 <printf>
    261c:	00800044 	movi	r2,1
    2620:	e0befa15 	stw	r2,-1048(fp)
    2624:	d0a90217 	ldw	r2,-23544(gp)
    2628:	108003e0 	cmpeqi	r2,r2,15
    262c:	1000401e 	bne	r2,zero,2730 <SSSSimpleSocketServerTask+0x214>
    2630:	d0a90217 	ldw	r2,-23544(gp)
    2634:	10c000a0 	cmpeqi	r3,r2,2
    2638:	1800151e 	bne	r3,zero,2690 <SSSSimpleSocketServerTask+0x174>
    263c:	10c000c8 	cmpgei	r3,r2,3
    2640:	1800031e 	bne	r3,zero,2650 <SSSSimpleSocketServerTask+0x134>
    2644:	10800060 	cmpeqi	r2,r2,1
    2648:	1000061e 	bne	r2,zero,2664 <SSSSimpleSocketServerTask+0x148>
    264c:	00001306 	br	269c <SSSSimpleSocketServerTask+0x180>
    2650:	10c00120 	cmpeqi	r3,r2,4
    2654:	18000b1e 	bne	r3,zero,2684 <SSSSimpleSocketServerTask+0x168>
    2658:	10800220 	cmpeqi	r2,r2,8
    265c:	1000061e 	bne	r2,zero,2678 <SSSSimpleSocketServerTask+0x15c>
    2660:	00000e06 	br	269c <SSSSimpleSocketServerTask+0x180>
    2664:	00801c44 	movi	r2,113
    2668:	e0bffb05 	stb	r2,-20(fp)
    266c:	00800044 	movi	r2,1
    2670:	e0bef615 	stw	r2,-1064(fp)
    2674:	00000906 	br	269c <SSSSimpleSocketServerTask+0x180>
    2678:	00800c44 	movi	r2,49
    267c:	e0bffb05 	stb	r2,-20(fp)
    2680:	00000606 	br	269c <SSSSimpleSocketServerTask+0x180>
    2684:	00800c84 	movi	r2,50
    2688:	e0bffb05 	stb	r2,-20(fp)
    268c:	00000306 	br	269c <SSSSimpleSocketServerTask+0x180>
    2690:	00800cc4 	movi	r2,51
    2694:	e0bffb05 	stb	r2,-20(fp)
    2698:	0001883a 	nop
    269c:	e0bffb04 	addi	r2,fp,-20
    26a0:	e13ef817 	ldw	r4,-1056(fp)
    26a4:	100b883a 	mov	r5,r2
    26a8:	018000c4 	movi	r6,3
    26ac:	000f883a 	mov	r7,zero
    26b0:	003139c0 	call	3139c <t_send>
    26b4:	e0bef915 	stw	r2,-1052(fp)
    26b8:	e0bef917 	ldw	r2,-1052(fp)
    26bc:	10bfffd8 	cmpnei	r2,r2,-1
    26c0:	1000041e 	bne	r2,zero,26d4 <SSSSimpleSocketServerTask+0x1b8>
    26c4:	01000174 	movhi	r4,5
    26c8:	21350804 	addi	r4,r4,-11232
    26cc:	00031bc0 	call	31bc <puts>
    26d0:	00002b06 	br	2780 <SSSSimpleSocketServerTask+0x264>
    26d4:	008003c4 	movi	r2,15
    26d8:	d0a90215 	stw	r2,-23544(gp)
    26dc:	e0bef617 	ldw	r2,-1064(fp)
    26e0:	10000226 	beq	r2,zero,26ec <SSSSimpleSocketServerTask+0x1d0>
    26e4:	e03ef615 	stw	zero,-1064(fp)
    26e8:	00001306 	br	2738 <SSSSimpleSocketServerTask+0x21c>
    26ec:	e0befb04 	addi	r2,fp,-1044
    26f0:	e13ef817 	ldw	r4,-1056(fp)
    26f4:	100b883a 	mov	r5,r2
    26f8:	e1bef717 	ldw	r6,-1060(fp)
    26fc:	000f883a 	mov	r7,zero
    2700:	0030f940 	call	30f94 <t_recv>
    2704:	e0bef915 	stw	r2,-1052(fp)
    2708:	e0bef917 	ldw	r2,-1052(fp)
    270c:	10bfffd8 	cmpnei	r2,r2,-1
    2710:	1000041e 	bne	r2,zero,2724 <SSSSimpleSocketServerTask+0x208>
    2714:	01000174 	movhi	r4,5
    2718:	21350004 	addi	r4,r4,-11264
    271c:	00031bc0 	call	31bc <puts>
    2720:	00001706 	br	2780 <SSSSimpleSocketServerTask+0x264>
    2724:	e0befb04 	addi	r2,fp,-1044
    2728:	1009883a 	mov	r4,r2
    272c:	0002f400 	call	2f40 <printf>
    2730:	e0befa17 	ldw	r2,-1048(fp)
    2734:	103fbb1e 	bne	r2,zero,2624 <__alt_mem_cfi_flash+0xf6002624>
    2738:	e13ef817 	ldw	r4,-1056(fp)
    273c:	00316700 	call	31670 <t_socketclose>
    2740:	e0bef915 	stw	r2,-1052(fp)
    2744:	e0bef917 	ldw	r2,-1052(fp)
    2748:	10bfffd8 	cmpnei	r2,r2,-1
    274c:	1000041e 	bne	r2,zero,2760 <SSSSimpleSocketServerTask+0x244>
    2750:	01000174 	movhi	r4,5
    2754:	21351004 	addi	r4,r4,-11200
    2758:	00031bc0 	call	31bc <puts>
    275c:	00000806 	br	2780 <SSSSimpleSocketServerTask+0x264>
    2760:	01000174 	movhi	r4,5
    2764:	21351704 	addi	r4,r4,-11172
    2768:	00031bc0 	call	31bc <puts>
    276c:	0001883a 	nop
    2770:	d0a90217 	ldw	r2,-23544(gp)
    2774:	108003e0 	cmpeqi	r2,r2,15
    2778:	103ffd1e 	bne	r2,zero,2770 <__alt_mem_cfi_flash+0xf6002770>
    277c:	003f7706 	br	255c <__alt_mem_cfi_flash+0xf600255c>
    2780:	e037883a 	mov	sp,fp
    2784:	dfc00117 	ldw	ra,4(sp)
    2788:	df000017 	ldw	fp,0(sp)
    278c:	dec00204 	addi	sp,sp,8
    2790:	f800283a 	ret

00002794 <handle_button_interrupts>:
    2794:	defffb04 	addi	sp,sp,-20
    2798:	dfc00415 	stw	ra,16(sp)
    279c:	df000315 	stw	fp,12(sp)
    27a0:	df000304 	addi	fp,sp,12
    27a4:	e13ffe15 	stw	r4,-8(fp)
    27a8:	e17fff15 	stw	r5,-4(fp)
    27ac:	e0bffe17 	ldw	r2,-8(fp)
    27b0:	e0bffd15 	stw	r2,-12(fp)
    27b4:	00824034 	movhi	r2,2304
    27b8:	10804b04 	addi	r2,r2,300
    27bc:	10c00037 	ldwio	r3,0(r2)
    27c0:	e0bffd17 	ldw	r2,-12(fp)
    27c4:	10c00015 	stw	r3,0(r2)
    27c8:	0007883a 	mov	r3,zero
    27cc:	00824034 	movhi	r2,2304
    27d0:	10804b04 	addi	r2,r2,300
    27d4:	10c00035 	stwio	r3,0(r2)
    27d8:	00824034 	movhi	r2,2304
    27dc:	10804b04 	addi	r2,r2,300
    27e0:	10800037 	ldwio	r2,0(r2)
    27e4:	01000174 	movhi	r4,5
    27e8:	21351c04 	addi	r4,r4,-11152
    27ec:	00031bc0 	call	31bc <puts>
    27f0:	e037883a 	mov	sp,fp
    27f4:	dfc00117 	ldw	ra,4(sp)
    27f8:	df000017 	ldw	fp,0(sp)
    27fc:	dec00204 	addi	sp,sp,8
    2800:	f800283a 	ret

00002804 <init_button_pio>:
    2804:	defffc04 	addi	sp,sp,-16
    2808:	dfc00315 	stw	ra,12(sp)
    280c:	df000215 	stw	fp,8(sp)
    2810:	df000204 	addi	fp,sp,8
    2814:	d0a90204 	addi	r2,gp,-23544
    2818:	e0bfff15 	stw	r2,-4(fp)
    281c:	00c003c4 	movi	r3,15
    2820:	00824034 	movhi	r2,2304
    2824:	10804a04 	addi	r2,r2,296
    2828:	10c00035 	stwio	r3,0(r2)
    282c:	0007883a 	mov	r3,zero
    2830:	00824034 	movhi	r2,2304
    2834:	10804b04 	addi	r2,r2,300
    2838:	10c00035 	stwio	r3,0(r2)
    283c:	d8000015 	stw	zero,0(sp)
    2840:	0009883a 	mov	r4,zero
    2844:	01400044 	movi	r5,1
    2848:	01800034 	movhi	r6,0
    284c:	3189e504 	addi	r6,r6,10132
    2850:	e1ffff17 	ldw	r7,-4(fp)
    2854:	00130540 	call	13054 <alt_ic_isr_register>
    2858:	01000174 	movhi	r4,5
    285c:	21352104 	addi	r4,r4,-11132
    2860:	00031bc0 	call	31bc <puts>
    2864:	e037883a 	mov	sp,fp
    2868:	dfc00117 	ldw	ra,4(sp)
    286c:	df000017 	ldw	fp,0(sp)
    2870:	dec00204 	addi	sp,sp,8
    2874:	f800283a 	ret

00002878 <_fprintf_r>:
    2878:	defffe04 	addi	sp,sp,-8
    287c:	2809883a 	mov	r4,r5
    2880:	dfc00015 	stw	ra,0(sp)
    2884:	d9c00115 	stw	r7,4(sp)
    2888:	300b883a 	mov	r5,r6
    288c:	d9800104 	addi	r6,sp,4
    2890:	0007b140 	call	7b14 <__vfprintf_internal>
    2894:	dfc00017 	ldw	ra,0(sp)
    2898:	dec00204 	addi	sp,sp,8
    289c:	f800283a 	ret

000028a0 <fprintf>:
    28a0:	defffd04 	addi	sp,sp,-12
    28a4:	dfc00015 	stw	ra,0(sp)
    28a8:	d9800115 	stw	r6,4(sp)
    28ac:	d9c00215 	stw	r7,8(sp)
    28b0:	d9800104 	addi	r6,sp,4
    28b4:	0007b140 	call	7b14 <__vfprintf_internal>
    28b8:	dfc00017 	ldw	ra,0(sp)
    28bc:	dec00304 	addi	sp,sp,12
    28c0:	f800283a 	ret

000028c4 <_fwrite_r>:
    28c4:	defff504 	addi	sp,sp,-44
    28c8:	dcc00815 	stw	r19,32(sp)
    28cc:	39a7383a 	mul	r19,r7,r6
    28d0:	d8800304 	addi	r2,sp,12
    28d4:	d8800015 	stw	r2,0(sp)
    28d8:	00800044 	movi	r2,1
    28dc:	dd000915 	stw	r20,36(sp)
    28e0:	dc800715 	stw	r18,28(sp)
    28e4:	dc400615 	stw	r17,24(sp)
    28e8:	d9400315 	stw	r5,12(sp)
    28ec:	dfc00a15 	stw	ra,40(sp)
    28f0:	dcc00415 	stw	r19,16(sp)
    28f4:	dcc00215 	stw	r19,8(sp)
    28f8:	d8800115 	stw	r2,4(sp)
    28fc:	3029883a 	mov	r20,r6
    2900:	3823883a 	mov	r17,r7
    2904:	2025883a 	mov	r18,r4
    2908:	d9400b17 	ldw	r5,44(sp)
    290c:	20000226 	beq	r4,zero,2918 <_fwrite_r+0x54>
    2910:	20800e17 	ldw	r2,56(r4)
    2914:	10001a26 	beq	r2,zero,2980 <_fwrite_r+0xbc>
    2918:	2880030b 	ldhu	r2,12(r5)
    291c:	10c8000c 	andi	r3,r2,8192
    2920:	1800061e 	bne	r3,zero,293c <_fwrite_r+0x78>
    2924:	29001917 	ldw	r4,100(r5)
    2928:	00f7ffc4 	movi	r3,-8193
    292c:	10880014 	ori	r2,r2,8192
    2930:	20c6703a 	and	r3,r4,r3
    2934:	2880030d 	sth	r2,12(r5)
    2938:	28c01915 	stw	r3,100(r5)
    293c:	9009883a 	mov	r4,r18
    2940:	d80d883a 	mov	r6,sp
    2944:	000a2600 	call	a260 <__sfvwrite_r>
    2948:	10000b26 	beq	r2,zero,2978 <_fwrite_r+0xb4>
    294c:	d9000217 	ldw	r4,8(sp)
    2950:	a00b883a 	mov	r5,r20
    2954:	9909c83a 	sub	r4,r19,r4
    2958:	001088c0 	call	1088c <__udivsi3>
    295c:	dfc00a17 	ldw	ra,40(sp)
    2960:	dd000917 	ldw	r20,36(sp)
    2964:	dcc00817 	ldw	r19,32(sp)
    2968:	dc800717 	ldw	r18,28(sp)
    296c:	dc400617 	ldw	r17,24(sp)
    2970:	dec00b04 	addi	sp,sp,44
    2974:	f800283a 	ret
    2978:	8805883a 	mov	r2,r17
    297c:	003ff706 	br	295c <__alt_mem_cfi_flash+0xf600295c>
    2980:	d9400515 	stw	r5,20(sp)
    2984:	0009ca80 	call	9ca8 <__sinit>
    2988:	d9400517 	ldw	r5,20(sp)
    298c:	003fe206 	br	2918 <__alt_mem_cfi_flash+0xf6002918>

00002990 <fwrite>:
    2990:	00800174 	movhi	r2,5
    2994:	10907b04 	addi	r2,r2,16876
    2998:	2011883a 	mov	r8,r4
    299c:	11000017 	ldw	r4,0(r2)
    29a0:	defffe04 	addi	sp,sp,-8
    29a4:	2807883a 	mov	r3,r5
    29a8:	3005883a 	mov	r2,r6
    29ac:	d9c00015 	stw	r7,0(sp)
    29b0:	400b883a 	mov	r5,r8
    29b4:	180d883a 	mov	r6,r3
    29b8:	100f883a 	mov	r7,r2
    29bc:	dfc00115 	stw	ra,4(sp)
    29c0:	00028c40 	call	28c4 <_fwrite_r>
    29c4:	dfc00117 	ldw	ra,4(sp)
    29c8:	dec00204 	addi	sp,sp,8
    29cc:	f800283a 	ret

000029d0 <_getc_r>:
    29d0:	defffd04 	addi	sp,sp,-12
    29d4:	dc400115 	stw	r17,4(sp)
    29d8:	dc000015 	stw	r16,0(sp)
    29dc:	dfc00215 	stw	ra,8(sp)
    29e0:	2023883a 	mov	r17,r4
    29e4:	2821883a 	mov	r16,r5
    29e8:	20000226 	beq	r4,zero,29f4 <_getc_r+0x24>
    29ec:	20800e17 	ldw	r2,56(r4)
    29f0:	10001026 	beq	r2,zero,2a34 <_getc_r+0x64>
    29f4:	0009cb80 	call	9cb8 <__sfp_lock_acquire>
    29f8:	80800117 	ldw	r2,4(r16)
    29fc:	10bfffc4 	addi	r2,r2,-1
    2a00:	80800115 	stw	r2,4(r16)
    2a04:	10000d16 	blt	r2,zero,2a3c <_getc_r+0x6c>
    2a08:	80800017 	ldw	r2,0(r16)
    2a0c:	10c00044 	addi	r3,r2,1
    2a10:	80c00015 	stw	r3,0(r16)
    2a14:	14000003 	ldbu	r16,0(r2)
    2a18:	0009cbc0 	call	9cbc <__sfp_lock_release>
    2a1c:	8005883a 	mov	r2,r16
    2a20:	dfc00217 	ldw	ra,8(sp)
    2a24:	dc400117 	ldw	r17,4(sp)
    2a28:	dc000017 	ldw	r16,0(sp)
    2a2c:	dec00304 	addi	sp,sp,12
    2a30:	f800283a 	ret
    2a34:	0009ca80 	call	9ca8 <__sinit>
    2a38:	003fee06 	br	29f4 <__alt_mem_cfi_flash+0xf60029f4>
    2a3c:	800b883a 	mov	r5,r16
    2a40:	8809883a 	mov	r4,r17
    2a44:	000324c0 	call	324c <__srget_r>
    2a48:	1021883a 	mov	r16,r2
    2a4c:	003ff206 	br	2a18 <__alt_mem_cfi_flash+0xf6002a18>

00002a50 <getc>:
    2a50:	defffd04 	addi	sp,sp,-12
    2a54:	dc400115 	stw	r17,4(sp)
    2a58:	04400174 	movhi	r17,5
    2a5c:	8c507b04 	addi	r17,r17,16876
    2a60:	dc000015 	stw	r16,0(sp)
    2a64:	2021883a 	mov	r16,r4
    2a68:	89000017 	ldw	r4,0(r17)
    2a6c:	dfc00215 	stw	ra,8(sp)
    2a70:	20000226 	beq	r4,zero,2a7c <getc+0x2c>
    2a74:	20800e17 	ldw	r2,56(r4)
    2a78:	10001026 	beq	r2,zero,2abc <getc+0x6c>
    2a7c:	0009cb80 	call	9cb8 <__sfp_lock_acquire>
    2a80:	80800117 	ldw	r2,4(r16)
    2a84:	10bfffc4 	addi	r2,r2,-1
    2a88:	80800115 	stw	r2,4(r16)
    2a8c:	10000d16 	blt	r2,zero,2ac4 <getc+0x74>
    2a90:	80800017 	ldw	r2,0(r16)
    2a94:	10c00044 	addi	r3,r2,1
    2a98:	80c00015 	stw	r3,0(r16)
    2a9c:	14000003 	ldbu	r16,0(r2)
    2aa0:	0009cbc0 	call	9cbc <__sfp_lock_release>
    2aa4:	8005883a 	mov	r2,r16
    2aa8:	dfc00217 	ldw	ra,8(sp)
    2aac:	dc400117 	ldw	r17,4(sp)
    2ab0:	dc000017 	ldw	r16,0(sp)
    2ab4:	dec00304 	addi	sp,sp,12
    2ab8:	f800283a 	ret
    2abc:	0009ca80 	call	9ca8 <__sinit>
    2ac0:	003fee06 	br	2a7c <__alt_mem_cfi_flash+0xf6002a7c>
    2ac4:	89000017 	ldw	r4,0(r17)
    2ac8:	800b883a 	mov	r5,r16
    2acc:	000324c0 	call	324c <__srget_r>
    2ad0:	1021883a 	mov	r16,r2
    2ad4:	003ff206 	br	2aa0 <__alt_mem_cfi_flash+0xf6002aa0>

00002ad8 <memcpy>:
    2ad8:	deffff04 	addi	sp,sp,-4
    2adc:	dc000015 	stw	r16,0(sp)
    2ae0:	00c003c4 	movi	r3,15
    2ae4:	2005883a 	mov	r2,r4
    2ae8:	1980432e 	bgeu	r3,r6,2bf8 <memcpy+0x120>
    2aec:	2146b03a 	or	r3,r4,r5
    2af0:	18c000cc 	andi	r3,r3,3
    2af4:	1800421e 	bne	r3,zero,2c00 <memcpy+0x128>
    2af8:	343ffc04 	addi	r16,r6,-16
    2afc:	8020d13a 	srli	r16,r16,4
    2b00:	28c00104 	addi	r3,r5,4
    2b04:	23400104 	addi	r13,r4,4
    2b08:	801e913a 	slli	r15,r16,4
    2b0c:	2b000204 	addi	r12,r5,8
    2b10:	22c00204 	addi	r11,r4,8
    2b14:	7bc00504 	addi	r15,r15,20
    2b18:	2a800304 	addi	r10,r5,12
    2b1c:	22400304 	addi	r9,r4,12
    2b20:	2bdf883a 	add	r15,r5,r15
    2b24:	2811883a 	mov	r8,r5
    2b28:	200f883a 	mov	r7,r4
    2b2c:	41000017 	ldw	r4,0(r8)
    2b30:	39c00404 	addi	r7,r7,16
    2b34:	18c00404 	addi	r3,r3,16
    2b38:	393ffc15 	stw	r4,-16(r7)
    2b3c:	1bbffc17 	ldw	r14,-16(r3)
    2b40:	6b400404 	addi	r13,r13,16
    2b44:	5ac00404 	addi	r11,r11,16
    2b48:	6bbffc15 	stw	r14,-16(r13)
    2b4c:	63800017 	ldw	r14,0(r12)
    2b50:	4a400404 	addi	r9,r9,16
    2b54:	42000404 	addi	r8,r8,16
    2b58:	5bbffc15 	stw	r14,-16(r11)
    2b5c:	53800017 	ldw	r14,0(r10)
    2b60:	63000404 	addi	r12,r12,16
    2b64:	52800404 	addi	r10,r10,16
    2b68:	4bbffc15 	stw	r14,-16(r9)
    2b6c:	1bffef1e 	bne	r3,r15,2b2c <__alt_mem_cfi_flash+0xf6002b2c>
    2b70:	81c00044 	addi	r7,r16,1
    2b74:	380e913a 	slli	r7,r7,4
    2b78:	310003cc 	andi	r4,r6,15
    2b7c:	02c000c4 	movi	r11,3
    2b80:	11c7883a 	add	r3,r2,r7
    2b84:	29cb883a 	add	r5,r5,r7
    2b88:	59001f2e 	bgeu	r11,r4,2c08 <memcpy+0x130>
    2b8c:	1813883a 	mov	r9,r3
    2b90:	2811883a 	mov	r8,r5
    2b94:	200f883a 	mov	r7,r4
    2b98:	42800017 	ldw	r10,0(r8)
    2b9c:	4a400104 	addi	r9,r9,4
    2ba0:	39ffff04 	addi	r7,r7,-4
    2ba4:	4abfff15 	stw	r10,-4(r9)
    2ba8:	42000104 	addi	r8,r8,4
    2bac:	59fffa36 	bltu	r11,r7,2b98 <__alt_mem_cfi_flash+0xf6002b98>
    2bb0:	213fff04 	addi	r4,r4,-4
    2bb4:	2008d0ba 	srli	r4,r4,2
    2bb8:	318000cc 	andi	r6,r6,3
    2bbc:	21000044 	addi	r4,r4,1
    2bc0:	2109883a 	add	r4,r4,r4
    2bc4:	2109883a 	add	r4,r4,r4
    2bc8:	1907883a 	add	r3,r3,r4
    2bcc:	290b883a 	add	r5,r5,r4
    2bd0:	30000626 	beq	r6,zero,2bec <memcpy+0x114>
    2bd4:	198d883a 	add	r6,r3,r6
    2bd8:	29c00003 	ldbu	r7,0(r5)
    2bdc:	18c00044 	addi	r3,r3,1
    2be0:	29400044 	addi	r5,r5,1
    2be4:	19ffffc5 	stb	r7,-1(r3)
    2be8:	19bffb1e 	bne	r3,r6,2bd8 <__alt_mem_cfi_flash+0xf6002bd8>
    2bec:	dc000017 	ldw	r16,0(sp)
    2bf0:	dec00104 	addi	sp,sp,4
    2bf4:	f800283a 	ret
    2bf8:	2007883a 	mov	r3,r4
    2bfc:	003ff406 	br	2bd0 <__alt_mem_cfi_flash+0xf6002bd0>
    2c00:	2007883a 	mov	r3,r4
    2c04:	003ff306 	br	2bd4 <__alt_mem_cfi_flash+0xf6002bd4>
    2c08:	200d883a 	mov	r6,r4
    2c0c:	003ff006 	br	2bd0 <__alt_mem_cfi_flash+0xf6002bd0>

00002c10 <memmove>:
    2c10:	2005883a 	mov	r2,r4
    2c14:	29000b2e 	bgeu	r5,r4,2c44 <memmove+0x34>
    2c18:	298f883a 	add	r7,r5,r6
    2c1c:	21c0092e 	bgeu	r4,r7,2c44 <memmove+0x34>
    2c20:	2187883a 	add	r3,r4,r6
    2c24:	198bc83a 	sub	r5,r3,r6
    2c28:	30004b26 	beq	r6,zero,2d58 <memmove+0x148>
    2c2c:	39ffffc4 	addi	r7,r7,-1
    2c30:	39000003 	ldbu	r4,0(r7)
    2c34:	18ffffc4 	addi	r3,r3,-1
    2c38:	19000005 	stb	r4,0(r3)
    2c3c:	197ffb1e 	bne	r3,r5,2c2c <__alt_mem_cfi_flash+0xf6002c2c>
    2c40:	f800283a 	ret
    2c44:	00c003c4 	movi	r3,15
    2c48:	1980412e 	bgeu	r3,r6,2d50 <memmove+0x140>
    2c4c:	1146b03a 	or	r3,r2,r5
    2c50:	18c000cc 	andi	r3,r3,3
    2c54:	1800411e 	bne	r3,zero,2d5c <memmove+0x14c>
    2c58:	33fffc04 	addi	r15,r6,-16
    2c5c:	781ed13a 	srli	r15,r15,4
    2c60:	28c00104 	addi	r3,r5,4
    2c64:	13400104 	addi	r13,r2,4
    2c68:	781c913a 	slli	r14,r15,4
    2c6c:	2b000204 	addi	r12,r5,8
    2c70:	12c00204 	addi	r11,r2,8
    2c74:	73800504 	addi	r14,r14,20
    2c78:	2a800304 	addi	r10,r5,12
    2c7c:	12400304 	addi	r9,r2,12
    2c80:	2b9d883a 	add	r14,r5,r14
    2c84:	2811883a 	mov	r8,r5
    2c88:	100f883a 	mov	r7,r2
    2c8c:	41000017 	ldw	r4,0(r8)
    2c90:	39c00404 	addi	r7,r7,16
    2c94:	18c00404 	addi	r3,r3,16
    2c98:	393ffc15 	stw	r4,-16(r7)
    2c9c:	193ffc17 	ldw	r4,-16(r3)
    2ca0:	6b400404 	addi	r13,r13,16
    2ca4:	5ac00404 	addi	r11,r11,16
    2ca8:	693ffc15 	stw	r4,-16(r13)
    2cac:	61000017 	ldw	r4,0(r12)
    2cb0:	4a400404 	addi	r9,r9,16
    2cb4:	42000404 	addi	r8,r8,16
    2cb8:	593ffc15 	stw	r4,-16(r11)
    2cbc:	51000017 	ldw	r4,0(r10)
    2cc0:	63000404 	addi	r12,r12,16
    2cc4:	52800404 	addi	r10,r10,16
    2cc8:	493ffc15 	stw	r4,-16(r9)
    2ccc:	1bbfef1e 	bne	r3,r14,2c8c <__alt_mem_cfi_flash+0xf6002c8c>
    2cd0:	79000044 	addi	r4,r15,1
    2cd4:	2008913a 	slli	r4,r4,4
    2cd8:	328003cc 	andi	r10,r6,15
    2cdc:	02c000c4 	movi	r11,3
    2ce0:	1107883a 	add	r3,r2,r4
    2ce4:	290b883a 	add	r5,r5,r4
    2ce8:	5a801e2e 	bgeu	r11,r10,2d64 <memmove+0x154>
    2cec:	1813883a 	mov	r9,r3
    2cf0:	2811883a 	mov	r8,r5
    2cf4:	500f883a 	mov	r7,r10
    2cf8:	41000017 	ldw	r4,0(r8)
    2cfc:	4a400104 	addi	r9,r9,4
    2d00:	39ffff04 	addi	r7,r7,-4
    2d04:	493fff15 	stw	r4,-4(r9)
    2d08:	42000104 	addi	r8,r8,4
    2d0c:	59fffa36 	bltu	r11,r7,2cf8 <__alt_mem_cfi_flash+0xf6002cf8>
    2d10:	513fff04 	addi	r4,r10,-4
    2d14:	2008d0ba 	srli	r4,r4,2
    2d18:	318000cc 	andi	r6,r6,3
    2d1c:	21000044 	addi	r4,r4,1
    2d20:	2109883a 	add	r4,r4,r4
    2d24:	2109883a 	add	r4,r4,r4
    2d28:	1907883a 	add	r3,r3,r4
    2d2c:	290b883a 	add	r5,r5,r4
    2d30:	30000926 	beq	r6,zero,2d58 <memmove+0x148>
    2d34:	198d883a 	add	r6,r3,r6
    2d38:	29c00003 	ldbu	r7,0(r5)
    2d3c:	18c00044 	addi	r3,r3,1
    2d40:	29400044 	addi	r5,r5,1
    2d44:	19ffffc5 	stb	r7,-1(r3)
    2d48:	19bffb1e 	bne	r3,r6,2d38 <__alt_mem_cfi_flash+0xf6002d38>
    2d4c:	f800283a 	ret
    2d50:	1007883a 	mov	r3,r2
    2d54:	003ff606 	br	2d30 <__alt_mem_cfi_flash+0xf6002d30>
    2d58:	f800283a 	ret
    2d5c:	1007883a 	mov	r3,r2
    2d60:	003ff406 	br	2d34 <__alt_mem_cfi_flash+0xf6002d34>
    2d64:	500d883a 	mov	r6,r10
    2d68:	003ff106 	br	2d30 <__alt_mem_cfi_flash+0xf6002d30>

00002d6c <memset>:
    2d6c:	20c000cc 	andi	r3,r4,3
    2d70:	2005883a 	mov	r2,r4
    2d74:	18004326 	beq	r3,zero,2e84 <memset+0x118>
    2d78:	31ffffc4 	addi	r7,r6,-1
    2d7c:	30004026 	beq	r6,zero,2e80 <memset+0x114>
    2d80:	2813883a 	mov	r9,r5
    2d84:	200d883a 	mov	r6,r4
    2d88:	2007883a 	mov	r3,r4
    2d8c:	00000406 	br	2da0 <memset+0x34>
    2d90:	3a3fffc4 	addi	r8,r7,-1
    2d94:	31800044 	addi	r6,r6,1
    2d98:	38003926 	beq	r7,zero,2e80 <memset+0x114>
    2d9c:	400f883a 	mov	r7,r8
    2da0:	18c00044 	addi	r3,r3,1
    2da4:	32400005 	stb	r9,0(r6)
    2da8:	1a0000cc 	andi	r8,r3,3
    2dac:	403ff81e 	bne	r8,zero,2d90 <__alt_mem_cfi_flash+0xf6002d90>
    2db0:	010000c4 	movi	r4,3
    2db4:	21c02d2e 	bgeu	r4,r7,2e6c <memset+0x100>
    2db8:	29803fcc 	andi	r6,r5,255
    2dbc:	3008923a 	slli	r4,r6,8
    2dc0:	218cb03a 	or	r6,r4,r6
    2dc4:	3008943a 	slli	r4,r6,16
    2dc8:	218cb03a 	or	r6,r4,r6
    2dcc:	010003c4 	movi	r4,15
    2dd0:	21c0182e 	bgeu	r4,r7,2e34 <memset+0xc8>
    2dd4:	3b3ffc04 	addi	r12,r7,-16
    2dd8:	6018d13a 	srli	r12,r12,4
    2ddc:	1a000104 	addi	r8,r3,4
    2de0:	1ac00204 	addi	r11,r3,8
    2de4:	6008913a 	slli	r4,r12,4
    2de8:	1a800304 	addi	r10,r3,12
    2dec:	1813883a 	mov	r9,r3
    2df0:	21000504 	addi	r4,r4,20
    2df4:	1909883a 	add	r4,r3,r4
    2df8:	49800015 	stw	r6,0(r9)
    2dfc:	41800015 	stw	r6,0(r8)
    2e00:	59800015 	stw	r6,0(r11)
    2e04:	51800015 	stw	r6,0(r10)
    2e08:	42000404 	addi	r8,r8,16
    2e0c:	4a400404 	addi	r9,r9,16
    2e10:	5ac00404 	addi	r11,r11,16
    2e14:	52800404 	addi	r10,r10,16
    2e18:	413ff71e 	bne	r8,r4,2df8 <__alt_mem_cfi_flash+0xf6002df8>
    2e1c:	63000044 	addi	r12,r12,1
    2e20:	6018913a 	slli	r12,r12,4
    2e24:	39c003cc 	andi	r7,r7,15
    2e28:	010000c4 	movi	r4,3
    2e2c:	1b07883a 	add	r3,r3,r12
    2e30:	21c00e2e 	bgeu	r4,r7,2e6c <memset+0x100>
    2e34:	1813883a 	mov	r9,r3
    2e38:	3811883a 	mov	r8,r7
    2e3c:	010000c4 	movi	r4,3
    2e40:	49800015 	stw	r6,0(r9)
    2e44:	423fff04 	addi	r8,r8,-4
    2e48:	4a400104 	addi	r9,r9,4
    2e4c:	223ffc36 	bltu	r4,r8,2e40 <__alt_mem_cfi_flash+0xf6002e40>
    2e50:	393fff04 	addi	r4,r7,-4
    2e54:	2008d0ba 	srli	r4,r4,2
    2e58:	39c000cc 	andi	r7,r7,3
    2e5c:	21000044 	addi	r4,r4,1
    2e60:	2109883a 	add	r4,r4,r4
    2e64:	2109883a 	add	r4,r4,r4
    2e68:	1907883a 	add	r3,r3,r4
    2e6c:	38000426 	beq	r7,zero,2e80 <memset+0x114>
    2e70:	19cf883a 	add	r7,r3,r7
    2e74:	19400005 	stb	r5,0(r3)
    2e78:	18c00044 	addi	r3,r3,1
    2e7c:	19fffd1e 	bne	r3,r7,2e74 <__alt_mem_cfi_flash+0xf6002e74>
    2e80:	f800283a 	ret
    2e84:	2007883a 	mov	r3,r4
    2e88:	300f883a 	mov	r7,r6
    2e8c:	003fc806 	br	2db0 <__alt_mem_cfi_flash+0xf6002db0>

00002e90 <_perror_r>:
    2e90:	defffe04 	addi	sp,sp,-8
    2e94:	dc000015 	stw	r16,0(sp)
    2e98:	dfc00115 	stw	ra,4(sp)
    2e9c:	2805883a 	mov	r2,r5
    2ea0:	2021883a 	mov	r16,r4
    2ea4:	28000226 	beq	r5,zero,2eb0 <_perror_r+0x20>
    2ea8:	28c00007 	ldb	r3,0(r5)
    2eac:	18000c1e 	bne	r3,zero,2ee0 <_perror_r+0x50>
    2eb0:	81000017 	ldw	r4,0(r16)
    2eb4:	00034fc0 	call	34fc <strerror>
    2eb8:	10000326 	beq	r2,zero,2ec8 <_perror_r+0x38>
    2ebc:	81400317 	ldw	r5,12(r16)
    2ec0:	1009883a 	mov	r4,r2
    2ec4:	0009e300 	call	9e30 <fputs>
    2ec8:	81400317 	ldw	r5,12(r16)
    2ecc:	01000284 	movi	r4,10
    2ed0:	dfc00117 	ldw	ra,4(sp)
    2ed4:	dc000017 	ldw	r16,0(sp)
    2ed8:	dec00204 	addi	sp,sp,8
    2edc:	0009d3c1 	jmpi	9d3c <fputc>
    2ee0:	21400317 	ldw	r5,12(r4)
    2ee4:	1009883a 	mov	r4,r2
    2ee8:	0009e300 	call	9e30 <fputs>
    2eec:	81400317 	ldw	r5,12(r16)
    2ef0:	01000174 	movhi	r4,5
    2ef4:	2135ce04 	addi	r4,r4,-10440
    2ef8:	0009e300 	call	9e30 <fputs>
    2efc:	003fec06 	br	2eb0 <__alt_mem_cfi_flash+0xf6002eb0>

00002f00 <perror>:
    2f00:	00800174 	movhi	r2,5
    2f04:	10907b04 	addi	r2,r2,16876
    2f08:	200b883a 	mov	r5,r4
    2f0c:	11000017 	ldw	r4,0(r2)
    2f10:	0002e901 	jmpi	2e90 <_perror_r>

00002f14 <_printf_r>:
    2f14:	defffd04 	addi	sp,sp,-12
    2f18:	dfc00015 	stw	ra,0(sp)
    2f1c:	d9800115 	stw	r6,4(sp)
    2f20:	d9c00215 	stw	r7,8(sp)
    2f24:	280d883a 	mov	r6,r5
    2f28:	21400217 	ldw	r5,8(r4)
    2f2c:	d9c00104 	addi	r7,sp,4
    2f30:	0005b180 	call	5b18 <___vfprintf_internal_r>
    2f34:	dfc00017 	ldw	ra,0(sp)
    2f38:	dec00304 	addi	sp,sp,12
    2f3c:	f800283a 	ret

00002f40 <printf>:
    2f40:	defffc04 	addi	sp,sp,-16
    2f44:	dfc00015 	stw	ra,0(sp)
    2f48:	d9400115 	stw	r5,4(sp)
    2f4c:	d9800215 	stw	r6,8(sp)
    2f50:	d9c00315 	stw	r7,12(sp)
    2f54:	00800174 	movhi	r2,5
    2f58:	10907b04 	addi	r2,r2,16876
    2f5c:	10800017 	ldw	r2,0(r2)
    2f60:	200b883a 	mov	r5,r4
    2f64:	d9800104 	addi	r6,sp,4
    2f68:	11000217 	ldw	r4,8(r2)
    2f6c:	0007b140 	call	7b14 <__vfprintf_internal>
    2f70:	dfc00017 	ldw	ra,0(sp)
    2f74:	dec00404 	addi	sp,sp,16
    2f78:	f800283a 	ret

00002f7c <_putc_r>:
    2f7c:	defffc04 	addi	sp,sp,-16
    2f80:	dc000215 	stw	r16,8(sp)
    2f84:	dfc00315 	stw	ra,12(sp)
    2f88:	2021883a 	mov	r16,r4
    2f8c:	20000226 	beq	r4,zero,2f98 <_putc_r+0x1c>
    2f90:	20800e17 	ldw	r2,56(r4)
    2f94:	10001b26 	beq	r2,zero,3004 <_putc_r+0x88>
    2f98:	30800217 	ldw	r2,8(r6)
    2f9c:	10bfffc4 	addi	r2,r2,-1
    2fa0:	30800215 	stw	r2,8(r6)
    2fa4:	10000a16 	blt	r2,zero,2fd0 <_putc_r+0x54>
    2fa8:	30800017 	ldw	r2,0(r6)
    2fac:	11400005 	stb	r5,0(r2)
    2fb0:	30800017 	ldw	r2,0(r6)
    2fb4:	10c00044 	addi	r3,r2,1
    2fb8:	30c00015 	stw	r3,0(r6)
    2fbc:	10800003 	ldbu	r2,0(r2)
    2fc0:	dfc00317 	ldw	ra,12(sp)
    2fc4:	dc000217 	ldw	r16,8(sp)
    2fc8:	dec00404 	addi	sp,sp,16
    2fcc:	f800283a 	ret
    2fd0:	30c00617 	ldw	r3,24(r6)
    2fd4:	10c00616 	blt	r2,r3,2ff0 <_putc_r+0x74>
    2fd8:	30800017 	ldw	r2,0(r6)
    2fdc:	00c00284 	movi	r3,10
    2fe0:	11400005 	stb	r5,0(r2)
    2fe4:	30800017 	ldw	r2,0(r6)
    2fe8:	11400003 	ldbu	r5,0(r2)
    2fec:	28fff11e 	bne	r5,r3,2fb4 <__alt_mem_cfi_flash+0xf6002fb4>
    2ff0:	8009883a 	mov	r4,r16
    2ff4:	dfc00317 	ldw	ra,12(sp)
    2ff8:	dc000217 	ldw	r16,8(sp)
    2ffc:	dec00404 	addi	sp,sp,16
    3000:	0007b381 	jmpi	7b38 <__swbuf_r>
    3004:	d9400015 	stw	r5,0(sp)
    3008:	d9800115 	stw	r6,4(sp)
    300c:	0009ca80 	call	9ca8 <__sinit>
    3010:	d9800117 	ldw	r6,4(sp)
    3014:	d9400017 	ldw	r5,0(sp)
    3018:	003fdf06 	br	2f98 <__alt_mem_cfi_flash+0xf6002f98>

0000301c <putc>:
    301c:	defffc04 	addi	sp,sp,-16
    3020:	dc400115 	stw	r17,4(sp)
    3024:	04400174 	movhi	r17,5
    3028:	8c507b04 	addi	r17,r17,16876
    302c:	dc800215 	stw	r18,8(sp)
    3030:	2025883a 	mov	r18,r4
    3034:	89000017 	ldw	r4,0(r17)
    3038:	dc000015 	stw	r16,0(sp)
    303c:	dfc00315 	stw	ra,12(sp)
    3040:	2821883a 	mov	r16,r5
    3044:	20000226 	beq	r4,zero,3050 <putc+0x34>
    3048:	20c00e17 	ldw	r3,56(r4)
    304c:	18001a26 	beq	r3,zero,30b8 <putc+0x9c>
    3050:	80800217 	ldw	r2,8(r16)
    3054:	10bfffc4 	addi	r2,r2,-1
    3058:	80800215 	stw	r2,8(r16)
    305c:	10000c16 	blt	r2,zero,3090 <putc+0x74>
    3060:	80800017 	ldw	r2,0(r16)
    3064:	14800005 	stb	r18,0(r2)
    3068:	80800017 	ldw	r2,0(r16)
    306c:	10c00044 	addi	r3,r2,1
    3070:	80c00015 	stw	r3,0(r16)
    3074:	10800003 	ldbu	r2,0(r2)
    3078:	dfc00317 	ldw	ra,12(sp)
    307c:	dc800217 	ldw	r18,8(sp)
    3080:	dc400117 	ldw	r17,4(sp)
    3084:	dc000017 	ldw	r16,0(sp)
    3088:	dec00404 	addi	sp,sp,16
    308c:	f800283a 	ret
    3090:	80c00617 	ldw	r3,24(r16)
    3094:	10c00a16 	blt	r2,r3,30c0 <putc+0xa4>
    3098:	80800017 	ldw	r2,0(r16)
    309c:	00c00284 	movi	r3,10
    30a0:	14800005 	stb	r18,0(r2)
    30a4:	80800017 	ldw	r2,0(r16)
    30a8:	11400003 	ldbu	r5,0(r2)
    30ac:	28ffef1e 	bne	r5,r3,306c <__alt_mem_cfi_flash+0xf600306c>
    30b0:	89000017 	ldw	r4,0(r17)
    30b4:	00000406 	br	30c8 <putc+0xac>
    30b8:	0009ca80 	call	9ca8 <__sinit>
    30bc:	003fe406 	br	3050 <__alt_mem_cfi_flash+0xf6003050>
    30c0:	89000017 	ldw	r4,0(r17)
    30c4:	900b883a 	mov	r5,r18
    30c8:	800d883a 	mov	r6,r16
    30cc:	dfc00317 	ldw	ra,12(sp)
    30d0:	dc800217 	ldw	r18,8(sp)
    30d4:	dc400117 	ldw	r17,4(sp)
    30d8:	dc000017 	ldw	r16,0(sp)
    30dc:	dec00404 	addi	sp,sp,16
    30e0:	0007b381 	jmpi	7b38 <__swbuf_r>

000030e4 <_putchar_r>:
    30e4:	21800217 	ldw	r6,8(r4)
    30e8:	0002f7c1 	jmpi	2f7c <_putc_r>

000030ec <putchar>:
    30ec:	00800174 	movhi	r2,5
    30f0:	10907b04 	addi	r2,r2,16876
    30f4:	200b883a 	mov	r5,r4
    30f8:	11000017 	ldw	r4,0(r2)
    30fc:	21800217 	ldw	r6,8(r4)
    3100:	0002f7c1 	jmpi	2f7c <_putc_r>

00003104 <_puts_r>:
    3104:	defff604 	addi	sp,sp,-40
    3108:	dc000715 	stw	r16,28(sp)
    310c:	2021883a 	mov	r16,r4
    3110:	2809883a 	mov	r4,r5
    3114:	dc400815 	stw	r17,32(sp)
    3118:	dfc00915 	stw	ra,36(sp)
    311c:	2823883a 	mov	r17,r5
    3120:	0003ae80 	call	3ae8 <strlen>
    3124:	00c00174 	movhi	r3,5
    3128:	18d07b04 	addi	r3,r3,16876
    312c:	18c00017 	ldw	r3,0(r3)
    3130:	11000044 	addi	r4,r2,1
    3134:	d8800115 	stw	r2,4(sp)
    3138:	18c00217 	ldw	r3,8(r3)
    313c:	01400174 	movhi	r5,5
    3140:	2975cf04 	addi	r5,r5,-10436
    3144:	1880030b 	ldhu	r2,12(r3)
    3148:	d9400215 	stw	r5,8(sp)
    314c:	d9000615 	stw	r4,24(sp)
    3150:	01400044 	movi	r5,1
    3154:	01000084 	movi	r4,2
    3158:	d9000515 	stw	r4,20(sp)
    315c:	dc400015 	stw	r17,0(sp)
    3160:	d9400315 	stw	r5,12(sp)
    3164:	dec00415 	stw	sp,16(sp)
    3168:	1108000c 	andi	r4,r2,8192
    316c:	2000061e 	bne	r4,zero,3188 <_puts_r+0x84>
    3170:	19401917 	ldw	r5,100(r3)
    3174:	0137ffc4 	movi	r4,-8193
    3178:	10880014 	ori	r2,r2,8192
    317c:	2908703a 	and	r4,r5,r4
    3180:	1880030d 	sth	r2,12(r3)
    3184:	19001915 	stw	r4,100(r3)
    3188:	81400217 	ldw	r5,8(r16)
    318c:	8009883a 	mov	r4,r16
    3190:	d9800404 	addi	r6,sp,16
    3194:	000a2600 	call	a260 <__sfvwrite_r>
    3198:	1000061e 	bne	r2,zero,31b4 <_puts_r+0xb0>
    319c:	00800284 	movi	r2,10
    31a0:	dfc00917 	ldw	ra,36(sp)
    31a4:	dc400817 	ldw	r17,32(sp)
    31a8:	dc000717 	ldw	r16,28(sp)
    31ac:	dec00a04 	addi	sp,sp,40
    31b0:	f800283a 	ret
    31b4:	00bfffc4 	movi	r2,-1
    31b8:	003ff906 	br	31a0 <__alt_mem_cfi_flash+0xf60031a0>

000031bc <puts>:
    31bc:	00800174 	movhi	r2,5
    31c0:	10907b04 	addi	r2,r2,16876
    31c4:	200b883a 	mov	r5,r4
    31c8:	11000017 	ldw	r4,0(r2)
    31cc:	00031041 	jmpi	3104 <_puts_r>

000031d0 <srand>:
    31d0:	00800174 	movhi	r2,5
    31d4:	10907b04 	addi	r2,r2,16876
    31d8:	10800017 	ldw	r2,0(r2)
    31dc:	11002915 	stw	r4,164(r2)
    31e0:	10002a15 	stw	zero,168(r2)
    31e4:	f800283a 	ret

000031e8 <rand>:
    31e8:	00800174 	movhi	r2,5
    31ec:	defffe04 	addi	sp,sp,-8
    31f0:	10907b04 	addi	r2,r2,16876
    31f4:	dc000015 	stw	r16,0(sp)
    31f8:	14000017 	ldw	r16,0(r2)
    31fc:	dfc00115 	stw	ra,4(sp)
    3200:	01932574 	movhi	r6,19605
    3204:	81002917 	ldw	r4,164(r16)
    3208:	81402a17 	ldw	r5,168(r16)
    320c:	01d614b4 	movhi	r7,22610
    3210:	319fcb44 	addi	r6,r6,32557
    3214:	39fd0b44 	addi	r7,r7,-3027
    3218:	000fbc00 	call	fbc0 <__muldi3>
    321c:	11000044 	addi	r4,r2,1
    3220:	2085803a 	cmpltu	r2,r4,r2
    3224:	10c7883a 	add	r3,r2,r3
    3228:	00a00034 	movhi	r2,32768
    322c:	10bfffc4 	addi	r2,r2,-1
    3230:	1884703a 	and	r2,r3,r2
    3234:	81002915 	stw	r4,164(r16)
    3238:	80c02a15 	stw	r3,168(r16)
    323c:	dfc00117 	ldw	ra,4(sp)
    3240:	dc000017 	ldw	r16,0(sp)
    3244:	dec00204 	addi	sp,sp,8
    3248:	f800283a 	ret

0000324c <__srget_r>:
    324c:	defffd04 	addi	sp,sp,-12
    3250:	dc400115 	stw	r17,4(sp)
    3254:	dc000015 	stw	r16,0(sp)
    3258:	dfc00215 	stw	ra,8(sp)
    325c:	2023883a 	mov	r17,r4
    3260:	2821883a 	mov	r16,r5
    3264:	20000226 	beq	r4,zero,3270 <__srget_r+0x24>
    3268:	20800e17 	ldw	r2,56(r4)
    326c:	10001026 	beq	r2,zero,32b0 <__srget_r+0x64>
    3270:	8809883a 	mov	r4,r17
    3274:	800b883a 	mov	r5,r16
    3278:	000c8e40 	call	c8e4 <__srefill_r>
    327c:	10000e1e 	bne	r2,zero,32b8 <__srget_r+0x6c>
    3280:	80c00017 	ldw	r3,0(r16)
    3284:	80800117 	ldw	r2,4(r16)
    3288:	19000044 	addi	r4,r3,1
    328c:	10bfffc4 	addi	r2,r2,-1
    3290:	80800115 	stw	r2,4(r16)
    3294:	81000015 	stw	r4,0(r16)
    3298:	18800003 	ldbu	r2,0(r3)
    329c:	dfc00217 	ldw	ra,8(sp)
    32a0:	dc400117 	ldw	r17,4(sp)
    32a4:	dc000017 	ldw	r16,0(sp)
    32a8:	dec00304 	addi	sp,sp,12
    32ac:	f800283a 	ret
    32b0:	0009ca80 	call	9ca8 <__sinit>
    32b4:	003fee06 	br	3270 <__alt_mem_cfi_flash+0xf6003270>
    32b8:	00bfffc4 	movi	r2,-1
    32bc:	003ff706 	br	329c <__alt_mem_cfi_flash+0xf600329c>

000032c0 <__srget>:
    32c0:	00800174 	movhi	r2,5
    32c4:	10907b04 	addi	r2,r2,16876
    32c8:	200b883a 	mov	r5,r4
    32cc:	11000017 	ldw	r4,0(r2)
    32d0:	000324c1 	jmpi	324c <__srget_r>

000032d4 <_sprintf_r>:
    32d4:	deffe404 	addi	sp,sp,-112
    32d8:	2807883a 	mov	r3,r5
    32dc:	dfc01a15 	stw	ra,104(sp)
    32e0:	d9c01b15 	stw	r7,108(sp)
    32e4:	00a00034 	movhi	r2,32768
    32e8:	10bfffc4 	addi	r2,r2,-1
    32ec:	02008204 	movi	r8,520
    32f0:	d8800215 	stw	r2,8(sp)
    32f4:	d8800515 	stw	r2,20(sp)
    32f8:	d80b883a 	mov	r5,sp
    32fc:	d9c01b04 	addi	r7,sp,108
    3300:	00bfffc4 	movi	r2,-1
    3304:	d8c00015 	stw	r3,0(sp)
    3308:	d8c00415 	stw	r3,16(sp)
    330c:	da00030d 	sth	r8,12(sp)
    3310:	d880038d 	sth	r2,14(sp)
    3314:	0003b800 	call	3b80 <___svfprintf_internal_r>
    3318:	d8c00017 	ldw	r3,0(sp)
    331c:	18000005 	stb	zero,0(r3)
    3320:	dfc01a17 	ldw	ra,104(sp)
    3324:	dec01c04 	addi	sp,sp,112
    3328:	f800283a 	ret

0000332c <sprintf>:
    332c:	deffe304 	addi	sp,sp,-116
    3330:	2007883a 	mov	r3,r4
    3334:	dfc01a15 	stw	ra,104(sp)
    3338:	d9801b15 	stw	r6,108(sp)
    333c:	d9c01c15 	stw	r7,112(sp)
    3340:	01000174 	movhi	r4,5
    3344:	21107b04 	addi	r4,r4,16876
    3348:	21000017 	ldw	r4,0(r4)
    334c:	00a00034 	movhi	r2,32768
    3350:	10bfffc4 	addi	r2,r2,-1
    3354:	280d883a 	mov	r6,r5
    3358:	02008204 	movi	r8,520
    335c:	d8800215 	stw	r2,8(sp)
    3360:	d8800515 	stw	r2,20(sp)
    3364:	d80b883a 	mov	r5,sp
    3368:	d9c01b04 	addi	r7,sp,108
    336c:	00bfffc4 	movi	r2,-1
    3370:	d8c00015 	stw	r3,0(sp)
    3374:	d8c00415 	stw	r3,16(sp)
    3378:	da00030d 	sth	r8,12(sp)
    337c:	d880038d 	sth	r2,14(sp)
    3380:	0003b800 	call	3b80 <___svfprintf_internal_r>
    3384:	d8c00017 	ldw	r3,0(sp)
    3388:	18000005 	stb	zero,0(r3)
    338c:	dfc01a17 	ldw	ra,104(sp)
    3390:	dec01d04 	addi	sp,sp,116
    3394:	f800283a 	ret

00003398 <strchr>:
    3398:	2ac03fcc 	andi	r11,r5,255
    339c:	2815883a 	mov	r10,r5
    33a0:	208000cc 	andi	r2,r4,3
    33a4:	58003726 	beq	r11,zero,3484 <strchr+0xec>
    33a8:	10000b26 	beq	r2,zero,33d8 <strchr+0x40>
    33ac:	20800003 	ldbu	r2,0(r4)
    33b0:	10003226 	beq	r2,zero,347c <strchr+0xe4>
    33b4:	28c03fcc 	andi	r3,r5,255
    33b8:	5880041e 	bne	r11,r2,33cc <strchr+0x34>
    33bc:	00004d06 	br	34f4 <strchr+0x15c>
    33c0:	20800003 	ldbu	r2,0(r4)
    33c4:	10002d26 	beq	r2,zero,347c <strchr+0xe4>
    33c8:	18804a26 	beq	r3,r2,34f4 <strchr+0x15c>
    33cc:	21000044 	addi	r4,r4,1
    33d0:	208000cc 	andi	r2,r4,3
    33d4:	103ffa1e 	bne	r2,zero,33c0 <__alt_mem_cfi_flash+0xf60033c0>
    33d8:	29403fcc 	andi	r5,r5,255
    33dc:	280e923a 	slli	r7,r5,8
    33e0:	20800017 	ldw	r2,0(r4)
    33e4:	01bfbff4 	movhi	r6,65279
    33e8:	394ab03a 	or	r5,r7,r5
    33ec:	280e943a 	slli	r7,r5,16
    33f0:	31bfbfc4 	addi	r6,r6,-257
    33f4:	0090303a 	nor	r8,zero,r2
    33f8:	394eb03a 	or	r7,r7,r5
    33fc:	1187883a 	add	r3,r2,r6
    3400:	11c4f03a 	xor	r2,r2,r7
    3404:	008a303a 	nor	r5,zero,r2
    3408:	1185883a 	add	r2,r2,r6
    340c:	03202074 	movhi	r12,32897
    3410:	2884703a 	and	r2,r5,r2
    3414:	40c6703a 	and	r3,r8,r3
    3418:	63202004 	addi	r12,r12,-32640
    341c:	10c4b03a 	or	r2,r2,r3
    3420:	1304703a 	and	r2,r2,r12
    3424:	10000c1e 	bne	r2,zero,3458 <strchr+0xc0>
    3428:	21000104 	addi	r4,r4,4
    342c:	20800017 	ldw	r2,0(r4)
    3430:	3886f03a 	xor	r3,r7,r2
    3434:	00d2303a 	nor	r9,zero,r3
    3438:	198b883a 	add	r5,r3,r6
    343c:	0090303a 	nor	r8,zero,r2
    3440:	1187883a 	add	r3,r2,r6
    3444:	494a703a 	and	r5,r9,r5
    3448:	40c4703a 	and	r2,r8,r3
    344c:	2884b03a 	or	r2,r5,r2
    3450:	1304703a 	and	r2,r2,r12
    3454:	103ff426 	beq	r2,zero,3428 <__alt_mem_cfi_flash+0xf6003428>
    3458:	20800003 	ldbu	r2,0(r4)
    345c:	10000726 	beq	r2,zero,347c <strchr+0xe4>
    3460:	58802426 	beq	r11,r2,34f4 <strchr+0x15c>
    3464:	50c03fcc 	andi	r3,r10,255
    3468:	00000106 	br	3470 <strchr+0xd8>
    346c:	18802126 	beq	r3,r2,34f4 <strchr+0x15c>
    3470:	21000044 	addi	r4,r4,1
    3474:	20800003 	ldbu	r2,0(r4)
    3478:	103ffc1e 	bne	r2,zero,346c <__alt_mem_cfi_flash+0xf600346c>
    347c:	0005883a 	mov	r2,zero
    3480:	f800283a 	ret
    3484:	10000526 	beq	r2,zero,349c <strchr+0x104>
    3488:	20800003 	ldbu	r2,0(r4)
    348c:	10001926 	beq	r2,zero,34f4 <strchr+0x15c>
    3490:	21000044 	addi	r4,r4,1
    3494:	208000cc 	andi	r2,r4,3
    3498:	103ffb1e 	bne	r2,zero,3488 <__alt_mem_cfi_flash+0xf6003488>
    349c:	20800017 	ldw	r2,0(r4)
    34a0:	01bfbff4 	movhi	r6,65279
    34a4:	31bfbfc4 	addi	r6,r6,-257
    34a8:	0086303a 	nor	r3,zero,r2
    34ac:	01602074 	movhi	r5,32897
    34b0:	1185883a 	add	r2,r2,r6
    34b4:	29602004 	addi	r5,r5,-32640
    34b8:	10c4703a 	and	r2,r2,r3
    34bc:	1144703a 	and	r2,r2,r5
    34c0:	10000a1e 	bne	r2,zero,34ec <strchr+0x154>
    34c4:	21000104 	addi	r4,r4,4
    34c8:	20800017 	ldw	r2,0(r4)
    34cc:	1187883a 	add	r3,r2,r6
    34d0:	0084303a 	nor	r2,zero,r2
    34d4:	1884703a 	and	r2,r3,r2
    34d8:	1144703a 	and	r2,r2,r5
    34dc:	103ff926 	beq	r2,zero,34c4 <__alt_mem_cfi_flash+0xf60034c4>
    34e0:	20800003 	ldbu	r2,0(r4)
    34e4:	10000326 	beq	r2,zero,34f4 <strchr+0x15c>
    34e8:	21000044 	addi	r4,r4,1
    34ec:	20800003 	ldbu	r2,0(r4)
    34f0:	103ffd1e 	bne	r2,zero,34e8 <__alt_mem_cfi_flash+0xf60034e8>
    34f4:	2005883a 	mov	r2,r4
    34f8:	f800283a 	ret

000034fc <strerror>:
    34fc:	deffff04 	addi	sp,sp,-4
    3500:	dfc00015 	stw	ra,0(sp)
    3504:	00802384 	movi	r2,142
    3508:	11017236 	bltu	r2,r4,3ad4 <strerror+0x5d8>
    350c:	200690ba 	slli	r3,r4,2
    3510:	00800034 	movhi	r2,0
    3514:	108d4904 	addi	r2,r2,13604
    3518:	1885883a 	add	r2,r3,r2
    351c:	10800017 	ldw	r2,0(r2)
    3520:	1000683a 	jmp	r2
    3524:	00003ad4 	movui	zero,235
    3528:	00003760 	cmpeqi	zero,zero,221
    352c:	00003ac8 	cmpgei	zero,zero,235
    3530:	00003abc 	xorhi	zero,zero,234
    3534:	00003ab0 	cmpltui	zero,zero,234
    3538:	00003aa4 	muli	zero,zero,234
    353c:	00003a98 	cmpnei	zero,zero,234
    3540:	00003a8c 	andi	zero,zero,234
    3544:	00003a80 	call	3a8 <alt_uCOSIIErrorHandler+0x11c>
    3548:	00003a74 	movhi	zero,233
    354c:	00003a68 	cmpgeui	zero,zero,233
    3550:	00003a5c 	xori	zero,zero,233
    3554:	00003a50 	cmplti	zero,zero,233
    3558:	00003a44 	movi	zero,233
    355c:	00003a38 	rdprs	zero,zero,232
    3560:	00003ad4 	movui	zero,235
    3564:	00003a2c 	andhi	zero,zero,232
    3568:	00003a20 	cmpeqi	zero,zero,232
    356c:	00003a14 	movui	zero,232
    3570:	00003a08 	cmpgei	zero,zero,232
    3574:	000039fc 	xorhi	zero,zero,231
    3578:	000039f0 	cmpltui	zero,zero,231
    357c:	000039e4 	muli	zero,zero,231
    3580:	000039d8 	cmpnei	zero,zero,231
    3584:	000039cc 	andi	zero,zero,231
    3588:	000039c0 	call	39c <alt_uCOSIIErrorHandler+0x110>
    358c:	000039b4 	movhi	zero,230
    3590:	000039a8 	cmpgeui	zero,zero,230
    3594:	0000399c 	xori	zero,zero,230
    3598:	00003990 	cmplti	zero,zero,230
    359c:	00003984 	movi	zero,230
    35a0:	00003978 	rdprs	zero,zero,229
    35a4:	0000396c 	andhi	zero,zero,229
    35a8:	00003960 	cmpeqi	zero,zero,229
    35ac:	00003954 	movui	zero,229
    35b0:	00003948 	cmpgei	zero,zero,229
    35b4:	0000393c 	xorhi	zero,zero,228
    35b8:	00003ad4 	movui	zero,235
    35bc:	00003ad4 	movui	zero,235
    35c0:	00003ad4 	movui	zero,235
    35c4:	00003ad4 	movui	zero,235
    35c8:	00003ad4 	movui	zero,235
    35cc:	00003ad4 	movui	zero,235
    35d0:	00003ad4 	movui	zero,235
    35d4:	00003ad4 	movui	zero,235
    35d8:	00003930 	cmpltui	zero,zero,228
    35dc:	00003924 	muli	zero,zero,228
    35e0:	00003ad4 	movui	zero,235
    35e4:	00003ad4 	movui	zero,235
    35e8:	00003ad4 	movui	zero,235
    35ec:	00003ad4 	movui	zero,235
    35f0:	00003ad4 	movui	zero,235
    35f4:	00003ad4 	movui	zero,235
    35f8:	00003ad4 	movui	zero,235
    35fc:	00003ad4 	movui	zero,235
    3600:	00003ad4 	movui	zero,235
    3604:	00003ad4 	movui	zero,235
    3608:	00003ad4 	movui	zero,235
    360c:	00003ad4 	movui	zero,235
    3610:	00003ad4 	movui	zero,235
    3614:	00003918 	cmpnei	zero,zero,228
    3618:	00003ad4 	movui	zero,235
    361c:	0000390c 	andi	zero,zero,228
    3620:	00003900 	call	390 <alt_uCOSIIErrorHandler+0x104>
    3624:	00003ad4 	movui	zero,235
    3628:	00003ad4 	movui	zero,235
    362c:	00003ad4 	movui	zero,235
    3630:	000038f4 	movhi	zero,227
    3634:	00003ad4 	movui	zero,235
    3638:	00003ad4 	movui	zero,235
    363c:	00003ad4 	movui	zero,235
    3640:	000038e8 	cmpgeui	zero,zero,227
    3644:	00003ad4 	movui	zero,235
    3648:	00003ad4 	movui	zero,235
    364c:	000038dc 	xori	zero,zero,227
    3650:	00003ad4 	movui	zero,235
    3654:	00003ad4 	movui	zero,235
    3658:	000038d0 	cmplti	zero,zero,227
    365c:	00003ad4 	movui	zero,235
    3660:	00003ad4 	movui	zero,235
    3664:	00003ad4 	movui	zero,235
    3668:	00003ad4 	movui	zero,235
    366c:	00003ad4 	movui	zero,235
    3670:	00003ad4 	movui	zero,235
    3674:	00003ad4 	movui	zero,235
    3678:	00003ad4 	movui	zero,235
    367c:	00003ad4 	movui	zero,235
    3680:	00003ad4 	movui	zero,235
    3684:	000038c4 	movi	zero,227
    3688:	00003ad4 	movui	zero,235
    368c:	000038b8 	rdprs	zero,zero,226
    3690:	000038ac 	andhi	zero,zero,226
    3694:	000038a0 	cmpeqi	zero,zero,226
    3698:	00003ad4 	movui	zero,235
    369c:	00003ad4 	movui	zero,235
    36a0:	00003894 	movui	zero,226
    36a4:	00003ad4 	movui	zero,235
    36a8:	00003ad4 	movui	zero,235
    36ac:	00003ad4 	movui	zero,235
    36b0:	00003ad4 	movui	zero,235
    36b4:	00003ad4 	movui	zero,235
    36b8:	00003ad4 	movui	zero,235
    36bc:	00003ad4 	movui	zero,235
    36c0:	00003ad4 	movui	zero,235
    36c4:	00003ad4 	movui	zero,235
    36c8:	00003888 	cmpgei	zero,zero,226
    36cc:	0000387c 	xorhi	zero,zero,225
    36d0:	00003870 	cmpltui	zero,zero,225
    36d4:	00003864 	muli	zero,zero,225
    36d8:	00003858 	cmpnei	zero,zero,225
    36dc:	00003ad4 	movui	zero,235
    36e0:	0000384c 	andi	zero,zero,225
    36e4:	00003840 	call	384 <alt_uCOSIIErrorHandler+0xf8>
    36e8:	00003834 	movhi	zero,224
    36ec:	00003828 	cmpgeui	zero,zero,224
    36f0:	0000381c 	xori	zero,zero,224
    36f4:	00003810 	cmplti	zero,zero,224
    36f8:	00003804 	movi	zero,224
    36fc:	000037f8 	rdprs	zero,zero,223
    3700:	000037ec 	andhi	zero,zero,223
    3704:	000037e0 	cmpeqi	zero,zero,223
    3708:	000037d4 	movui	zero,223
    370c:	000037c8 	cmpgei	zero,zero,223
    3710:	000037bc 	xorhi	zero,zero,222
    3714:	00003ad4 	movui	zero,235
    3718:	00003ad4 	movui	zero,235
    371c:	00003ad4 	movui	zero,235
    3720:	000037b0 	cmpltui	zero,zero,222
    3724:	000037a4 	muli	zero,zero,222
    3728:	00003ad4 	movui	zero,235
    372c:	00003ad4 	movui	zero,235
    3730:	00003ad4 	movui	zero,235
    3734:	00003ad4 	movui	zero,235
    3738:	00003ad4 	movui	zero,235
    373c:	00003798 	cmpnei	zero,zero,222
    3740:	00003ad4 	movui	zero,235
    3744:	00003ad4 	movui	zero,235
    3748:	00003ad4 	movui	zero,235
    374c:	00003ad4 	movui	zero,235
    3750:	00003ad4 	movui	zero,235
    3754:	0000378c 	andi	zero,zero,222
    3758:	00003780 	call	378 <alt_uCOSIIErrorHandler+0xec>
    375c:	00003774 	movhi	zero,221
    3760:	00800174 	movhi	r2,5
    3764:	10b5d004 	addi	r2,r2,-10432
    3768:	dfc00017 	ldw	ra,0(sp)
    376c:	dec00104 	addi	sp,sp,4
    3770:	f800283a 	ret
    3774:	00800174 	movhi	r2,5
    3778:	10b74304 	addi	r2,r2,-8948
    377c:	003ffa06 	br	3768 <__alt_mem_cfi_flash+0xf6003768>
    3780:	00800174 	movhi	r2,5
    3784:	10b73d04 	addi	r2,r2,-8972
    3788:	003ff706 	br	3768 <__alt_mem_cfi_flash+0xf6003768>
    378c:	00800174 	movhi	r2,5
    3790:	10b73804 	addi	r2,r2,-8992
    3794:	003ff406 	br	3768 <__alt_mem_cfi_flash+0xf6003768>
    3798:	00800174 	movhi	r2,5
    379c:	10b67a04 	addi	r2,r2,-9752
    37a0:	003ff106 	br	3768 <__alt_mem_cfi_flash+0xf6003768>
    37a4:	00800174 	movhi	r2,5
    37a8:	10b72b04 	addi	r2,r2,-9044
    37ac:	003fee06 	br	3768 <__alt_mem_cfi_flash+0xf6003768>
    37b0:	00800174 	movhi	r2,5
    37b4:	10b73104 	addi	r2,r2,-9020
    37b8:	003feb06 	br	3768 <__alt_mem_cfi_flash+0xf6003768>
    37bc:	00800174 	movhi	r2,5
    37c0:	10b6c804 	addi	r2,r2,-9440
    37c4:	003fe806 	br	3768 <__alt_mem_cfi_flash+0xf6003768>
    37c8:	00800174 	movhi	r2,5
    37cc:	10b75104 	addi	r2,r2,-8892
    37d0:	003fe506 	br	3768 <__alt_mem_cfi_flash+0xf6003768>
    37d4:	00800174 	movhi	r2,5
    37d8:	10b60604 	addi	r2,r2,-10216
    37dc:	003fe206 	br	3768 <__alt_mem_cfi_flash+0xf6003768>
    37e0:	00800174 	movhi	r2,5
    37e4:	10b5f804 	addi	r2,r2,-10272
    37e8:	003fdf06 	br	3768 <__alt_mem_cfi_flash+0xf6003768>
    37ec:	00800174 	movhi	r2,5
    37f0:	10b63a04 	addi	r2,r2,-10008
    37f4:	003fdc06 	br	3768 <__alt_mem_cfi_flash+0xf6003768>
    37f8:	00800174 	movhi	r2,5
    37fc:	10b66f04 	addi	r2,r2,-9796
    3800:	003fd906 	br	3768 <__alt_mem_cfi_flash+0xf6003768>
    3804:	00800174 	movhi	r2,5
    3808:	10b63604 	addi	r2,r2,-10024
    380c:	003fd606 	br	3768 <__alt_mem_cfi_flash+0xf6003768>
    3810:	00800174 	movhi	r2,5
    3814:	10b75604 	addi	r2,r2,-8872
    3818:	003fd306 	br	3768 <__alt_mem_cfi_flash+0xf6003768>
    381c:	00800174 	movhi	r2,5
    3820:	10b64b04 	addi	r2,r2,-9940
    3824:	003fd006 	br	3768 <__alt_mem_cfi_flash+0xf6003768>
    3828:	00800174 	movhi	r2,5
    382c:	10b6a704 	addi	r2,r2,-9572
    3830:	003fcd06 	br	3768 <__alt_mem_cfi_flash+0xf6003768>
    3834:	00800174 	movhi	r2,5
    3838:	10b72204 	addi	r2,r2,-9080
    383c:	003fca06 	br	3768 <__alt_mem_cfi_flash+0xf6003768>
    3840:	00800174 	movhi	r2,5
    3844:	10b71c04 	addi	r2,r2,-9104
    3848:	003fc706 	br	3768 <__alt_mem_cfi_flash+0xf6003768>
    384c:	00800174 	movhi	r2,5
    3850:	10b71704 	addi	r2,r2,-9124
    3854:	003fc406 	br	3768 <__alt_mem_cfi_flash+0xf6003768>
    3858:	00800174 	movhi	r2,5
    385c:	10b71104 	addi	r2,r2,-9148
    3860:	003fc106 	br	3768 <__alt_mem_cfi_flash+0xf6003768>
    3864:	00800174 	movhi	r2,5
    3868:	10b70904 	addi	r2,r2,-9180
    386c:	003fbe06 	br	3768 <__alt_mem_cfi_flash+0xf6003768>
    3870:	00800174 	movhi	r2,5
    3874:	10b70104 	addi	r2,r2,-9212
    3878:	003fbb06 	br	3768 <__alt_mem_cfi_flash+0xf6003768>
    387c:	00800174 	movhi	r2,5
    3880:	10b6f504 	addi	r2,r2,-9260
    3884:	003fb806 	br	3768 <__alt_mem_cfi_flash+0xf6003768>
    3888:	00800174 	movhi	r2,5
    388c:	10b6ee04 	addi	r2,r2,-9288
    3890:	003fb506 	br	3768 <__alt_mem_cfi_flash+0xf6003768>
    3894:	00800174 	movhi	r2,5
    3898:	10b74804 	addi	r2,r2,-8928
    389c:	003fb206 	br	3768 <__alt_mem_cfi_flash+0xf6003768>
    38a0:	00800174 	movhi	r2,5
    38a4:	10b6e804 	addi	r2,r2,-9312
    38a8:	003faf06 	br	3768 <__alt_mem_cfi_flash+0xf6003768>
    38ac:	00800174 	movhi	r2,5
    38b0:	10b6e104 	addi	r2,r2,-9340
    38b4:	003fac06 	br	3768 <__alt_mem_cfi_flash+0xf6003768>
    38b8:	00800174 	movhi	r2,5
    38bc:	10b6dc04 	addi	r2,r2,-9360
    38c0:	003fa906 	br	3768 <__alt_mem_cfi_flash+0xf6003768>
    38c4:	00800174 	movhi	r2,5
    38c8:	10b6d504 	addi	r2,r2,-9388
    38cc:	003fa606 	br	3768 <__alt_mem_cfi_flash+0xf6003768>
    38d0:	00800174 	movhi	r2,5
    38d4:	10b6d204 	addi	r2,r2,-9400
    38d8:	003fa306 	br	3768 <__alt_mem_cfi_flash+0xf6003768>
    38dc:	00800174 	movhi	r2,5
    38e0:	10b6cd04 	addi	r2,r2,-9420
    38e4:	003fa006 	br	3768 <__alt_mem_cfi_flash+0xf6003768>
    38e8:	00800174 	movhi	r2,5
    38ec:	10b6c404 	addi	r2,r2,-9456
    38f0:	003f9d06 	br	3768 <__alt_mem_cfi_flash+0xf6003768>
    38f4:	00800174 	movhi	r2,5
    38f8:	10b6be04 	addi	r2,r2,-9480
    38fc:	003f9a06 	br	3768 <__alt_mem_cfi_flash+0xf6003768>
    3900:	00800174 	movhi	r2,5
    3904:	10b6b904 	addi	r2,r2,-9500
    3908:	003f9706 	br	3768 <__alt_mem_cfi_flash+0xf6003768>
    390c:	00800174 	movhi	r2,5
    3910:	10b6b304 	addi	r2,r2,-9524
    3914:	003f9406 	br	3768 <__alt_mem_cfi_flash+0xf6003768>
    3918:	00800174 	movhi	r2,5
    391c:	10b6af04 	addi	r2,r2,-9540
    3920:	003f9106 	br	3768 <__alt_mem_cfi_flash+0xf6003768>
    3924:	00800174 	movhi	r2,5
    3928:	10b6ad04 	addi	r2,r2,-9548
    392c:	003f8e06 	br	3768 <__alt_mem_cfi_flash+0xf6003768>
    3930:	00800174 	movhi	r2,5
    3934:	10b6a404 	addi	r2,r2,-9584
    3938:	003f8b06 	br	3768 <__alt_mem_cfi_flash+0xf6003768>
    393c:	00800174 	movhi	r2,5
    3940:	10b69f04 	addi	r2,r2,-9604
    3944:	003f8806 	br	3768 <__alt_mem_cfi_flash+0xf6003768>
    3948:	00800174 	movhi	r2,5
    394c:	10b69804 	addi	r2,r2,-9632
    3950:	003f8506 	br	3768 <__alt_mem_cfi_flash+0xf6003768>
    3954:	00800174 	movhi	r2,5
    3958:	10b69304 	addi	r2,r2,-9652
    395c:	003f8206 	br	3768 <__alt_mem_cfi_flash+0xf6003768>
    3960:	00800174 	movhi	r2,5
    3964:	10b68f04 	addi	r2,r2,-9668
    3968:	003f7f06 	br	3768 <__alt_mem_cfi_flash+0xf6003768>
    396c:	00800174 	movhi	r2,5
    3970:	10b68c04 	addi	r2,r2,-9680
    3974:	003f7c06 	br	3768 <__alt_mem_cfi_flash+0xf6003768>
    3978:	00800174 	movhi	r2,5
    397c:	10b68804 	addi	r2,r2,-9696
    3980:	003f7906 	br	3768 <__alt_mem_cfi_flash+0xf6003768>
    3984:	00800174 	movhi	r2,5
    3988:	10b68204 	addi	r2,r2,-9720
    398c:	003f7606 	br	3768 <__alt_mem_cfi_flash+0xf6003768>
    3990:	00800174 	movhi	r2,5
    3994:	10b67e04 	addi	r2,r2,-9736
    3998:	003f7306 	br	3768 <__alt_mem_cfi_flash+0xf6003768>
    399c:	00800174 	movhi	r2,5
    39a0:	10b67404 	addi	r2,r2,-9776
    39a4:	003f7006 	br	3768 <__alt_mem_cfi_flash+0xf6003768>
    39a8:	00800174 	movhi	r2,5
    39ac:	10b66b04 	addi	r2,r2,-9812
    39b0:	003f6d06 	br	3768 <__alt_mem_cfi_flash+0xf6003768>
    39b4:	00800174 	movhi	r2,5
    39b8:	10b66704 	addi	r2,r2,-9828
    39bc:	003f6a06 	br	3768 <__alt_mem_cfi_flash+0xf6003768>
    39c0:	00800174 	movhi	r2,5
    39c4:	10b66104 	addi	r2,r2,-9852
    39c8:	003f6706 	br	3768 <__alt_mem_cfi_flash+0xf6003768>
    39cc:	00800174 	movhi	r2,5
    39d0:	10b65c04 	addi	r2,r2,-9872
    39d4:	003f6406 	br	3768 <__alt_mem_cfi_flash+0xf6003768>
    39d8:	00800174 	movhi	r2,5
    39dc:	10b65404 	addi	r2,r2,-9904
    39e0:	003f6106 	br	3768 <__alt_mem_cfi_flash+0xf6003768>
    39e4:	00800174 	movhi	r2,5
    39e8:	10b64604 	addi	r2,r2,-9960
    39ec:	003f5e06 	br	3768 <__alt_mem_cfi_flash+0xf6003768>
    39f0:	00800174 	movhi	r2,5
    39f4:	10b64204 	addi	r2,r2,-9976
    39f8:	003f5b06 	br	3768 <__alt_mem_cfi_flash+0xf6003768>
    39fc:	00800174 	movhi	r2,5
    3a00:	10b63204 	addi	r2,r2,-10040
    3a04:	003f5806 	br	3768 <__alt_mem_cfi_flash+0xf6003768>
    3a08:	00800174 	movhi	r2,5
    3a0c:	10b62e04 	addi	r2,r2,-10056
    3a10:	003f5506 	br	3768 <__alt_mem_cfi_flash+0xf6003768>
    3a14:	00800174 	movhi	r2,5
    3a18:	10b62904 	addi	r2,r2,-10076
    3a1c:	003f5206 	br	3768 <__alt_mem_cfi_flash+0xf6003768>
    3a20:	00800174 	movhi	r2,5
    3a24:	10b62604 	addi	r2,r2,-10088
    3a28:	003f4f06 	br	3768 <__alt_mem_cfi_flash+0xf6003768>
    3a2c:	00800174 	movhi	r2,5
    3a30:	10b62004 	addi	r2,r2,-10112
    3a34:	003f4c06 	br	3768 <__alt_mem_cfi_flash+0xf6003768>
    3a38:	00800174 	movhi	r2,5
    3a3c:	10b61d04 	addi	r2,r2,-10124
    3a40:	003f4906 	br	3768 <__alt_mem_cfi_flash+0xf6003768>
    3a44:	00800174 	movhi	r2,5
    3a48:	10b61804 	addi	r2,r2,-10144
    3a4c:	003f4606 	br	3768 <__alt_mem_cfi_flash+0xf6003768>
    3a50:	00800174 	movhi	r2,5
    3a54:	10b61304 	addi	r2,r2,-10164
    3a58:	003f4306 	br	3768 <__alt_mem_cfi_flash+0xf6003768>
    3a5c:	00800174 	movhi	r2,5
    3a60:	10b60e04 	addi	r2,r2,-10184
    3a64:	003f4006 	br	3768 <__alt_mem_cfi_flash+0xf6003768>
    3a68:	00800174 	movhi	r2,5
    3a6c:	10b60304 	addi	r2,r2,-10228
    3a70:	003f3d06 	br	3768 <__alt_mem_cfi_flash+0xf6003768>
    3a74:	00800174 	movhi	r2,5
    3a78:	10b5ff04 	addi	r2,r2,-10244
    3a7c:	003f3a06 	br	3768 <__alt_mem_cfi_flash+0xf6003768>
    3a80:	00800174 	movhi	r2,5
    3a84:	10b5f304 	addi	r2,r2,-10292
    3a88:	003f3706 	br	3768 <__alt_mem_cfi_flash+0xf6003768>
    3a8c:	00800174 	movhi	r2,5
    3a90:	10b5ee04 	addi	r2,r2,-10312
    3a94:	003f3406 	br	3768 <__alt_mem_cfi_flash+0xf6003768>
    3a98:	00800174 	movhi	r2,5
    3a9c:	10b5e704 	addi	r2,r2,-10340
    3aa0:	003f3106 	br	3768 <__alt_mem_cfi_flash+0xf6003768>
    3aa4:	00800174 	movhi	r2,5
    3aa8:	10b5e404 	addi	r2,r2,-10352
    3aac:	003f2e06 	br	3768 <__alt_mem_cfi_flash+0xf6003768>
    3ab0:	00800174 	movhi	r2,5
    3ab4:	10b5de04 	addi	r2,r2,-10376
    3ab8:	003f2b06 	br	3768 <__alt_mem_cfi_flash+0xf6003768>
    3abc:	00800174 	movhi	r2,5
    3ac0:	10b5da04 	addi	r2,r2,-10392
    3ac4:	003f2806 	br	3768 <__alt_mem_cfi_flash+0xf6003768>
    3ac8:	00800174 	movhi	r2,5
    3acc:	10b5d304 	addi	r2,r2,-10420
    3ad0:	003f2506 	br	3768 <__alt_mem_cfi_flash+0xf6003768>
    3ad4:	0005b100 	call	5b10 <_user_strerror>
    3ad8:	103f231e 	bne	r2,zero,3768 <__alt_mem_cfi_flash+0xf6003768>
    3adc:	00800174 	movhi	r2,5
    3ae0:	10b76404 	addi	r2,r2,-8816
    3ae4:	003f2006 	br	3768 <__alt_mem_cfi_flash+0xf6003768>

00003ae8 <strlen>:
    3ae8:	208000cc 	andi	r2,r4,3
    3aec:	10002026 	beq	r2,zero,3b70 <strlen+0x88>
    3af0:	20800007 	ldb	r2,0(r4)
    3af4:	10002026 	beq	r2,zero,3b78 <strlen+0x90>
    3af8:	2005883a 	mov	r2,r4
    3afc:	00000206 	br	3b08 <strlen+0x20>
    3b00:	10c00007 	ldb	r3,0(r2)
    3b04:	18001826 	beq	r3,zero,3b68 <strlen+0x80>
    3b08:	10800044 	addi	r2,r2,1
    3b0c:	10c000cc 	andi	r3,r2,3
    3b10:	183ffb1e 	bne	r3,zero,3b00 <__alt_mem_cfi_flash+0xf6003b00>
    3b14:	10c00017 	ldw	r3,0(r2)
    3b18:	01ffbff4 	movhi	r7,65279
    3b1c:	39ffbfc4 	addi	r7,r7,-257
    3b20:	00ca303a 	nor	r5,zero,r3
    3b24:	01a02074 	movhi	r6,32897
    3b28:	19c7883a 	add	r3,r3,r7
    3b2c:	31a02004 	addi	r6,r6,-32640
    3b30:	1946703a 	and	r3,r3,r5
    3b34:	1986703a 	and	r3,r3,r6
    3b38:	1800091e 	bne	r3,zero,3b60 <strlen+0x78>
    3b3c:	10800104 	addi	r2,r2,4
    3b40:	10c00017 	ldw	r3,0(r2)
    3b44:	19cb883a 	add	r5,r3,r7
    3b48:	00c6303a 	nor	r3,zero,r3
    3b4c:	28c6703a 	and	r3,r5,r3
    3b50:	1986703a 	and	r3,r3,r6
    3b54:	183ff926 	beq	r3,zero,3b3c <__alt_mem_cfi_flash+0xf6003b3c>
    3b58:	00000106 	br	3b60 <strlen+0x78>
    3b5c:	10800044 	addi	r2,r2,1
    3b60:	10c00007 	ldb	r3,0(r2)
    3b64:	183ffd1e 	bne	r3,zero,3b5c <__alt_mem_cfi_flash+0xf6003b5c>
    3b68:	1105c83a 	sub	r2,r2,r4
    3b6c:	f800283a 	ret
    3b70:	2005883a 	mov	r2,r4
    3b74:	003fe706 	br	3b14 <__alt_mem_cfi_flash+0xf6003b14>
    3b78:	0005883a 	mov	r2,zero
    3b7c:	f800283a 	ret

00003b80 <___svfprintf_internal_r>:
    3b80:	deffb504 	addi	sp,sp,-300
    3b84:	dfc04a15 	stw	ra,296(sp)
    3b88:	ddc04815 	stw	r23,288(sp)
    3b8c:	d9002f15 	stw	r4,188(sp)
    3b90:	282f883a 	mov	r23,r5
    3b94:	d9802915 	stw	r6,164(sp)
    3b98:	d9c02d15 	stw	r7,180(sp)
    3b9c:	df004915 	stw	fp,292(sp)
    3ba0:	dd804715 	stw	r22,284(sp)
    3ba4:	dd404615 	stw	r21,280(sp)
    3ba8:	dd004515 	stw	r20,276(sp)
    3bac:	dcc04415 	stw	r19,272(sp)
    3bb0:	dc804315 	stw	r18,268(sp)
    3bb4:	dc404215 	stw	r17,264(sp)
    3bb8:	dc004115 	stw	r16,260(sp)
    3bbc:	000a9200 	call	a920 <_localeconv_r>
    3bc0:	10800017 	ldw	r2,0(r2)
    3bc4:	1009883a 	mov	r4,r2
    3bc8:	d8803515 	stw	r2,212(sp)
    3bcc:	0003ae80 	call	3ae8 <strlen>
    3bd0:	d8803915 	stw	r2,228(sp)
    3bd4:	b880030b 	ldhu	r2,12(r23)
    3bd8:	1080200c 	andi	r2,r2,128
    3bdc:	10000226 	beq	r2,zero,3be8 <___svfprintf_internal_r+0x68>
    3be0:	b8800417 	ldw	r2,16(r23)
    3be4:	10065d26 	beq	r2,zero,555c <___svfprintf_internal_r+0x19dc>
    3be8:	db001dc4 	addi	r12,sp,119
    3bec:	dd801e04 	addi	r22,sp,120
    3bf0:	d8800404 	addi	r2,sp,16
    3bf4:	05000174 	movhi	r20,5
    3bf8:	b317c83a 	sub	r11,r22,r12
    3bfc:	a5376c84 	addi	r20,r20,-8782
    3c00:	db002815 	stw	r12,160(sp)
    3c04:	d8801e15 	stw	r2,120(sp)
    3c08:	d8002015 	stw	zero,128(sp)
    3c0c:	d8001f15 	stw	zero,124(sp)
    3c10:	d8003315 	stw	zero,204(sp)
    3c14:	d8003715 	stw	zero,220(sp)
    3c18:	d8003815 	stw	zero,224(sp)
    3c1c:	d8003b15 	stw	zero,236(sp)
    3c20:	d8003a15 	stw	zero,232(sp)
    3c24:	d8003015 	stw	zero,192(sp)
    3c28:	1011883a 	mov	r8,r2
    3c2c:	dac03d15 	stw	r11,244(sp)
    3c30:	db002917 	ldw	r12,164(sp)
    3c34:	60800007 	ldb	r2,0(r12)
    3c38:	1000ab26 	beq	r2,zero,3ee8 <___svfprintf_internal_r+0x368>
    3c3c:	00c00944 	movi	r3,37
    3c40:	10c0a926 	beq	r2,r3,3ee8 <___svfprintf_internal_r+0x368>
    3c44:	6021883a 	mov	r16,r12
    3c48:	00000106 	br	3c50 <___svfprintf_internal_r+0xd0>
    3c4c:	10c08426 	beq	r2,r3,3e60 <___svfprintf_internal_r+0x2e0>
    3c50:	84000044 	addi	r16,r16,1
    3c54:	80800007 	ldb	r2,0(r16)
    3c58:	103ffc1e 	bne	r2,zero,3c4c <__alt_mem_cfi_flash+0xf6003c4c>
    3c5c:	dac02917 	ldw	r11,164(sp)
    3c60:	82e3c83a 	sub	r17,r16,r11
    3c64:	88000f26 	beq	r17,zero,3ca4 <___svfprintf_internal_r+0x124>
    3c68:	d8c02017 	ldw	r3,128(sp)
    3c6c:	d8801f17 	ldw	r2,124(sp)
    3c70:	dac02917 	ldw	r11,164(sp)
    3c74:	1c47883a 	add	r3,r3,r17
    3c78:	10800044 	addi	r2,r2,1
    3c7c:	d8c02015 	stw	r3,128(sp)
    3c80:	42c00015 	stw	r11,0(r8)
    3c84:	44400115 	stw	r17,4(r8)
    3c88:	d8801f15 	stw	r2,124(sp)
    3c8c:	00c001c4 	movi	r3,7
    3c90:	18807616 	blt	r3,r2,3e6c <___svfprintf_internal_r+0x2ec>
    3c94:	42000204 	addi	r8,r8,8
    3c98:	db003017 	ldw	r12,192(sp)
    3c9c:	6459883a 	add	r12,r12,r17
    3ca0:	db003015 	stw	r12,192(sp)
    3ca4:	80800007 	ldb	r2,0(r16)
    3ca8:	10007726 	beq	r2,zero,3e88 <___svfprintf_internal_r+0x308>
    3cac:	80800044 	addi	r2,r16,1
    3cb0:	84000047 	ldb	r16,1(r16)
    3cb4:	d8002785 	stb	zero,158(sp)
    3cb8:	000d883a 	mov	r6,zero
    3cbc:	027fffc4 	movi	r9,-1
    3cc0:	d8002e15 	stw	zero,184(sp)
    3cc4:	0023883a 	mov	r17,zero
    3cc8:	01001604 	movi	r4,88
    3ccc:	01400244 	movi	r5,9
    3cd0:	02800a84 	movi	r10,42
    3cd4:	01c01b04 	movi	r7,108
    3cd8:	10c00044 	addi	r3,r2,1
    3cdc:	80bff804 	addi	r2,r16,-32
    3ce0:	2082e436 	bltu	r4,r2,4874 <___svfprintf_internal_r+0xcf4>
    3ce4:	100490ba 	slli	r2,r2,2
    3ce8:	02c00034 	movhi	r11,0
    3cec:	5acf3f04 	addi	r11,r11,15612
    3cf0:	12c5883a 	add	r2,r2,r11
    3cf4:	10800017 	ldw	r2,0(r2)
    3cf8:	1000683a 	jmp	r2
    3cfc:	0000462c 	andhi	zero,zero,280
    3d00:	00004874 	movhi	zero,289
    3d04:	00004874 	movhi	zero,289
    3d08:	000047ac 	andhi	zero,zero,286
    3d0c:	00004874 	movhi	zero,289
    3d10:	00004874 	movhi	zero,289
    3d14:	00004874 	movhi	zero,289
    3d18:	00004874 	movhi	zero,289
    3d1c:	00004874 	movhi	zero,289
    3d20:	00004874 	movhi	zero,289
    3d24:	00004770 	cmpltui	zero,zero,285
    3d28:	0000479c 	xori	zero,zero,286
    3d2c:	00004874 	movhi	zero,289
    3d30:	00003ef0 	cmpltui	zero,zero,251
    3d34:	00003f00 	call	3f0 <alt_uCOSIIErrorHandler+0x164>
    3d38:	00004874 	movhi	zero,289
    3d3c:	00003f40 	call	3f4 <alt_uCOSIIErrorHandler+0x168>
    3d40:	00003f50 	cmplti	zero,zero,253
    3d44:	00003f50 	cmplti	zero,zero,253
    3d48:	00003f50 	cmplti	zero,zero,253
    3d4c:	00003f50 	cmplti	zero,zero,253
    3d50:	00003f50 	cmplti	zero,zero,253
    3d54:	00003f50 	cmplti	zero,zero,253
    3d58:	00003f50 	cmplti	zero,zero,253
    3d5c:	00003f50 	cmplti	zero,zero,253
    3d60:	00003f50 	cmplti	zero,zero,253
    3d64:	00004874 	movhi	zero,289
    3d68:	00004874 	movhi	zero,289
    3d6c:	00004874 	movhi	zero,289
    3d70:	00004874 	movhi	zero,289
    3d74:	00004874 	movhi	zero,289
    3d78:	00004874 	movhi	zero,289
    3d7c:	00004874 	movhi	zero,289
    3d80:	00004874 	movhi	zero,289
    3d84:	00004874 	movhi	zero,289
    3d88:	00004874 	movhi	zero,289
    3d8c:	00003f84 	movi	zero,254
    3d90:	00004470 	cmpltui	zero,zero,273
    3d94:	00004874 	movhi	zero,289
    3d98:	00004470 	cmpltui	zero,zero,273
    3d9c:	00004874 	movhi	zero,289
    3da0:	00004874 	movhi	zero,289
    3da4:	00004874 	movhi	zero,289
    3da8:	00004874 	movhi	zero,289
    3dac:	0000455c 	xori	zero,zero,277
    3db0:	00004874 	movhi	zero,289
    3db4:	00004874 	movhi	zero,289
    3db8:	00004404 	movi	zero,272
    3dbc:	00004874 	movhi	zero,289
    3dc0:	00004874 	movhi	zero,289
    3dc4:	00004874 	movhi	zero,289
    3dc8:	00004874 	movhi	zero,289
    3dcc:	00004874 	movhi	zero,289
    3dd0:	00004440 	call	444 <alt_uCOSIIErrorHandler+0x1b8>
    3dd4:	00004874 	movhi	zero,289
    3dd8:	00004874 	movhi	zero,289
    3ddc:	0000464c 	andi	zero,zero,281
    3de0:	00004874 	movhi	zero,289
    3de4:	00004874 	movhi	zero,289
    3de8:	00004874 	movhi	zero,289
    3dec:	00004874 	movhi	zero,289
    3df0:	00004874 	movhi	zero,289
    3df4:	00004874 	movhi	zero,289
    3df8:	00004874 	movhi	zero,289
    3dfc:	00004874 	movhi	zero,289
    3e00:	00004874 	movhi	zero,289
    3e04:	00004874 	movhi	zero,289
    3e08:	00004730 	cmpltui	zero,zero,284
    3e0c:	0000456c 	andhi	zero,zero,277
    3e10:	00004470 	cmpltui	zero,zero,273
    3e14:	00004470 	cmpltui	zero,zero,273
    3e18:	00004470 	cmpltui	zero,zero,273
    3e1c:	000045d4 	movui	zero,279
    3e20:	0000456c 	andhi	zero,zero,277
    3e24:	00004874 	movhi	zero,289
    3e28:	00004874 	movhi	zero,289
    3e2c:	000045e4 	muli	zero,zero,279
    3e30:	00004874 	movhi	zero,289
    3e34:	000045f8 	rdprs	zero,zero,279
    3e38:	00004838 	rdprs	zero,zero,288
    3e3c:	00004514 	movui	zero,276
    3e40:	00004720 	cmpeqi	zero,zero,284
    3e44:	00004874 	movhi	zero,289
    3e48:	000046a8 	cmpgeui	zero,zero,282
    3e4c:	00004874 	movhi	zero,289
    3e50:	000047fc 	xorhi	zero,zero,287
    3e54:	00004874 	movhi	zero,289
    3e58:	00004874 	movhi	zero,289
    3e5c:	000047bc 	xorhi	zero,zero,286
    3e60:	db002917 	ldw	r12,164(sp)
    3e64:	8323c83a 	sub	r17,r16,r12
    3e68:	003f7e06 	br	3c64 <__alt_mem_cfi_flash+0xf6003c64>
    3e6c:	d9002f17 	ldw	r4,188(sp)
    3e70:	b80b883a 	mov	r5,r23
    3e74:	b00d883a 	mov	r6,r22
    3e78:	000cd340 	call	cd34 <__ssprint_r>
    3e7c:	1000081e 	bne	r2,zero,3ea0 <___svfprintf_internal_r+0x320>
    3e80:	da000404 	addi	r8,sp,16
    3e84:	003f8406 	br	3c98 <__alt_mem_cfi_flash+0xf6003c98>
    3e88:	d8802017 	ldw	r2,128(sp)
    3e8c:	10000426 	beq	r2,zero,3ea0 <___svfprintf_internal_r+0x320>
    3e90:	d9002f17 	ldw	r4,188(sp)
    3e94:	b80b883a 	mov	r5,r23
    3e98:	d9801e04 	addi	r6,sp,120
    3e9c:	000cd340 	call	cd34 <__ssprint_r>
    3ea0:	b880030b 	ldhu	r2,12(r23)
    3ea4:	1080100c 	andi	r2,r2,64
    3ea8:	10000d1e 	bne	r2,zero,3ee0 <___svfprintf_internal_r+0x360>
    3eac:	d8803017 	ldw	r2,192(sp)
    3eb0:	dfc04a17 	ldw	ra,296(sp)
    3eb4:	df004917 	ldw	fp,292(sp)
    3eb8:	ddc04817 	ldw	r23,288(sp)
    3ebc:	dd804717 	ldw	r22,284(sp)
    3ec0:	dd404617 	ldw	r21,280(sp)
    3ec4:	dd004517 	ldw	r20,276(sp)
    3ec8:	dcc04417 	ldw	r19,272(sp)
    3ecc:	dc804317 	ldw	r18,268(sp)
    3ed0:	dc404217 	ldw	r17,264(sp)
    3ed4:	dc004117 	ldw	r16,260(sp)
    3ed8:	dec04b04 	addi	sp,sp,300
    3edc:	f800283a 	ret
    3ee0:	00bfffc4 	movi	r2,-1
    3ee4:	003ff206 	br	3eb0 <__alt_mem_cfi_flash+0xf6003eb0>
    3ee8:	dc002917 	ldw	r16,164(sp)
    3eec:	003f6d06 	br	3ca4 <__alt_mem_cfi_flash+0xf6003ca4>
    3ef0:	1805883a 	mov	r2,r3
    3ef4:	8c400114 	ori	r17,r17,4
    3ef8:	1c000007 	ldb	r16,0(r3)
    3efc:	003f7606 	br	3cd8 <__alt_mem_cfi_flash+0xf6003cd8>
    3f00:	1c000007 	ldb	r16,0(r3)
    3f04:	18800044 	addi	r2,r3,1
    3f08:	8286e726 	beq	r16,r10,5aa8 <___svfprintf_internal_r+0x1f28>
    3f0c:	82fff404 	addi	r11,r16,-48
    3f10:	1007883a 	mov	r3,r2
    3f14:	0013883a 	mov	r9,zero
    3f18:	2aff7036 	bltu	r5,r11,3cdc <__alt_mem_cfi_flash+0xf6003cdc>
    3f1c:	1c000007 	ldb	r16,0(r3)
    3f20:	4a4002a4 	muli	r9,r9,10
    3f24:	18c00044 	addi	r3,r3,1
    3f28:	5a53883a 	add	r9,r11,r9
    3f2c:	82fff404 	addi	r11,r16,-48
    3f30:	2afffa2e 	bgeu	r5,r11,3f1c <__alt_mem_cfi_flash+0xf6003f1c>
    3f34:	483f690e 	bge	r9,zero,3cdc <__alt_mem_cfi_flash+0xf6003cdc>
    3f38:	027fffc4 	movi	r9,-1
    3f3c:	003f6706 	br	3cdc <__alt_mem_cfi_flash+0xf6003cdc>
    3f40:	8c402014 	ori	r17,r17,128
    3f44:	1805883a 	mov	r2,r3
    3f48:	1c000007 	ldb	r16,0(r3)
    3f4c:	003f6206 	br	3cd8 <__alt_mem_cfi_flash+0xf6003cd8>
    3f50:	1805883a 	mov	r2,r3
    3f54:	d8002e15 	stw	zero,184(sp)
    3f58:	82fff404 	addi	r11,r16,-48
    3f5c:	0019883a 	mov	r12,zero
    3f60:	14000007 	ldb	r16,0(r2)
    3f64:	630002a4 	muli	r12,r12,10
    3f68:	18c00044 	addi	r3,r3,1
    3f6c:	1805883a 	mov	r2,r3
    3f70:	62d9883a 	add	r12,r12,r11
    3f74:	82fff404 	addi	r11,r16,-48
    3f78:	2afff92e 	bgeu	r5,r11,3f60 <__alt_mem_cfi_flash+0xf6003f60>
    3f7c:	db002e15 	stw	r12,184(sp)
    3f80:	003f5606 	br	3cdc <__alt_mem_cfi_flash+0xf6003cdc>
    3f84:	8c400414 	ori	r17,r17,16
    3f88:	d8c02915 	stw	r3,164(sp)
    3f8c:	d9802785 	stb	r6,158(sp)
    3f90:	8880080c 	andi	r2,r17,32
    3f94:	d8c02d17 	ldw	r3,180(sp)
    3f98:	10017926 	beq	r2,zero,4580 <___svfprintf_internal_r+0xa00>
    3f9c:	db002d17 	ldw	r12,180(sp)
    3fa0:	18800117 	ldw	r2,4(r3)
    3fa4:	1cc00017 	ldw	r19,0(r3)
    3fa8:	63000204 	addi	r12,r12,8
    3fac:	db002d15 	stw	r12,180(sp)
    3fb0:	1039883a 	mov	fp,r2
    3fb4:	10017d16 	blt	r2,zero,45ac <___svfprintf_internal_r+0xa2c>
    3fb8:	dd402783 	ldbu	r21,158(sp)
    3fbc:	da403215 	stw	r9,200(sp)
    3fc0:	00800044 	movi	r2,1
    3fc4:	9f06b03a 	or	r3,r19,fp
    3fc8:	48000216 	blt	r9,zero,3fd4 <___svfprintf_internal_r+0x454>
    3fcc:	013fdfc4 	movi	r4,-129
    3fd0:	8922703a 	and	r17,r17,r4
    3fd4:	1802371e 	bne	r3,zero,48b4 <___svfprintf_internal_r+0xd34>
    3fd8:	48034526 	beq	r9,zero,4cf0 <___svfprintf_internal_r+0x1170>
    3fdc:	10803fcc 	andi	r2,r2,255
    3fe0:	00c00044 	movi	r3,1
    3fe4:	10c25826 	beq	r2,r3,4948 <___svfprintf_internal_r+0xdc8>
    3fe8:	00c00084 	movi	r3,2
    3fec:	10c2db26 	beq	r2,r3,4b5c <___svfprintf_internal_r+0xfdc>
    3ff0:	b007883a 	mov	r3,r22
    3ff4:	9808d0fa 	srli	r4,r19,3
    3ff8:	e00a977a 	slli	r5,fp,29
    3ffc:	e038d0fa 	srli	fp,fp,3
    4000:	9cc001cc 	andi	r19,r19,7
    4004:	98800c04 	addi	r2,r19,48
    4008:	18ffffc4 	addi	r3,r3,-1
    400c:	2926b03a 	or	r19,r5,r4
    4010:	18800005 	stb	r2,0(r3)
    4014:	9f08b03a 	or	r4,r19,fp
    4018:	203ff61e 	bne	r4,zero,3ff4 <__alt_mem_cfi_flash+0xf6003ff4>
    401c:	8900004c 	andi	r4,r17,1
    4020:	d8c03115 	stw	r3,196(sp)
    4024:	2002db26 	beq	r4,zero,4b94 <___svfprintf_internal_r+0x1014>
    4028:	10803fcc 	andi	r2,r2,255
    402c:	1080201c 	xori	r2,r2,128
    4030:	10bfe004 	addi	r2,r2,-128
    4034:	01000c04 	movi	r4,48
    4038:	11056626 	beq	r2,r4,55d4 <___svfprintf_internal_r+0x1a54>
    403c:	dac03117 	ldw	r11,196(sp)
    4040:	193fffc5 	stb	r4,-1(r3)
    4044:	5affffc4 	addi	r11,r11,-1
    4048:	dac03115 	stw	r11,196(sp)
    404c:	b2e5c83a 	sub	r18,r22,r11
    4050:	9005883a 	mov	r2,r18
    4054:	9240010e 	bge	r18,r9,405c <___svfprintf_internal_r+0x4dc>
    4058:	4805883a 	mov	r2,r9
    405c:	d8802a15 	stw	r2,168(sp)
    4060:	d8003415 	stw	zero,208(sp)
    4064:	a8803fcc 	andi	r2,r21,255
    4068:	1080201c 	xori	r2,r2,128
    406c:	10bfe004 	addi	r2,r2,-128
    4070:	10000326 	beq	r2,zero,4080 <___svfprintf_internal_r+0x500>
    4074:	d8c02a17 	ldw	r3,168(sp)
    4078:	18c00044 	addi	r3,r3,1
    407c:	d8c02a15 	stw	r3,168(sp)
    4080:	8ac0008c 	andi	r11,r17,2
    4084:	dac02b15 	stw	r11,172(sp)
    4088:	58000326 	beq	r11,zero,4098 <___svfprintf_internal_r+0x518>
    408c:	db002a17 	ldw	r12,168(sp)
    4090:	63000084 	addi	r12,r12,2
    4094:	db002a15 	stw	r12,168(sp)
    4098:	88c0210c 	andi	r3,r17,132
    409c:	d8c02c15 	stw	r3,176(sp)
    40a0:	1802021e 	bne	r3,zero,48ac <___svfprintf_internal_r+0xd2c>
    40a4:	dac02e17 	ldw	r11,184(sp)
    40a8:	db002a17 	ldw	r12,168(sp)
    40ac:	5b39c83a 	sub	fp,r11,r12
    40b0:	0701fe0e 	bge	zero,fp,48ac <___svfprintf_internal_r+0xd2c>
    40b4:	02400404 	movi	r9,16
    40b8:	d8c02017 	ldw	r3,128(sp)
    40bc:	d8801f17 	ldw	r2,124(sp)
    40c0:	4f057d0e 	bge	r9,fp,56b8 <___svfprintf_internal_r+0x1b38>
    40c4:	01400174 	movhi	r5,5
    40c8:	e009883a 	mov	r4,fp
    40cc:	29777084 	addi	r5,r5,-8766
    40d0:	dc003c15 	stw	r16,240(sp)
    40d4:	9039883a 	mov	fp,r18
    40d8:	d9403615 	stw	r5,216(sp)
    40dc:	8825883a 	mov	r18,r17
    40e0:	482b883a 	mov	r21,r9
    40e4:	04c001c4 	movi	r19,7
    40e8:	dc002f17 	ldw	r16,188(sp)
    40ec:	2023883a 	mov	r17,r4
    40f0:	00000306 	br	4100 <___svfprintf_internal_r+0x580>
    40f4:	8c7ffc04 	addi	r17,r17,-16
    40f8:	42000204 	addi	r8,r8,8
    40fc:	ac40130e 	bge	r21,r17,414c <___svfprintf_internal_r+0x5cc>
    4100:	02c00174 	movhi	r11,5
    4104:	18c00404 	addi	r3,r3,16
    4108:	10800044 	addi	r2,r2,1
    410c:	5af77084 	addi	r11,r11,-8766
    4110:	42c00015 	stw	r11,0(r8)
    4114:	45400115 	stw	r21,4(r8)
    4118:	d8c02015 	stw	r3,128(sp)
    411c:	d8801f15 	stw	r2,124(sp)
    4120:	98bff40e 	bge	r19,r2,40f4 <__alt_mem_cfi_flash+0xf60040f4>
    4124:	8009883a 	mov	r4,r16
    4128:	b80b883a 	mov	r5,r23
    412c:	b00d883a 	mov	r6,r22
    4130:	000cd340 	call	cd34 <__ssprint_r>
    4134:	103f5a1e 	bne	r2,zero,3ea0 <__alt_mem_cfi_flash+0xf6003ea0>
    4138:	8c7ffc04 	addi	r17,r17,-16
    413c:	d8c02017 	ldw	r3,128(sp)
    4140:	d8801f17 	ldw	r2,124(sp)
    4144:	da000404 	addi	r8,sp,16
    4148:	ac7fed16 	blt	r21,r17,4100 <__alt_mem_cfi_flash+0xf6004100>
    414c:	dc003c17 	ldw	r16,240(sp)
    4150:	8809883a 	mov	r4,r17
    4154:	9023883a 	mov	r17,r18
    4158:	e025883a 	mov	r18,fp
    415c:	2039883a 	mov	fp,r4
    4160:	db003617 	ldw	r12,216(sp)
    4164:	e0c7883a 	add	r3,fp,r3
    4168:	10800044 	addi	r2,r2,1
    416c:	43000015 	stw	r12,0(r8)
    4170:	47000115 	stw	fp,4(r8)
    4174:	d8c02015 	stw	r3,128(sp)
    4178:	d8801f15 	stw	r2,124(sp)
    417c:	010001c4 	movi	r4,7
    4180:	20833516 	blt	r4,r2,4e58 <___svfprintf_internal_r+0x12d8>
    4184:	d8802787 	ldb	r2,158(sp)
    4188:	42000204 	addi	r8,r8,8
    418c:	10000c26 	beq	r2,zero,41c0 <___svfprintf_internal_r+0x640>
    4190:	d8801f17 	ldw	r2,124(sp)
    4194:	d9002784 	addi	r4,sp,158
    4198:	18c00044 	addi	r3,r3,1
    419c:	10800044 	addi	r2,r2,1
    41a0:	41000015 	stw	r4,0(r8)
    41a4:	01000044 	movi	r4,1
    41a8:	41000115 	stw	r4,4(r8)
    41ac:	d8c02015 	stw	r3,128(sp)
    41b0:	d8801f15 	stw	r2,124(sp)
    41b4:	010001c4 	movi	r4,7
    41b8:	2082df16 	blt	r4,r2,4d38 <___svfprintf_internal_r+0x11b8>
    41bc:	42000204 	addi	r8,r8,8
    41c0:	dac02b17 	ldw	r11,172(sp)
    41c4:	58000c26 	beq	r11,zero,41f8 <___svfprintf_internal_r+0x678>
    41c8:	d8801f17 	ldw	r2,124(sp)
    41cc:	d9002704 	addi	r4,sp,156
    41d0:	18c00084 	addi	r3,r3,2
    41d4:	10800044 	addi	r2,r2,1
    41d8:	41000015 	stw	r4,0(r8)
    41dc:	01000084 	movi	r4,2
    41e0:	41000115 	stw	r4,4(r8)
    41e4:	d8c02015 	stw	r3,128(sp)
    41e8:	d8801f15 	stw	r2,124(sp)
    41ec:	010001c4 	movi	r4,7
    41f0:	2082d916 	blt	r4,r2,4d58 <___svfprintf_internal_r+0x11d8>
    41f4:	42000204 	addi	r8,r8,8
    41f8:	db002c17 	ldw	r12,176(sp)
    41fc:	00802004 	movi	r2,128
    4200:	60822026 	beq	r12,r2,4a84 <___svfprintf_internal_r+0xf04>
    4204:	db003217 	ldw	r12,200(sp)
    4208:	64abc83a 	sub	r21,r12,r18
    420c:	0540310e 	bge	zero,r21,42d4 <___svfprintf_internal_r+0x754>
    4210:	07000404 	movi	fp,16
    4214:	d8801f17 	ldw	r2,124(sp)
    4218:	e544180e 	bge	fp,r21,527c <___svfprintf_internal_r+0x16fc>
    421c:	01400174 	movhi	r5,5
    4220:	a809883a 	mov	r4,r21
    4224:	29776c84 	addi	r5,r5,-8782
    4228:	dc002c15 	stw	r16,176(sp)
    422c:	902b883a 	mov	r21,r18
    4230:	d9402b15 	stw	r5,172(sp)
    4234:	8825883a 	mov	r18,r17
    4238:	04c001c4 	movi	r19,7
    423c:	dc002f17 	ldw	r16,188(sp)
    4240:	2023883a 	mov	r17,r4
    4244:	00000306 	br	4254 <___svfprintf_internal_r+0x6d4>
    4248:	8c7ffc04 	addi	r17,r17,-16
    424c:	42000204 	addi	r8,r8,8
    4250:	e440110e 	bge	fp,r17,4298 <___svfprintf_internal_r+0x718>
    4254:	18c00404 	addi	r3,r3,16
    4258:	10800044 	addi	r2,r2,1
    425c:	45000015 	stw	r20,0(r8)
    4260:	47000115 	stw	fp,4(r8)
    4264:	d8c02015 	stw	r3,128(sp)
    4268:	d8801f15 	stw	r2,124(sp)
    426c:	98bff60e 	bge	r19,r2,4248 <__alt_mem_cfi_flash+0xf6004248>
    4270:	8009883a 	mov	r4,r16
    4274:	b80b883a 	mov	r5,r23
    4278:	b00d883a 	mov	r6,r22
    427c:	000cd340 	call	cd34 <__ssprint_r>
    4280:	103f071e 	bne	r2,zero,3ea0 <__alt_mem_cfi_flash+0xf6003ea0>
    4284:	8c7ffc04 	addi	r17,r17,-16
    4288:	d8c02017 	ldw	r3,128(sp)
    428c:	d8801f17 	ldw	r2,124(sp)
    4290:	da000404 	addi	r8,sp,16
    4294:	e47fef16 	blt	fp,r17,4254 <__alt_mem_cfi_flash+0xf6004254>
    4298:	dc002c17 	ldw	r16,176(sp)
    429c:	8809883a 	mov	r4,r17
    42a0:	9023883a 	mov	r17,r18
    42a4:	a825883a 	mov	r18,r21
    42a8:	202b883a 	mov	r21,r4
    42ac:	dac02b17 	ldw	r11,172(sp)
    42b0:	1d47883a 	add	r3,r3,r21
    42b4:	10800044 	addi	r2,r2,1
    42b8:	42c00015 	stw	r11,0(r8)
    42bc:	45400115 	stw	r21,4(r8)
    42c0:	d8c02015 	stw	r3,128(sp)
    42c4:	d8801f15 	stw	r2,124(sp)
    42c8:	010001c4 	movi	r4,7
    42cc:	20829216 	blt	r4,r2,4d18 <___svfprintf_internal_r+0x1198>
    42d0:	42000204 	addi	r8,r8,8
    42d4:	8880400c 	andi	r2,r17,256
    42d8:	1001a11e 	bne	r2,zero,4960 <___svfprintf_internal_r+0xde0>
    42dc:	d8801f17 	ldw	r2,124(sp)
    42e0:	db003117 	ldw	r12,196(sp)
    42e4:	1c87883a 	add	r3,r3,r18
    42e8:	10800044 	addi	r2,r2,1
    42ec:	43000015 	stw	r12,0(r8)
    42f0:	44800115 	stw	r18,4(r8)
    42f4:	d8c02015 	stw	r3,128(sp)
    42f8:	d8801f15 	stw	r2,124(sp)
    42fc:	010001c4 	movi	r4,7
    4300:	20826d16 	blt	r4,r2,4cb8 <___svfprintf_internal_r+0x1138>
    4304:	42000204 	addi	r8,r8,8
    4308:	8c40010c 	andi	r17,r17,4
    430c:	88003226 	beq	r17,zero,43d8 <___svfprintf_internal_r+0x858>
    4310:	db002e17 	ldw	r12,184(sp)
    4314:	dac02a17 	ldw	r11,168(sp)
    4318:	62e1c83a 	sub	r16,r12,r11
    431c:	04002e0e 	bge	zero,r16,43d8 <___svfprintf_internal_r+0x858>
    4320:	04400404 	movi	r17,16
    4324:	d8801f17 	ldw	r2,124(sp)
    4328:	8c05240e 	bge	r17,r16,57bc <___svfprintf_internal_r+0x1c3c>
    432c:	01000174 	movhi	r4,5
    4330:	21377084 	addi	r4,r4,-8766
    4334:	d9003615 	stw	r4,216(sp)
    4338:	048001c4 	movi	r18,7
    433c:	dcc02f17 	ldw	r19,188(sp)
    4340:	00000306 	br	4350 <___svfprintf_internal_r+0x7d0>
    4344:	843ffc04 	addi	r16,r16,-16
    4348:	42000204 	addi	r8,r8,8
    434c:	8c00130e 	bge	r17,r16,439c <___svfprintf_internal_r+0x81c>
    4350:	01400174 	movhi	r5,5
    4354:	18c00404 	addi	r3,r3,16
    4358:	10800044 	addi	r2,r2,1
    435c:	29777084 	addi	r5,r5,-8766
    4360:	41400015 	stw	r5,0(r8)
    4364:	44400115 	stw	r17,4(r8)
    4368:	d8c02015 	stw	r3,128(sp)
    436c:	d8801f15 	stw	r2,124(sp)
    4370:	90bff40e 	bge	r18,r2,4344 <__alt_mem_cfi_flash+0xf6004344>
    4374:	9809883a 	mov	r4,r19
    4378:	b80b883a 	mov	r5,r23
    437c:	b00d883a 	mov	r6,r22
    4380:	000cd340 	call	cd34 <__ssprint_r>
    4384:	103ec61e 	bne	r2,zero,3ea0 <__alt_mem_cfi_flash+0xf6003ea0>
    4388:	843ffc04 	addi	r16,r16,-16
    438c:	d8c02017 	ldw	r3,128(sp)
    4390:	d8801f17 	ldw	r2,124(sp)
    4394:	da000404 	addi	r8,sp,16
    4398:	8c3fed16 	blt	r17,r16,4350 <__alt_mem_cfi_flash+0xf6004350>
    439c:	dac03617 	ldw	r11,216(sp)
    43a0:	1c07883a 	add	r3,r3,r16
    43a4:	10800044 	addi	r2,r2,1
    43a8:	42c00015 	stw	r11,0(r8)
    43ac:	44000115 	stw	r16,4(r8)
    43b0:	d8c02015 	stw	r3,128(sp)
    43b4:	d8801f15 	stw	r2,124(sp)
    43b8:	010001c4 	movi	r4,7
    43bc:	2080060e 	bge	r4,r2,43d8 <___svfprintf_internal_r+0x858>
    43c0:	d9002f17 	ldw	r4,188(sp)
    43c4:	b80b883a 	mov	r5,r23
    43c8:	b00d883a 	mov	r6,r22
    43cc:	000cd340 	call	cd34 <__ssprint_r>
    43d0:	103eb31e 	bne	r2,zero,3ea0 <__alt_mem_cfi_flash+0xf6003ea0>
    43d4:	d8c02017 	ldw	r3,128(sp)
    43d8:	d8802a17 	ldw	r2,168(sp)
    43dc:	db002e17 	ldw	r12,184(sp)
    43e0:	1300010e 	bge	r2,r12,43e8 <___svfprintf_internal_r+0x868>
    43e4:	6005883a 	mov	r2,r12
    43e8:	dac03017 	ldw	r11,192(sp)
    43ec:	5897883a 	add	r11,r11,r2
    43f0:	dac03015 	stw	r11,192(sp)
    43f4:	1802381e 	bne	r3,zero,4cd8 <___svfprintf_internal_r+0x1158>
    43f8:	d8001f15 	stw	zero,124(sp)
    43fc:	da000404 	addi	r8,sp,16
    4400:	003e0b06 	br	3c30 <__alt_mem_cfi_flash+0xf6003c30>
    4404:	8c400414 	ori	r17,r17,16
    4408:	d8c02915 	stw	r3,164(sp)
    440c:	8880080c 	andi	r2,r17,32
    4410:	10010c26 	beq	r2,zero,4844 <___svfprintf_internal_r+0xcc4>
    4414:	db002d17 	ldw	r12,180(sp)
    4418:	0005883a 	mov	r2,zero
    441c:	64c00017 	ldw	r19,0(r12)
    4420:	67000117 	ldw	fp,4(r12)
    4424:	63000204 	addi	r12,r12,8
    4428:	db002d15 	stw	r12,180(sp)
    442c:	9f06b03a 	or	r3,r19,fp
    4430:	d8002785 	stb	zero,158(sp)
    4434:	da403215 	stw	r9,200(sp)
    4438:	002b883a 	mov	r21,zero
    443c:	003ee206 	br	3fc8 <__alt_mem_cfi_flash+0xf6003fc8>
    4440:	8c400414 	ori	r17,r17,16
    4444:	d8c02915 	stw	r3,164(sp)
    4448:	8880080c 	andi	r2,r17,32
    444c:	1000ee26 	beq	r2,zero,4808 <___svfprintf_internal_r+0xc88>
    4450:	dac02d17 	ldw	r11,180(sp)
    4454:	00800044 	movi	r2,1
    4458:	5cc00017 	ldw	r19,0(r11)
    445c:	5f000117 	ldw	fp,4(r11)
    4460:	5ac00204 	addi	r11,r11,8
    4464:	dac02d15 	stw	r11,180(sp)
    4468:	9f06b03a 	or	r3,r19,fp
    446c:	003ff006 	br	4430 <__alt_mem_cfi_flash+0xf6004430>
    4470:	db002d17 	ldw	r12,180(sp)
    4474:	dac02d17 	ldw	r11,180(sp)
    4478:	d8c02915 	stw	r3,164(sp)
    447c:	63000017 	ldw	r12,0(r12)
    4480:	5ac00117 	ldw	r11,4(r11)
    4484:	d9802785 	stb	r6,158(sp)
    4488:	6009883a 	mov	r4,r12
    448c:	580b883a 	mov	r5,r11
    4490:	db003715 	stw	r12,220(sp)
    4494:	da004015 	stw	r8,256(sp)
    4498:	da403f15 	stw	r9,252(sp)
    449c:	dac03815 	stw	r11,224(sp)
    44a0:	000ca8c0 	call	ca8c <__fpclassifyd>
    44a4:	db002d17 	ldw	r12,180(sp)
    44a8:	04800044 	movi	r18,1
    44ac:	da004017 	ldw	r8,256(sp)
    44b0:	64c00204 	addi	r19,r12,8
    44b4:	da403f17 	ldw	r9,252(sp)
    44b8:	d9003717 	ldw	r4,220(sp)
    44bc:	d9403817 	ldw	r5,224(sp)
    44c0:	14832c1e 	bne	r2,r18,5174 <___svfprintf_internal_r+0x15f4>
    44c4:	000d883a 	mov	r6,zero
    44c8:	000f883a 	mov	r7,zero
    44cc:	0011b680 	call	11b68 <__ledf2>
    44d0:	da004017 	ldw	r8,256(sp)
    44d4:	1004c416 	blt	r2,zero,57e8 <___svfprintf_internal_r+0x1c68>
    44d8:	dd402783 	ldbu	r21,158(sp)
    44dc:	008011c4 	movi	r2,71
    44e0:	14041a0e 	bge	r2,r16,554c <___svfprintf_internal_r+0x19cc>
    44e4:	00c00174 	movhi	r3,5
    44e8:	18f75d04 	addi	r3,r3,-8844
    44ec:	d8c03115 	stw	r3,196(sp)
    44f0:	02c000c4 	movi	r11,3
    44f4:	00bfdfc4 	movi	r2,-129
    44f8:	dac02a15 	stw	r11,168(sp)
    44fc:	88a2703a 	and	r17,r17,r2
    4500:	dcc02d15 	stw	r19,180(sp)
    4504:	5825883a 	mov	r18,r11
    4508:	d8003215 	stw	zero,200(sp)
    450c:	d8003415 	stw	zero,208(sp)
    4510:	003ed406 	br	4064 <__alt_mem_cfi_flash+0xf6004064>
    4514:	db002d17 	ldw	r12,180(sp)
    4518:	00800c04 	movi	r2,48
    451c:	d8802705 	stb	r2,156(sp)
    4520:	64c00017 	ldw	r19,0(r12)
    4524:	00801e04 	movi	r2,120
    4528:	d8802745 	stb	r2,157(sp)
    452c:	00800174 	movhi	r2,5
    4530:	10b76504 	addi	r2,r2,-8812
    4534:	63000104 	addi	r12,r12,4
    4538:	d8c02915 	stw	r3,164(sp)
    453c:	d8803b15 	stw	r2,236(sp)
    4540:	0039883a 	mov	fp,zero
    4544:	8c400094 	ori	r17,r17,2
    4548:	db002d15 	stw	r12,180(sp)
    454c:	00800084 	movi	r2,2
    4550:	04001e04 	movi	r16,120
    4554:	9807883a 	mov	r3,r19
    4558:	003fb506 	br	4430 <__alt_mem_cfi_flash+0xf6004430>
    455c:	8c400214 	ori	r17,r17,8
    4560:	1805883a 	mov	r2,r3
    4564:	1c000007 	ldb	r16,0(r3)
    4568:	003ddb06 	br	3cd8 <__alt_mem_cfi_flash+0xf6003cd8>
    456c:	d8c02915 	stw	r3,164(sp)
    4570:	d9802785 	stb	r6,158(sp)
    4574:	8880080c 	andi	r2,r17,32
    4578:	d8c02d17 	ldw	r3,180(sp)
    457c:	103e871e 	bne	r2,zero,3f9c <__alt_mem_cfi_flash+0xf6003f9c>
    4580:	8880040c 	andi	r2,r17,16
    4584:	10027a1e 	bne	r2,zero,4f70 <___svfprintf_internal_r+0x13f0>
    4588:	8880100c 	andi	r2,r17,64
    458c:	10027826 	beq	r2,zero,4f70 <___svfprintf_internal_r+0x13f0>
    4590:	1cc0000f 	ldh	r19,0(r3)
    4594:	db002d17 	ldw	r12,180(sp)
    4598:	9839d7fa 	srai	fp,r19,31
    459c:	63000104 	addi	r12,r12,4
    45a0:	db002d15 	stw	r12,180(sp)
    45a4:	e005883a 	mov	r2,fp
    45a8:	103e830e 	bge	r2,zero,3fb8 <__alt_mem_cfi_flash+0xf6003fb8>
    45ac:	04e7c83a 	sub	r19,zero,r19
    45b0:	9804c03a 	cmpne	r2,r19,zero
    45b4:	0739c83a 	sub	fp,zero,fp
    45b8:	e0b9c83a 	sub	fp,fp,r2
    45bc:	05400b44 	movi	r21,45
    45c0:	dd402785 	stb	r21,158(sp)
    45c4:	da403215 	stw	r9,200(sp)
    45c8:	00800044 	movi	r2,1
    45cc:	9f06b03a 	or	r3,r19,fp
    45d0:	003e7d06 	br	3fc8 <__alt_mem_cfi_flash+0xf6003fc8>
    45d4:	8c401014 	ori	r17,r17,64
    45d8:	1805883a 	mov	r2,r3
    45dc:	1c000007 	ldb	r16,0(r3)
    45e0:	003dbd06 	br	3cd8 <__alt_mem_cfi_flash+0xf6003cd8>
    45e4:	1c000007 	ldb	r16,0(r3)
    45e8:	81c37126 	beq	r16,r7,53b0 <___svfprintf_internal_r+0x1830>
    45ec:	8c400414 	ori	r17,r17,16
    45f0:	1805883a 	mov	r2,r3
    45f4:	003db806 	br	3cd8 <__alt_mem_cfi_flash+0xf6003cd8>
    45f8:	d8c02915 	stw	r3,164(sp)
    45fc:	d9802785 	stb	r6,158(sp)
    4600:	8880080c 	andi	r2,r17,32
    4604:	1002f026 	beq	r2,zero,51c8 <___svfprintf_internal_r+0x1648>
    4608:	db002d17 	ldw	r12,180(sp)
    460c:	dac03017 	ldw	r11,192(sp)
    4610:	60800017 	ldw	r2,0(r12)
    4614:	5807d7fa 	srai	r3,r11,31
    4618:	63000104 	addi	r12,r12,4
    461c:	db002d15 	stw	r12,180(sp)
    4620:	12c00015 	stw	r11,0(r2)
    4624:	10c00115 	stw	r3,4(r2)
    4628:	003d8106 	br	3c30 <__alt_mem_cfi_flash+0xf6003c30>
    462c:	30803fcc 	andi	r2,r6,255
    4630:	1080201c 	xori	r2,r2,128
    4634:	10bfe004 	addi	r2,r2,-128
    4638:	1002fd1e 	bne	r2,zero,5230 <___svfprintf_internal_r+0x16b0>
    463c:	1805883a 	mov	r2,r3
    4640:	01800804 	movi	r6,32
    4644:	1c000007 	ldb	r16,0(r3)
    4648:	003da306 	br	3cd8 <__alt_mem_cfi_flash+0xf6003cd8>
    464c:	03000174 	movhi	r12,5
    4650:	63376004 	addi	r12,r12,-8832
    4654:	d8c02915 	stw	r3,164(sp)
    4658:	d9802785 	stb	r6,158(sp)
    465c:	db003b15 	stw	r12,236(sp)
    4660:	88c0080c 	andi	r3,r17,32
    4664:	d8802d17 	ldw	r2,180(sp)
    4668:	18005c26 	beq	r3,zero,47dc <___svfprintf_internal_r+0xc5c>
    466c:	dac02d17 	ldw	r11,180(sp)
    4670:	14c00017 	ldw	r19,0(r2)
    4674:	17000117 	ldw	fp,4(r2)
    4678:	5ac00204 	addi	r11,r11,8
    467c:	dac02d15 	stw	r11,180(sp)
    4680:	8880004c 	andi	r2,r17,1
    4684:	10022f26 	beq	r2,zero,4f44 <___svfprintf_internal_r+0x13c4>
    4688:	9f06b03a 	or	r3,r19,fp
    468c:	1802eb26 	beq	r3,zero,523c <___svfprintf_internal_r+0x16bc>
    4690:	00800c04 	movi	r2,48
    4694:	d8802705 	stb	r2,156(sp)
    4698:	dc002745 	stb	r16,157(sp)
    469c:	8c400094 	ori	r17,r17,2
    46a0:	00800084 	movi	r2,2
    46a4:	003f6206 	br	4430 <__alt_mem_cfi_flash+0xf6004430>
    46a8:	dac02d17 	ldw	r11,180(sp)
    46ac:	db002d17 	ldw	r12,180(sp)
    46b0:	d8c02915 	stw	r3,164(sp)
    46b4:	5ac00017 	ldw	r11,0(r11)
    46b8:	d8002785 	stb	zero,158(sp)
    46bc:	64c00104 	addi	r19,r12,4
    46c0:	dac03115 	stw	r11,196(sp)
    46c4:	58042e26 	beq	r11,zero,5780 <___svfprintf_internal_r+0x1c00>
    46c8:	d9003117 	ldw	r4,196(sp)
    46cc:	4803c416 	blt	r9,zero,55e0 <___svfprintf_internal_r+0x1a60>
    46d0:	480d883a 	mov	r6,r9
    46d4:	000b883a 	mov	r5,zero
