
niosII_training.elf:     file format elf32-littlenios2
niosII_training.elf
architecture: nios2:r1, flags 0x00000112:
EXEC_P, HAS_SYMS, D_PAGED
start address 0x01200240

Program Header:
    LOAD off    0x00001000 vaddr 0x00800000 paddr 0x00800000 align 2**12
         filesz 0x00000000 memsz 0x00000000 flags r-x
    LOAD off    0x00001020 vaddr 0x01200020 paddr 0x01200020 align 2**12
         filesz 0x00009b58 memsz 0x00009cb0 flags rwx

Sections:
Idx Name          Size      VMA       LMA       File off  Algn
  0 .entry        00000000  00800000  00800000  00001000  2**5
                  CONTENTS, ALLOC, LOAD, READONLY, CODE
  1 .exceptions   00000220  01200020  01200020  00001020  2**2
                  CONTENTS, ALLOC, LOAD, READONLY, CODE
  2 .text         00007d78  01200240  01200240  00001240  2**2
                  CONTENTS, ALLOC, LOAD, READONLY, CODE
  3 .rodata       00000070  01207fb8  01207fb8  00008fb8  2**2
                  CONTENTS, ALLOC, LOAD, READONLY, DATA
  4 .rwdata       00001b50  01208028  01208028  00009028  2**2
                  CONTENTS, ALLOC, LOAD, DATA, SMALL_DATA
  5 .bss          00000158  01209b78  01209b78  0000ab78  2**2
                  ALLOC, SMALL_DATA
  6 .ext_flash_ctl 00000000  00800020  00800020  0000ab78  2**0
                  CONTENTS
  7 .ext_ram_ctl  00000000  01209cd0  01209cd0  0000ab78  2**0
                  CONTENTS
  8 .instruction_tcm 00000000  02000000  02000000  0000ab78  2**0
                  CONTENTS
  9 .comment      00000023  00000000  00000000  0000ab78  2**0
                  CONTENTS, READONLY
 10 .debug_aranges 00000a10  00000000  00000000  0000aba0  2**3
                  CONTENTS, READONLY, DEBUGGING
 11 .debug_info   00018a01  00000000  00000000  0000b5b0  2**0
                  CONTENTS, READONLY, DEBUGGING
 12 .debug_abbrev 000066a9  00000000  00000000  00023fb1  2**0
                  CONTENTS, READONLY, DEBUGGING
 13 .debug_line   000071bd  00000000  00000000  0002a65a  2**0
                  CONTENTS, READONLY, DEBUGGING
 14 .debug_frame  00001b1c  00000000  00000000  00031818  2**2
                  CONTENTS, READONLY, DEBUGGING
 15 .debug_str    00002e00  00000000  00000000  00033334  2**0
                  CONTENTS, READONLY, DEBUGGING
 16 .debug_loc    00004683  00000000  00000000  00036134  2**0
                  CONTENTS, READONLY, DEBUGGING
 17 .debug_alt_sim_info 00000050  00000000  00000000  0003a7b8  2**2
                  CONTENTS, READONLY, DEBUGGING
 18 .debug_ranges 00000308  00000000  00000000  0003a808  2**3
                  CONTENTS, READONLY, DEBUGGING
 19 .thread_model 00000003  00000000  00000000  0003d7b0  2**0
                  CONTENTS, READONLY
 20 .cpu          00000003  00000000  00000000  0003d7b3  2**0
                  CONTENTS, READONLY
 21 .qsys         00000001  00000000  00000000  0003d7b6  2**0
                  CONTENTS, READONLY
 22 .simulation_enabled 00000001  00000000  00000000  0003d7b7  2**0
                  CONTENTS, READONLY
 23 .sysid_hash   00000004  00000000  00000000  0003d7b8  2**0
                  CONTENTS, READONLY
 24 .sysid_base   00000004  00000000  00000000  0003d7bc  2**0
                  CONTENTS, READONLY
 25 .sysid_time   00000004  00000000  00000000  0003d7c0  2**0
                  CONTENTS, READONLY
 26 .stderr_dev   00000009  00000000  00000000  0003d7c4  2**0
                  CONTENTS, READONLY
 27 .stdin_dev    00000009  00000000  00000000  0003d7cd  2**0
                  CONTENTS, READONLY
 28 .stdout_dev   00000009  00000000  00000000  0003d7d6  2**0
                  CONTENTS, READONLY
 29 .sopc_system_name 00000006  00000000  00000000  0003d7df  2**0
                  CONTENTS, READONLY
 30 .quartus_project_dir 00000057  00000000  00000000  0003d7e5  2**0
                  CONTENTS, READONLY
 31 .jdi          00003635  00000000  00000000  0003d83c  2**0
                  CONTENTS, READONLY
 32 .sopcinfo     00070dbf  00000000  00000000  00040e71  2**0
                  CONTENTS, READONLY
SYMBOL TABLE:
00800000 l    d  .entry	00000000 .entry
01200020 l    d  .exceptions	00000000 .exceptions
01200240 l    d  .text	00000000 .text
01207fb8 l    d  .rodata	00000000 .rodata
01208028 l    d  .rwdata	00000000 .rwdata
01209b78 l    d  .bss	00000000 .bss
00800020 l    d  .ext_flash_ctl	00000000 .ext_flash_ctl
01209cd0 l    d  .ext_ram_ctl	00000000 .ext_ram_ctl
02000000 l    d  .instruction_tcm	00000000 .instruction_tcm
00000000 l    d  .comment	00000000 .comment
00000000 l    d  .debug_aranges	00000000 .debug_aranges
00000000 l    d  .debug_info	00000000 .debug_info
00000000 l    d  .debug_abbrev	00000000 .debug_abbrev
00000000 l    d  .debug_line	00000000 .debug_line
00000000 l    d  .debug_frame	00000000 .debug_frame
00000000 l    d  .debug_str	00000000 .debug_str
00000000 l    d  .debug_loc	00000000 .debug_loc
00000000 l    d  .debug_alt_sim_info	00000000 .debug_alt_sim_info
00000000 l    d  .debug_ranges	00000000 .debug_ranges
00000000 l    df *ABS*	00000000 ../niosII_training_bsp//obj/HAL/src/crt0.o
01200284 l       .text	00000000 alt_after_alt_main
00000000 l    df *ABS*	00000000 alt_irq_handler.c
00000000 l    df *ABS*	00000000 alt_instruction_exception_entry.c
00000000 l    df *ABS*	00000000 simple.c
01200288 l     F .text	0000006c handle_button_interrupts
012002f4 l     F .text	00000074 init_button_pio
00000000 l    df *ABS*	00000000 puts.c
00000000 l    df *ABS*	00000000 strlen.c
00000000 l    df *ABS*	00000000 fvwrite.c
00000000 l    df *ABS*	00000000 impure.c
01208028 l     O .rwdata	00000424 impure_data
00000000 l    df *ABS*	00000000 mallocr.c
00000000 l    df *ABS*	00000000 memchr.c
00000000 l    df *ABS*	00000000 memcpy.c
00000000 l    df *ABS*	00000000 memmove.c
00000000 l    df *ABS*	00000000 mallocr.c
00000000 l    df *ABS*	00000000 sbrkr.c
00000000 l    df *ABS*	00000000 wsetup.c
00000000 l    df *ABS*	00000000 fflush.c
00000000 l    df *ABS*	00000000 findfp.c
01201f44 l     F .text	00000008 __fp_lock
01201f4c l     F .text	00000008 __fp_unlock
01201f60 l     F .text	000001a0 __sinit.part.1
00000000 l    df *ABS*	00000000 mallocr.c
00000000 l    df *ABS*	00000000 fwalk.c
00000000 l    df *ABS*	00000000 int_errno.c
00000000 l    df *ABS*	00000000 makebuf.c
00000000 l    df *ABS*	00000000 memset.c
00000000 l    df *ABS*	00000000 stdio.c
00000000 l    df *ABS*	00000000 writer.c
00000000 l    df *ABS*	00000000 closer.c
00000000 l    df *ABS*	00000000 fclose.c
00000000 l    df *ABS*	00000000 fstatr.c
00000000 l    df *ABS*	00000000 isattyr.c
00000000 l    df *ABS*	00000000 lseekr.c
00000000 l    df *ABS*	00000000 readr.c
00000000 l    df *ABS*	00000000 alt_close.c
01202fa8 l     F .text	00000050 alt_get_errno
00000000 l    df *ABS*	00000000 alt_dev.c
012030c8 l     F .text	0000002c alt_dev_null_write
00000000 l    df *ABS*	00000000 alt_errno.c
00000000 l    df *ABS*	00000000 alt_fstat.c
012030f4 l     F .text	00000050 alt_get_errno
00000000 l    df *ABS*	00000000 alt_iic.c
00000000 l    df *ABS*	00000000 alt_iic_isr_register.c
00000000 l    df *ABS*	00000000 alt_irq_vars.c
00000000 l    df *ABS*	00000000 alt_isatty.c
012034c4 l     F .text	00000050 alt_get_errno
00000000 l    df *ABS*	00000000 alt_lseek.c
012035b8 l     F .text	00000050 alt_get_errno
00000000 l    df *ABS*	00000000 alt_main.c
00000000 l    df *ABS*	00000000 alt_malloc_lock.c
00000000 l    df *ABS*	00000000 alt_read.c
01203794 l     F .text	00000050 alt_get_errno
00000000 l    df *ABS*	00000000 alt_release_fd.c
00000000 l    df *ABS*	00000000 alt_sbrk.c
01209b64 l     O .rwdata	00000004 heap_end
00000000 l    df *ABS*	00000000 alt_usleep.c
00000000 l    df *ABS*	00000000 alt_write.c
01203a20 l     F .text	00000050 alt_get_errno
00000000 l    df *ABS*	00000000 alt_sys_init.c
01203b68 l     F .text	00000038 alt_dev_reg
012089fc l     O .rwdata	000000dc ext_flash_ctl
01208ad8 l     O .rwdata	00001060 jtag_uart
00000000 l    df *ABS*	00000000 altera_avalon_cfi_flash.c
01203c40 l     F .text	00000038 alt_flash_device_register
00000000 l    df *ABS*	00000000 altera_avalon_cfi_flash_table.c
01204a7c l     F .text	00000080 alt_read_16bit_query_entry
00000000 l    df *ABS*	00000000 altera_avalon_jtag_uart_fd.c
00000000 l    df *ABS*	00000000 altera_avalon_jtag_uart_init.c
01205b48 l     F .text	00000204 altera_avalon_jtag_uart_irq
01205d4c l     F .text	000000a8 altera_avalon_jtag_uart_timeout
00000000 l    df *ABS*	00000000 altera_avalon_jtag_uart_ioctl.c
00000000 l    df *ABS*	00000000 altera_avalon_jtag_uart_read.c
00000000 l    df *ABS*	00000000 altera_avalon_jtag_uart_write.c
00000000 l    df *ABS*	00000000 altera_avalon_timer_sc.c
0120636c l     F .text	00000074 alt_avalon_timer_sc_irq
00000000 l    df *ABS*	00000000 alt_alarm_start.c
00000000 l    df *ABS*	00000000 alt_busy_sleep.c
00000000 l    df *ABS*	00000000 alt_dcache_flush.c
00000000 l    df *ABS*	00000000 alt_dev_llist_insert.c
01206774 l     F .text	00000050 alt_get_errno
00000000 l    df *ABS*	00000000 alt_do_ctors.c
00000000 l    df *ABS*	00000000 alt_do_dtors.c
00000000 l    df *ABS*	00000000 alt_flash_dev.c
00000000 l    df *ABS*	00000000 alt_io_redirect.c
01206a74 l     F .text	000000c0 alt_open_fd
00000000 l    df *ABS*	00000000 alt_open.c
01206bac l     F .text	00000050 alt_get_errno
01206bfc l     F .text	000000cc alt_file_locked
00000000 l    df *ABS*	00000000 alt_tick.c
00000000 l    df *ABS*	00000000 altera_nios2_gen2_irq.c
00000000 l    df *ABS*	00000000 altera_avalon_cfi_flash_amd.c
01207370 l     F .text	000000cc alt_write_word_amd
01207254 l     F .text	0000011c alt_wait_for_command_to_complete_amd
00000000 l    df *ABS*	00000000 altera_avalon_cfi_flash_intel.c
01207644 l     F .text	00000178 alt_unlock_block_intel
012077bc l     F .text	000000d4 alt_write_word_intel
00000000 l    df *ABS*	00000000 alt_find_dev.c
00000000 l    df *ABS*	00000000 alt_find_file.c
00000000 l    df *ABS*	00000000 alt_get_fd.c
00000000 l    df *ABS*	00000000 atexit.c
00000000 l    df *ABS*	00000000 exit.c
00000000 l    df *ABS*	00000000 memcmp.c
00000000 l    df *ABS*	00000000 __atexit.c
00000000 l    df *ABS*	00000000 __call_atexit.c
00000000 l    df *ABS*	00000000 lib2-divmod.c
01207e58 l     F .text	0000006c udivmodsi4
00000000 l    df *ABS*	00000000 alt_exit.c
01209b9c g     O .bss	00000004 alt_instruction_exception_handler
01202e9c g     F .text	00000054 _isatty_r
012036dc g     F .text	00000078 alt_main
0120049c g     F .text	000000b8 _puts_r
01204548 g     F .text	00000040 alt_read_query_entry_32bit
01209bd0 g     O .bss	00000100 alt_irq
01202ef0 g     F .text	0000005c _lseek_r
01203d08 g     F .text	000002a8 alt_flash_cfi_write
01209cd0 g       *ABS*	00000000 __alt_heap_start
01202c1c g     F .text	0000005c __sseek
01202294 g     F .text	00000010 __sinit
01202100 g     F .text	00000064 __sfmoreglue
01203774 g     F .text	00000020 __malloc_unlock
0120146c g     F .text	0000015c memmove
0120227c g     F .text	00000018 _cleanup
01206fbc g     F .text	00000020 altera_nios2_gen2_irq_init
00000000  w      *UND*	00000000 __errno
02000000 g       *ABS*	00000000 __alt_mem_instruction_tcm
012046e0 g     F .text	00000050 alt_write_flash_command_32bit_device_16bit_mode
00800000 g     F .entry	00000000 __reset
01209b78 g     O .bss	00000004 edge_capture
01202e44 g     F .text	00000058 _fstat_r
012041f8 g     F .text	000002d4 alt_flash_program_block
01209b88 g     O .bss	00000004 errno
01202b98 g     F .text	00000008 __seofread
01209b94 g     O .bss	00000004 alt_argv
01211b38 g       *ABS*	00000000 _gp
012039f0 g     F .text	00000030 usleep
0120887c g     O .rwdata	00000180 alt_fd_list
01207890 g     F .text	00000090 alt_find_dev
01201334 g     F .text	00000138 memcpy
01201f54 g     F .text	0000000c _cleanup_r
01206b34 g     F .text	00000078 alt_io_redirect
01200000 g       *ABS*	00000000 __alt_mem_ext_ram_ctl
01207fb8 g       *ABS*	00000000 __DTOR_END__
01200554 g     F .text	00000014 puts
012069d8 g     F .text	0000009c alt_exception_cause_generated_bad_addr
01205f48 g     F .text	0000020c altera_avalon_jtag_uart_read
00000000  w      *UND*	00000000 malloc
01207f74 g     F .text	00000008 .hidden __udivsi3
01203514 g     F .text	000000a4 isatty
01209b84 g     O .bss	00000004 __malloc_top_pad
01200600 g     F .text	000004a4 __sfvwrite_r
01201b68 g     F .text	00000054 _sbrk_r
0120743c g     F .text	00000080 alt_program_intel
01202f4c g     F .text	0000005c _read_r
01206700 g     F .text	00000074 alt_dcache_flush
01209b58 g     O .rwdata	00000004 alt_max_fd
012044cc g     F .text	0000003c alt_read_query_entry_8bit
01202d30 g     F .text	00000100 _fclose_r
012074bc g     F .text	00000188 alt_erase_block_intel
01201f14 g     F .text	00000030 fflush
01209b80 g     O .bss	00000004 __malloc_max_sbrked_mem
01203608 g     F .text	000000d4 lseek
01209b38 g     O .rwdata	00000004 _global_impure_ptr
012015c8 g     F .text	000005a0 _realloc_r
01209cd0 g       *ABS*	00000000 __bss_end
012033d4 g     F .text	000000f0 alt_iic_isr_register
01206eb8 g     F .text	00000104 alt_tick
012022b4 g     F .text	00000018 __fp_lock_all
01203388 g     F .text	0000004c alt_ic_irq_enabled
01206e20 g     F .text	00000098 alt_alarm_stop
01209b8c g     O .bss	00000004 alt_irq_active
012000fc g     F .exceptions	000000d0 alt_irq_handler
01208854 g     O .rwdata	00000028 alt_dev_null
012049e0 g     F .text	0000009c alt_set_flash_algorithm_func
01204588 g     F .text	00000044 alt_write_flash_command_8bit_device_8bit_mode
01209b50 g     O .rwdata	00000008 alt_dev_list
01203a70 g     F .text	000000f8 write
01203144 g     F .text	000000b0 fstat
01205848 g     F .text	000000d8 alt_check_primary_table
01207f7c g     F .text	00000008 .hidden __umodsi3
0120403c g     F .text	00000064 alt_flash_cfi_read
01204780 g     F .text	00000038 alt_write_native_8bit
01209cd0 g       *ABS*	00000000 end
012045cc g     F .text	00000078 alt_write_flash_command_16bit_device_8bit_mode
01204afc g     F .text	000005c8 alt_read_cfi_table
01205a84 g     F .text	000000c4 altera_avalon_jtag_uart_init
012001cc g     F .exceptions	00000074 alt_instruction_exception_entry
01207fb8 g       *ABS*	00000000 __CTOR_LIST__
01400000 g       *ABS*	00000000 __alt_stack_pointer
012063e0 g     F .text	00000088 alt_avalon_timer_sc_init
01206154 g     F .text	00000218 altera_avalon_jtag_uart_write
01203c78 g     F .text	00000090 alt_flash_cfi_init
012022a4 g     F .text	00000004 __sfp_lock_acquire
0120124c g     F .text	000000e8 memchr
01202408 g     F .text	000002f0 _free_r
01207cc4 g     F .text	00000194 __call_exitprocs
01209b40 g     O .rwdata	00000004 __malloc_sbrk_base
01200240 g     F .text	00000048 _start
01209ba0 g     O .bss	00000004 _alt_tick_rate
01209ba4 g     O .bss	00000004 _alt_nticks
012037e4 g     F .text	000000fc read
01203bd4 g     F .text	0000006c alt_sys_init
01207bb0 g     F .text	00000114 __register_exitproc
01204508 g     F .text	00000040 alt_read_query_entry_16bit
01205df4 g     F .text	00000068 altera_avalon_jtag_uart_close
00800000 g       *ABS*	00000000 __alt_mem_ext_flash_ctl
01209ba8 g     O .bss	00000028 __malloc_current_mallinfo
01204824 g     F .text	000001bc alt_set_flash_width_func
01205920 g     F .text	00000060 altera_avalon_jtag_uart_read_fd
01207a34 g     F .text	000000b4 alt_get_fd
012065a8 g     F .text	00000158 alt_busy_sleep
01202cdc g     F .text	00000054 _close_r
01207044 g     F .text	00000210 alt_erase_block_amd
01207b34 g     F .text	0000007c memcmp
012059e0 g     F .text	00000050 altera_avalon_jtag_uart_close_fd
01209cd0 g       *ABS*	00000000 __alt_stack_base
01205a30 g     F .text	00000054 altera_avalon_jtag_uart_ioctl_fd
01201bbc g     F .text	00000130 __swsetup_r
012050c4 g     F .text	00000784 alt_read_cfi_width
01202164 g     F .text	00000118 __sfp
0120844c g     O .rwdata	00000408 __malloc_av_
012022b0 g     F .text	00000004 __sinit_lock_release
01202b44 g     F .text	00000054 __sread
01207920 g     F .text	00000114 alt_find_file
012067c4 g     F .text	000000a4 alt_dev_llist_insert
01203754 g     F .text	00000020 __malloc_lock
01203940 g     F .text	000000b0 sbrk
01201cec g     F .text	00000228 _fflush_r
01209b68 g     O .rwdata	00000008 alt_flash_dev_list
01204694 g     F .text	0000004c alt_write_flash_command_16bit_device_16bit_mode
01209b78 g       *ABS*	00000000 __bss_start
01202a20 g     F .text	00000124 memset
01200368 g     F .text	00000134 main
01209b98 g     O .bss	00000004 alt_envp
01209b7c g     O .bss	00000004 __malloc_max_total_mem
01205980 g     F .text	00000060 altera_avalon_jtag_uart_write_fd
01202c78 g     F .text	00000008 __sclose
01400000 g       *ABS*	00000000 __alt_heap_limit
01202e30 g     F .text	00000014 fclose
01200aa4 g     F .text	000007a8 _malloc_r
01209b5c g     O .rwdata	00000004 alt_errno
01204730 g     F .text	00000050 alt_write_flash_command_32bit_device_32bit_mode
012026f8 g     F .text	000000b8 _fwalk
012040a0 g     F .text	00000158 alt_write_value_to_flash
012047b8 g     F .text	00000038 alt_write_native_16bit
01207ec4 g     F .text	00000054 .hidden __divsi3
012022e4 g     F .text	00000124 _malloc_trim_r
01207fb8 g       *ABS*	00000000 __CTOR_END__
01207fb8 g       *ABS*	00000000 __DTOR_LIST__
01203ba0 g     F .text	00000034 alt_irq_init
012038e0 g     F .text	00000060 alt_release_fd
01207ae8 g     F .text	00000014 atexit
01202c80 g     F .text	0000005c _write_r
01209b3c g     O .rwdata	00000004 _impure_ptr
01209b90 g     O .bss	00000004 alt_argc
012068c4 g     F .text	0000005c _do_dtors
01200020 g       .exceptions	00000000 alt_irq_entry
012022cc g     F .text	00000018 __fp_unlock_all
01209b48 g     O .rwdata	00000008 alt_fs_list
01204644 g     F .text	00000050 alt_write_flash_command_32bit_device_8bit_mode
012031f4 g     F .text	00000050 alt_ic_isr_register
01209b78 g       *ABS*	00000000 _edata
01209cd0 g       *ABS*	00000000 _end
01206920 g     F .text	00000068 alt_flash_open_dev
01205e5c g     F .text	000000ec altera_avalon_jtag_uart_ioctl
012032e4 g     F .text	000000a4 alt_ic_irq_disable
01202ba0 g     F .text	0000007c __swrite
01209b44 g     O .rwdata	00000004 __malloc_trim_threshold
01207afc g     F .text	00000038 exit
012027b0 g     F .text	000000b8 _fwalk_reent
01206988 g     F .text	00000050 alt_flash_close_dev
01207f18 g     F .text	0000005c .hidden __modsi3
01400000 g       *ABS*	00000000 __alt_data_end
01200020 g     F .exceptions	00000000 alt_exception
012022a8 g     F .text	00000004 __sfp_lock_release
01207f84 g     F .text	00000034 _exit
01206468 g     F .text	00000140 alt_alarm_start
01202868 g     F .text	000001b8 __smakebuf_r
012047f0 g     F .text	00000034 alt_write_native_32bit
01200568 g     F .text	00000098 strlen
01206cc8 g     F .text	00000158 open
01203fb0 g     F .text	0000008c alt_flash_cfi_get_info
01209b60 g     O .rwdata	00000004 alt_priority_mask
01203244 g     F .text	000000a0 alt_ic_irq_enable
01209b70 g     O .rwdata	00000008 alt_alarm_list
01206868 g     F .text	0000005c _do_ctors
01202ff8 g     F .text	000000d0 close
01206fdc g     F .text	00000068 alt_program_amd
00000000  w      *UND*	00000000 free
012022ac g     F .text	00000004 __sinit_lock_acquire



Disassembly of section .exceptions:

01200020 <alt_exception>:

#else /* ALT_EXCEPTION_STACK disabled */
        /* 
         * Reserve space on normal stack for registers about to be pushed.
         */
        addi  sp, sp, -76
 1200020:	deffed04 	addi	sp,sp,-76
         * documentation for details).
         *
         * Leave a gap in the stack frame at 4(sp) for the muldiv handler to
         * store zero into.
         */
        stw   ra,  0(sp)
 1200024:	dfc00015 	stw	ra,0(sp)
        stw   r1,   8(sp)
 1200028:	d8400215 	stw	at,8(sp)
        stw   r2,  12(sp)
 120002c:	d8800315 	stw	r2,12(sp)
        stw   r3,  16(sp)
 1200030:	d8c00415 	stw	r3,16(sp)
        stw   r4,  20(sp)
 1200034:	d9000515 	stw	r4,20(sp)
        stw   r5,  24(sp)
 1200038:	d9400615 	stw	r5,24(sp)
        stw   r6,  28(sp)
 120003c:	d9800715 	stw	r6,28(sp)
        stw   r7,  32(sp)
 1200040:	d9c00815 	stw	r7,32(sp)
        rdctl r5, estatus   /* Read early to avoid usage stall */
 1200044:	000b307a 	rdctl	r5,estatus
        stw   r8,  36(sp)
 1200048:	da000915 	stw	r8,36(sp)
        stw   r9,  40(sp)
 120004c:	da400a15 	stw	r9,40(sp)
        stw   r10, 44(sp)
 1200050:	da800b15 	stw	r10,44(sp)
        stw   r11, 48(sp)
 1200054:	dac00c15 	stw	r11,48(sp)
        stw   r12, 52(sp)
 1200058:	db000d15 	stw	r12,52(sp)
        stw   r13, 56(sp)
 120005c:	db400e15 	stw	r13,56(sp)
        stw   r14, 60(sp)
 1200060:	db800f15 	stw	r14,60(sp)
        stw   r15, 64(sp)
 1200064:	dbc01015 	stw	r15,64(sp)
        /*
         * ea-4 contains the address of the instruction being executed
         * when the exception occured. For interrupt exceptions, we will
         * will be re-issue the isntruction. Store it in 72(sp)
         */
        stw   r5,  68(sp)  /* estatus */
 1200068:	d9401115 	stw	r5,68(sp)
        addi  r15, ea, -4  /* instruction that caused exception */
 120006c:	ebffff04 	addi	r15,ea,-4
        stw   r15,  72(sp)
 1200070:	dbc01215 	stw	r15,72(sp)
#else
        /*
         * Test to see if the exception was a software exception or caused 
         * by an external interrupt, and vector accordingly.
         */
        rdctl r4, ipending
 1200074:	0009313a 	rdctl	r4,ipending
        andi  r2, r5, 1
 1200078:	2880004c 	andi	r2,r5,1
        beq   r2, zero, .Lnot_irq
 120007c:	10000326 	beq	r2,zero,120008c <alt_exception+0x6c>
        beq   r4, zero, .Lnot_irq
 1200080:	20000226 	beq	r4,zero,120008c <alt_exception+0x6c>
        /*
         * Now that all necessary registers have been preserved, call 
         * alt_irq_handler() to process the interrupts.
         */

        call alt_irq_handler
 1200084:	12000fc0 	call	12000fc <alt_irq_handler>

        .section .exceptions.irqreturn, "xa"

        br    .Lexception_exit
 1200088:	00000706 	br	12000a8 <alt_exception+0x88>
         * upon completion, so we write ea (address of instruction *after*
         * the one where the exception occured) into 72(sp). The actual
         * instruction that caused the exception is written in r2, which these
         * handlers will utilize.
         */
        stw   ea,  72(sp)  /* Don't re-issue */
 120008c:	df401215 	stw	ea,72(sp)
        ldhu.n  r2, 0(r4)
        ldhu.n  r3, 2(r4)
        slli.n  r3, r3, 16
        or.n    r2, r2, r3 /* Instruction that caused exception */
#else
        ldw   r2, -4(ea)   /* Instruction that caused exception */
 1200090:	e8bfff17 	ldw	r2,-4(ea)
         * debugger is present) or go into an infinite loop since the
         * handling behavior is undefined; in that case we will not return here.
         */

        /* Load exception-causing address as first argument (r4) */
        addi   r4, ea, -4
 1200094:	e93fff04 	addi	r4,ea,-4

        /* Call the instruction-exception entry */
        call   alt_instruction_exception_entry
 1200098:	12001cc0 	call	12001cc <alt_instruction_exception_entry>
         * instruction
         *
         * Return code was 0: Skip. The instruction after the exception is
         * already stored in 72(sp).
         */
        bne   r2, r0, .Lexception_exit
 120009c:	1000021e 	bne	r2,zero,12000a8 <alt_exception+0x88>

        /*
         * Otherwise, modify 72(sp) to re-issue the instruction that caused the
         * exception.
         */
        addi  r15, ea, -4  /* instruction that caused exception */
 12000a0:	ebffff04 	addi	r15,ea,-4
        stw   r15,  72(sp)
 12000a4:	dbc01215 	stw	r15,72(sp)
        /* 
         * Restore the saved registers, so that all general purpose registers 
         * have been restored to their state at the time the interrupt occured.
         */

        ldw   r5,  68(sp)
 12000a8:	d9401117 	ldw	r5,68(sp)
        ldw   ea,  72(sp)  /* This becomes the PC once eret is executed */
 12000ac:	df401217 	ldw	ea,72(sp)
        ldw   ra,   0(sp)
 12000b0:	dfc00017 	ldw	ra,0(sp)

        wrctl estatus, r5
 12000b4:	2801707a 	wrctl	estatus,r5

        ldw   r1,   8(sp)
 12000b8:	d8400217 	ldw	at,8(sp)
        ldw   r2,  12(sp)
 12000bc:	d8800317 	ldw	r2,12(sp)
        ldw   r3,  16(sp)
 12000c0:	d8c00417 	ldw	r3,16(sp)
        ldw   r4,  20(sp)
 12000c4:	d9000517 	ldw	r4,20(sp)
        ldw   r5,  24(sp)
 12000c8:	d9400617 	ldw	r5,24(sp)
        ldw   r6,  28(sp)
 12000cc:	d9800717 	ldw	r6,28(sp)
        ldw   r7,  32(sp)
 12000d0:	d9c00817 	ldw	r7,32(sp)

#if defined(ALT_EXCEPTION_STACK) && defined(ALT_STACK_CHECK)
        ldw   et, %gprel(alt_exception_old_stack_limit)(gp)
#endif

        ldw   r8,  36(sp)
 12000d4:	da000917 	ldw	r8,36(sp)
        ldw   r9,  40(sp)
 12000d8:	da400a17 	ldw	r9,40(sp)
        ldw   r10, 44(sp)
 12000dc:	da800b17 	ldw	r10,44(sp)
        ldw   r11, 48(sp)
 12000e0:	dac00c17 	ldw	r11,48(sp)
        ldw   r12, 52(sp)
 12000e4:	db000d17 	ldw	r12,52(sp)
        ldw   r13, 56(sp)
 12000e8:	db400e17 	ldw	r13,56(sp)
        ldw   r14, 60(sp)
 12000ec:	db800f17 	ldw	r14,60(sp)
        ldw   r15, 64(sp)
 12000f0:	dbc01017 	ldw	r15,64(sp)
        stw   et, %gprel(alt_stack_limit_value)(gp)
        stw   zero, %gprel(alt_exception_old_stack_limit)(gp)
#endif /* ALT_STACK_CHECK */
        ldw   sp,  76(sp)
#else /* ALT_EXCEPTION_STACK disabled */
        addi  sp, sp, 76
 12000f4:	dec01304 	addi	sp,sp,76

        /*
         * Return to the interrupted instruction.
         */

        eret
 12000f8:	ef80083a 	eret

012000fc <alt_irq_handler>:
 * instruction is present if the macro ALT_CI_INTERRUPT_VECTOR defined.
 */

void alt_irq_handler (void) __attribute__ ((section (".exceptions")));
void alt_irq_handler (void)
{
 12000fc:	defff904 	addi	sp,sp,-28
 1200100:	dfc00615 	stw	ra,24(sp)
 1200104:	df000515 	stw	fp,20(sp)
 1200108:	df000504 	addi	fp,sp,20
  
  /*
   * Notify the operating system that we are at interrupt level.
   */ 
  
  ALT_OS_INT_ENTER();
 120010c:	0001883a 	nop
#ifndef NIOS2_EIC_PRESENT
static ALT_INLINE alt_u32 ALT_ALWAYS_INLINE alt_irq_pending (void)
{
  alt_u32 active;

  NIOS2_READ_IPENDING (active);
 1200110:	0005313a 	rdctl	r2,ipending
 1200114:	e0bffe15 	stw	r2,-8(fp)

  return active;
 1200118:	e0bffe17 	ldw	r2,-8(fp)
   * Consider the case where the high priority interupt is asserted during
   * the interrupt entry sequence for a lower priority interrupt to see why
   * this is the case.
   */

  active = alt_irq_pending ();
 120011c:	e0bffb15 	stw	r2,-20(fp)

  do
  {
    i = 0;
 1200120:	e03ffd15 	stw	zero,-12(fp)
    mask = 1;
 1200124:	00800044 	movi	r2,1
 1200128:	e0bffc15 	stw	r2,-16(fp)
     * called to clear the interrupt condition.
     */

    do
    {
      if (active & mask)
 120012c:	e0fffb17 	ldw	r3,-20(fp)
 1200130:	e0bffc17 	ldw	r2,-16(fp)
 1200134:	1884703a 	and	r2,r3,r2
 1200138:	10001426 	beq	r2,zero,120018c <alt_irq_handler+0x90>
      { 
#ifdef ALT_ENHANCED_INTERRUPT_API_PRESENT
        alt_irq[i].handler(alt_irq[i].context); 
 120013c:	00804874 	movhi	r2,289
 1200140:	10a6f404 	addi	r2,r2,-25648
 1200144:	e0fffd17 	ldw	r3,-12(fp)
 1200148:	180690fa 	slli	r3,r3,3
 120014c:	10c5883a 	add	r2,r2,r3
 1200150:	10c00017 	ldw	r3,0(r2)
 1200154:	00804874 	movhi	r2,289
 1200158:	10a6f404 	addi	r2,r2,-25648
 120015c:	e13ffd17 	ldw	r4,-12(fp)
 1200160:	200890fa 	slli	r4,r4,3
 1200164:	1105883a 	add	r2,r2,r4
 1200168:	10800104 	addi	r2,r2,4
 120016c:	10800017 	ldw	r2,0(r2)
 1200170:	1009883a 	mov	r4,r2
 1200174:	183ee83a 	callr	r3
#else
        alt_irq[i].handler(alt_irq[i].context, i); 
#endif
        break;
 1200178:	0001883a 	nop
#ifndef NIOS2_EIC_PRESENT
static ALT_INLINE alt_u32 ALT_ALWAYS_INLINE alt_irq_pending (void)
{
  alt_u32 active;

  NIOS2_READ_IPENDING (active);
 120017c:	0005313a 	rdctl	r2,ipending
 1200180:	e0bfff15 	stw	r2,-4(fp)

  return active;
 1200184:	e0bfff17 	ldw	r2,-4(fp)
 1200188:	00000706 	br	12001a8 <alt_irq_handler+0xac>
      }
      mask <<= 1;
 120018c:	e0bffc17 	ldw	r2,-16(fp)
 1200190:	1085883a 	add	r2,r2,r2
 1200194:	e0bffc15 	stw	r2,-16(fp)
      i++;
 1200198:	e0bffd17 	ldw	r2,-12(fp)
 120019c:	10800044 	addi	r2,r2,1
 12001a0:	e0bffd15 	stw	r2,-12(fp)

    } while (1);
 12001a4:	003fe106 	br	120012c <__alt_mem_instruction_tcm+0xff20012c>

    active = alt_irq_pending ();
 12001a8:	e0bffb15 	stw	r2,-20(fp)
    
  } while (active);
 12001ac:	e0bffb17 	ldw	r2,-20(fp)
 12001b0:	103fdb1e 	bne	r2,zero,1200120 <__alt_mem_instruction_tcm+0xff200120>

  /*
   * Notify the operating system that interrupt processing is complete.
   */ 

  ALT_OS_INT_EXIT();
 12001b4:	0001883a 	nop
}
 12001b8:	e037883a 	mov	sp,fp
 12001bc:	dfc00117 	ldw	ra,4(sp)
 12001c0:	df000017 	ldw	fp,0(sp)
 12001c4:	dec00204 	addi	sp,sp,8
 12001c8:	f800283a 	ret

012001cc <alt_instruction_exception_entry>:
 * that handler if it has been registered. Absent a handler, it will
 * break break or hang as discussed below.
 */
int 
alt_instruction_exception_entry (alt_u32 exception_pc)
{
 12001cc:	defffb04 	addi	sp,sp,-20
 12001d0:	dfc00415 	stw	ra,16(sp)
 12001d4:	df000315 	stw	fp,12(sp)
 12001d8:	df000304 	addi	fp,sp,12
 12001dc:	e13fff15 	stw	r4,-4(fp)
 * NIOS2_EXCEPTION_CAUSE_NOT_PRESENT. Your handling routine should
 * check the validity of the cause argument before proceeding.
 */
#ifdef NIOS2_HAS_EXTRA_EXCEPTION_INFO
  /* Get exception cause & "badaddr" */
  NIOS2_READ_EXCEPTION(cause);
 12001e0:	000531fa 	rdctl	r2,exception
 12001e4:	e0bffd15 	stw	r2,-12(fp)
  cause = ( (cause & NIOS2_EXCEPTION_REG_CAUSE_MASK) >>
 12001e8:	e0bffd17 	ldw	r2,-12(fp)
 12001ec:	10801f0c 	andi	r2,r2,124
 12001f0:	1004d0ba 	srli	r2,r2,2
 12001f4:	e0bffd15 	stw	r2,-12(fp)
              NIOS2_EXCEPTION_REG_CAUSE_OFST );

  NIOS2_READ_BADADDR(badaddr);
 12001f8:	0005333a 	rdctl	r2,badaddr
 12001fc:	e0bffe15 	stw	r2,-8(fp)
#else
  cause = NIOS2_EXCEPTION_CAUSE_NOT_PRESENT;
  badaddr = 0;
#endif /* NIOS2_HAS_EXTRA_EXCEPTION_INFO */

  if(alt_instruction_exception_handler) {
 1200200:	d0a01917 	ldw	r2,-32668(gp)
 1200204:	10000726 	beq	r2,zero,1200224 <alt_instruction_exception_entry+0x58>
     * Call handler. Its return value indicates whether the exception-causing
     * instruction should be re-issued. The code that called us,
     * alt_eceptions_entry.S, will look at this value and adjust the ea
     * register as necessary
     */
    return alt_instruction_exception_handler(cause, exception_pc, badaddr);
 1200208:	d0a01917 	ldw	r2,-32668(gp)
 120020c:	e0fffd17 	ldw	r3,-12(fp)
 1200210:	1809883a 	mov	r4,r3
 1200214:	e17fff17 	ldw	r5,-4(fp)
 1200218:	e1bffe17 	ldw	r6,-8(fp)
 120021c:	103ee83a 	callr	r2
 1200220:	00000206 	br	120022c <alt_instruction_exception_entry+0x60>
   *    (a peripheral which negates its interrupt output before its
   *    interrupt handler has been executed will cause spurious interrupts)
   */
  else {
#ifdef NIOS2_HAS_DEBUG_STUB
    NIOS2_BREAK();
 1200224:	003da03a 	break	0
      ;
#endif /* NIOS2_HAS_DEBUG_STUB */
  }

  /* We should not get here. Remove compiler warning. */
  return NIOS2_EXCEPTION_RETURN_REISSUE_INST;
 1200228:	0005883a 	mov	r2,zero
}
 120022c:	e037883a 	mov	sp,fp
 1200230:	dfc00117 	ldw	ra,4(sp)
 1200234:	df000017 	ldw	fp,0(sp)
 1200238:	dec00204 	addi	sp,sp,8
 120023c:	f800283a 	ret

Disassembly of section .text:

01200240 <_start>:

    /* Assume the data cache size is always a power of two. */
#if NIOS2_DCACHE_SIZE > 0x8000
    movhi r2, %hi(NIOS2_DCACHE_SIZE)
#else
    movui r2, NIOS2_DCACHE_SIZE
 1200240:	00840014 	movui	r2,4096
#endif

0:
    initd 0(r2)
 1200244:	10000033 	initd	0(r2)
#ifdef NIOS2_ECC_PRESENT
    addi r2, r2, -4
#else
    addi r2, r2, -NIOS2_DCACHE_LINE_SIZE
 1200248:	10bff804 	addi	r2,r2,-32
#endif
    bgt r2, zero, 0b
 120024c:	00bffd16 	blt	zero,r2,1200244 <__alt_mem_instruction_tcm+0xff200244>

    /*
     * Now that the caches are initialized, set up the stack pointer and global pointer.
     * The values provided by the linker are assumed to be correctly aligned.
     */
    movhi sp, %hi(__alt_stack_pointer)
 1200250:	06c05034 	movhi	sp,320
    ori sp, sp, %lo(__alt_stack_pointer)
 1200254:	dec00014 	ori	sp,sp,0
    movhi gp, %hi(_gp)
 1200258:	06804874 	movhi	gp,289
    ori gp, gp, %lo(_gp)
 120025c:	d686ce14 	ori	gp,gp,6968
 */
#ifndef ALT_SIM_OPTIMIZE
    /* Log that the BSS is about to be cleared. */
    ALT_LOG_PUTS(alt_log_msg_bss)

    movhi r2, %hi(__bss_start)
 1200260:	00804834 	movhi	r2,288
    ori r2, r2, %lo(__bss_start)
 1200264:	10a6de14 	ori	r2,r2,39800

    movhi r3, %hi(__bss_end)
 1200268:	00c04834 	movhi	r3,288
    ori r3, r3, %lo(__bss_end)
 120026c:	18e73414 	ori	r3,r3,40144

    beq r2, r3, 1f
 1200270:	10c00326 	beq	r2,r3,1200280 <_start+0x40>

0:
    stw zero, (r2)
 1200274:	10000015 	stw	zero,0(r2)
    addi r2, r2, 4
 1200278:	10800104 	addi	r2,r2,4
    bltu r2, r3, 0b
 120027c:	10fffd36 	bltu	r2,r3,1200274 <__alt_mem_instruction_tcm+0xff200274>

    /* Log that alt_main is about to be called. */
    ALT_LOG_PUTS(alt_log_msg_alt_main)

    /* Call the C entry point. It should never return. */
    call alt_main
 1200280:	12036dc0 	call	12036dc <alt_main>

01200284 <alt_after_alt_main>:

    /* Wait in infinite loop in case alt_main does return. */
alt_after_alt_main:
    br alt_after_alt_main
 1200284:	003fff06 	br	1200284 <__alt_mem_instruction_tcm+0xff200284>

01200288 <handle_button_interrupts>:
#ifdef ALT_ENHANCED_INTERRUPT_API_PRESENT
    static void handle_button_interrupts(void* context)
#else
    static void handle_button_interrupts(void* context, alt_u32 id)
#endif
{
 1200288:	defffc04 	addi	sp,sp,-16
 120028c:	dfc00315 	stw	ra,12(sp)
 1200290:	df000215 	stw	fp,8(sp)
 1200294:	df000204 	addi	fp,sp,8
 1200298:	e13fff15 	stw	r4,-4(fp)
    /* Cast context to edge_capture's type. It is important that this
    be declared volatile to avoid unwanted compiler optimization. */
    volatile int* edge_capture_ptr = (volatile int*) context;
 120029c:	e0bfff17 	ldw	r2,-4(fp)
 12002a0:	e0bffe15 	stw	r2,-8(fp)
    /*
    * Read the edge capture register on the button PIO.
    * Store value.
    */
    *edge_capture_ptr =
    IORD_ALTERA_AVALON_PIO_EDGE_CAP(BUTTONS_BASE);
 12002a4:	00805034 	movhi	r2,320
 12002a8:	10841304 	addi	r2,r2,4172
 12002ac:	10c00037 	ldwio	r3,0(r2)
    volatile int* edge_capture_ptr = (volatile int*) context;
    /*
    * Read the edge capture register on the button PIO.
    * Store value.
    */
    *edge_capture_ptr =
 12002b0:	e0bffe17 	ldw	r2,-8(fp)
 12002b4:	10c00015 	stw	r3,0(r2)
    IORD_ALTERA_AVALON_PIO_EDGE_CAP(BUTTONS_BASE);
    /* Write to the edge capture register to reset it. */
    IOWR_ALTERA_AVALON_PIO_EDGE_CAP(BUTTONS_BASE, 0);
 12002b8:	0007883a 	mov	r3,zero
 12002bc:	00805034 	movhi	r2,320
 12002c0:	10841304 	addi	r2,r2,4172
 12002c4:	10c00035 	stwio	r3,0(r2)
    /* Read the PIO to delay ISR exit. This is done to prevent a
    spurious interrupt in systems with high processor -> pio
    latency and fast interrupts. */
    IORD_ALTERA_AVALON_PIO_EDGE_CAP(BUTTONS_BASE);
 12002c8:	00805034 	movhi	r2,320
 12002cc:	10841304 	addi	r2,r2,4172
 12002d0:	10800037 	ldwio	r2,0(r2)
    printf("Handler captured!\n");
 12002d4:	01004834 	movhi	r4,288
 12002d8:	211fee04 	addi	r4,r4,32696
 12002dc:	12005540 	call	1200554 <puts>
}
 12002e0:	e037883a 	mov	sp,fp
 12002e4:	dfc00117 	ldw	ra,4(sp)
 12002e8:	df000017 	ldw	fp,0(sp)
 12002ec:	dec00204 	addi	sp,sp,8
 12002f0:	f800283a 	ret

012002f4 <init_button_pio>:

/* Initialize the button_pio. */
static void init_button_pio()
{
 12002f4:	defffc04 	addi	sp,sp,-16
 12002f8:	dfc00315 	stw	ra,12(sp)
 12002fc:	df000215 	stw	fp,8(sp)
 1200300:	df000204 	addi	fp,sp,8
    /* Recast the edge_capture pointer to match the
    alt_irq_register() function prototype. */
    void* edge_capture_ptr = (void*) &edge_capture;
 1200304:	d0a01004 	addi	r2,gp,-32704
 1200308:	e0bfff15 	stw	r2,-4(fp)
    /* Enable all 4 button interrupts. */
    IOWR_ALTERA_AVALON_PIO_IRQ_MASK(BUTTONS_BASE, 0xf);
 120030c:	00c003c4 	movi	r3,15
 1200310:	00805034 	movhi	r2,320
 1200314:	10841204 	addi	r2,r2,4168
 1200318:	10c00035 	stwio	r3,0(r2)
    /* Reset the edge capture register. */
    IOWR_ALTERA_AVALON_PIO_EDGE_CAP(BUTTONS_BASE, 0x0);
 120031c:	0007883a 	mov	r3,zero
 1200320:	00805034 	movhi	r2,320
 1200324:	10841304 	addi	r2,r2,4172
 1200328:	10c00035 	stwio	r3,0(r2)
    /* Register the ISR. */
    #ifdef ALT_ENHANCED_INTERRUPT_API_PRESENT
        alt_ic_isr_register(BUTTONS_IRQ_INTERRUPT_CONTROLLER_ID,
 120032c:	d8000015 	stw	zero,0(sp)
 1200330:	0009883a 	mov	r4,zero
 1200334:	01400084 	movi	r5,2
 1200338:	01804834 	movhi	r6,288
 120033c:	3180a204 	addi	r6,r6,648
 1200340:	e1ffff17 	ldw	r7,-4(fp)
 1200344:	12031f40 	call	12031f4 <alt_ic_isr_register>
            edge_capture_ptr, 0x0);
    #else
        alt_irq_register( BUTTON_PIO_IRQ, edge_capture_ptr, handle_button_interrupts );
    #endif

    printf("Init done!\n");
 1200348:	01004834 	movhi	r4,288
 120034c:	211ff304 	addi	r4,r4,32716
 1200350:	12005540 	call	1200554 <puts>
}
 1200354:	e037883a 	mov	sp,fp
 1200358:	dfc00117 	ldw	ra,4(sp)
 120035c:	df000017 	ldw	fp,0(sp)
 1200360:	dec00204 	addi	sp,sp,8
 1200364:	f800283a 	ret

01200368 <main>:

int main(void)
{
 1200368:	defffd04 	addi	sp,sp,-12
 120036c:	dfc00215 	stw	ra,8(sp)
 1200370:	df000115 	stw	fp,4(sp)
 1200374:	df000104 	addi	fp,sp,4
    int led = 0x01;
 1200378:	00800044 	movi	r2,1
 120037c:	e0bfff15 	stw	r2,-4(fp)
    edge_capture = 0xF;
 1200380:	008003c4 	movi	r2,15
 1200384:	d0a01015 	stw	r2,-32704(gp)

    init_button_pio();
 1200388:	12002f40 	call	12002f4 <init_button_pio>

    printf("Simple\n");   // print a message to show that program is running
 120038c:	01004834 	movhi	r4,288
 1200390:	211ff604 	addi	r4,r4,32728
 1200394:	12005540 	call	1200554 <puts>

    IOWR_ALTERA_AVALON_PIO_DATA(GREEN_LED_BASE,led); // write initial value
 1200398:	00805034 	movhi	r2,320
 120039c:	10841404 	addi	r2,r2,4176
 12003a0:	e0ffff17 	ldw	r3,-4(fp)
 12003a4:	10c00035 	stwio	r3,0(r2)
    while (1)
    {
        if (edge_capture != NONE_PRESSED)  // if button pressed
 12003a8:	d0a01017 	ldw	r2,-32704(gp)
 12003ac:	108003e0 	cmpeqi	r2,r2,15
 12003b0:	1000391e 	bne	r2,zero,1200498 <main+0x130>
        {
            switch(edge_capture) {
 12003b4:	d0a01017 	ldw	r2,-32704(gp)
 12003b8:	10c000a0 	cmpeqi	r3,r2,2
 12003bc:	1800101e 	bne	r3,zero,1200400 <main+0x98>
 12003c0:	10c000c8 	cmpgei	r3,r2,3
 12003c4:	1800031e 	bne	r3,zero,12003d4 <main+0x6c>
 12003c8:	10800060 	cmpeqi	r2,r2,1
 12003cc:	1000061e 	bne	r2,zero,12003e8 <main+0x80>
 12003d0:	00001f06 	br	1200450 <main+0xe8>
 12003d4:	10c00120 	cmpeqi	r3,r2,4
 12003d8:	1800131e 	bne	r3,zero,1200428 <main+0xc0>
 12003dc:	10800220 	cmpeqi	r2,r2,8
 12003e0:	1000041e 	bne	r2,zero,12003f4 <main+0x8c>
 12003e4:	00001a06 	br	1200450 <main+0xe8>
                case BTN_RIGHT_PRESSED:
                    led = 0x01;
 12003e8:	00800044 	movi	r2,1
 12003ec:	e0bfff15 	stw	r2,-4(fp)
                    break;
 12003f0:	00001706 	br	1200450 <main+0xe8>
                case BTN_LEFT_PRESSED:
                    led = 0x80;
 12003f4:	00802004 	movi	r2,128
 12003f8:	e0bfff15 	stw	r2,-4(fp)
                    break;
 12003fc:	00001406 	br	1200450 <main+0xe8>
                case BTN_CNTR_RIGHT:
                    if (led == 0x1)
 1200400:	e0bfff17 	ldw	r2,-4(fp)
 1200404:	10800058 	cmpnei	r2,r2,1
 1200408:	1000031e 	bne	r2,zero,1200418 <main+0xb0>
                        led = 0x80;
 120040c:	00802004 	movi	r2,128
 1200410:	e0bfff15 	stw	r2,-4(fp)
                    else
                        led = led >> 1;
                    break;
 1200414:	00000e06 	br	1200450 <main+0xe8>
                    break;
                case BTN_CNTR_RIGHT:
                    if (led == 0x1)
                        led = 0x80;
                    else
                        led = led >> 1;
 1200418:	e0bfff17 	ldw	r2,-4(fp)
 120041c:	1005d07a 	srai	r2,r2,1
 1200420:	e0bfff15 	stw	r2,-4(fp)
                    break;
 1200424:	00000a06 	br	1200450 <main+0xe8>
                case BTN_CNTR_LEFT:
                    if (led == 0x80)
 1200428:	e0bfff17 	ldw	r2,-4(fp)
 120042c:	10802018 	cmpnei	r2,r2,128
 1200430:	1000031e 	bne	r2,zero,1200440 <main+0xd8>
                        led = 0x1;
 1200434:	00800044 	movi	r2,1
 1200438:	e0bfff15 	stw	r2,-4(fp)
                    else
                        led = led << 1;
                    break;
 120043c:	00000306 	br	120044c <main+0xe4>
                    break;
                case BTN_CNTR_LEFT:
                    if (led == 0x80)
                        led = 0x1;
                    else
                        led = led << 1;
 1200440:	e0bfff17 	ldw	r2,-4(fp)
 1200444:	1085883a 	add	r2,r2,r2
 1200448:	e0bfff15 	stw	r2,-4(fp)
                    break;
 120044c:	0001883a 	nop

            }
            edge_capture = 0xF;
 1200450:	008003c4 	movi	r2,15
 1200454:	d0a01015 	stw	r2,-32704(gp)

            IOWR_ALTERA_AVALON_PIO_DATA(GREEN_LED_BASE, led);
 1200458:	00805034 	movhi	r2,320
 120045c:	10841404 	addi	r2,r2,4176
 1200460:	e0ffff17 	ldw	r3,-4(fp)
 1200464:	10c00035 	stwio	r3,0(r2)

            usleep (DEBOUNCE);
 1200468:	011d4c04 	movi	r4,30000
 120046c:	12039f00 	call	12039f0 <usleep>
            while (edge_capture != NONE_PRESSED)  // wait for button release
 1200470:	00000406 	br	1200484 <main+0x11c>
                edge_capture = IORD_ALTERA_AVALON_PIO_DATA(BUTTONS_BASE);
 1200474:	00805034 	movhi	r2,320
 1200478:	10841004 	addi	r2,r2,4160
 120047c:	10800037 	ldwio	r2,0(r2)
 1200480:	d0a01015 	stw	r2,-32704(gp)
            edge_capture = 0xF;

            IOWR_ALTERA_AVALON_PIO_DATA(GREEN_LED_BASE, led);

            usleep (DEBOUNCE);
            while (edge_capture != NONE_PRESSED)  // wait for button release
 1200484:	d0a01017 	ldw	r2,-32704(gp)
 1200488:	108003d8 	cmpnei	r2,r2,15
 120048c:	103ff91e 	bne	r2,zero,1200474 <__alt_mem_instruction_tcm+0xff200474>
                edge_capture = IORD_ALTERA_AVALON_PIO_DATA(BUTTONS_BASE);
            usleep (DEBOUNCE);
 1200490:	011d4c04 	movi	r4,30000
 1200494:	12039f00 	call	12039f0 <usleep>
        }

    }
 1200498:	003fc306 	br	12003a8 <__alt_mem_instruction_tcm+0xff2003a8>

0120049c <_puts_r>:
 120049c:	defff604 	addi	sp,sp,-40
 12004a0:	dc000715 	stw	r16,28(sp)
 12004a4:	2021883a 	mov	r16,r4
 12004a8:	2809883a 	mov	r4,r5
 12004ac:	dc400815 	stw	r17,32(sp)
 12004b0:	dfc00915 	stw	ra,36(sp)
 12004b4:	2823883a 	mov	r17,r5
 12004b8:	12005680 	call	1200568 <strlen>
 12004bc:	00c04874 	movhi	r3,289
 12004c0:	18e6cf04 	addi	r3,r3,-25796
 12004c4:	18c00017 	ldw	r3,0(r3)
 12004c8:	11000044 	addi	r4,r2,1
 12004cc:	d8800115 	stw	r2,4(sp)
 12004d0:	18c00217 	ldw	r3,8(r3)
 12004d4:	01404834 	movhi	r5,288
 12004d8:	295ff804 	addi	r5,r5,32736
 12004dc:	1880030b 	ldhu	r2,12(r3)
 12004e0:	d9400215 	stw	r5,8(sp)
 12004e4:	d9000615 	stw	r4,24(sp)
 12004e8:	01400044 	movi	r5,1
 12004ec:	01000084 	movi	r4,2
 12004f0:	d9000515 	stw	r4,20(sp)
 12004f4:	dc400015 	stw	r17,0(sp)
 12004f8:	d9400315 	stw	r5,12(sp)
 12004fc:	dec00415 	stw	sp,16(sp)
 1200500:	1108000c 	andi	r4,r2,8192
 1200504:	2000061e 	bne	r4,zero,1200520 <_puts_r+0x84>
 1200508:	19401917 	ldw	r5,100(r3)
 120050c:	0137ffc4 	movi	r4,-8193
 1200510:	10880014 	ori	r2,r2,8192
 1200514:	2908703a 	and	r4,r5,r4
 1200518:	1880030d 	sth	r2,12(r3)
 120051c:	19001915 	stw	r4,100(r3)
 1200520:	81400217 	ldw	r5,8(r16)
 1200524:	8009883a 	mov	r4,r16
 1200528:	d9800404 	addi	r6,sp,16
 120052c:	12006000 	call	1200600 <__sfvwrite_r>
 1200530:	1000061e 	bne	r2,zero,120054c <_puts_r+0xb0>
 1200534:	00800284 	movi	r2,10
 1200538:	dfc00917 	ldw	ra,36(sp)
 120053c:	dc400817 	ldw	r17,32(sp)
 1200540:	dc000717 	ldw	r16,28(sp)
 1200544:	dec00a04 	addi	sp,sp,40
 1200548:	f800283a 	ret
 120054c:	00bfffc4 	movi	r2,-1
 1200550:	003ff906 	br	1200538 <__alt_mem_instruction_tcm+0xff200538>

01200554 <puts>:
 1200554:	00804874 	movhi	r2,289
 1200558:	10a6cf04 	addi	r2,r2,-25796
 120055c:	200b883a 	mov	r5,r4
 1200560:	11000017 	ldw	r4,0(r2)
 1200564:	120049c1 	jmpi	120049c <_puts_r>

01200568 <strlen>:
 1200568:	208000cc 	andi	r2,r4,3
 120056c:	10002026 	beq	r2,zero,12005f0 <strlen+0x88>
 1200570:	20800007 	ldb	r2,0(r4)
 1200574:	10002026 	beq	r2,zero,12005f8 <strlen+0x90>
 1200578:	2005883a 	mov	r2,r4
 120057c:	00000206 	br	1200588 <strlen+0x20>
 1200580:	10c00007 	ldb	r3,0(r2)
 1200584:	18001826 	beq	r3,zero,12005e8 <strlen+0x80>
 1200588:	10800044 	addi	r2,r2,1
 120058c:	10c000cc 	andi	r3,r2,3
 1200590:	183ffb1e 	bne	r3,zero,1200580 <__alt_mem_instruction_tcm+0xff200580>
 1200594:	10c00017 	ldw	r3,0(r2)
 1200598:	01ffbff4 	movhi	r7,65279
 120059c:	39ffbfc4 	addi	r7,r7,-257
 12005a0:	00ca303a 	nor	r5,zero,r3
 12005a4:	01a02074 	movhi	r6,32897
 12005a8:	19c7883a 	add	r3,r3,r7
 12005ac:	31a02004 	addi	r6,r6,-32640
 12005b0:	1946703a 	and	r3,r3,r5
 12005b4:	1986703a 	and	r3,r3,r6
 12005b8:	1800091e 	bne	r3,zero,12005e0 <strlen+0x78>
 12005bc:	10800104 	addi	r2,r2,4
 12005c0:	10c00017 	ldw	r3,0(r2)
 12005c4:	19cb883a 	add	r5,r3,r7
 12005c8:	00c6303a 	nor	r3,zero,r3
 12005cc:	28c6703a 	and	r3,r5,r3
 12005d0:	1986703a 	and	r3,r3,r6
 12005d4:	183ff926 	beq	r3,zero,12005bc <__alt_mem_instruction_tcm+0xff2005bc>
 12005d8:	00000106 	br	12005e0 <strlen+0x78>
 12005dc:	10800044 	addi	r2,r2,1
 12005e0:	10c00007 	ldb	r3,0(r2)
 12005e4:	183ffd1e 	bne	r3,zero,12005dc <__alt_mem_instruction_tcm+0xff2005dc>
 12005e8:	1105c83a 	sub	r2,r2,r4
 12005ec:	f800283a 	ret
 12005f0:	2005883a 	mov	r2,r4
 12005f4:	003fe706 	br	1200594 <__alt_mem_instruction_tcm+0xff200594>
 12005f8:	0005883a 	mov	r2,zero
 12005fc:	f800283a 	ret

01200600 <__sfvwrite_r>:
 1200600:	30800217 	ldw	r2,8(r6)
 1200604:	10004526 	beq	r2,zero,120071c <__sfvwrite_r+0x11c>
 1200608:	28c0030b 	ldhu	r3,12(r5)
 120060c:	defff404 	addi	sp,sp,-48
 1200610:	dd400715 	stw	r21,28(sp)
 1200614:	dcc00515 	stw	r19,20(sp)
 1200618:	dc000215 	stw	r16,8(sp)
 120061c:	dfc00b15 	stw	ra,44(sp)
 1200620:	df000a15 	stw	fp,40(sp)
 1200624:	ddc00915 	stw	r23,36(sp)
 1200628:	dd800815 	stw	r22,32(sp)
 120062c:	dd000615 	stw	r20,24(sp)
 1200630:	dc800415 	stw	r18,16(sp)
 1200634:	dc400315 	stw	r17,12(sp)
 1200638:	1880020c 	andi	r2,r3,8
 120063c:	2821883a 	mov	r16,r5
 1200640:	202b883a 	mov	r21,r4
 1200644:	3027883a 	mov	r19,r6
 1200648:	10002526 	beq	r2,zero,12006e0 <__sfvwrite_r+0xe0>
 120064c:	28800417 	ldw	r2,16(r5)
 1200650:	10002326 	beq	r2,zero,12006e0 <__sfvwrite_r+0xe0>
 1200654:	1880008c 	andi	r2,r3,2
 1200658:	9c400017 	ldw	r17,0(r19)
 120065c:	10003126 	beq	r2,zero,1200724 <__sfvwrite_r+0x124>
 1200660:	0029883a 	mov	r20,zero
 1200664:	0025883a 	mov	r18,zero
 1200668:	05810004 	movi	r22,1024
 120066c:	a00d883a 	mov	r6,r20
 1200670:	a809883a 	mov	r4,r21
 1200674:	90002526 	beq	r18,zero,120070c <__sfvwrite_r+0x10c>
 1200678:	900f883a 	mov	r7,r18
 120067c:	81400717 	ldw	r5,28(r16)
 1200680:	b480012e 	bgeu	r22,r18,1200688 <__sfvwrite_r+0x88>
 1200684:	01c10004 	movi	r7,1024
 1200688:	80800917 	ldw	r2,36(r16)
 120068c:	103ee83a 	callr	r2
 1200690:	0080510e 	bge	zero,r2,12007d8 <__sfvwrite_r+0x1d8>
 1200694:	98c00217 	ldw	r3,8(r19)
 1200698:	a0a9883a 	add	r20,r20,r2
 120069c:	90a5c83a 	sub	r18,r18,r2
 12006a0:	1885c83a 	sub	r2,r3,r2
 12006a4:	98800215 	stw	r2,8(r19)
 12006a8:	103ff01e 	bne	r2,zero,120066c <__alt_mem_instruction_tcm+0xff20066c>
 12006ac:	0005883a 	mov	r2,zero
 12006b0:	dfc00b17 	ldw	ra,44(sp)
 12006b4:	df000a17 	ldw	fp,40(sp)
 12006b8:	ddc00917 	ldw	r23,36(sp)
 12006bc:	dd800817 	ldw	r22,32(sp)
 12006c0:	dd400717 	ldw	r21,28(sp)
 12006c4:	dd000617 	ldw	r20,24(sp)
 12006c8:	dcc00517 	ldw	r19,20(sp)
 12006cc:	dc800417 	ldw	r18,16(sp)
 12006d0:	dc400317 	ldw	r17,12(sp)
 12006d4:	dc000217 	ldw	r16,8(sp)
 12006d8:	dec00c04 	addi	sp,sp,48
 12006dc:	f800283a 	ret
 12006e0:	a809883a 	mov	r4,r21
 12006e4:	800b883a 	mov	r5,r16
 12006e8:	1201bbc0 	call	1201bbc <__swsetup_r>
 12006ec:	80c0030b 	ldhu	r3,12(r16)
 12006f0:	103fd826 	beq	r2,zero,1200654 <__alt_mem_instruction_tcm+0xff200654>
 12006f4:	18c01014 	ori	r3,r3,64
 12006f8:	80c0030d 	sth	r3,12(r16)
 12006fc:	00c00244 	movi	r3,9
 1200700:	00bfffc4 	movi	r2,-1
 1200704:	a8c00015 	stw	r3,0(r21)
 1200708:	003fe906 	br	12006b0 <__alt_mem_instruction_tcm+0xff2006b0>
 120070c:	8d000017 	ldw	r20,0(r17)
 1200710:	8c800117 	ldw	r18,4(r17)
 1200714:	8c400204 	addi	r17,r17,8
 1200718:	003fd406 	br	120066c <__alt_mem_instruction_tcm+0xff20066c>
 120071c:	0005883a 	mov	r2,zero
 1200720:	f800283a 	ret
 1200724:	1880004c 	andi	r2,r3,1
 1200728:	1000301e 	bne	r2,zero,12007ec <__sfvwrite_r+0x1ec>
 120072c:	002f883a 	mov	r23,zero
 1200730:	0025883a 	mov	r18,zero
 1200734:	90001c26 	beq	r18,zero,12007a8 <__sfvwrite_r+0x1a8>
 1200738:	1880800c 	andi	r2,r3,512
 120073c:	85000217 	ldw	r20,8(r16)
 1200740:	10006c26 	beq	r2,zero,12008f4 <__sfvwrite_r+0x2f4>
 1200744:	a02d883a 	mov	r22,r20
 1200748:	95008536 	bltu	r18,r20,1200960 <__sfvwrite_r+0x360>
 120074c:	1881200c 	andi	r2,r3,1152
 1200750:	10009d1e 	bne	r2,zero,12009c8 <__sfvwrite_r+0x3c8>
 1200754:	81000017 	ldw	r4,0(r16)
 1200758:	a039883a 	mov	fp,r20
 120075c:	9029883a 	mov	r20,r18
 1200760:	b80b883a 	mov	r5,r23
 1200764:	b00d883a 	mov	r6,r22
 1200768:	120146c0 	call	120146c <memmove>
 120076c:	80c00217 	ldw	r3,8(r16)
 1200770:	81000017 	ldw	r4,0(r16)
 1200774:	9005883a 	mov	r2,r18
 1200778:	1f39c83a 	sub	fp,r3,fp
 120077c:	258f883a 	add	r7,r4,r22
 1200780:	87000215 	stw	fp,8(r16)
 1200784:	81c00015 	stw	r7,0(r16)
 1200788:	98c00217 	ldw	r3,8(r19)
 120078c:	b8af883a 	add	r23,r23,r2
 1200790:	90a5c83a 	sub	r18,r18,r2
 1200794:	1d05c83a 	sub	r2,r3,r20
 1200798:	98800215 	stw	r2,8(r19)
 120079c:	103fc326 	beq	r2,zero,12006ac <__alt_mem_instruction_tcm+0xff2006ac>
 12007a0:	80c0030b 	ldhu	r3,12(r16)
 12007a4:	903fe41e 	bne	r18,zero,1200738 <__alt_mem_instruction_tcm+0xff200738>
 12007a8:	8dc00017 	ldw	r23,0(r17)
 12007ac:	8c800117 	ldw	r18,4(r17)
 12007b0:	8c400204 	addi	r17,r17,8
 12007b4:	003fdf06 	br	1200734 <__alt_mem_instruction_tcm+0xff200734>
 12007b8:	12015c80 	call	12015c8 <_realloc_r>
 12007bc:	102d883a 	mov	r22,r2
 12007c0:	1000a01e 	bne	r2,zero,1200a44 <__sfvwrite_r+0x444>
 12007c4:	81400417 	ldw	r5,16(r16)
 12007c8:	a809883a 	mov	r4,r21
 12007cc:	12024080 	call	1202408 <_free_r>
 12007d0:	00800304 	movi	r2,12
 12007d4:	a8800015 	stw	r2,0(r21)
 12007d8:	80c0030b 	ldhu	r3,12(r16)
 12007dc:	00bfffc4 	movi	r2,-1
 12007e0:	18c01014 	ori	r3,r3,64
 12007e4:	80c0030d 	sth	r3,12(r16)
 12007e8:	003fb106 	br	12006b0 <__alt_mem_instruction_tcm+0xff2006b0>
 12007ec:	0029883a 	mov	r20,zero
 12007f0:	0011883a 	mov	r8,zero
 12007f4:	0039883a 	mov	fp,zero
 12007f8:	0025883a 	mov	r18,zero
 12007fc:	90001f26 	beq	r18,zero,120087c <__sfvwrite_r+0x27c>
 1200800:	40006826 	beq	r8,zero,12009a4 <__sfvwrite_r+0x3a4>
 1200804:	a02f883a 	mov	r23,r20
 1200808:	9500012e 	bgeu	r18,r20,1200810 <__sfvwrite_r+0x210>
 120080c:	902f883a 	mov	r23,r18
 1200810:	81000017 	ldw	r4,0(r16)
 1200814:	80800417 	ldw	r2,16(r16)
 1200818:	b82d883a 	mov	r22,r23
 120081c:	81800217 	ldw	r6,8(r16)
 1200820:	81c00517 	ldw	r7,20(r16)
 1200824:	1100022e 	bgeu	r2,r4,1200830 <__sfvwrite_r+0x230>
 1200828:	31c7883a 	add	r3,r6,r7
 120082c:	1dc01816 	blt	r3,r23,1200890 <__sfvwrite_r+0x290>
 1200830:	b9c03f16 	blt	r23,r7,1200930 <__sfvwrite_r+0x330>
 1200834:	80800917 	ldw	r2,36(r16)
 1200838:	81400717 	ldw	r5,28(r16)
 120083c:	a809883a 	mov	r4,r21
 1200840:	da000115 	stw	r8,4(sp)
 1200844:	e00d883a 	mov	r6,fp
 1200848:	103ee83a 	callr	r2
 120084c:	102d883a 	mov	r22,r2
 1200850:	da000117 	ldw	r8,4(sp)
 1200854:	00bfe00e 	bge	zero,r2,12007d8 <__alt_mem_instruction_tcm+0xff2007d8>
 1200858:	a5a9c83a 	sub	r20,r20,r22
 120085c:	a0001f26 	beq	r20,zero,12008dc <__sfvwrite_r+0x2dc>
 1200860:	98800217 	ldw	r2,8(r19)
 1200864:	e5b9883a 	add	fp,fp,r22
 1200868:	95a5c83a 	sub	r18,r18,r22
 120086c:	15adc83a 	sub	r22,r2,r22
 1200870:	9d800215 	stw	r22,8(r19)
 1200874:	b03f8d26 	beq	r22,zero,12006ac <__alt_mem_instruction_tcm+0xff2006ac>
 1200878:	903fe11e 	bne	r18,zero,1200800 <__alt_mem_instruction_tcm+0xff200800>
 120087c:	8f000017 	ldw	fp,0(r17)
 1200880:	8c800117 	ldw	r18,4(r17)
 1200884:	0011883a 	mov	r8,zero
 1200888:	8c400204 	addi	r17,r17,8
 120088c:	003fdb06 	br	12007fc <__alt_mem_instruction_tcm+0xff2007fc>
 1200890:	180d883a 	mov	r6,r3
 1200894:	e00b883a 	mov	r5,fp
 1200898:	da000115 	stw	r8,4(sp)
 120089c:	d8c00015 	stw	r3,0(sp)
 12008a0:	120146c0 	call	120146c <memmove>
 12008a4:	d8c00017 	ldw	r3,0(sp)
 12008a8:	80800017 	ldw	r2,0(r16)
 12008ac:	a809883a 	mov	r4,r21
 12008b0:	800b883a 	mov	r5,r16
 12008b4:	10c5883a 	add	r2,r2,r3
 12008b8:	80800015 	stw	r2,0(r16)
 12008bc:	d8c00015 	stw	r3,0(sp)
 12008c0:	1201cec0 	call	1201cec <_fflush_r>
 12008c4:	d8c00017 	ldw	r3,0(sp)
 12008c8:	da000117 	ldw	r8,4(sp)
 12008cc:	103fc21e 	bne	r2,zero,12007d8 <__alt_mem_instruction_tcm+0xff2007d8>
 12008d0:	182d883a 	mov	r22,r3
 12008d4:	a5a9c83a 	sub	r20,r20,r22
 12008d8:	a03fe11e 	bne	r20,zero,1200860 <__alt_mem_instruction_tcm+0xff200860>
 12008dc:	a809883a 	mov	r4,r21
 12008e0:	800b883a 	mov	r5,r16
 12008e4:	1201cec0 	call	1201cec <_fflush_r>
 12008e8:	103fbb1e 	bne	r2,zero,12007d8 <__alt_mem_instruction_tcm+0xff2007d8>
 12008ec:	0011883a 	mov	r8,zero
 12008f0:	003fdb06 	br	1200860 <__alt_mem_instruction_tcm+0xff200860>
 12008f4:	81000017 	ldw	r4,0(r16)
 12008f8:	80800417 	ldw	r2,16(r16)
 12008fc:	1100012e 	bgeu	r2,r4,1200904 <__sfvwrite_r+0x304>
 1200900:	a4805a36 	bltu	r20,r18,1200a6c <__sfvwrite_r+0x46c>
 1200904:	81c00517 	ldw	r7,20(r16)
 1200908:	91c01a36 	bltu	r18,r7,1200974 <__sfvwrite_r+0x374>
 120090c:	80800917 	ldw	r2,36(r16)
 1200910:	81400717 	ldw	r5,28(r16)
 1200914:	a809883a 	mov	r4,r21
 1200918:	b80d883a 	mov	r6,r23
 120091c:	103ee83a 	callr	r2
 1200920:	1029883a 	mov	r20,r2
 1200924:	00bfac0e 	bge	zero,r2,12007d8 <__alt_mem_instruction_tcm+0xff2007d8>
 1200928:	a005883a 	mov	r2,r20
 120092c:	003f9606 	br	1200788 <__alt_mem_instruction_tcm+0xff200788>
 1200930:	b80d883a 	mov	r6,r23
 1200934:	e00b883a 	mov	r5,fp
 1200938:	da000115 	stw	r8,4(sp)
 120093c:	120146c0 	call	120146c <memmove>
 1200940:	80800217 	ldw	r2,8(r16)
 1200944:	80c00017 	ldw	r3,0(r16)
 1200948:	da000117 	ldw	r8,4(sp)
 120094c:	15c5c83a 	sub	r2,r2,r23
 1200950:	1def883a 	add	r23,r3,r23
 1200954:	80800215 	stw	r2,8(r16)
 1200958:	85c00015 	stw	r23,0(r16)
 120095c:	003fbe06 	br	1200858 <__alt_mem_instruction_tcm+0xff200858>
 1200960:	81000017 	ldw	r4,0(r16)
 1200964:	9039883a 	mov	fp,r18
 1200968:	9029883a 	mov	r20,r18
 120096c:	902d883a 	mov	r22,r18
 1200970:	003f7b06 	br	1200760 <__alt_mem_instruction_tcm+0xff200760>
 1200974:	b80b883a 	mov	r5,r23
 1200978:	900d883a 	mov	r6,r18
 120097c:	120146c0 	call	120146c <memmove>
 1200980:	80c00217 	ldw	r3,8(r16)
 1200984:	80800017 	ldw	r2,0(r16)
 1200988:	9029883a 	mov	r20,r18
 120098c:	1c87c83a 	sub	r3,r3,r18
 1200990:	1485883a 	add	r2,r2,r18
 1200994:	80800015 	stw	r2,0(r16)
 1200998:	80c00215 	stw	r3,8(r16)
 120099c:	9005883a 	mov	r2,r18
 12009a0:	003f7906 	br	1200788 <__alt_mem_instruction_tcm+0xff200788>
 12009a4:	e009883a 	mov	r4,fp
 12009a8:	01400284 	movi	r5,10
 12009ac:	900d883a 	mov	r6,r18
 12009b0:	120124c0 	call	120124c <memchr>
 12009b4:	10003826 	beq	r2,zero,1200a98 <__sfvwrite_r+0x498>
 12009b8:	10800044 	addi	r2,r2,1
 12009bc:	1729c83a 	sub	r20,r2,fp
 12009c0:	02000044 	movi	r8,1
 12009c4:	003f8f06 	br	1200804 <__alt_mem_instruction_tcm+0xff200804>
 12009c8:	80800517 	ldw	r2,20(r16)
 12009cc:	81400417 	ldw	r5,16(r16)
 12009d0:	87000017 	ldw	fp,0(r16)
 12009d4:	10a9883a 	add	r20,r2,r2
 12009d8:	a085883a 	add	r2,r20,r2
 12009dc:	1028d7fa 	srli	r20,r2,31
 12009e0:	e179c83a 	sub	fp,fp,r5
 12009e4:	e1000044 	addi	r4,fp,1
 12009e8:	a085883a 	add	r2,r20,r2
 12009ec:	1029d07a 	srai	r20,r2,1
 12009f0:	2485883a 	add	r2,r4,r18
 12009f4:	a00d883a 	mov	r6,r20
 12009f8:	a080022e 	bgeu	r20,r2,1200a04 <__sfvwrite_r+0x404>
 12009fc:	1029883a 	mov	r20,r2
 1200a00:	100d883a 	mov	r6,r2
 1200a04:	18c1000c 	andi	r3,r3,1024
 1200a08:	a809883a 	mov	r4,r21
 1200a0c:	183f6a26 	beq	r3,zero,12007b8 <__alt_mem_instruction_tcm+0xff2007b8>
 1200a10:	300b883a 	mov	r5,r6
 1200a14:	1200aa40 	call	1200aa4 <_malloc_r>
 1200a18:	102d883a 	mov	r22,r2
 1200a1c:	103f6c26 	beq	r2,zero,12007d0 <__alt_mem_instruction_tcm+0xff2007d0>
 1200a20:	81400417 	ldw	r5,16(r16)
 1200a24:	1009883a 	mov	r4,r2
 1200a28:	e00d883a 	mov	r6,fp
 1200a2c:	12013340 	call	1201334 <memcpy>
 1200a30:	8080030b 	ldhu	r2,12(r16)
 1200a34:	00fedfc4 	movi	r3,-1153
 1200a38:	10c4703a 	and	r2,r2,r3
 1200a3c:	10802014 	ori	r2,r2,128
 1200a40:	8080030d 	sth	r2,12(r16)
 1200a44:	b709883a 	add	r4,r22,fp
 1200a48:	a707c83a 	sub	r3,r20,fp
 1200a4c:	85800415 	stw	r22,16(r16)
 1200a50:	85000515 	stw	r20,20(r16)
 1200a54:	81000015 	stw	r4,0(r16)
 1200a58:	9039883a 	mov	fp,r18
 1200a5c:	80c00215 	stw	r3,8(r16)
 1200a60:	9029883a 	mov	r20,r18
 1200a64:	902d883a 	mov	r22,r18
 1200a68:	003f3d06 	br	1200760 <__alt_mem_instruction_tcm+0xff200760>
 1200a6c:	b80b883a 	mov	r5,r23
 1200a70:	a00d883a 	mov	r6,r20
 1200a74:	120146c0 	call	120146c <memmove>
 1200a78:	80800017 	ldw	r2,0(r16)
 1200a7c:	a809883a 	mov	r4,r21
 1200a80:	800b883a 	mov	r5,r16
 1200a84:	1505883a 	add	r2,r2,r20
 1200a88:	80800015 	stw	r2,0(r16)
 1200a8c:	1201cec0 	call	1201cec <_fflush_r>
 1200a90:	103fa526 	beq	r2,zero,1200928 <__alt_mem_instruction_tcm+0xff200928>
 1200a94:	003f5006 	br	12007d8 <__alt_mem_instruction_tcm+0xff2007d8>
 1200a98:	95000044 	addi	r20,r18,1
 1200a9c:	02000044 	movi	r8,1
 1200aa0:	003f5806 	br	1200804 <__alt_mem_instruction_tcm+0xff200804>

01200aa4 <_malloc_r>:
 1200aa4:	defff504 	addi	sp,sp,-44
 1200aa8:	dc800315 	stw	r18,12(sp)
 1200aac:	dfc00a15 	stw	ra,40(sp)
 1200ab0:	df000915 	stw	fp,36(sp)
 1200ab4:	ddc00815 	stw	r23,32(sp)
 1200ab8:	dd800715 	stw	r22,28(sp)
 1200abc:	dd400615 	stw	r21,24(sp)
 1200ac0:	dd000515 	stw	r20,20(sp)
 1200ac4:	dcc00415 	stw	r19,16(sp)
 1200ac8:	dc400215 	stw	r17,8(sp)
 1200acc:	dc000115 	stw	r16,4(sp)
 1200ad0:	288002c4 	addi	r2,r5,11
 1200ad4:	00c00584 	movi	r3,22
 1200ad8:	2025883a 	mov	r18,r4
 1200adc:	18802a2e 	bgeu	r3,r2,1200b88 <_malloc_r+0xe4>
 1200ae0:	047ffe04 	movi	r17,-8
 1200ae4:	1462703a 	and	r17,r2,r17
 1200ae8:	88009e16 	blt	r17,zero,1200d64 <_malloc_r+0x2c0>
 1200aec:	89409d36 	bltu	r17,r5,1200d64 <_malloc_r+0x2c0>
 1200af0:	12037540 	call	1203754 <__malloc_lock>
 1200af4:	00807dc4 	movi	r2,503
 1200af8:	14402736 	bltu	r2,r17,1200b98 <_malloc_r+0xf4>
 1200afc:	8806d0fa 	srli	r3,r17,3
 1200b00:	04c04874 	movhi	r19,289
 1200b04:	9ce11304 	addi	r19,r19,-31668
 1200b08:	18c5883a 	add	r2,r3,r3
 1200b0c:	1085883a 	add	r2,r2,r2
 1200b10:	1085883a 	add	r2,r2,r2
 1200b14:	9885883a 	add	r2,r19,r2
 1200b18:	14000317 	ldw	r16,12(r2)
 1200b1c:	80814a26 	beq	r16,r2,1201048 <_malloc_r+0x5a4>
 1200b20:	80c00117 	ldw	r3,4(r16)
 1200b24:	81000317 	ldw	r4,12(r16)
 1200b28:	00bfff04 	movi	r2,-4
 1200b2c:	1884703a 	and	r2,r3,r2
 1200b30:	81400217 	ldw	r5,8(r16)
 1200b34:	8085883a 	add	r2,r16,r2
 1200b38:	10c00117 	ldw	r3,4(r2)
 1200b3c:	29000315 	stw	r4,12(r5)
 1200b40:	21400215 	stw	r5,8(r4)
 1200b44:	18c00054 	ori	r3,r3,1
 1200b48:	10c00115 	stw	r3,4(r2)
 1200b4c:	9009883a 	mov	r4,r18
 1200b50:	12037740 	call	1203774 <__malloc_unlock>
 1200b54:	80800204 	addi	r2,r16,8
 1200b58:	dfc00a17 	ldw	ra,40(sp)
 1200b5c:	df000917 	ldw	fp,36(sp)
 1200b60:	ddc00817 	ldw	r23,32(sp)
 1200b64:	dd800717 	ldw	r22,28(sp)
 1200b68:	dd400617 	ldw	r21,24(sp)
 1200b6c:	dd000517 	ldw	r20,20(sp)
 1200b70:	dcc00417 	ldw	r19,16(sp)
 1200b74:	dc800317 	ldw	r18,12(sp)
 1200b78:	dc400217 	ldw	r17,8(sp)
 1200b7c:	dc000117 	ldw	r16,4(sp)
 1200b80:	dec00b04 	addi	sp,sp,44
 1200b84:	f800283a 	ret
 1200b88:	04400404 	movi	r17,16
 1200b8c:	89407536 	bltu	r17,r5,1200d64 <_malloc_r+0x2c0>
 1200b90:	12037540 	call	1203754 <__malloc_lock>
 1200b94:	003fd906 	br	1200afc <__alt_mem_instruction_tcm+0xff200afc>
 1200b98:	8806d27a 	srli	r3,r17,9
 1200b9c:	18007526 	beq	r3,zero,1200d74 <_malloc_r+0x2d0>
 1200ba0:	00800104 	movi	r2,4
 1200ba4:	10c0ef36 	bltu	r2,r3,1200f64 <_malloc_r+0x4c0>
 1200ba8:	8806d1ba 	srli	r3,r17,6
 1200bac:	19c00e04 	addi	r7,r3,56
 1200bb0:	39cb883a 	add	r5,r7,r7
 1200bb4:	04c04874 	movhi	r19,289
 1200bb8:	294b883a 	add	r5,r5,r5
 1200bbc:	9ce11304 	addi	r19,r19,-31668
 1200bc0:	294b883a 	add	r5,r5,r5
 1200bc4:	994b883a 	add	r5,r19,r5
 1200bc8:	2c000317 	ldw	r16,12(r5)
 1200bcc:	2c000e26 	beq	r5,r16,1200c08 <_malloc_r+0x164>
 1200bd0:	80800117 	ldw	r2,4(r16)
 1200bd4:	01bfff04 	movi	r6,-4
 1200bd8:	010003c4 	movi	r4,15
 1200bdc:	1184703a 	and	r2,r2,r6
 1200be0:	1447c83a 	sub	r3,r2,r17
 1200be4:	20c00716 	blt	r4,r3,1200c04 <_malloc_r+0x160>
 1200be8:	1800650e 	bge	r3,zero,1200d80 <_malloc_r+0x2dc>
 1200bec:	84000317 	ldw	r16,12(r16)
 1200bf0:	2c000526 	beq	r5,r16,1200c08 <_malloc_r+0x164>
 1200bf4:	80800117 	ldw	r2,4(r16)
 1200bf8:	1184703a 	and	r2,r2,r6
 1200bfc:	1447c83a 	sub	r3,r2,r17
 1200c00:	20fff90e 	bge	r4,r3,1200be8 <__alt_mem_instruction_tcm+0xff200be8>
 1200c04:	39ffffc4 	addi	r7,r7,-1
 1200c08:	38c00044 	addi	r3,r7,1
 1200c0c:	01804874 	movhi	r6,289
 1200c10:	9c000417 	ldw	r16,16(r19)
 1200c14:	31a11304 	addi	r6,r6,-31668
 1200c18:	32400204 	addi	r9,r6,8
 1200c1c:	82410326 	beq	r16,r9,120102c <_malloc_r+0x588>
 1200c20:	81000117 	ldw	r4,4(r16)
 1200c24:	00bfff04 	movi	r2,-4
 1200c28:	208e703a 	and	r7,r4,r2
 1200c2c:	3c45c83a 	sub	r2,r7,r17
 1200c30:	010003c4 	movi	r4,15
 1200c34:	2080ee16 	blt	r4,r2,1200ff0 <_malloc_r+0x54c>
 1200c38:	32400515 	stw	r9,20(r6)
 1200c3c:	32400415 	stw	r9,16(r6)
 1200c40:	1000510e 	bge	r2,zero,1200d88 <_malloc_r+0x2e4>
 1200c44:	00807fc4 	movi	r2,511
 1200c48:	11c0ce36 	bltu	r2,r7,1200f84 <_malloc_r+0x4e0>
 1200c4c:	3808d0fa 	srli	r4,r7,3
 1200c50:	01c00044 	movi	r7,1
 1200c54:	30800117 	ldw	r2,4(r6)
 1200c58:	210b883a 	add	r5,r4,r4
 1200c5c:	294b883a 	add	r5,r5,r5
 1200c60:	2009d0ba 	srai	r4,r4,2
 1200c64:	294b883a 	add	r5,r5,r5
 1200c68:	298b883a 	add	r5,r5,r6
 1200c6c:	2a000217 	ldw	r8,8(r5)
 1200c70:	3908983a 	sll	r4,r7,r4
 1200c74:	81400315 	stw	r5,12(r16)
 1200c78:	82000215 	stw	r8,8(r16)
 1200c7c:	2088b03a 	or	r4,r4,r2
 1200c80:	2c000215 	stw	r16,8(r5)
 1200c84:	31000115 	stw	r4,4(r6)
 1200c88:	44000315 	stw	r16,12(r8)
 1200c8c:	1805d0ba 	srai	r2,r3,2
 1200c90:	01400044 	movi	r5,1
 1200c94:	288a983a 	sll	r5,r5,r2
 1200c98:	21404336 	bltu	r4,r5,1200da8 <_malloc_r+0x304>
 1200c9c:	2144703a 	and	r2,r4,r5
 1200ca0:	10000a1e 	bne	r2,zero,1200ccc <_malloc_r+0x228>
 1200ca4:	00bfff04 	movi	r2,-4
 1200ca8:	294b883a 	add	r5,r5,r5
 1200cac:	1886703a 	and	r3,r3,r2
 1200cb0:	2144703a 	and	r2,r4,r5
 1200cb4:	18c00104 	addi	r3,r3,4
 1200cb8:	1000041e 	bne	r2,zero,1200ccc <_malloc_r+0x228>
 1200cbc:	294b883a 	add	r5,r5,r5
 1200cc0:	2144703a 	and	r2,r4,r5
 1200cc4:	18c00104 	addi	r3,r3,4
 1200cc8:	103ffc26 	beq	r2,zero,1200cbc <__alt_mem_instruction_tcm+0xff200cbc>
 1200ccc:	023fff04 	movi	r8,-4
 1200cd0:	01c003c4 	movi	r7,15
 1200cd4:	18c5883a 	add	r2,r3,r3
 1200cd8:	1085883a 	add	r2,r2,r2
 1200cdc:	1085883a 	add	r2,r2,r2
 1200ce0:	9895883a 	add	r10,r19,r2
 1200ce4:	52c00304 	addi	r11,r10,12
 1200ce8:	1819883a 	mov	r12,r3
 1200cec:	5c000017 	ldw	r16,0(r11)
 1200cf0:	59bffd04 	addi	r6,r11,-12
 1200cf4:	8180041e 	bne	r16,r6,1200d08 <_malloc_r+0x264>
 1200cf8:	0000ce06 	br	1201034 <_malloc_r+0x590>
 1200cfc:	2000d70e 	bge	r4,zero,120105c <_malloc_r+0x5b8>
 1200d00:	84000317 	ldw	r16,12(r16)
 1200d04:	8180cb26 	beq	r16,r6,1201034 <_malloc_r+0x590>
 1200d08:	80800117 	ldw	r2,4(r16)
 1200d0c:	1204703a 	and	r2,r2,r8
 1200d10:	1449c83a 	sub	r4,r2,r17
 1200d14:	393ff90e 	bge	r7,r4,1200cfc <__alt_mem_instruction_tcm+0xff200cfc>
 1200d18:	80800317 	ldw	r2,12(r16)
 1200d1c:	80c00217 	ldw	r3,8(r16)
 1200d20:	89400054 	ori	r5,r17,1
 1200d24:	81400115 	stw	r5,4(r16)
 1200d28:	18800315 	stw	r2,12(r3)
 1200d2c:	10c00215 	stw	r3,8(r2)
 1200d30:	8463883a 	add	r17,r16,r17
 1200d34:	9c400515 	stw	r17,20(r19)
 1200d38:	9c400415 	stw	r17,16(r19)
 1200d3c:	20800054 	ori	r2,r4,1
 1200d40:	88800115 	stw	r2,4(r17)
 1200d44:	8a400315 	stw	r9,12(r17)
 1200d48:	8a400215 	stw	r9,8(r17)
 1200d4c:	8923883a 	add	r17,r17,r4
 1200d50:	89000015 	stw	r4,0(r17)
 1200d54:	9009883a 	mov	r4,r18
 1200d58:	12037740 	call	1203774 <__malloc_unlock>
 1200d5c:	80800204 	addi	r2,r16,8
 1200d60:	003f7d06 	br	1200b58 <__alt_mem_instruction_tcm+0xff200b58>
 1200d64:	00800304 	movi	r2,12
 1200d68:	90800015 	stw	r2,0(r18)
 1200d6c:	0005883a 	mov	r2,zero
 1200d70:	003f7906 	br	1200b58 <__alt_mem_instruction_tcm+0xff200b58>
 1200d74:	01401f84 	movi	r5,126
 1200d78:	01c00fc4 	movi	r7,63
 1200d7c:	003f8d06 	br	1200bb4 <__alt_mem_instruction_tcm+0xff200bb4>
 1200d80:	81000317 	ldw	r4,12(r16)
 1200d84:	003f6a06 	br	1200b30 <__alt_mem_instruction_tcm+0xff200b30>
 1200d88:	81c5883a 	add	r2,r16,r7
 1200d8c:	10c00117 	ldw	r3,4(r2)
 1200d90:	9009883a 	mov	r4,r18
 1200d94:	18c00054 	ori	r3,r3,1
 1200d98:	10c00115 	stw	r3,4(r2)
 1200d9c:	12037740 	call	1203774 <__malloc_unlock>
 1200da0:	80800204 	addi	r2,r16,8
 1200da4:	003f6c06 	br	1200b58 <__alt_mem_instruction_tcm+0xff200b58>
 1200da8:	9c000217 	ldw	r16,8(r19)
 1200dac:	00bfff04 	movi	r2,-4
 1200db0:	85800117 	ldw	r22,4(r16)
 1200db4:	b0ac703a 	and	r22,r22,r2
 1200db8:	b4400336 	bltu	r22,r17,1200dc8 <_malloc_r+0x324>
 1200dbc:	b445c83a 	sub	r2,r22,r17
 1200dc0:	00c003c4 	movi	r3,15
 1200dc4:	18805d16 	blt	r3,r2,1200f3c <_malloc_r+0x498>
 1200dc8:	05c04874 	movhi	r23,289
 1200dcc:	00804874 	movhi	r2,289
 1200dd0:	bde6d004 	addi	r23,r23,-25792
 1200dd4:	10a6e104 	addi	r2,r2,-25724
 1200dd8:	15400017 	ldw	r21,0(r2)
 1200ddc:	b9000017 	ldw	r4,0(r23)
 1200de0:	00ffffc4 	movi	r3,-1
 1200de4:	858d883a 	add	r6,r16,r22
 1200de8:	8d6b883a 	add	r21,r17,r21
 1200dec:	20c0e426 	beq	r4,r3,1201180 <_malloc_r+0x6dc>
 1200df0:	ad4403c4 	addi	r21,r21,4111
 1200df4:	00fc0004 	movi	r3,-4096
 1200df8:	a8ea703a 	and	r21,r21,r3
 1200dfc:	9009883a 	mov	r4,r18
 1200e00:	a80b883a 	mov	r5,r21
 1200e04:	d9800015 	stw	r6,0(sp)
 1200e08:	1201b680 	call	1201b68 <_sbrk_r>
 1200e0c:	00ffffc4 	movi	r3,-1
 1200e10:	1029883a 	mov	r20,r2
 1200e14:	d9800017 	ldw	r6,0(sp)
 1200e18:	10c0a426 	beq	r2,r3,12010ac <_malloc_r+0x608>
 1200e1c:	1180a236 	bltu	r2,r6,12010a8 <_malloc_r+0x604>
 1200e20:	07004874 	movhi	fp,289
 1200e24:	e726ea04 	addi	fp,fp,-25688
 1200e28:	e0c00017 	ldw	r3,0(fp)
 1200e2c:	a8c7883a 	add	r3,r21,r3
 1200e30:	e0c00015 	stw	r3,0(fp)
 1200e34:	3500da26 	beq	r6,r20,12011a0 <_malloc_r+0x6fc>
 1200e38:	b9000017 	ldw	r4,0(r23)
 1200e3c:	00bfffc4 	movi	r2,-1
 1200e40:	2080e426 	beq	r4,r2,12011d4 <_malloc_r+0x730>
 1200e44:	a185c83a 	sub	r2,r20,r6
 1200e48:	1885883a 	add	r2,r3,r2
 1200e4c:	e0800015 	stw	r2,0(fp)
 1200e50:	a0c001cc 	andi	r3,r20,7
 1200e54:	1800b526 	beq	r3,zero,120112c <_malloc_r+0x688>
 1200e58:	a0e9c83a 	sub	r20,r20,r3
 1200e5c:	00840204 	movi	r2,4104
 1200e60:	a5000204 	addi	r20,r20,8
 1200e64:	10c7c83a 	sub	r3,r2,r3
 1200e68:	a545883a 	add	r2,r20,r21
 1200e6c:	1083ffcc 	andi	r2,r2,4095
 1200e70:	18abc83a 	sub	r21,r3,r2
 1200e74:	9009883a 	mov	r4,r18
 1200e78:	a80b883a 	mov	r5,r21
 1200e7c:	1201b680 	call	1201b68 <_sbrk_r>
 1200e80:	00ffffc4 	movi	r3,-1
 1200e84:	10c0d026 	beq	r2,r3,12011c8 <_malloc_r+0x724>
 1200e88:	1507c83a 	sub	r3,r2,r20
 1200e8c:	a8c7883a 	add	r3,r21,r3
 1200e90:	18c00054 	ori	r3,r3,1
 1200e94:	e0800017 	ldw	r2,0(fp)
 1200e98:	9d000215 	stw	r20,8(r19)
 1200e9c:	a0c00115 	stw	r3,4(r20)
 1200ea0:	a887883a 	add	r3,r21,r2
 1200ea4:	e0c00015 	stw	r3,0(fp)
 1200ea8:	84c00e26 	beq	r16,r19,1200ee4 <_malloc_r+0x440>
 1200eac:	018003c4 	movi	r6,15
 1200eb0:	3580a02e 	bgeu	r6,r22,1201134 <_malloc_r+0x690>
 1200eb4:	81400117 	ldw	r5,4(r16)
 1200eb8:	013ffe04 	movi	r4,-8
 1200ebc:	b0bffd04 	addi	r2,r22,-12
 1200ec0:	1104703a 	and	r2,r2,r4
 1200ec4:	2900004c 	andi	r4,r5,1
 1200ec8:	1108b03a 	or	r4,r2,r4
 1200ecc:	81000115 	stw	r4,4(r16)
 1200ed0:	01400144 	movi	r5,5
 1200ed4:	8089883a 	add	r4,r16,r2
 1200ed8:	21400115 	stw	r5,4(r4)
 1200edc:	21400215 	stw	r5,8(r4)
 1200ee0:	3080c036 	bltu	r6,r2,12011e4 <_malloc_r+0x740>
 1200ee4:	00804874 	movhi	r2,289
 1200ee8:	10a6e004 	addi	r2,r2,-25728
 1200eec:	11000017 	ldw	r4,0(r2)
 1200ef0:	20c0012e 	bgeu	r4,r3,1200ef8 <_malloc_r+0x454>
 1200ef4:	10c00015 	stw	r3,0(r2)
 1200ef8:	00804874 	movhi	r2,289
 1200efc:	10a6df04 	addi	r2,r2,-25732
 1200f00:	11000017 	ldw	r4,0(r2)
 1200f04:	9c000217 	ldw	r16,8(r19)
 1200f08:	20c0012e 	bgeu	r4,r3,1200f10 <_malloc_r+0x46c>
 1200f0c:	10c00015 	stw	r3,0(r2)
 1200f10:	80c00117 	ldw	r3,4(r16)
 1200f14:	00bfff04 	movi	r2,-4
 1200f18:	1886703a 	and	r3,r3,r2
 1200f1c:	1c45c83a 	sub	r2,r3,r17
 1200f20:	1c400236 	bltu	r3,r17,1200f2c <_malloc_r+0x488>
 1200f24:	00c003c4 	movi	r3,15
 1200f28:	18800416 	blt	r3,r2,1200f3c <_malloc_r+0x498>
 1200f2c:	9009883a 	mov	r4,r18
 1200f30:	12037740 	call	1203774 <__malloc_unlock>
 1200f34:	0005883a 	mov	r2,zero
 1200f38:	003f0706 	br	1200b58 <__alt_mem_instruction_tcm+0xff200b58>
 1200f3c:	88c00054 	ori	r3,r17,1
 1200f40:	80c00115 	stw	r3,4(r16)
 1200f44:	8463883a 	add	r17,r16,r17
 1200f48:	10800054 	ori	r2,r2,1
 1200f4c:	9c400215 	stw	r17,8(r19)
 1200f50:	88800115 	stw	r2,4(r17)
 1200f54:	9009883a 	mov	r4,r18
 1200f58:	12037740 	call	1203774 <__malloc_unlock>
 1200f5c:	80800204 	addi	r2,r16,8
 1200f60:	003efd06 	br	1200b58 <__alt_mem_instruction_tcm+0xff200b58>
 1200f64:	00800504 	movi	r2,20
 1200f68:	10c0482e 	bgeu	r2,r3,120108c <_malloc_r+0x5e8>
 1200f6c:	00801504 	movi	r2,84
 1200f70:	10c06836 	bltu	r2,r3,1201114 <_malloc_r+0x670>
 1200f74:	8806d33a 	srli	r3,r17,12
 1200f78:	19c01b84 	addi	r7,r3,110
 1200f7c:	39cb883a 	add	r5,r7,r7
 1200f80:	003f0c06 	br	1200bb4 <__alt_mem_instruction_tcm+0xff200bb4>
 1200f84:	3804d27a 	srli	r2,r7,9
 1200f88:	01000104 	movi	r4,4
 1200f8c:	2080422e 	bgeu	r4,r2,1201098 <_malloc_r+0x5f4>
 1200f90:	01000504 	movi	r4,20
 1200f94:	20807c36 	bltu	r4,r2,1201188 <_malloc_r+0x6e4>
 1200f98:	110016c4 	addi	r4,r2,91
 1200f9c:	210b883a 	add	r5,r4,r4
 1200fa0:	294b883a 	add	r5,r5,r5
 1200fa4:	294b883a 	add	r5,r5,r5
 1200fa8:	994b883a 	add	r5,r19,r5
 1200fac:	28800217 	ldw	r2,8(r5)
 1200fb0:	02004874 	movhi	r8,289
 1200fb4:	42211304 	addi	r8,r8,-31668
 1200fb8:	11406326 	beq	r2,r5,1201148 <_malloc_r+0x6a4>
 1200fbc:	01bfff04 	movi	r6,-4
 1200fc0:	11000117 	ldw	r4,4(r2)
 1200fc4:	2188703a 	and	r4,r4,r6
 1200fc8:	3900022e 	bgeu	r7,r4,1200fd4 <_malloc_r+0x530>
 1200fcc:	10800217 	ldw	r2,8(r2)
 1200fd0:	28bffb1e 	bne	r5,r2,1200fc0 <__alt_mem_instruction_tcm+0xff200fc0>
 1200fd4:	11800317 	ldw	r6,12(r2)
 1200fd8:	99000117 	ldw	r4,4(r19)
 1200fdc:	81800315 	stw	r6,12(r16)
 1200fe0:	80800215 	stw	r2,8(r16)
 1200fe4:	34000215 	stw	r16,8(r6)
 1200fe8:	14000315 	stw	r16,12(r2)
 1200fec:	003f2706 	br	1200c8c <__alt_mem_instruction_tcm+0xff200c8c>
 1200ff0:	88c00054 	ori	r3,r17,1
 1200ff4:	80c00115 	stw	r3,4(r16)
 1200ff8:	8463883a 	add	r17,r16,r17
 1200ffc:	34400515 	stw	r17,20(r6)
 1201000:	34400415 	stw	r17,16(r6)
 1201004:	10c00054 	ori	r3,r2,1
 1201008:	8a400315 	stw	r9,12(r17)
 120100c:	8a400215 	stw	r9,8(r17)
 1201010:	88c00115 	stw	r3,4(r17)
 1201014:	88a3883a 	add	r17,r17,r2
 1201018:	88800015 	stw	r2,0(r17)
 120101c:	9009883a 	mov	r4,r18
 1201020:	12037740 	call	1203774 <__malloc_unlock>
 1201024:	80800204 	addi	r2,r16,8
 1201028:	003ecb06 	br	1200b58 <__alt_mem_instruction_tcm+0xff200b58>
 120102c:	31000117 	ldw	r4,4(r6)
 1201030:	003f1606 	br	1200c8c <__alt_mem_instruction_tcm+0xff200c8c>
 1201034:	63000044 	addi	r12,r12,1
 1201038:	608000cc 	andi	r2,r12,3
 120103c:	5ac00204 	addi	r11,r11,8
 1201040:	103f2a1e 	bne	r2,zero,1200cec <__alt_mem_instruction_tcm+0xff200cec>
 1201044:	00002106 	br	12010cc <_malloc_r+0x628>
 1201048:	80800204 	addi	r2,r16,8
 120104c:	84000517 	ldw	r16,20(r16)
 1201050:	143eb31e 	bne	r2,r16,1200b20 <__alt_mem_instruction_tcm+0xff200b20>
 1201054:	18c00084 	addi	r3,r3,2
 1201058:	003eec06 	br	1200c0c <__alt_mem_instruction_tcm+0xff200c0c>
 120105c:	8085883a 	add	r2,r16,r2
 1201060:	10c00117 	ldw	r3,4(r2)
 1201064:	81000317 	ldw	r4,12(r16)
 1201068:	81400217 	ldw	r5,8(r16)
 120106c:	18c00054 	ori	r3,r3,1
 1201070:	10c00115 	stw	r3,4(r2)
 1201074:	29000315 	stw	r4,12(r5)
 1201078:	21400215 	stw	r5,8(r4)
 120107c:	9009883a 	mov	r4,r18
 1201080:	12037740 	call	1203774 <__malloc_unlock>
 1201084:	80800204 	addi	r2,r16,8
 1201088:	003eb306 	br	1200b58 <__alt_mem_instruction_tcm+0xff200b58>
 120108c:	19c016c4 	addi	r7,r3,91
 1201090:	39cb883a 	add	r5,r7,r7
 1201094:	003ec706 	br	1200bb4 <__alt_mem_instruction_tcm+0xff200bb4>
 1201098:	3804d1ba 	srli	r2,r7,6
 120109c:	11000e04 	addi	r4,r2,56
 12010a0:	210b883a 	add	r5,r4,r4
 12010a4:	003fbe06 	br	1200fa0 <__alt_mem_instruction_tcm+0xff200fa0>
 12010a8:	84ff5d26 	beq	r16,r19,1200e20 <__alt_mem_instruction_tcm+0xff200e20>
 12010ac:	9c000217 	ldw	r16,8(r19)
 12010b0:	00bfff04 	movi	r2,-4
 12010b4:	80c00117 	ldw	r3,4(r16)
 12010b8:	1886703a 	and	r3,r3,r2
 12010bc:	003f9706 	br	1200f1c <__alt_mem_instruction_tcm+0xff200f1c>
 12010c0:	52800017 	ldw	r10,0(r10)
 12010c4:	18ffffc4 	addi	r3,r3,-1
 12010c8:	50805c1e 	bne	r10,r2,120123c <_malloc_r+0x798>
 12010cc:	190000cc 	andi	r4,r3,3
 12010d0:	50bffe04 	addi	r2,r10,-8
 12010d4:	203ffa1e 	bne	r4,zero,12010c0 <__alt_mem_instruction_tcm+0xff2010c0>
 12010d8:	98800117 	ldw	r2,4(r19)
 12010dc:	0146303a 	nor	r3,zero,r5
 12010e0:	1884703a 	and	r2,r3,r2
 12010e4:	98800115 	stw	r2,4(r19)
 12010e8:	294b883a 	add	r5,r5,r5
 12010ec:	117f2e36 	bltu	r2,r5,1200da8 <__alt_mem_instruction_tcm+0xff200da8>
 12010f0:	283f2d26 	beq	r5,zero,1200da8 <__alt_mem_instruction_tcm+0xff200da8>
 12010f4:	1146703a 	and	r3,r2,r5
 12010f8:	1800521e 	bne	r3,zero,1201244 <_malloc_r+0x7a0>
 12010fc:	6007883a 	mov	r3,r12
 1201100:	294b883a 	add	r5,r5,r5
 1201104:	1148703a 	and	r4,r2,r5
 1201108:	18c00104 	addi	r3,r3,4
 120110c:	203ffc26 	beq	r4,zero,1201100 <__alt_mem_instruction_tcm+0xff201100>
 1201110:	003ef006 	br	1200cd4 <__alt_mem_instruction_tcm+0xff200cd4>
 1201114:	00805504 	movi	r2,340
 1201118:	10c01336 	bltu	r2,r3,1201168 <_malloc_r+0x6c4>
 120111c:	8806d3fa 	srli	r3,r17,15
 1201120:	19c01dc4 	addi	r7,r3,119
 1201124:	39cb883a 	add	r5,r7,r7
 1201128:	003ea206 	br	1200bb4 <__alt_mem_instruction_tcm+0xff200bb4>
 120112c:	00c40004 	movi	r3,4096
 1201130:	003f4d06 	br	1200e68 <__alt_mem_instruction_tcm+0xff200e68>
 1201134:	00800044 	movi	r2,1
 1201138:	a0800115 	stw	r2,4(r20)
 120113c:	a021883a 	mov	r16,r20
 1201140:	0007883a 	mov	r3,zero
 1201144:	003f7506 	br	1200f1c <__alt_mem_instruction_tcm+0xff200f1c>
 1201148:	200bd0ba 	srai	r5,r4,2
 120114c:	01800044 	movi	r6,1
 1201150:	41000117 	ldw	r4,4(r8)
 1201154:	314a983a 	sll	r5,r6,r5
 1201158:	100d883a 	mov	r6,r2
 120115c:	2908b03a 	or	r4,r5,r4
 1201160:	41000115 	stw	r4,4(r8)
 1201164:	003f9d06 	br	1200fdc <__alt_mem_instruction_tcm+0xff200fdc>
 1201168:	00815504 	movi	r2,1364
 120116c:	10c01336 	bltu	r2,r3,12011bc <_malloc_r+0x718>
 1201170:	8806d4ba 	srli	r3,r17,18
 1201174:	19c01f04 	addi	r7,r3,124
 1201178:	39cb883a 	add	r5,r7,r7
 120117c:	003e8d06 	br	1200bb4 <__alt_mem_instruction_tcm+0xff200bb4>
 1201180:	ad400404 	addi	r21,r21,16
 1201184:	003f1d06 	br	1200dfc <__alt_mem_instruction_tcm+0xff200dfc>
 1201188:	01001504 	movi	r4,84
 120118c:	20801c36 	bltu	r4,r2,1201200 <_malloc_r+0x75c>
 1201190:	3804d33a 	srli	r2,r7,12
 1201194:	11001b84 	addi	r4,r2,110
 1201198:	210b883a 	add	r5,r4,r4
 120119c:	003f8006 	br	1200fa0 <__alt_mem_instruction_tcm+0xff200fa0>
 12011a0:	3083ffcc 	andi	r2,r6,4095
 12011a4:	103f241e 	bne	r2,zero,1200e38 <__alt_mem_instruction_tcm+0xff200e38>
 12011a8:	99000217 	ldw	r4,8(r19)
 12011ac:	ad85883a 	add	r2,r21,r22
 12011b0:	10800054 	ori	r2,r2,1
 12011b4:	20800115 	stw	r2,4(r4)
 12011b8:	003f4a06 	br	1200ee4 <__alt_mem_instruction_tcm+0xff200ee4>
 12011bc:	01403f04 	movi	r5,252
 12011c0:	01c01f84 	movi	r7,126
 12011c4:	003e7b06 	br	1200bb4 <__alt_mem_instruction_tcm+0xff200bb4>
 12011c8:	00c00044 	movi	r3,1
 12011cc:	002b883a 	mov	r21,zero
 12011d0:	003f3006 	br	1200e94 <__alt_mem_instruction_tcm+0xff200e94>
 12011d4:	00804874 	movhi	r2,289
 12011d8:	10a6d004 	addi	r2,r2,-25792
 12011dc:	15000015 	stw	r20,0(r2)
 12011e0:	003f1b06 	br	1200e50 <__alt_mem_instruction_tcm+0xff200e50>
 12011e4:	9009883a 	mov	r4,r18
 12011e8:	81400204 	addi	r5,r16,8
 12011ec:	12024080 	call	1202408 <_free_r>
 12011f0:	00804874 	movhi	r2,289
 12011f4:	10a6ea04 	addi	r2,r2,-25688
 12011f8:	10c00017 	ldw	r3,0(r2)
 12011fc:	003f3906 	br	1200ee4 <__alt_mem_instruction_tcm+0xff200ee4>
 1201200:	01005504 	movi	r4,340
 1201204:	20800436 	bltu	r4,r2,1201218 <_malloc_r+0x774>
 1201208:	3804d3fa 	srli	r2,r7,15
 120120c:	11001dc4 	addi	r4,r2,119
 1201210:	210b883a 	add	r5,r4,r4
 1201214:	003f6206 	br	1200fa0 <__alt_mem_instruction_tcm+0xff200fa0>
 1201218:	01015504 	movi	r4,1364
 120121c:	20800436 	bltu	r4,r2,1201230 <_malloc_r+0x78c>
 1201220:	3804d4ba 	srli	r2,r7,18
 1201224:	11001f04 	addi	r4,r2,124
 1201228:	210b883a 	add	r5,r4,r4
 120122c:	003f5c06 	br	1200fa0 <__alt_mem_instruction_tcm+0xff200fa0>
 1201230:	01403f04 	movi	r5,252
 1201234:	01001f84 	movi	r4,126
 1201238:	003f5906 	br	1200fa0 <__alt_mem_instruction_tcm+0xff200fa0>
 120123c:	98800117 	ldw	r2,4(r19)
 1201240:	003fa906 	br	12010e8 <__alt_mem_instruction_tcm+0xff2010e8>
 1201244:	6007883a 	mov	r3,r12
 1201248:	003ea206 	br	1200cd4 <__alt_mem_instruction_tcm+0xff200cd4>

0120124c <memchr>:
 120124c:	208000cc 	andi	r2,r4,3
 1201250:	280f883a 	mov	r7,r5
 1201254:	10003526 	beq	r2,zero,120132c <memchr+0xe0>
 1201258:	30bfffc4 	addi	r2,r6,-1
 120125c:	30001b26 	beq	r6,zero,12012cc <memchr+0x80>
 1201260:	21800003 	ldbu	r6,0(r4)
 1201264:	28c03fcc 	andi	r3,r5,255
 1201268:	30c01a26 	beq	r6,r3,12012d4 <memchr+0x88>
 120126c:	180d883a 	mov	r6,r3
 1201270:	00000406 	br	1201284 <memchr+0x38>
 1201274:	10001526 	beq	r2,zero,12012cc <memchr+0x80>
 1201278:	20c00003 	ldbu	r3,0(r4)
 120127c:	10bfffc4 	addi	r2,r2,-1
 1201280:	19801426 	beq	r3,r6,12012d4 <memchr+0x88>
 1201284:	21000044 	addi	r4,r4,1
 1201288:	20c000cc 	andi	r3,r4,3
 120128c:	183ff91e 	bne	r3,zero,1201274 <__alt_mem_instruction_tcm+0xff201274>
 1201290:	024000c4 	movi	r9,3
 1201294:	48801136 	bltu	r9,r2,12012dc <memchr+0x90>
 1201298:	10000c26 	beq	r2,zero,12012cc <memchr+0x80>
 120129c:	20c00003 	ldbu	r3,0(r4)
 12012a0:	29403fcc 	andi	r5,r5,255
 12012a4:	19400b26 	beq	r3,r5,12012d4 <memchr+0x88>
 12012a8:	20c00044 	addi	r3,r4,1
 12012ac:	2085883a 	add	r2,r4,r2
 12012b0:	39803fcc 	andi	r6,r7,255
 12012b4:	00000306 	br	12012c4 <memchr+0x78>
 12012b8:	18c00044 	addi	r3,r3,1
 12012bc:	197fffc3 	ldbu	r5,-1(r3)
 12012c0:	29800426 	beq	r5,r6,12012d4 <memchr+0x88>
 12012c4:	1809883a 	mov	r4,r3
 12012c8:	18bffb1e 	bne	r3,r2,12012b8 <__alt_mem_instruction_tcm+0xff2012b8>
 12012cc:	0005883a 	mov	r2,zero
 12012d0:	f800283a 	ret
 12012d4:	2005883a 	mov	r2,r4
 12012d8:	f800283a 	ret
 12012dc:	28c03fcc 	andi	r3,r5,255
 12012e0:	1810923a 	slli	r8,r3,8
 12012e4:	02ffbff4 	movhi	r11,65279
 12012e8:	02a02074 	movhi	r10,32897
 12012ec:	40c6b03a 	or	r3,r8,r3
 12012f0:	1810943a 	slli	r8,r3,16
 12012f4:	5affbfc4 	addi	r11,r11,-257
 12012f8:	52a02004 	addi	r10,r10,-32640
 12012fc:	40d0b03a 	or	r8,r8,r3
 1201300:	20c00017 	ldw	r3,0(r4)
 1201304:	40c6f03a 	xor	r3,r8,r3
 1201308:	1acd883a 	add	r6,r3,r11
 120130c:	00c6303a 	nor	r3,zero,r3
 1201310:	30c6703a 	and	r3,r6,r3
 1201314:	1a86703a 	and	r3,r3,r10
 1201318:	183fdf1e 	bne	r3,zero,1201298 <__alt_mem_instruction_tcm+0xff201298>
 120131c:	10bfff04 	addi	r2,r2,-4
 1201320:	21000104 	addi	r4,r4,4
 1201324:	48bff636 	bltu	r9,r2,1201300 <__alt_mem_instruction_tcm+0xff201300>
 1201328:	003fdb06 	br	1201298 <__alt_mem_instruction_tcm+0xff201298>
 120132c:	3005883a 	mov	r2,r6
 1201330:	003fd706 	br	1201290 <__alt_mem_instruction_tcm+0xff201290>

01201334 <memcpy>:
 1201334:	deffff04 	addi	sp,sp,-4
 1201338:	dc000015 	stw	r16,0(sp)
 120133c:	00c003c4 	movi	r3,15
 1201340:	2005883a 	mov	r2,r4
 1201344:	1980432e 	bgeu	r3,r6,1201454 <memcpy+0x120>
 1201348:	2146b03a 	or	r3,r4,r5
 120134c:	18c000cc 	andi	r3,r3,3
 1201350:	1800421e 	bne	r3,zero,120145c <memcpy+0x128>
 1201354:	343ffc04 	addi	r16,r6,-16
 1201358:	8020d13a 	srli	r16,r16,4
 120135c:	28c00104 	addi	r3,r5,4
 1201360:	23400104 	addi	r13,r4,4
 1201364:	801e913a 	slli	r15,r16,4
 1201368:	2b000204 	addi	r12,r5,8
 120136c:	22c00204 	addi	r11,r4,8
 1201370:	7bc00504 	addi	r15,r15,20
 1201374:	2a800304 	addi	r10,r5,12
 1201378:	22400304 	addi	r9,r4,12
 120137c:	2bdf883a 	add	r15,r5,r15
 1201380:	2811883a 	mov	r8,r5
 1201384:	200f883a 	mov	r7,r4
 1201388:	41000017 	ldw	r4,0(r8)
 120138c:	39c00404 	addi	r7,r7,16
 1201390:	18c00404 	addi	r3,r3,16
 1201394:	393ffc15 	stw	r4,-16(r7)
 1201398:	1bbffc17 	ldw	r14,-16(r3)
 120139c:	6b400404 	addi	r13,r13,16
 12013a0:	5ac00404 	addi	r11,r11,16
 12013a4:	6bbffc15 	stw	r14,-16(r13)
 12013a8:	63800017 	ldw	r14,0(r12)
 12013ac:	4a400404 	addi	r9,r9,16
 12013b0:	42000404 	addi	r8,r8,16
 12013b4:	5bbffc15 	stw	r14,-16(r11)
 12013b8:	53800017 	ldw	r14,0(r10)
 12013bc:	63000404 	addi	r12,r12,16
 12013c0:	52800404 	addi	r10,r10,16
 12013c4:	4bbffc15 	stw	r14,-16(r9)
 12013c8:	1bffef1e 	bne	r3,r15,1201388 <__alt_mem_instruction_tcm+0xff201388>
 12013cc:	81c00044 	addi	r7,r16,1
 12013d0:	380e913a 	slli	r7,r7,4
 12013d4:	310003cc 	andi	r4,r6,15
 12013d8:	02c000c4 	movi	r11,3
 12013dc:	11c7883a 	add	r3,r2,r7
 12013e0:	29cb883a 	add	r5,r5,r7
 12013e4:	59001f2e 	bgeu	r11,r4,1201464 <memcpy+0x130>
 12013e8:	1813883a 	mov	r9,r3
 12013ec:	2811883a 	mov	r8,r5
 12013f0:	200f883a 	mov	r7,r4
 12013f4:	42800017 	ldw	r10,0(r8)
 12013f8:	4a400104 	addi	r9,r9,4
 12013fc:	39ffff04 	addi	r7,r7,-4
 1201400:	4abfff15 	stw	r10,-4(r9)
 1201404:	42000104 	addi	r8,r8,4
 1201408:	59fffa36 	bltu	r11,r7,12013f4 <__alt_mem_instruction_tcm+0xff2013f4>
 120140c:	213fff04 	addi	r4,r4,-4
 1201410:	2008d0ba 	srli	r4,r4,2
 1201414:	318000cc 	andi	r6,r6,3
 1201418:	21000044 	addi	r4,r4,1
 120141c:	2109883a 	add	r4,r4,r4
 1201420:	2109883a 	add	r4,r4,r4
 1201424:	1907883a 	add	r3,r3,r4
 1201428:	290b883a 	add	r5,r5,r4
 120142c:	30000626 	beq	r6,zero,1201448 <memcpy+0x114>
 1201430:	198d883a 	add	r6,r3,r6
 1201434:	29c00003 	ldbu	r7,0(r5)
 1201438:	18c00044 	addi	r3,r3,1
 120143c:	29400044 	addi	r5,r5,1
 1201440:	19ffffc5 	stb	r7,-1(r3)
 1201444:	19bffb1e 	bne	r3,r6,1201434 <__alt_mem_instruction_tcm+0xff201434>
 1201448:	dc000017 	ldw	r16,0(sp)
 120144c:	dec00104 	addi	sp,sp,4
 1201450:	f800283a 	ret
 1201454:	2007883a 	mov	r3,r4
 1201458:	003ff406 	br	120142c <__alt_mem_instruction_tcm+0xff20142c>
 120145c:	2007883a 	mov	r3,r4
 1201460:	003ff306 	br	1201430 <__alt_mem_instruction_tcm+0xff201430>
 1201464:	200d883a 	mov	r6,r4
 1201468:	003ff006 	br	120142c <__alt_mem_instruction_tcm+0xff20142c>

0120146c <memmove>:
 120146c:	2005883a 	mov	r2,r4
 1201470:	29000b2e 	bgeu	r5,r4,12014a0 <memmove+0x34>
 1201474:	298f883a 	add	r7,r5,r6
 1201478:	21c0092e 	bgeu	r4,r7,12014a0 <memmove+0x34>
 120147c:	2187883a 	add	r3,r4,r6
 1201480:	198bc83a 	sub	r5,r3,r6
 1201484:	30004b26 	beq	r6,zero,12015b4 <memmove+0x148>
 1201488:	39ffffc4 	addi	r7,r7,-1
 120148c:	39000003 	ldbu	r4,0(r7)
 1201490:	18ffffc4 	addi	r3,r3,-1
 1201494:	19000005 	stb	r4,0(r3)
 1201498:	197ffb1e 	bne	r3,r5,1201488 <__alt_mem_instruction_tcm+0xff201488>
 120149c:	f800283a 	ret
 12014a0:	00c003c4 	movi	r3,15
 12014a4:	1980412e 	bgeu	r3,r6,12015ac <memmove+0x140>
 12014a8:	1146b03a 	or	r3,r2,r5
 12014ac:	18c000cc 	andi	r3,r3,3
 12014b0:	1800411e 	bne	r3,zero,12015b8 <memmove+0x14c>
 12014b4:	33fffc04 	addi	r15,r6,-16
 12014b8:	781ed13a 	srli	r15,r15,4
 12014bc:	28c00104 	addi	r3,r5,4
 12014c0:	13400104 	addi	r13,r2,4
 12014c4:	781c913a 	slli	r14,r15,4
 12014c8:	2b000204 	addi	r12,r5,8
 12014cc:	12c00204 	addi	r11,r2,8
 12014d0:	73800504 	addi	r14,r14,20
 12014d4:	2a800304 	addi	r10,r5,12
 12014d8:	12400304 	addi	r9,r2,12
 12014dc:	2b9d883a 	add	r14,r5,r14
 12014e0:	2811883a 	mov	r8,r5
 12014e4:	100f883a 	mov	r7,r2
 12014e8:	41000017 	ldw	r4,0(r8)
 12014ec:	39c00404 	addi	r7,r7,16
 12014f0:	18c00404 	addi	r3,r3,16
 12014f4:	393ffc15 	stw	r4,-16(r7)
 12014f8:	193ffc17 	ldw	r4,-16(r3)
 12014fc:	6b400404 	addi	r13,r13,16
 1201500:	5ac00404 	addi	r11,r11,16
 1201504:	693ffc15 	stw	r4,-16(r13)
 1201508:	61000017 	ldw	r4,0(r12)
 120150c:	4a400404 	addi	r9,r9,16
 1201510:	42000404 	addi	r8,r8,16
 1201514:	593ffc15 	stw	r4,-16(r11)
 1201518:	51000017 	ldw	r4,0(r10)
 120151c:	63000404 	addi	r12,r12,16
 1201520:	52800404 	addi	r10,r10,16
 1201524:	493ffc15 	stw	r4,-16(r9)
 1201528:	1bbfef1e 	bne	r3,r14,12014e8 <__alt_mem_instruction_tcm+0xff2014e8>
 120152c:	79000044 	addi	r4,r15,1
 1201530:	2008913a 	slli	r4,r4,4
 1201534:	328003cc 	andi	r10,r6,15
 1201538:	02c000c4 	movi	r11,3
 120153c:	1107883a 	add	r3,r2,r4
 1201540:	290b883a 	add	r5,r5,r4
 1201544:	5a801e2e 	bgeu	r11,r10,12015c0 <memmove+0x154>
 1201548:	1813883a 	mov	r9,r3
 120154c:	2811883a 	mov	r8,r5
 1201550:	500f883a 	mov	r7,r10
 1201554:	41000017 	ldw	r4,0(r8)
 1201558:	4a400104 	addi	r9,r9,4
 120155c:	39ffff04 	addi	r7,r7,-4
 1201560:	493fff15 	stw	r4,-4(r9)
 1201564:	42000104 	addi	r8,r8,4
 1201568:	59fffa36 	bltu	r11,r7,1201554 <__alt_mem_instruction_tcm+0xff201554>
 120156c:	513fff04 	addi	r4,r10,-4
 1201570:	2008d0ba 	srli	r4,r4,2
 1201574:	318000cc 	andi	r6,r6,3
 1201578:	21000044 	addi	r4,r4,1
 120157c:	2109883a 	add	r4,r4,r4
 1201580:	2109883a 	add	r4,r4,r4
 1201584:	1907883a 	add	r3,r3,r4
 1201588:	290b883a 	add	r5,r5,r4
 120158c:	30000926 	beq	r6,zero,12015b4 <memmove+0x148>
 1201590:	198d883a 	add	r6,r3,r6
 1201594:	29c00003 	ldbu	r7,0(r5)
 1201598:	18c00044 	addi	r3,r3,1
 120159c:	29400044 	addi	r5,r5,1
 12015a0:	19ffffc5 	stb	r7,-1(r3)
 12015a4:	19bffb1e 	bne	r3,r6,1201594 <__alt_mem_instruction_tcm+0xff201594>
 12015a8:	f800283a 	ret
 12015ac:	1007883a 	mov	r3,r2
 12015b0:	003ff606 	br	120158c <__alt_mem_instruction_tcm+0xff20158c>
 12015b4:	f800283a 	ret
 12015b8:	1007883a 	mov	r3,r2
 12015bc:	003ff406 	br	1201590 <__alt_mem_instruction_tcm+0xff201590>
 12015c0:	500d883a 	mov	r6,r10
 12015c4:	003ff106 	br	120158c <__alt_mem_instruction_tcm+0xff20158c>

012015c8 <_realloc_r>:
 12015c8:	defff604 	addi	sp,sp,-40
 12015cc:	dcc00315 	stw	r19,12(sp)
 12015d0:	dc400115 	stw	r17,4(sp)
 12015d4:	dfc00915 	stw	ra,36(sp)
 12015d8:	df000815 	stw	fp,32(sp)
 12015dc:	ddc00715 	stw	r23,28(sp)
 12015e0:	dd800615 	stw	r22,24(sp)
 12015e4:	dd400515 	stw	r21,20(sp)
 12015e8:	dd000415 	stw	r20,16(sp)
 12015ec:	dc800215 	stw	r18,8(sp)
 12015f0:	dc000015 	stw	r16,0(sp)
 12015f4:	2827883a 	mov	r19,r5
 12015f8:	3023883a 	mov	r17,r6
 12015fc:	2800bf26 	beq	r5,zero,12018fc <_realloc_r+0x334>
 1201600:	2025883a 	mov	r18,r4
 1201604:	12037540 	call	1203754 <__malloc_lock>
 1201608:	98ffff17 	ldw	r3,-4(r19)
 120160c:	01bfff04 	movi	r6,-4
 1201610:	890002c4 	addi	r4,r17,11
 1201614:	01c00584 	movi	r7,22
 1201618:	9d7ffe04 	addi	r21,r19,-8
 120161c:	19a0703a 	and	r16,r3,r6
 1201620:	39003f2e 	bgeu	r7,r4,1201720 <_realloc_r+0x158>
 1201624:	053ffe04 	movi	r20,-8
 1201628:	2528703a 	and	r20,r4,r20
 120162c:	a00f883a 	mov	r7,r20
 1201630:	a0008216 	blt	r20,zero,120183c <_realloc_r+0x274>
 1201634:	a4408136 	bltu	r20,r17,120183c <_realloc_r+0x274>
 1201638:	81c03c0e 	bge	r16,r7,120172c <_realloc_r+0x164>
 120163c:	07004874 	movhi	fp,289
 1201640:	e7211304 	addi	fp,fp,-31668
 1201644:	e1000217 	ldw	r4,8(fp)
 1201648:	ac05883a 	add	r2,r21,r16
 120164c:	2080bf26 	beq	r4,r2,120194c <_realloc_r+0x384>
 1201650:	11000117 	ldw	r4,4(r2)
 1201654:	023fff84 	movi	r8,-2
 1201658:	2210703a 	and	r8,r4,r8
 120165c:	1211883a 	add	r8,r2,r8
 1201660:	41400117 	ldw	r5,4(r8)
 1201664:	2940004c 	andi	r5,r5,1
 1201668:	28004a1e 	bne	r5,zero,1201794 <_realloc_r+0x1cc>
 120166c:	017fff04 	movi	r5,-4
 1201670:	2148703a 	and	r4,r4,r5
 1201674:	2409883a 	add	r4,r4,r16
 1201678:	21c0ad0e 	bge	r4,r7,1201930 <_realloc_r+0x368>
 120167c:	18c0004c 	andi	r3,r3,1
 1201680:	18007f1e 	bne	r3,zero,1201880 <_realloc_r+0x2b8>
 1201684:	9dfffe17 	ldw	r23,-8(r19)
 1201688:	adefc83a 	sub	r23,r21,r23
 120168c:	bd800117 	ldw	r22,4(r23)
 1201690:	b14a703a 	and	r5,r22,r5
 1201694:	216d883a 	add	r22,r4,r5
 1201698:	b1c04516 	blt	r22,r7,12017b0 <_realloc_r+0x1e8>
 120169c:	10c00317 	ldw	r3,12(r2)
 12016a0:	10800217 	ldw	r2,8(r2)
 12016a4:	81bfff04 	addi	r6,r16,-4
 12016a8:	bc400204 	addi	r17,r23,8
 12016ac:	10c00315 	stw	r3,12(r2)
 12016b0:	18800215 	stw	r2,8(r3)
 12016b4:	b9400217 	ldw	r5,8(r23)
 12016b8:	b8c00317 	ldw	r3,12(r23)
 12016bc:	00800904 	movi	r2,36
 12016c0:	28c00315 	stw	r3,12(r5)
 12016c4:	19400215 	stw	r5,8(r3)
 12016c8:	1180ef36 	bltu	r2,r6,1201a88 <_realloc_r+0x4c0>
 12016cc:	008004c4 	movi	r2,19
 12016d0:	1180da2e 	bgeu	r2,r6,1201a3c <_realloc_r+0x474>
 12016d4:	98800017 	ldw	r2,0(r19)
 12016d8:	b8800215 	stw	r2,8(r23)
 12016dc:	98800117 	ldw	r2,4(r19)
 12016e0:	b8800315 	stw	r2,12(r23)
 12016e4:	008006c4 	movi	r2,27
 12016e8:	1180fc2e 	bgeu	r2,r6,1201adc <_realloc_r+0x514>
 12016ec:	98800217 	ldw	r2,8(r19)
 12016f0:	b8800415 	stw	r2,16(r23)
 12016f4:	98800317 	ldw	r2,12(r19)
 12016f8:	b8800515 	stw	r2,20(r23)
 12016fc:	00800904 	movi	r2,36
 1201700:	3080421e 	bne	r6,r2,120180c <_realloc_r+0x244>
 1201704:	98800417 	ldw	r2,16(r19)
 1201708:	9cc00604 	addi	r19,r19,24
 120170c:	b8c00804 	addi	r3,r23,32
 1201710:	b8800615 	stw	r2,24(r23)
 1201714:	98bfff17 	ldw	r2,-4(r19)
 1201718:	b8800715 	stw	r2,28(r23)
 120171c:	00003d06 	br	1201814 <_realloc_r+0x24c>
 1201720:	01c00404 	movi	r7,16
 1201724:	3829883a 	mov	r20,r7
 1201728:	003fc206 	br	1201634 <__alt_mem_instruction_tcm+0xff201634>
 120172c:	9823883a 	mov	r17,r19
 1201730:	850fc83a 	sub	r7,r16,r20
 1201734:	008003c4 	movi	r2,15
 1201738:	18c0004c 	andi	r3,r3,1
 120173c:	11c04336 	bltu	r2,r7,120184c <_realloc_r+0x284>
 1201740:	1c06b03a 	or	r3,r3,r16
 1201744:	a8c00115 	stw	r3,4(r21)
 1201748:	ac21883a 	add	r16,r21,r16
 120174c:	80c00117 	ldw	r3,4(r16)
 1201750:	18c00054 	ori	r3,r3,1
 1201754:	80c00115 	stw	r3,4(r16)
 1201758:	9009883a 	mov	r4,r18
 120175c:	12037740 	call	1203774 <__malloc_unlock>
 1201760:	8805883a 	mov	r2,r17
 1201764:	dfc00917 	ldw	ra,36(sp)
 1201768:	df000817 	ldw	fp,32(sp)
 120176c:	ddc00717 	ldw	r23,28(sp)
 1201770:	dd800617 	ldw	r22,24(sp)
 1201774:	dd400517 	ldw	r21,20(sp)
 1201778:	dd000417 	ldw	r20,16(sp)
 120177c:	dcc00317 	ldw	r19,12(sp)
 1201780:	dc800217 	ldw	r18,8(sp)
 1201784:	dc400117 	ldw	r17,4(sp)
 1201788:	dc000017 	ldw	r16,0(sp)
 120178c:	dec00a04 	addi	sp,sp,40
 1201790:	f800283a 	ret
 1201794:	18c0004c 	andi	r3,r3,1
 1201798:	1800391e 	bne	r3,zero,1201880 <_realloc_r+0x2b8>
 120179c:	9dfffe17 	ldw	r23,-8(r19)
 12017a0:	00bfff04 	movi	r2,-4
 12017a4:	adefc83a 	sub	r23,r21,r23
 12017a8:	b9400117 	ldw	r5,4(r23)
 12017ac:	288a703a 	and	r5,r5,r2
 12017b0:	2c2d883a 	add	r22,r5,r16
 12017b4:	b1c03216 	blt	r22,r7,1201880 <_realloc_r+0x2b8>
 12017b8:	b8800317 	ldw	r2,12(r23)
 12017bc:	b8c00217 	ldw	r3,8(r23)
 12017c0:	81bfff04 	addi	r6,r16,-4
 12017c4:	01000904 	movi	r4,36
 12017c8:	18800315 	stw	r2,12(r3)
 12017cc:	10c00215 	stw	r3,8(r2)
 12017d0:	bc400204 	addi	r17,r23,8
 12017d4:	2180ac36 	bltu	r4,r6,1201a88 <_realloc_r+0x4c0>
 12017d8:	008004c4 	movi	r2,19
 12017dc:	1180972e 	bgeu	r2,r6,1201a3c <_realloc_r+0x474>
 12017e0:	98800017 	ldw	r2,0(r19)
 12017e4:	b8800215 	stw	r2,8(r23)
 12017e8:	98800117 	ldw	r2,4(r19)
 12017ec:	b8800315 	stw	r2,12(r23)
 12017f0:	008006c4 	movi	r2,27
 12017f4:	1180b92e 	bgeu	r2,r6,1201adc <_realloc_r+0x514>
 12017f8:	98800217 	ldw	r2,8(r19)
 12017fc:	b8800415 	stw	r2,16(r23)
 1201800:	98800317 	ldw	r2,12(r19)
 1201804:	b8800515 	stw	r2,20(r23)
 1201808:	313fbe26 	beq	r6,r4,1201704 <__alt_mem_instruction_tcm+0xff201704>
 120180c:	b8c00604 	addi	r3,r23,24
 1201810:	9cc00404 	addi	r19,r19,16
 1201814:	98800017 	ldw	r2,0(r19)
 1201818:	b021883a 	mov	r16,r22
 120181c:	b82b883a 	mov	r21,r23
 1201820:	18800015 	stw	r2,0(r3)
 1201824:	98800117 	ldw	r2,4(r19)
 1201828:	18800115 	stw	r2,4(r3)
 120182c:	98800217 	ldw	r2,8(r19)
 1201830:	18800215 	stw	r2,8(r3)
 1201834:	b8c00117 	ldw	r3,4(r23)
 1201838:	003fbd06 	br	1201730 <__alt_mem_instruction_tcm+0xff201730>
 120183c:	00800304 	movi	r2,12
 1201840:	90800015 	stw	r2,0(r18)
 1201844:	0005883a 	mov	r2,zero
 1201848:	003fc606 	br	1201764 <__alt_mem_instruction_tcm+0xff201764>
 120184c:	1d06b03a 	or	r3,r3,r20
 1201850:	ad0b883a 	add	r5,r21,r20
 1201854:	a8c00115 	stw	r3,4(r21)
 1201858:	38800054 	ori	r2,r7,1
 120185c:	28800115 	stw	r2,4(r5)
 1201860:	29cf883a 	add	r7,r5,r7
 1201864:	38800117 	ldw	r2,4(r7)
 1201868:	9009883a 	mov	r4,r18
 120186c:	29400204 	addi	r5,r5,8
 1201870:	10800054 	ori	r2,r2,1
 1201874:	38800115 	stw	r2,4(r7)
 1201878:	12024080 	call	1202408 <_free_r>
 120187c:	003fb606 	br	1201758 <__alt_mem_instruction_tcm+0xff201758>
 1201880:	880b883a 	mov	r5,r17
 1201884:	9009883a 	mov	r4,r18
 1201888:	1200aa40 	call	1200aa4 <_malloc_r>
 120188c:	1023883a 	mov	r17,r2
 1201890:	1000aa26 	beq	r2,zero,1201b3c <_realloc_r+0x574>
 1201894:	98ffff17 	ldw	r3,-4(r19)
 1201898:	113ffe04 	addi	r4,r2,-8
 120189c:	00bfff84 	movi	r2,-2
 12018a0:	1884703a 	and	r2,r3,r2
 12018a4:	a885883a 	add	r2,r21,r2
 12018a8:	20808626 	beq	r4,r2,1201ac4 <_realloc_r+0x4fc>
 12018ac:	81bfff04 	addi	r6,r16,-4
 12018b0:	00800904 	movi	r2,36
 12018b4:	11807036 	bltu	r2,r6,1201a78 <_realloc_r+0x4b0>
 12018b8:	00c004c4 	movi	r3,19
 12018bc:	19805636 	bltu	r3,r6,1201a18 <_realloc_r+0x450>
 12018c0:	8805883a 	mov	r2,r17
 12018c4:	9807883a 	mov	r3,r19
 12018c8:	19000017 	ldw	r4,0(r3)
 12018cc:	11000015 	stw	r4,0(r2)
 12018d0:	19000117 	ldw	r4,4(r3)
 12018d4:	11000115 	stw	r4,4(r2)
 12018d8:	18c00217 	ldw	r3,8(r3)
 12018dc:	10c00215 	stw	r3,8(r2)
 12018e0:	980b883a 	mov	r5,r19
 12018e4:	9009883a 	mov	r4,r18
 12018e8:	12024080 	call	1202408 <_free_r>
 12018ec:	9009883a 	mov	r4,r18
 12018f0:	12037740 	call	1203774 <__malloc_unlock>
 12018f4:	8805883a 	mov	r2,r17
 12018f8:	003f9a06 	br	1201764 <__alt_mem_instruction_tcm+0xff201764>
 12018fc:	300b883a 	mov	r5,r6
 1201900:	dfc00917 	ldw	ra,36(sp)
 1201904:	df000817 	ldw	fp,32(sp)
 1201908:	ddc00717 	ldw	r23,28(sp)
 120190c:	dd800617 	ldw	r22,24(sp)
 1201910:	dd400517 	ldw	r21,20(sp)
 1201914:	dd000417 	ldw	r20,16(sp)
 1201918:	dcc00317 	ldw	r19,12(sp)
 120191c:	dc800217 	ldw	r18,8(sp)
 1201920:	dc400117 	ldw	r17,4(sp)
 1201924:	dc000017 	ldw	r16,0(sp)
 1201928:	dec00a04 	addi	sp,sp,40
 120192c:	1200aa41 	jmpi	1200aa4 <_malloc_r>
 1201930:	11400317 	ldw	r5,12(r2)
 1201934:	10800217 	ldw	r2,8(r2)
 1201938:	9823883a 	mov	r17,r19
 120193c:	2021883a 	mov	r16,r4
 1201940:	11400315 	stw	r5,12(r2)
 1201944:	28800215 	stw	r2,8(r5)
 1201948:	003f7906 	br	1201730 <__alt_mem_instruction_tcm+0xff201730>
 120194c:	21000117 	ldw	r4,4(r4)
 1201950:	00bfff04 	movi	r2,-4
 1201954:	a1800404 	addi	r6,r20,16
 1201958:	2088703a 	and	r4,r4,r2
 120195c:	2409883a 	add	r4,r4,r16
 1201960:	2180380e 	bge	r4,r6,1201a44 <_realloc_r+0x47c>
 1201964:	18c0004c 	andi	r3,r3,1
 1201968:	183fc51e 	bne	r3,zero,1201880 <__alt_mem_instruction_tcm+0xff201880>
 120196c:	9dfffe17 	ldw	r23,-8(r19)
 1201970:	adefc83a 	sub	r23,r21,r23
 1201974:	b9400117 	ldw	r5,4(r23)
 1201978:	288a703a 	and	r5,r5,r2
 120197c:	216d883a 	add	r22,r4,r5
 1201980:	b1bf8b16 	blt	r22,r6,12017b0 <__alt_mem_instruction_tcm+0xff2017b0>
 1201984:	b8800317 	ldw	r2,12(r23)
 1201988:	b8c00217 	ldw	r3,8(r23)
 120198c:	81bfff04 	addi	r6,r16,-4
 1201990:	01000904 	movi	r4,36
 1201994:	18800315 	stw	r2,12(r3)
 1201998:	10c00215 	stw	r3,8(r2)
 120199c:	bc400204 	addi	r17,r23,8
 12019a0:	21805a36 	bltu	r4,r6,1201b0c <_realloc_r+0x544>
 12019a4:	008004c4 	movi	r2,19
 12019a8:	1180562e 	bgeu	r2,r6,1201b04 <_realloc_r+0x53c>
 12019ac:	98800017 	ldw	r2,0(r19)
 12019b0:	b8800215 	stw	r2,8(r23)
 12019b4:	98800117 	ldw	r2,4(r19)
 12019b8:	b8800315 	stw	r2,12(r23)
 12019bc:	008006c4 	movi	r2,27
 12019c0:	11805636 	bltu	r2,r6,1201b1c <_realloc_r+0x554>
 12019c4:	b8800404 	addi	r2,r23,16
 12019c8:	9cc00204 	addi	r19,r19,8
 12019cc:	98c00017 	ldw	r3,0(r19)
 12019d0:	10c00015 	stw	r3,0(r2)
 12019d4:	98c00117 	ldw	r3,4(r19)
 12019d8:	10c00115 	stw	r3,4(r2)
 12019dc:	98c00217 	ldw	r3,8(r19)
 12019e0:	10c00215 	stw	r3,8(r2)
 12019e4:	bd07883a 	add	r3,r23,r20
 12019e8:	b505c83a 	sub	r2,r22,r20
 12019ec:	e0c00215 	stw	r3,8(fp)
 12019f0:	10800054 	ori	r2,r2,1
 12019f4:	18800115 	stw	r2,4(r3)
 12019f8:	b8800117 	ldw	r2,4(r23)
 12019fc:	9009883a 	mov	r4,r18
 1201a00:	1080004c 	andi	r2,r2,1
 1201a04:	a0a8b03a 	or	r20,r20,r2
 1201a08:	bd000115 	stw	r20,4(r23)
 1201a0c:	12037740 	call	1203774 <__malloc_unlock>
 1201a10:	8805883a 	mov	r2,r17
 1201a14:	003f5306 	br	1201764 <__alt_mem_instruction_tcm+0xff201764>
 1201a18:	98c00017 	ldw	r3,0(r19)
 1201a1c:	88c00015 	stw	r3,0(r17)
 1201a20:	98c00117 	ldw	r3,4(r19)
 1201a24:	88c00115 	stw	r3,4(r17)
 1201a28:	00c006c4 	movi	r3,27
 1201a2c:	19801d36 	bltu	r3,r6,1201aa4 <_realloc_r+0x4dc>
 1201a30:	88800204 	addi	r2,r17,8
 1201a34:	98c00204 	addi	r3,r19,8
 1201a38:	003fa306 	br	12018c8 <__alt_mem_instruction_tcm+0xff2018c8>
 1201a3c:	8807883a 	mov	r3,r17
 1201a40:	003f7406 	br	1201814 <__alt_mem_instruction_tcm+0xff201814>
 1201a44:	ad2b883a 	add	r21,r21,r20
 1201a48:	2505c83a 	sub	r2,r4,r20
 1201a4c:	e5400215 	stw	r21,8(fp)
 1201a50:	10800054 	ori	r2,r2,1
 1201a54:	a8800115 	stw	r2,4(r21)
 1201a58:	98bfff17 	ldw	r2,-4(r19)
 1201a5c:	9009883a 	mov	r4,r18
 1201a60:	1080004c 	andi	r2,r2,1
 1201a64:	a0a8b03a 	or	r20,r20,r2
 1201a68:	9d3fff15 	stw	r20,-4(r19)
 1201a6c:	12037740 	call	1203774 <__malloc_unlock>
 1201a70:	9805883a 	mov	r2,r19
 1201a74:	003f3b06 	br	1201764 <__alt_mem_instruction_tcm+0xff201764>
 1201a78:	8809883a 	mov	r4,r17
 1201a7c:	980b883a 	mov	r5,r19
 1201a80:	120146c0 	call	120146c <memmove>
 1201a84:	003f9606 	br	12018e0 <__alt_mem_instruction_tcm+0xff2018e0>
 1201a88:	8809883a 	mov	r4,r17
 1201a8c:	980b883a 	mov	r5,r19
 1201a90:	120146c0 	call	120146c <memmove>
 1201a94:	b8c00117 	ldw	r3,4(r23)
 1201a98:	b021883a 	mov	r16,r22
 1201a9c:	b82b883a 	mov	r21,r23
 1201aa0:	003f2306 	br	1201730 <__alt_mem_instruction_tcm+0xff201730>
 1201aa4:	98c00217 	ldw	r3,8(r19)
 1201aa8:	88c00215 	stw	r3,8(r17)
 1201aac:	98c00317 	ldw	r3,12(r19)
 1201ab0:	88c00315 	stw	r3,12(r17)
 1201ab4:	30800c26 	beq	r6,r2,1201ae8 <_realloc_r+0x520>
 1201ab8:	88800404 	addi	r2,r17,16
 1201abc:	98c00404 	addi	r3,r19,16
 1201ac0:	003f8106 	br	12018c8 <__alt_mem_instruction_tcm+0xff2018c8>
 1201ac4:	893fff17 	ldw	r4,-4(r17)
 1201ac8:	00bfff04 	movi	r2,-4
 1201acc:	9823883a 	mov	r17,r19
 1201ad0:	2084703a 	and	r2,r4,r2
 1201ad4:	80a1883a 	add	r16,r16,r2
 1201ad8:	003f1506 	br	1201730 <__alt_mem_instruction_tcm+0xff201730>
 1201adc:	b8c00404 	addi	r3,r23,16
 1201ae0:	9cc00204 	addi	r19,r19,8
 1201ae4:	003f4b06 	br	1201814 <__alt_mem_instruction_tcm+0xff201814>
 1201ae8:	99000417 	ldw	r4,16(r19)
 1201aec:	88800604 	addi	r2,r17,24
 1201af0:	98c00604 	addi	r3,r19,24
 1201af4:	89000415 	stw	r4,16(r17)
 1201af8:	99000517 	ldw	r4,20(r19)
 1201afc:	89000515 	stw	r4,20(r17)
 1201b00:	003f7106 	br	12018c8 <__alt_mem_instruction_tcm+0xff2018c8>
 1201b04:	8805883a 	mov	r2,r17
 1201b08:	003fb006 	br	12019cc <__alt_mem_instruction_tcm+0xff2019cc>
 1201b0c:	8809883a 	mov	r4,r17
 1201b10:	980b883a 	mov	r5,r19
 1201b14:	120146c0 	call	120146c <memmove>
 1201b18:	003fb206 	br	12019e4 <__alt_mem_instruction_tcm+0xff2019e4>
 1201b1c:	98800217 	ldw	r2,8(r19)
 1201b20:	b8800415 	stw	r2,16(r23)
 1201b24:	98800317 	ldw	r2,12(r19)
 1201b28:	b8800515 	stw	r2,20(r23)
 1201b2c:	31000726 	beq	r6,r4,1201b4c <_realloc_r+0x584>
 1201b30:	b8800604 	addi	r2,r23,24
 1201b34:	9cc00404 	addi	r19,r19,16
 1201b38:	003fa406 	br	12019cc <__alt_mem_instruction_tcm+0xff2019cc>
 1201b3c:	9009883a 	mov	r4,r18
 1201b40:	12037740 	call	1203774 <__malloc_unlock>
 1201b44:	0005883a 	mov	r2,zero
 1201b48:	003f0606 	br	1201764 <__alt_mem_instruction_tcm+0xff201764>
 1201b4c:	98c00417 	ldw	r3,16(r19)
 1201b50:	9cc00604 	addi	r19,r19,24
 1201b54:	b8800804 	addi	r2,r23,32
 1201b58:	b8c00615 	stw	r3,24(r23)
 1201b5c:	98ffff17 	ldw	r3,-4(r19)
 1201b60:	b8c00715 	stw	r3,28(r23)
 1201b64:	003f9906 	br	12019cc <__alt_mem_instruction_tcm+0xff2019cc>

01201b68 <_sbrk_r>:
 1201b68:	defffd04 	addi	sp,sp,-12
 1201b6c:	dc000015 	stw	r16,0(sp)
 1201b70:	04004874 	movhi	r16,289
 1201b74:	dc400115 	stw	r17,4(sp)
 1201b78:	8426e204 	addi	r16,r16,-25720
 1201b7c:	2023883a 	mov	r17,r4
 1201b80:	2809883a 	mov	r4,r5
 1201b84:	dfc00215 	stw	ra,8(sp)
 1201b88:	80000015 	stw	zero,0(r16)
 1201b8c:	12039400 	call	1203940 <sbrk>
 1201b90:	00ffffc4 	movi	r3,-1
 1201b94:	10c00526 	beq	r2,r3,1201bac <_sbrk_r+0x44>
 1201b98:	dfc00217 	ldw	ra,8(sp)
 1201b9c:	dc400117 	ldw	r17,4(sp)
 1201ba0:	dc000017 	ldw	r16,0(sp)
 1201ba4:	dec00304 	addi	sp,sp,12
 1201ba8:	f800283a 	ret
 1201bac:	80c00017 	ldw	r3,0(r16)
 1201bb0:	183ff926 	beq	r3,zero,1201b98 <__alt_mem_instruction_tcm+0xff201b98>
 1201bb4:	88c00015 	stw	r3,0(r17)
 1201bb8:	003ff706 	br	1201b98 <__alt_mem_instruction_tcm+0xff201b98>

01201bbc <__swsetup_r>:
 1201bbc:	00804874 	movhi	r2,289
 1201bc0:	defffd04 	addi	sp,sp,-12
 1201bc4:	10a6cf04 	addi	r2,r2,-25796
 1201bc8:	dc400115 	stw	r17,4(sp)
 1201bcc:	2023883a 	mov	r17,r4
 1201bd0:	11000017 	ldw	r4,0(r2)
 1201bd4:	dc000015 	stw	r16,0(sp)
 1201bd8:	dfc00215 	stw	ra,8(sp)
 1201bdc:	2821883a 	mov	r16,r5
 1201be0:	20000226 	beq	r4,zero,1201bec <__swsetup_r+0x30>
 1201be4:	20c00e17 	ldw	r3,56(r4)
 1201be8:	18002e26 	beq	r3,zero,1201ca4 <__swsetup_r+0xe8>
 1201bec:	8080030b 	ldhu	r2,12(r16)
 1201bf0:	10c0020c 	andi	r3,r2,8
 1201bf4:	100d883a 	mov	r6,r2
 1201bf8:	18000f26 	beq	r3,zero,1201c38 <__swsetup_r+0x7c>
 1201bfc:	80c00417 	ldw	r3,16(r16)
 1201c00:	18001526 	beq	r3,zero,1201c58 <__swsetup_r+0x9c>
 1201c04:	1100004c 	andi	r4,r2,1
 1201c08:	20001c1e 	bne	r4,zero,1201c7c <__swsetup_r+0xc0>
 1201c0c:	1080008c 	andi	r2,r2,2
 1201c10:	1000261e 	bne	r2,zero,1201cac <__swsetup_r+0xf0>
 1201c14:	80800517 	ldw	r2,20(r16)
 1201c18:	80800215 	stw	r2,8(r16)
 1201c1c:	18001c26 	beq	r3,zero,1201c90 <__swsetup_r+0xd4>
 1201c20:	0005883a 	mov	r2,zero
 1201c24:	dfc00217 	ldw	ra,8(sp)
 1201c28:	dc400117 	ldw	r17,4(sp)
 1201c2c:	dc000017 	ldw	r16,0(sp)
 1201c30:	dec00304 	addi	sp,sp,12
 1201c34:	f800283a 	ret
 1201c38:	3080040c 	andi	r2,r6,16
 1201c3c:	10001726 	beq	r2,zero,1201c9c <__swsetup_r+0xe0>
 1201c40:	3080010c 	andi	r2,r6,4
 1201c44:	10001b1e 	bne	r2,zero,1201cb4 <__swsetup_r+0xf8>
 1201c48:	80c00417 	ldw	r3,16(r16)
 1201c4c:	30800214 	ori	r2,r6,8
 1201c50:	8080030d 	sth	r2,12(r16)
 1201c54:	183feb1e 	bne	r3,zero,1201c04 <__alt_mem_instruction_tcm+0xff201c04>
 1201c58:	1140a00c 	andi	r5,r2,640
 1201c5c:	01008004 	movi	r4,512
 1201c60:	293fe826 	beq	r5,r4,1201c04 <__alt_mem_instruction_tcm+0xff201c04>
 1201c64:	8809883a 	mov	r4,r17
 1201c68:	800b883a 	mov	r5,r16
 1201c6c:	12028680 	call	1202868 <__smakebuf_r>
 1201c70:	8080030b 	ldhu	r2,12(r16)
 1201c74:	80c00417 	ldw	r3,16(r16)
 1201c78:	003fe206 	br	1201c04 <__alt_mem_instruction_tcm+0xff201c04>
 1201c7c:	80800517 	ldw	r2,20(r16)
 1201c80:	80000215 	stw	zero,8(r16)
 1201c84:	0085c83a 	sub	r2,zero,r2
 1201c88:	80800615 	stw	r2,24(r16)
 1201c8c:	183fe41e 	bne	r3,zero,1201c20 <__alt_mem_instruction_tcm+0xff201c20>
 1201c90:	8080030b 	ldhu	r2,12(r16)
 1201c94:	1080200c 	andi	r2,r2,128
 1201c98:	103fe226 	beq	r2,zero,1201c24 <__alt_mem_instruction_tcm+0xff201c24>
 1201c9c:	00bfffc4 	movi	r2,-1
 1201ca0:	003fe006 	br	1201c24 <__alt_mem_instruction_tcm+0xff201c24>
 1201ca4:	12022940 	call	1202294 <__sinit>
 1201ca8:	003fd006 	br	1201bec <__alt_mem_instruction_tcm+0xff201bec>
 1201cac:	0005883a 	mov	r2,zero
 1201cb0:	003fd906 	br	1201c18 <__alt_mem_instruction_tcm+0xff201c18>
 1201cb4:	81400c17 	ldw	r5,48(r16)
 1201cb8:	28000626 	beq	r5,zero,1201cd4 <__swsetup_r+0x118>
 1201cbc:	80801004 	addi	r2,r16,64
 1201cc0:	28800326 	beq	r5,r2,1201cd0 <__swsetup_r+0x114>
 1201cc4:	8809883a 	mov	r4,r17
 1201cc8:	12024080 	call	1202408 <_free_r>
 1201ccc:	8180030b 	ldhu	r6,12(r16)
 1201cd0:	80000c15 	stw	zero,48(r16)
 1201cd4:	80c00417 	ldw	r3,16(r16)
 1201cd8:	00bff6c4 	movi	r2,-37
 1201cdc:	118c703a 	and	r6,r2,r6
 1201ce0:	80000115 	stw	zero,4(r16)
 1201ce4:	80c00015 	stw	r3,0(r16)
 1201ce8:	003fd806 	br	1201c4c <__alt_mem_instruction_tcm+0xff201c4c>

01201cec <_fflush_r>:
 1201cec:	defffb04 	addi	sp,sp,-20
 1201cf0:	dcc00315 	stw	r19,12(sp)
 1201cf4:	dc000015 	stw	r16,0(sp)
 1201cf8:	dfc00415 	stw	ra,16(sp)
 1201cfc:	dc800215 	stw	r18,8(sp)
 1201d00:	dc400115 	stw	r17,4(sp)
 1201d04:	2027883a 	mov	r19,r4
 1201d08:	2821883a 	mov	r16,r5
 1201d0c:	20000226 	beq	r4,zero,1201d18 <_fflush_r+0x2c>
 1201d10:	20800e17 	ldw	r2,56(r4)
 1201d14:	10005326 	beq	r2,zero,1201e64 <_fflush_r+0x178>
 1201d18:	8080030b 	ldhu	r2,12(r16)
 1201d1c:	10ffffcc 	andi	r3,r2,65535
 1201d20:	18e0001c 	xori	r3,r3,32768
 1201d24:	18e00004 	addi	r3,r3,-32768
 1201d28:	18002c26 	beq	r3,zero,1201ddc <_fflush_r+0xf0>
 1201d2c:	10c0020c 	andi	r3,r2,8
 1201d30:	1800321e 	bne	r3,zero,1201dfc <_fflush_r+0x110>
 1201d34:	80c00117 	ldw	r3,4(r16)
 1201d38:	10820014 	ori	r2,r2,2048
 1201d3c:	8080030d 	sth	r2,12(r16)
 1201d40:	00c0570e 	bge	zero,r3,1201ea0 <_fflush_r+0x1b4>
 1201d44:	82000a17 	ldw	r8,40(r16)
 1201d48:	40002426 	beq	r8,zero,1201ddc <_fflush_r+0xf0>
 1201d4c:	9c400017 	ldw	r17,0(r19)
 1201d50:	10c4000c 	andi	r3,r2,4096
 1201d54:	98000015 	stw	zero,0(r19)
 1201d58:	18004626 	beq	r3,zero,1201e74 <_fflush_r+0x188>
 1201d5c:	81801417 	ldw	r6,80(r16)
 1201d60:	10c0010c 	andi	r3,r2,4
 1201d64:	18000626 	beq	r3,zero,1201d80 <_fflush_r+0x94>
 1201d68:	80c00117 	ldw	r3,4(r16)
 1201d6c:	80800c17 	ldw	r2,48(r16)
 1201d70:	30cdc83a 	sub	r6,r6,r3
 1201d74:	10000226 	beq	r2,zero,1201d80 <_fflush_r+0x94>
 1201d78:	80800f17 	ldw	r2,60(r16)
 1201d7c:	308dc83a 	sub	r6,r6,r2
 1201d80:	81400717 	ldw	r5,28(r16)
 1201d84:	9809883a 	mov	r4,r19
 1201d88:	000f883a 	mov	r7,zero
 1201d8c:	403ee83a 	callr	r8
 1201d90:	00ffffc4 	movi	r3,-1
 1201d94:	10c04526 	beq	r2,r3,1201eac <_fflush_r+0x1c0>
 1201d98:	80c0030b 	ldhu	r3,12(r16)
 1201d9c:	81000417 	ldw	r4,16(r16)
 1201da0:	80000115 	stw	zero,4(r16)
 1201da4:	197dffcc 	andi	r5,r3,63487
 1201da8:	8140030d 	sth	r5,12(r16)
 1201dac:	81000015 	stw	r4,0(r16)
 1201db0:	18c4000c 	andi	r3,r3,4096
 1201db4:	18000126 	beq	r3,zero,1201dbc <_fflush_r+0xd0>
 1201db8:	80801415 	stw	r2,80(r16)
 1201dbc:	81400c17 	ldw	r5,48(r16)
 1201dc0:	9c400015 	stw	r17,0(r19)
 1201dc4:	28000526 	beq	r5,zero,1201ddc <_fflush_r+0xf0>
 1201dc8:	80801004 	addi	r2,r16,64
 1201dcc:	28800226 	beq	r5,r2,1201dd8 <_fflush_r+0xec>
 1201dd0:	9809883a 	mov	r4,r19
 1201dd4:	12024080 	call	1202408 <_free_r>
 1201dd8:	80000c15 	stw	zero,48(r16)
 1201ddc:	0005883a 	mov	r2,zero
 1201de0:	dfc00417 	ldw	ra,16(sp)
 1201de4:	dcc00317 	ldw	r19,12(sp)
 1201de8:	dc800217 	ldw	r18,8(sp)
 1201dec:	dc400117 	ldw	r17,4(sp)
 1201df0:	dc000017 	ldw	r16,0(sp)
 1201df4:	dec00504 	addi	sp,sp,20
 1201df8:	f800283a 	ret
 1201dfc:	84800417 	ldw	r18,16(r16)
 1201e00:	903ff626 	beq	r18,zero,1201ddc <__alt_mem_instruction_tcm+0xff201ddc>
 1201e04:	84400017 	ldw	r17,0(r16)
 1201e08:	108000cc 	andi	r2,r2,3
 1201e0c:	84800015 	stw	r18,0(r16)
 1201e10:	8ca3c83a 	sub	r17,r17,r18
 1201e14:	10001526 	beq	r2,zero,1201e6c <_fflush_r+0x180>
 1201e18:	0005883a 	mov	r2,zero
 1201e1c:	80800215 	stw	r2,8(r16)
 1201e20:	04400316 	blt	zero,r17,1201e30 <_fflush_r+0x144>
 1201e24:	003fed06 	br	1201ddc <__alt_mem_instruction_tcm+0xff201ddc>
 1201e28:	90a5883a 	add	r18,r18,r2
 1201e2c:	047feb0e 	bge	zero,r17,1201ddc <__alt_mem_instruction_tcm+0xff201ddc>
 1201e30:	80800917 	ldw	r2,36(r16)
 1201e34:	81400717 	ldw	r5,28(r16)
 1201e38:	880f883a 	mov	r7,r17
 1201e3c:	900d883a 	mov	r6,r18
 1201e40:	9809883a 	mov	r4,r19
 1201e44:	103ee83a 	callr	r2
 1201e48:	88a3c83a 	sub	r17,r17,r2
 1201e4c:	00bff616 	blt	zero,r2,1201e28 <__alt_mem_instruction_tcm+0xff201e28>
 1201e50:	80c0030b 	ldhu	r3,12(r16)
 1201e54:	00bfffc4 	movi	r2,-1
 1201e58:	18c01014 	ori	r3,r3,64
 1201e5c:	80c0030d 	sth	r3,12(r16)
 1201e60:	003fdf06 	br	1201de0 <__alt_mem_instruction_tcm+0xff201de0>
 1201e64:	12022940 	call	1202294 <__sinit>
 1201e68:	003fab06 	br	1201d18 <__alt_mem_instruction_tcm+0xff201d18>
 1201e6c:	80800517 	ldw	r2,20(r16)
 1201e70:	003fea06 	br	1201e1c <__alt_mem_instruction_tcm+0xff201e1c>
 1201e74:	81400717 	ldw	r5,28(r16)
 1201e78:	000d883a 	mov	r6,zero
 1201e7c:	9809883a 	mov	r4,r19
 1201e80:	01c00044 	movi	r7,1
 1201e84:	403ee83a 	callr	r8
 1201e88:	100d883a 	mov	r6,r2
 1201e8c:	00bfffc4 	movi	r2,-1
 1201e90:	30801326 	beq	r6,r2,1201ee0 <_fflush_r+0x1f4>
 1201e94:	8080030b 	ldhu	r2,12(r16)
 1201e98:	82000a17 	ldw	r8,40(r16)
 1201e9c:	003fb006 	br	1201d60 <__alt_mem_instruction_tcm+0xff201d60>
 1201ea0:	80c00f17 	ldw	r3,60(r16)
 1201ea4:	00ffa716 	blt	zero,r3,1201d44 <__alt_mem_instruction_tcm+0xff201d44>
 1201ea8:	003fcc06 	br	1201ddc <__alt_mem_instruction_tcm+0xff201ddc>
 1201eac:	98c00017 	ldw	r3,0(r19)
 1201eb0:	183fb926 	beq	r3,zero,1201d98 <__alt_mem_instruction_tcm+0xff201d98>
 1201eb4:	01000744 	movi	r4,29
 1201eb8:	19000226 	beq	r3,r4,1201ec4 <_fflush_r+0x1d8>
 1201ebc:	01000584 	movi	r4,22
 1201ec0:	1900101e 	bne	r3,r4,1201f04 <_fflush_r+0x218>
 1201ec4:	8080030b 	ldhu	r2,12(r16)
 1201ec8:	80c00417 	ldw	r3,16(r16)
 1201ecc:	80000115 	stw	zero,4(r16)
 1201ed0:	10bdffcc 	andi	r2,r2,63487
 1201ed4:	8080030d 	sth	r2,12(r16)
 1201ed8:	80c00015 	stw	r3,0(r16)
 1201edc:	003fb706 	br	1201dbc <__alt_mem_instruction_tcm+0xff201dbc>
 1201ee0:	98800017 	ldw	r2,0(r19)
 1201ee4:	103feb26 	beq	r2,zero,1201e94 <__alt_mem_instruction_tcm+0xff201e94>
 1201ee8:	00c00744 	movi	r3,29
 1201eec:	10c00226 	beq	r2,r3,1201ef8 <_fflush_r+0x20c>
 1201ef0:	00c00584 	movi	r3,22
 1201ef4:	10ffd61e 	bne	r2,r3,1201e50 <__alt_mem_instruction_tcm+0xff201e50>
 1201ef8:	9c400015 	stw	r17,0(r19)
 1201efc:	0005883a 	mov	r2,zero
 1201f00:	003fb706 	br	1201de0 <__alt_mem_instruction_tcm+0xff201de0>
 1201f04:	80c0030b 	ldhu	r3,12(r16)
 1201f08:	18c01014 	ori	r3,r3,64
 1201f0c:	80c0030d 	sth	r3,12(r16)
 1201f10:	003fb306 	br	1201de0 <__alt_mem_instruction_tcm+0xff201de0>

01201f14 <fflush>:
 1201f14:	20000526 	beq	r4,zero,1201f2c <fflush+0x18>
 1201f18:	00804874 	movhi	r2,289
 1201f1c:	10a6cf04 	addi	r2,r2,-25796
 1201f20:	200b883a 	mov	r5,r4
 1201f24:	11000017 	ldw	r4,0(r2)
 1201f28:	1201cec1 	jmpi	1201cec <_fflush_r>
 1201f2c:	00804874 	movhi	r2,289
 1201f30:	10a6ce04 	addi	r2,r2,-25800
 1201f34:	11000017 	ldw	r4,0(r2)
 1201f38:	01404834 	movhi	r5,288
 1201f3c:	29473b04 	addi	r5,r5,7404
 1201f40:	12027b01 	jmpi	12027b0 <_fwalk_reent>

01201f44 <__fp_lock>:
 1201f44:	0005883a 	mov	r2,zero
 1201f48:	f800283a 	ret

01201f4c <__fp_unlock>:
 1201f4c:	0005883a 	mov	r2,zero
 1201f50:	f800283a 	ret

01201f54 <_cleanup_r>:
 1201f54:	01404834 	movhi	r5,288
 1201f58:	294b8c04 	addi	r5,r5,11824
 1201f5c:	12026f81 	jmpi	12026f8 <_fwalk>

01201f60 <__sinit.part.1>:
 1201f60:	defff604 	addi	sp,sp,-40
 1201f64:	00c04834 	movhi	r3,288
 1201f68:	dfc00915 	stw	ra,36(sp)
 1201f6c:	df000815 	stw	fp,32(sp)
 1201f70:	ddc00715 	stw	r23,28(sp)
 1201f74:	dd800615 	stw	r22,24(sp)
 1201f78:	dd400515 	stw	r21,20(sp)
 1201f7c:	dd000415 	stw	r20,16(sp)
 1201f80:	dcc00315 	stw	r19,12(sp)
 1201f84:	dc800215 	stw	r18,8(sp)
 1201f88:	dc400115 	stw	r17,4(sp)
 1201f8c:	dc000015 	stw	r16,0(sp)
 1201f90:	18c7d504 	addi	r3,r3,8020
 1201f94:	24000117 	ldw	r16,4(r4)
 1201f98:	20c00f15 	stw	r3,60(r4)
 1201f9c:	07000044 	movi	fp,1
 1201fa0:	00c000c4 	movi	r3,3
 1201fa4:	2080bb04 	addi	r2,r4,748
 1201fa8:	20c0b915 	stw	r3,740(r4)
 1201fac:	27000e15 	stw	fp,56(r4)
 1201fb0:	2080ba15 	stw	r2,744(r4)
 1201fb4:	2000b815 	stw	zero,736(r4)
 1201fb8:	05c00204 	movi	r23,8
 1201fbc:	00800104 	movi	r2,4
 1201fc0:	2025883a 	mov	r18,r4
 1201fc4:	b80d883a 	mov	r6,r23
 1201fc8:	81001704 	addi	r4,r16,92
 1201fcc:	000b883a 	mov	r5,zero
 1201fd0:	80000015 	stw	zero,0(r16)
 1201fd4:	80000115 	stw	zero,4(r16)
 1201fd8:	80000215 	stw	zero,8(r16)
 1201fdc:	8080030d 	sth	r2,12(r16)
 1201fe0:	80001915 	stw	zero,100(r16)
 1201fe4:	8000038d 	sth	zero,14(r16)
 1201fe8:	80000415 	stw	zero,16(r16)
 1201fec:	80000515 	stw	zero,20(r16)
 1201ff0:	80000615 	stw	zero,24(r16)
 1201ff4:	1202a200 	call	1202a20 <memset>
 1201ff8:	05804834 	movhi	r22,288
 1201ffc:	94400217 	ldw	r17,8(r18)
 1202000:	05404834 	movhi	r21,288
 1202004:	05004834 	movhi	r20,288
 1202008:	04c04834 	movhi	r19,288
 120200c:	b58ad104 	addi	r22,r22,11076
 1202010:	ad4ae804 	addi	r21,r21,11168
 1202014:	a50b0704 	addi	r20,r20,11292
 1202018:	9ccb1e04 	addi	r19,r19,11384
 120201c:	85800815 	stw	r22,32(r16)
 1202020:	85400915 	stw	r21,36(r16)
 1202024:	85000a15 	stw	r20,40(r16)
 1202028:	84c00b15 	stw	r19,44(r16)
 120202c:	84000715 	stw	r16,28(r16)
 1202030:	00800284 	movi	r2,10
 1202034:	89001704 	addi	r4,r17,92
 1202038:	b80d883a 	mov	r6,r23
 120203c:	000b883a 	mov	r5,zero
 1202040:	88000015 	stw	zero,0(r17)
 1202044:	88000115 	stw	zero,4(r17)
 1202048:	88000215 	stw	zero,8(r17)
 120204c:	8880030d 	sth	r2,12(r17)
 1202050:	88001915 	stw	zero,100(r17)
 1202054:	8f00038d 	sth	fp,14(r17)
 1202058:	88000415 	stw	zero,16(r17)
 120205c:	88000515 	stw	zero,20(r17)
 1202060:	88000615 	stw	zero,24(r17)
 1202064:	1202a200 	call	1202a20 <memset>
 1202068:	94000317 	ldw	r16,12(r18)
 120206c:	00800484 	movi	r2,18
 1202070:	8c400715 	stw	r17,28(r17)
 1202074:	8d800815 	stw	r22,32(r17)
 1202078:	8d400915 	stw	r21,36(r17)
 120207c:	8d000a15 	stw	r20,40(r17)
 1202080:	8cc00b15 	stw	r19,44(r17)
 1202084:	8080030d 	sth	r2,12(r16)
 1202088:	00800084 	movi	r2,2
 120208c:	80000015 	stw	zero,0(r16)
 1202090:	80000115 	stw	zero,4(r16)
 1202094:	80000215 	stw	zero,8(r16)
 1202098:	80001915 	stw	zero,100(r16)
 120209c:	8080038d 	sth	r2,14(r16)
 12020a0:	80000415 	stw	zero,16(r16)
 12020a4:	80000515 	stw	zero,20(r16)
 12020a8:	80000615 	stw	zero,24(r16)
 12020ac:	81001704 	addi	r4,r16,92
 12020b0:	000b883a 	mov	r5,zero
 12020b4:	b80d883a 	mov	r6,r23
 12020b8:	1202a200 	call	1202a20 <memset>
 12020bc:	84000715 	stw	r16,28(r16)
 12020c0:	85800815 	stw	r22,32(r16)
 12020c4:	85400915 	stw	r21,36(r16)
 12020c8:	85000a15 	stw	r20,40(r16)
 12020cc:	84c00b15 	stw	r19,44(r16)
 12020d0:	dfc00917 	ldw	ra,36(sp)
 12020d4:	df000817 	ldw	fp,32(sp)
 12020d8:	ddc00717 	ldw	r23,28(sp)
 12020dc:	dd800617 	ldw	r22,24(sp)
 12020e0:	dd400517 	ldw	r21,20(sp)
 12020e4:	dd000417 	ldw	r20,16(sp)
 12020e8:	dcc00317 	ldw	r19,12(sp)
 12020ec:	dc800217 	ldw	r18,8(sp)
 12020f0:	dc400117 	ldw	r17,4(sp)
 12020f4:	dc000017 	ldw	r16,0(sp)
 12020f8:	dec00a04 	addi	sp,sp,40
 12020fc:	f800283a 	ret

01202100 <__sfmoreglue>:
 1202100:	defffc04 	addi	sp,sp,-16
 1202104:	dc400115 	stw	r17,4(sp)
 1202108:	2c401a24 	muli	r17,r5,104
 120210c:	dc800215 	stw	r18,8(sp)
 1202110:	2825883a 	mov	r18,r5
 1202114:	89400304 	addi	r5,r17,12
 1202118:	dc000015 	stw	r16,0(sp)
 120211c:	dfc00315 	stw	ra,12(sp)
 1202120:	1200aa40 	call	1200aa4 <_malloc_r>
 1202124:	1021883a 	mov	r16,r2
 1202128:	10000726 	beq	r2,zero,1202148 <__sfmoreglue+0x48>
 120212c:	11000304 	addi	r4,r2,12
 1202130:	10000015 	stw	zero,0(r2)
 1202134:	14800115 	stw	r18,4(r2)
 1202138:	11000215 	stw	r4,8(r2)
 120213c:	000b883a 	mov	r5,zero
 1202140:	880d883a 	mov	r6,r17
 1202144:	1202a200 	call	1202a20 <memset>
 1202148:	8005883a 	mov	r2,r16
 120214c:	dfc00317 	ldw	ra,12(sp)
 1202150:	dc800217 	ldw	r18,8(sp)
 1202154:	dc400117 	ldw	r17,4(sp)
 1202158:	dc000017 	ldw	r16,0(sp)
 120215c:	dec00404 	addi	sp,sp,16
 1202160:	f800283a 	ret

01202164 <__sfp>:
 1202164:	00804874 	movhi	r2,289
 1202168:	defffb04 	addi	sp,sp,-20
 120216c:	10a6ce04 	addi	r2,r2,-25800
 1202170:	dc800215 	stw	r18,8(sp)
 1202174:	14800017 	ldw	r18,0(r2)
 1202178:	dcc00315 	stw	r19,12(sp)
 120217c:	dfc00415 	stw	ra,16(sp)
 1202180:	90800e17 	ldw	r2,56(r18)
 1202184:	dc400115 	stw	r17,4(sp)
 1202188:	dc000015 	stw	r16,0(sp)
 120218c:	2027883a 	mov	r19,r4
 1202190:	1000021e 	bne	r2,zero,120219c <__sfp+0x38>
 1202194:	9009883a 	mov	r4,r18
 1202198:	1201f600 	call	1201f60 <__sinit.part.1>
 120219c:	9480b804 	addi	r18,r18,736
 12021a0:	047fffc4 	movi	r17,-1
 12021a4:	91400117 	ldw	r5,4(r18)
 12021a8:	94000217 	ldw	r16,8(r18)
 12021ac:	297fffc4 	addi	r5,r5,-1
 12021b0:	28000a16 	blt	r5,zero,12021dc <__sfp+0x78>
 12021b4:	8080030f 	ldh	r2,12(r16)
 12021b8:	10000c26 	beq	r2,zero,12021ec <__sfp+0x88>
 12021bc:	80c01d04 	addi	r3,r16,116
 12021c0:	00000206 	br	12021cc <__sfp+0x68>
 12021c4:	18bfe60f 	ldh	r2,-104(r3)
 12021c8:	10000826 	beq	r2,zero,12021ec <__sfp+0x88>
 12021cc:	297fffc4 	addi	r5,r5,-1
 12021d0:	1c3ffd04 	addi	r16,r3,-12
 12021d4:	18c01a04 	addi	r3,r3,104
 12021d8:	2c7ffa1e 	bne	r5,r17,12021c4 <__alt_mem_instruction_tcm+0xff2021c4>
 12021dc:	90800017 	ldw	r2,0(r18)
 12021e0:	10001d26 	beq	r2,zero,1202258 <__sfp+0xf4>
 12021e4:	1025883a 	mov	r18,r2
 12021e8:	003fee06 	br	12021a4 <__alt_mem_instruction_tcm+0xff2021a4>
 12021ec:	00bfffc4 	movi	r2,-1
 12021f0:	8080038d 	sth	r2,14(r16)
 12021f4:	00800044 	movi	r2,1
 12021f8:	8080030d 	sth	r2,12(r16)
 12021fc:	80001915 	stw	zero,100(r16)
 1202200:	80000015 	stw	zero,0(r16)
 1202204:	80000215 	stw	zero,8(r16)
 1202208:	80000115 	stw	zero,4(r16)
 120220c:	80000415 	stw	zero,16(r16)
 1202210:	80000515 	stw	zero,20(r16)
 1202214:	80000615 	stw	zero,24(r16)
 1202218:	81001704 	addi	r4,r16,92
 120221c:	000b883a 	mov	r5,zero
 1202220:	01800204 	movi	r6,8
 1202224:	1202a200 	call	1202a20 <memset>
 1202228:	8005883a 	mov	r2,r16
 120222c:	80000c15 	stw	zero,48(r16)
 1202230:	80000d15 	stw	zero,52(r16)
 1202234:	80001115 	stw	zero,68(r16)
 1202238:	80001215 	stw	zero,72(r16)
 120223c:	dfc00417 	ldw	ra,16(sp)
 1202240:	dcc00317 	ldw	r19,12(sp)
 1202244:	dc800217 	ldw	r18,8(sp)
 1202248:	dc400117 	ldw	r17,4(sp)
 120224c:	dc000017 	ldw	r16,0(sp)
 1202250:	dec00504 	addi	sp,sp,20
 1202254:	f800283a 	ret
 1202258:	9809883a 	mov	r4,r19
 120225c:	01400104 	movi	r5,4
 1202260:	12021000 	call	1202100 <__sfmoreglue>
 1202264:	90800015 	stw	r2,0(r18)
 1202268:	103fde1e 	bne	r2,zero,12021e4 <__alt_mem_instruction_tcm+0xff2021e4>
 120226c:	00800304 	movi	r2,12
 1202270:	98800015 	stw	r2,0(r19)
 1202274:	0005883a 	mov	r2,zero
 1202278:	003ff006 	br	120223c <__alt_mem_instruction_tcm+0xff20223c>

0120227c <_cleanup>:
 120227c:	00804874 	movhi	r2,289
 1202280:	10a6ce04 	addi	r2,r2,-25800
 1202284:	11000017 	ldw	r4,0(r2)
 1202288:	01404834 	movhi	r5,288
 120228c:	294b8c04 	addi	r5,r5,11824
 1202290:	12026f81 	jmpi	12026f8 <_fwalk>

01202294 <__sinit>:
 1202294:	20800e17 	ldw	r2,56(r4)
 1202298:	10000126 	beq	r2,zero,12022a0 <__sinit+0xc>
 120229c:	f800283a 	ret
 12022a0:	1201f601 	jmpi	1201f60 <__sinit.part.1>

012022a4 <__sfp_lock_acquire>:
 12022a4:	f800283a 	ret

012022a8 <__sfp_lock_release>:
 12022a8:	f800283a 	ret

012022ac <__sinit_lock_acquire>:
 12022ac:	f800283a 	ret

012022b0 <__sinit_lock_release>:
 12022b0:	f800283a 	ret

012022b4 <__fp_lock_all>:
 12022b4:	00804874 	movhi	r2,289
 12022b8:	10a6cf04 	addi	r2,r2,-25796
 12022bc:	11000017 	ldw	r4,0(r2)
 12022c0:	01404834 	movhi	r5,288
 12022c4:	2947d104 	addi	r5,r5,8004
 12022c8:	12026f81 	jmpi	12026f8 <_fwalk>

012022cc <__fp_unlock_all>:
 12022cc:	00804874 	movhi	r2,289
 12022d0:	10a6cf04 	addi	r2,r2,-25796
 12022d4:	11000017 	ldw	r4,0(r2)
 12022d8:	01404834 	movhi	r5,288
 12022dc:	2947d304 	addi	r5,r5,8012
 12022e0:	12026f81 	jmpi	12026f8 <_fwalk>

012022e4 <_malloc_trim_r>:
 12022e4:	defffb04 	addi	sp,sp,-20
 12022e8:	dcc00315 	stw	r19,12(sp)
 12022ec:	04c04874 	movhi	r19,289
 12022f0:	dc800215 	stw	r18,8(sp)
 12022f4:	dc400115 	stw	r17,4(sp)
 12022f8:	dc000015 	stw	r16,0(sp)
 12022fc:	dfc00415 	stw	ra,16(sp)
 1202300:	2821883a 	mov	r16,r5
 1202304:	9ce11304 	addi	r19,r19,-31668
 1202308:	2025883a 	mov	r18,r4
 120230c:	12037540 	call	1203754 <__malloc_lock>
 1202310:	98800217 	ldw	r2,8(r19)
 1202314:	14400117 	ldw	r17,4(r2)
 1202318:	00bfff04 	movi	r2,-4
 120231c:	88a2703a 	and	r17,r17,r2
 1202320:	8c21c83a 	sub	r16,r17,r16
 1202324:	8403fbc4 	addi	r16,r16,4079
 1202328:	8020d33a 	srli	r16,r16,12
 120232c:	0083ffc4 	movi	r2,4095
 1202330:	843fffc4 	addi	r16,r16,-1
 1202334:	8020933a 	slli	r16,r16,12
 1202338:	1400060e 	bge	r2,r16,1202354 <_malloc_trim_r+0x70>
 120233c:	9009883a 	mov	r4,r18
 1202340:	000b883a 	mov	r5,zero
 1202344:	1201b680 	call	1201b68 <_sbrk_r>
 1202348:	98c00217 	ldw	r3,8(r19)
 120234c:	1c47883a 	add	r3,r3,r17
 1202350:	10c00a26 	beq	r2,r3,120237c <_malloc_trim_r+0x98>
 1202354:	9009883a 	mov	r4,r18
 1202358:	12037740 	call	1203774 <__malloc_unlock>
 120235c:	0005883a 	mov	r2,zero
 1202360:	dfc00417 	ldw	ra,16(sp)
 1202364:	dcc00317 	ldw	r19,12(sp)
 1202368:	dc800217 	ldw	r18,8(sp)
 120236c:	dc400117 	ldw	r17,4(sp)
 1202370:	dc000017 	ldw	r16,0(sp)
 1202374:	dec00504 	addi	sp,sp,20
 1202378:	f800283a 	ret
 120237c:	9009883a 	mov	r4,r18
 1202380:	040bc83a 	sub	r5,zero,r16
 1202384:	1201b680 	call	1201b68 <_sbrk_r>
 1202388:	00ffffc4 	movi	r3,-1
 120238c:	10c00d26 	beq	r2,r3,12023c4 <_malloc_trim_r+0xe0>
 1202390:	00c04874 	movhi	r3,289
 1202394:	18e6ea04 	addi	r3,r3,-25688
 1202398:	18800017 	ldw	r2,0(r3)
 120239c:	99000217 	ldw	r4,8(r19)
 12023a0:	8c23c83a 	sub	r17,r17,r16
 12023a4:	8c400054 	ori	r17,r17,1
 12023a8:	1421c83a 	sub	r16,r2,r16
 12023ac:	24400115 	stw	r17,4(r4)
 12023b0:	9009883a 	mov	r4,r18
 12023b4:	1c000015 	stw	r16,0(r3)
 12023b8:	12037740 	call	1203774 <__malloc_unlock>
 12023bc:	00800044 	movi	r2,1
 12023c0:	003fe706 	br	1202360 <__alt_mem_instruction_tcm+0xff202360>
 12023c4:	9009883a 	mov	r4,r18
 12023c8:	000b883a 	mov	r5,zero
 12023cc:	1201b680 	call	1201b68 <_sbrk_r>
 12023d0:	99000217 	ldw	r4,8(r19)
 12023d4:	014003c4 	movi	r5,15
 12023d8:	1107c83a 	sub	r3,r2,r4
 12023dc:	28ffdd0e 	bge	r5,r3,1202354 <__alt_mem_instruction_tcm+0xff202354>
 12023e0:	01404874 	movhi	r5,289
 12023e4:	2966d004 	addi	r5,r5,-25792
 12023e8:	29400017 	ldw	r5,0(r5)
 12023ec:	18c00054 	ori	r3,r3,1
 12023f0:	20c00115 	stw	r3,4(r4)
 12023f4:	00c04874 	movhi	r3,289
 12023f8:	1145c83a 	sub	r2,r2,r5
 12023fc:	18e6ea04 	addi	r3,r3,-25688
 1202400:	18800015 	stw	r2,0(r3)
 1202404:	003fd306 	br	1202354 <__alt_mem_instruction_tcm+0xff202354>

01202408 <_free_r>:
 1202408:	28004c26 	beq	r5,zero,120253c <_free_r+0x134>
 120240c:	defffd04 	addi	sp,sp,-12
 1202410:	dc400115 	stw	r17,4(sp)
 1202414:	dc000015 	stw	r16,0(sp)
 1202418:	2023883a 	mov	r17,r4
 120241c:	2821883a 	mov	r16,r5
 1202420:	dfc00215 	stw	ra,8(sp)
 1202424:	12037540 	call	1203754 <__malloc_lock>
 1202428:	813fff17 	ldw	r4,-4(r16)
 120242c:	00bfff84 	movi	r2,-2
 1202430:	02404874 	movhi	r9,289
 1202434:	81bffe04 	addi	r6,r16,-8
 1202438:	2084703a 	and	r2,r4,r2
 120243c:	4a611304 	addi	r9,r9,-31668
 1202440:	308b883a 	add	r5,r6,r2
 1202444:	2a000117 	ldw	r8,4(r5)
 1202448:	49c00217 	ldw	r7,8(r9)
 120244c:	00ffff04 	movi	r3,-4
 1202450:	40c6703a 	and	r3,r8,r3
 1202454:	39405326 	beq	r7,r5,12025a4 <_free_r+0x19c>
 1202458:	28c00115 	stw	r3,4(r5)
 120245c:	2100004c 	andi	r4,r4,1
 1202460:	2000091e 	bne	r4,zero,1202488 <_free_r+0x80>
 1202464:	81fffe17 	ldw	r7,-8(r16)
 1202468:	4a000204 	addi	r8,r9,8
 120246c:	31cdc83a 	sub	r6,r6,r7
 1202470:	31000217 	ldw	r4,8(r6)
 1202474:	11c5883a 	add	r2,r2,r7
 1202478:	22006126 	beq	r4,r8,1202600 <_free_r+0x1f8>
 120247c:	31c00317 	ldw	r7,12(r6)
 1202480:	21c00315 	stw	r7,12(r4)
 1202484:	39000215 	stw	r4,8(r7)
 1202488:	28c9883a 	add	r4,r5,r3
 120248c:	21c00117 	ldw	r7,4(r4)
 1202490:	39c0004c 	andi	r7,r7,1
 1202494:	38000d1e 	bne	r7,zero,12024cc <_free_r+0xc4>
 1202498:	29000217 	ldw	r4,8(r5)
 120249c:	10c5883a 	add	r2,r2,r3
 12024a0:	00c04874 	movhi	r3,289
 12024a4:	18e11504 	addi	r3,r3,-31660
 12024a8:	20c07526 	beq	r4,r3,1202680 <_free_r+0x278>
 12024ac:	29c00317 	ldw	r7,12(r5)
 12024b0:	11400054 	ori	r5,r2,1
 12024b4:	3087883a 	add	r3,r6,r2
 12024b8:	21c00315 	stw	r7,12(r4)
 12024bc:	39000215 	stw	r4,8(r7)
 12024c0:	31400115 	stw	r5,4(r6)
 12024c4:	18800015 	stw	r2,0(r3)
 12024c8:	00000406 	br	12024dc <_free_r+0xd4>
 12024cc:	10c00054 	ori	r3,r2,1
 12024d0:	30c00115 	stw	r3,4(r6)
 12024d4:	3087883a 	add	r3,r6,r2
 12024d8:	18800015 	stw	r2,0(r3)
 12024dc:	00c07fc4 	movi	r3,511
 12024e0:	18801736 	bltu	r3,r2,1202540 <_free_r+0x138>
 12024e4:	1004d0fa 	srli	r2,r2,3
 12024e8:	01400044 	movi	r5,1
 12024ec:	49000117 	ldw	r4,4(r9)
 12024f0:	1087883a 	add	r3,r2,r2
 12024f4:	18c7883a 	add	r3,r3,r3
 12024f8:	1005d0ba 	srai	r2,r2,2
 12024fc:	18c7883a 	add	r3,r3,r3
 1202500:	1a47883a 	add	r3,r3,r9
 1202504:	19c00217 	ldw	r7,8(r3)
 1202508:	2884983a 	sll	r2,r5,r2
 120250c:	30c00315 	stw	r3,12(r6)
 1202510:	31c00215 	stw	r7,8(r6)
 1202514:	1104b03a 	or	r2,r2,r4
 1202518:	19800215 	stw	r6,8(r3)
 120251c:	48800115 	stw	r2,4(r9)
 1202520:	39800315 	stw	r6,12(r7)
 1202524:	8809883a 	mov	r4,r17
 1202528:	dfc00217 	ldw	ra,8(sp)
 120252c:	dc400117 	ldw	r17,4(sp)
 1202530:	dc000017 	ldw	r16,0(sp)
 1202534:	dec00304 	addi	sp,sp,12
 1202538:	12037741 	jmpi	1203774 <__malloc_unlock>
 120253c:	f800283a 	ret
 1202540:	1006d27a 	srli	r3,r2,9
 1202544:	01000104 	movi	r4,4
 1202548:	20c04036 	bltu	r4,r3,120264c <_free_r+0x244>
 120254c:	1006d1ba 	srli	r3,r2,6
 1202550:	19400e04 	addi	r5,r3,56
 1202554:	2947883a 	add	r3,r5,r5
 1202558:	18c7883a 	add	r3,r3,r3
 120255c:	18c7883a 	add	r3,r3,r3
 1202560:	1a49883a 	add	r4,r3,r9
 1202564:	20c00217 	ldw	r3,8(r4)
 1202568:	01c04874 	movhi	r7,289
 120256c:	39e11304 	addi	r7,r7,-31668
 1202570:	19003b26 	beq	r3,r4,1202660 <_free_r+0x258>
 1202574:	01ffff04 	movi	r7,-4
 1202578:	19400117 	ldw	r5,4(r3)
 120257c:	29ca703a 	and	r5,r5,r7
 1202580:	1140022e 	bgeu	r2,r5,120258c <_free_r+0x184>
 1202584:	18c00217 	ldw	r3,8(r3)
 1202588:	20fffb1e 	bne	r4,r3,1202578 <__alt_mem_instruction_tcm+0xff202578>
 120258c:	18800317 	ldw	r2,12(r3)
 1202590:	30800315 	stw	r2,12(r6)
 1202594:	30c00215 	stw	r3,8(r6)
 1202598:	11800215 	stw	r6,8(r2)
 120259c:	19800315 	stw	r6,12(r3)
 12025a0:	003fe006 	br	1202524 <__alt_mem_instruction_tcm+0xff202524>
 12025a4:	2100004c 	andi	r4,r4,1
 12025a8:	1885883a 	add	r2,r3,r2
 12025ac:	2000071e 	bne	r4,zero,12025cc <_free_r+0x1c4>
 12025b0:	817ffe17 	ldw	r5,-8(r16)
 12025b4:	314dc83a 	sub	r6,r6,r5
 12025b8:	30c00317 	ldw	r3,12(r6)
 12025bc:	31000217 	ldw	r4,8(r6)
 12025c0:	1145883a 	add	r2,r2,r5
 12025c4:	20c00315 	stw	r3,12(r4)
 12025c8:	19000215 	stw	r4,8(r3)
 12025cc:	10c00054 	ori	r3,r2,1
 12025d0:	30c00115 	stw	r3,4(r6)
 12025d4:	00c04874 	movhi	r3,289
 12025d8:	18e6d104 	addi	r3,r3,-25788
 12025dc:	18c00017 	ldw	r3,0(r3)
 12025e0:	49800215 	stw	r6,8(r9)
 12025e4:	10ffcf36 	bltu	r2,r3,1202524 <__alt_mem_instruction_tcm+0xff202524>
 12025e8:	00804874 	movhi	r2,289
 12025ec:	10a6e104 	addi	r2,r2,-25724
 12025f0:	11400017 	ldw	r5,0(r2)
 12025f4:	8809883a 	mov	r4,r17
 12025f8:	12022e40 	call	12022e4 <_malloc_trim_r>
 12025fc:	003fc906 	br	1202524 <__alt_mem_instruction_tcm+0xff202524>
 1202600:	28c9883a 	add	r4,r5,r3
 1202604:	21000117 	ldw	r4,4(r4)
 1202608:	2100004c 	andi	r4,r4,1
 120260c:	20000a1e 	bne	r4,zero,1202638 <_free_r+0x230>
 1202610:	29000317 	ldw	r4,12(r5)
 1202614:	29400217 	ldw	r5,8(r5)
 1202618:	10c5883a 	add	r2,r2,r3
 120261c:	10c00054 	ori	r3,r2,1
 1202620:	29000315 	stw	r4,12(r5)
 1202624:	21400215 	stw	r5,8(r4)
 1202628:	30c00115 	stw	r3,4(r6)
 120262c:	308d883a 	add	r6,r6,r2
 1202630:	30800015 	stw	r2,0(r6)
 1202634:	003fbb06 	br	1202524 <__alt_mem_instruction_tcm+0xff202524>
 1202638:	10c00054 	ori	r3,r2,1
 120263c:	30c00115 	stw	r3,4(r6)
 1202640:	308d883a 	add	r6,r6,r2
 1202644:	30800015 	stw	r2,0(r6)
 1202648:	003fb606 	br	1202524 <__alt_mem_instruction_tcm+0xff202524>
 120264c:	01000504 	movi	r4,20
 1202650:	20c01436 	bltu	r4,r3,12026a4 <_free_r+0x29c>
 1202654:	194016c4 	addi	r5,r3,91
 1202658:	2947883a 	add	r3,r5,r5
 120265c:	003fbe06 	br	1202558 <__alt_mem_instruction_tcm+0xff202558>
 1202660:	280bd0ba 	srai	r5,r5,2
 1202664:	00800044 	movi	r2,1
 1202668:	39000117 	ldw	r4,4(r7)
 120266c:	114a983a 	sll	r5,r2,r5
 1202670:	1805883a 	mov	r2,r3
 1202674:	2908b03a 	or	r4,r5,r4
 1202678:	39000115 	stw	r4,4(r7)
 120267c:	003fc406 	br	1202590 <__alt_mem_instruction_tcm+0xff202590>
 1202680:	49800515 	stw	r6,20(r9)
 1202684:	49800415 	stw	r6,16(r9)
 1202688:	10c00054 	ori	r3,r2,1
 120268c:	31000315 	stw	r4,12(r6)
 1202690:	31000215 	stw	r4,8(r6)
 1202694:	30c00115 	stw	r3,4(r6)
 1202698:	308d883a 	add	r6,r6,r2
 120269c:	30800015 	stw	r2,0(r6)
 12026a0:	003fa006 	br	1202524 <__alt_mem_instruction_tcm+0xff202524>
 12026a4:	01001504 	movi	r4,84
 12026a8:	20c00436 	bltu	r4,r3,12026bc <_free_r+0x2b4>
 12026ac:	1006d33a 	srli	r3,r2,12
 12026b0:	19401b84 	addi	r5,r3,110
 12026b4:	2947883a 	add	r3,r5,r5
 12026b8:	003fa706 	br	1202558 <__alt_mem_instruction_tcm+0xff202558>
 12026bc:	01005504 	movi	r4,340
 12026c0:	20c00436 	bltu	r4,r3,12026d4 <_free_r+0x2cc>
 12026c4:	1006d3fa 	srli	r3,r2,15
 12026c8:	19401dc4 	addi	r5,r3,119
 12026cc:	2947883a 	add	r3,r5,r5
 12026d0:	003fa106 	br	1202558 <__alt_mem_instruction_tcm+0xff202558>
 12026d4:	01015504 	movi	r4,1364
 12026d8:	20c00436 	bltu	r4,r3,12026ec <_free_r+0x2e4>
 12026dc:	1006d4ba 	srli	r3,r2,18
 12026e0:	19401f04 	addi	r5,r3,124
 12026e4:	2947883a 	add	r3,r5,r5
 12026e8:	003f9b06 	br	1202558 <__alt_mem_instruction_tcm+0xff202558>
 12026ec:	00c03f04 	movi	r3,252
 12026f0:	01401f84 	movi	r5,126
 12026f4:	003f9806 	br	1202558 <__alt_mem_instruction_tcm+0xff202558>

012026f8 <_fwalk>:
 12026f8:	defff804 	addi	sp,sp,-32
 12026fc:	dd400515 	stw	r21,20(sp)
 1202700:	2540b804 	addi	r21,r4,736
 1202704:	dd800615 	stw	r22,24(sp)
 1202708:	dd000415 	stw	r20,16(sp)
 120270c:	dfc00715 	stw	ra,28(sp)
 1202710:	dcc00315 	stw	r19,12(sp)
 1202714:	dc800215 	stw	r18,8(sp)
 1202718:	dc400115 	stw	r17,4(sp)
 120271c:	dc000015 	stw	r16,0(sp)
 1202720:	2829883a 	mov	r20,r5
 1202724:	002d883a 	mov	r22,zero
 1202728:	12022a40 	call	12022a4 <__sfp_lock_acquire>
 120272c:	a8001426 	beq	r21,zero,1202780 <_fwalk+0x88>
 1202730:	04ffffc4 	movi	r19,-1
 1202734:	ac400117 	ldw	r17,4(r21)
 1202738:	ac800217 	ldw	r18,8(r21)
 120273c:	8c7fffc4 	addi	r17,r17,-1
 1202740:	88000d16 	blt	r17,zero,1202778 <_fwalk+0x80>
 1202744:	94000304 	addi	r16,r18,12
 1202748:	94800384 	addi	r18,r18,14
 120274c:	80c0000f 	ldh	r3,0(r16)
 1202750:	8c7fffc4 	addi	r17,r17,-1
 1202754:	813ffd04 	addi	r4,r16,-12
 1202758:	18000426 	beq	r3,zero,120276c <_fwalk+0x74>
 120275c:	90c0000f 	ldh	r3,0(r18)
 1202760:	1cc00226 	beq	r3,r19,120276c <_fwalk+0x74>
 1202764:	a03ee83a 	callr	r20
 1202768:	b0acb03a 	or	r22,r22,r2
 120276c:	84001a04 	addi	r16,r16,104
 1202770:	94801a04 	addi	r18,r18,104
 1202774:	8cfff51e 	bne	r17,r19,120274c <__alt_mem_instruction_tcm+0xff20274c>
 1202778:	ad400017 	ldw	r21,0(r21)
 120277c:	a83fed1e 	bne	r21,zero,1202734 <__alt_mem_instruction_tcm+0xff202734>
 1202780:	12022a80 	call	12022a8 <__sfp_lock_release>
 1202784:	b005883a 	mov	r2,r22
 1202788:	dfc00717 	ldw	ra,28(sp)
 120278c:	dd800617 	ldw	r22,24(sp)
 1202790:	dd400517 	ldw	r21,20(sp)
 1202794:	dd000417 	ldw	r20,16(sp)
 1202798:	dcc00317 	ldw	r19,12(sp)
 120279c:	dc800217 	ldw	r18,8(sp)
 12027a0:	dc400117 	ldw	r17,4(sp)
 12027a4:	dc000017 	ldw	r16,0(sp)
 12027a8:	dec00804 	addi	sp,sp,32
 12027ac:	f800283a 	ret

012027b0 <_fwalk_reent>:
 12027b0:	defff804 	addi	sp,sp,-32
 12027b4:	dd400515 	stw	r21,20(sp)
 12027b8:	2540b804 	addi	r21,r4,736
 12027bc:	dd800615 	stw	r22,24(sp)
 12027c0:	dd000415 	stw	r20,16(sp)
 12027c4:	dcc00315 	stw	r19,12(sp)
 12027c8:	dfc00715 	stw	ra,28(sp)
 12027cc:	dc800215 	stw	r18,8(sp)
 12027d0:	dc400115 	stw	r17,4(sp)
 12027d4:	dc000015 	stw	r16,0(sp)
 12027d8:	2027883a 	mov	r19,r4
 12027dc:	2829883a 	mov	r20,r5
 12027e0:	002d883a 	mov	r22,zero
 12027e4:	12022a40 	call	12022a4 <__sfp_lock_acquire>
 12027e8:	a8001326 	beq	r21,zero,1202838 <_fwalk_reent+0x88>
 12027ec:	04bfffc4 	movi	r18,-1
 12027f0:	ac400117 	ldw	r17,4(r21)
 12027f4:	ac000217 	ldw	r16,8(r21)
 12027f8:	8c7fffc4 	addi	r17,r17,-1
 12027fc:	88000c16 	blt	r17,zero,1202830 <_fwalk_reent+0x80>
 1202800:	84000304 	addi	r16,r16,12
 1202804:	80c0000f 	ldh	r3,0(r16)
 1202808:	8c7fffc4 	addi	r17,r17,-1
 120280c:	817ffd04 	addi	r5,r16,-12
 1202810:	18000526 	beq	r3,zero,1202828 <_fwalk_reent+0x78>
 1202814:	80c0008f 	ldh	r3,2(r16)
 1202818:	9809883a 	mov	r4,r19
 120281c:	1c800226 	beq	r3,r18,1202828 <_fwalk_reent+0x78>
 1202820:	a03ee83a 	callr	r20
 1202824:	b0acb03a 	or	r22,r22,r2
 1202828:	84001a04 	addi	r16,r16,104
 120282c:	8cbff51e 	bne	r17,r18,1202804 <__alt_mem_instruction_tcm+0xff202804>
 1202830:	ad400017 	ldw	r21,0(r21)
 1202834:	a83fee1e 	bne	r21,zero,12027f0 <__alt_mem_instruction_tcm+0xff2027f0>
 1202838:	12022a80 	call	12022a8 <__sfp_lock_release>
 120283c:	b005883a 	mov	r2,r22
 1202840:	dfc00717 	ldw	ra,28(sp)
 1202844:	dd800617 	ldw	r22,24(sp)
 1202848:	dd400517 	ldw	r21,20(sp)
 120284c:	dd000417 	ldw	r20,16(sp)
 1202850:	dcc00317 	ldw	r19,12(sp)
 1202854:	dc800217 	ldw	r18,8(sp)
 1202858:	dc400117 	ldw	r17,4(sp)
 120285c:	dc000017 	ldw	r16,0(sp)
 1202860:	dec00804 	addi	sp,sp,32
 1202864:	f800283a 	ret

01202868 <__smakebuf_r>:
 1202868:	2880030b 	ldhu	r2,12(r5)
 120286c:	10c0008c 	andi	r3,r2,2
 1202870:	1800401e 	bne	r3,zero,1202974 <__smakebuf_r+0x10c>
 1202874:	deffec04 	addi	sp,sp,-80
 1202878:	dc000f15 	stw	r16,60(sp)
 120287c:	2821883a 	mov	r16,r5
 1202880:	2940038f 	ldh	r5,14(r5)
 1202884:	dc401015 	stw	r17,64(sp)
 1202888:	dfc01315 	stw	ra,76(sp)
 120288c:	dcc01215 	stw	r19,72(sp)
 1202890:	dc801115 	stw	r18,68(sp)
 1202894:	2023883a 	mov	r17,r4
 1202898:	28001b16 	blt	r5,zero,1202908 <__smakebuf_r+0xa0>
 120289c:	d80d883a 	mov	r6,sp
 12028a0:	1202e440 	call	1202e44 <_fstat_r>
 12028a4:	10001716 	blt	r2,zero,1202904 <__smakebuf_r+0x9c>
 12028a8:	d8800117 	ldw	r2,4(sp)
 12028ac:	00e00014 	movui	r3,32768
 12028b0:	10bc000c 	andi	r2,r2,61440
 12028b4:	10c03726 	beq	r2,r3,1202994 <__smakebuf_r+0x12c>
 12028b8:	80c0030b 	ldhu	r3,12(r16)
 12028bc:	18c20014 	ori	r3,r3,2048
 12028c0:	80c0030d 	sth	r3,12(r16)
 12028c4:	00c80004 	movi	r3,8192
 12028c8:	10c03c1e 	bne	r2,r3,12029bc <__smakebuf_r+0x154>
 12028cc:	8140038f 	ldh	r5,14(r16)
 12028d0:	8809883a 	mov	r4,r17
 12028d4:	1202e9c0 	call	1202e9c <_isatty_r>
 12028d8:	10004e26 	beq	r2,zero,1202a14 <__smakebuf_r+0x1ac>
 12028dc:	8080030b 	ldhu	r2,12(r16)
 12028e0:	04c00044 	movi	r19,1
 12028e4:	80c010c4 	addi	r3,r16,67
 12028e8:	14c4b03a 	or	r2,r2,r19
 12028ec:	8080030d 	sth	r2,12(r16)
 12028f0:	80c00015 	stw	r3,0(r16)
 12028f4:	80c00415 	stw	r3,16(r16)
 12028f8:	84c00515 	stw	r19,20(r16)
 12028fc:	04810004 	movi	r18,1024
 1202900:	00000706 	br	1202920 <__smakebuf_r+0xb8>
 1202904:	8080030b 	ldhu	r2,12(r16)
 1202908:	10c0200c 	andi	r3,r2,128
 120290c:	18001f1e 	bne	r3,zero,120298c <__smakebuf_r+0x124>
 1202910:	04810004 	movi	r18,1024
 1202914:	10820014 	ori	r2,r2,2048
 1202918:	8080030d 	sth	r2,12(r16)
 120291c:	0027883a 	mov	r19,zero
 1202920:	8809883a 	mov	r4,r17
 1202924:	900b883a 	mov	r5,r18
 1202928:	1200aa40 	call	1200aa4 <_malloc_r>
 120292c:	10002e26 	beq	r2,zero,12029e8 <__smakebuf_r+0x180>
 1202930:	80c0030b 	ldhu	r3,12(r16)
 1202934:	01004834 	movhi	r4,288
 1202938:	2107d504 	addi	r4,r4,8020
 120293c:	89000f15 	stw	r4,60(r17)
 1202940:	18c02014 	ori	r3,r3,128
 1202944:	80c0030d 	sth	r3,12(r16)
 1202948:	80800015 	stw	r2,0(r16)
 120294c:	80800415 	stw	r2,16(r16)
 1202950:	84800515 	stw	r18,20(r16)
 1202954:	98001c1e 	bne	r19,zero,12029c8 <__smakebuf_r+0x160>
 1202958:	dfc01317 	ldw	ra,76(sp)
 120295c:	dcc01217 	ldw	r19,72(sp)
 1202960:	dc801117 	ldw	r18,68(sp)
 1202964:	dc401017 	ldw	r17,64(sp)
 1202968:	dc000f17 	ldw	r16,60(sp)
 120296c:	dec01404 	addi	sp,sp,80
 1202970:	f800283a 	ret
 1202974:	288010c4 	addi	r2,r5,67
 1202978:	28800015 	stw	r2,0(r5)
 120297c:	28800415 	stw	r2,16(r5)
 1202980:	00800044 	movi	r2,1
 1202984:	28800515 	stw	r2,20(r5)
 1202988:	f800283a 	ret
 120298c:	04801004 	movi	r18,64
 1202990:	003fe006 	br	1202914 <__alt_mem_instruction_tcm+0xff202914>
 1202994:	81000a17 	ldw	r4,40(r16)
 1202998:	00c04834 	movhi	r3,288
 120299c:	18cb0704 	addi	r3,r3,11292
 12029a0:	20ffc51e 	bne	r4,r3,12028b8 <__alt_mem_instruction_tcm+0xff2028b8>
 12029a4:	80c0030b 	ldhu	r3,12(r16)
 12029a8:	01010004 	movi	r4,1024
 12029ac:	81001315 	stw	r4,76(r16)
 12029b0:	1906b03a 	or	r3,r3,r4
 12029b4:	80c0030d 	sth	r3,12(r16)
 12029b8:	003fc206 	br	12028c4 <__alt_mem_instruction_tcm+0xff2028c4>
 12029bc:	0027883a 	mov	r19,zero
 12029c0:	04810004 	movi	r18,1024
 12029c4:	003fd606 	br	1202920 <__alt_mem_instruction_tcm+0xff202920>
 12029c8:	8140038f 	ldh	r5,14(r16)
 12029cc:	8809883a 	mov	r4,r17
 12029d0:	1202e9c0 	call	1202e9c <_isatty_r>
 12029d4:	103fe026 	beq	r2,zero,1202958 <__alt_mem_instruction_tcm+0xff202958>
 12029d8:	8080030b 	ldhu	r2,12(r16)
 12029dc:	10800054 	ori	r2,r2,1
 12029e0:	8080030d 	sth	r2,12(r16)
 12029e4:	003fdc06 	br	1202958 <__alt_mem_instruction_tcm+0xff202958>
 12029e8:	8080030b 	ldhu	r2,12(r16)
 12029ec:	10c0800c 	andi	r3,r2,512
 12029f0:	183fd91e 	bne	r3,zero,1202958 <__alt_mem_instruction_tcm+0xff202958>
 12029f4:	10800094 	ori	r2,r2,2
 12029f8:	80c010c4 	addi	r3,r16,67
 12029fc:	8080030d 	sth	r2,12(r16)
 1202a00:	00800044 	movi	r2,1
 1202a04:	80c00015 	stw	r3,0(r16)
 1202a08:	80c00415 	stw	r3,16(r16)
 1202a0c:	80800515 	stw	r2,20(r16)
 1202a10:	003fd106 	br	1202958 <__alt_mem_instruction_tcm+0xff202958>
 1202a14:	04c00044 	movi	r19,1
 1202a18:	04810004 	movi	r18,1024
 1202a1c:	003fc006 	br	1202920 <__alt_mem_instruction_tcm+0xff202920>

01202a20 <memset>:
 1202a20:	20c000cc 	andi	r3,r4,3
 1202a24:	2005883a 	mov	r2,r4
 1202a28:	18004326 	beq	r3,zero,1202b38 <memset+0x118>
 1202a2c:	31ffffc4 	addi	r7,r6,-1
 1202a30:	30004026 	beq	r6,zero,1202b34 <memset+0x114>
 1202a34:	2813883a 	mov	r9,r5
 1202a38:	200d883a 	mov	r6,r4
 1202a3c:	2007883a 	mov	r3,r4
 1202a40:	00000406 	br	1202a54 <memset+0x34>
 1202a44:	3a3fffc4 	addi	r8,r7,-1
 1202a48:	31800044 	addi	r6,r6,1
 1202a4c:	38003926 	beq	r7,zero,1202b34 <memset+0x114>
 1202a50:	400f883a 	mov	r7,r8
 1202a54:	18c00044 	addi	r3,r3,1
 1202a58:	32400005 	stb	r9,0(r6)
 1202a5c:	1a0000cc 	andi	r8,r3,3
 1202a60:	403ff81e 	bne	r8,zero,1202a44 <__alt_mem_instruction_tcm+0xff202a44>
 1202a64:	010000c4 	movi	r4,3
 1202a68:	21c02d2e 	bgeu	r4,r7,1202b20 <memset+0x100>
 1202a6c:	29803fcc 	andi	r6,r5,255
 1202a70:	3008923a 	slli	r4,r6,8
 1202a74:	218cb03a 	or	r6,r4,r6
 1202a78:	3008943a 	slli	r4,r6,16
 1202a7c:	218cb03a 	or	r6,r4,r6
 1202a80:	010003c4 	movi	r4,15
 1202a84:	21c0182e 	bgeu	r4,r7,1202ae8 <memset+0xc8>
 1202a88:	3b3ffc04 	addi	r12,r7,-16
 1202a8c:	6018d13a 	srli	r12,r12,4
 1202a90:	1a000104 	addi	r8,r3,4
 1202a94:	1ac00204 	addi	r11,r3,8
 1202a98:	6008913a 	slli	r4,r12,4
 1202a9c:	1a800304 	addi	r10,r3,12
 1202aa0:	1813883a 	mov	r9,r3
 1202aa4:	21000504 	addi	r4,r4,20
 1202aa8:	1909883a 	add	r4,r3,r4
 1202aac:	49800015 	stw	r6,0(r9)
 1202ab0:	41800015 	stw	r6,0(r8)
 1202ab4:	59800015 	stw	r6,0(r11)
 1202ab8:	51800015 	stw	r6,0(r10)
 1202abc:	42000404 	addi	r8,r8,16
 1202ac0:	4a400404 	addi	r9,r9,16
 1202ac4:	5ac00404 	addi	r11,r11,16
 1202ac8:	52800404 	addi	r10,r10,16
 1202acc:	413ff71e 	bne	r8,r4,1202aac <__alt_mem_instruction_tcm+0xff202aac>
 1202ad0:	63000044 	addi	r12,r12,1
 1202ad4:	6018913a 	slli	r12,r12,4
 1202ad8:	39c003cc 	andi	r7,r7,15
 1202adc:	010000c4 	movi	r4,3
 1202ae0:	1b07883a 	add	r3,r3,r12
 1202ae4:	21c00e2e 	bgeu	r4,r7,1202b20 <memset+0x100>
 1202ae8:	1813883a 	mov	r9,r3
 1202aec:	3811883a 	mov	r8,r7
 1202af0:	010000c4 	movi	r4,3
 1202af4:	49800015 	stw	r6,0(r9)
 1202af8:	423fff04 	addi	r8,r8,-4
 1202afc:	4a400104 	addi	r9,r9,4
 1202b00:	223ffc36 	bltu	r4,r8,1202af4 <__alt_mem_instruction_tcm+0xff202af4>
 1202b04:	393fff04 	addi	r4,r7,-4
 1202b08:	2008d0ba 	srli	r4,r4,2
 1202b0c:	39c000cc 	andi	r7,r7,3
 1202b10:	21000044 	addi	r4,r4,1
 1202b14:	2109883a 	add	r4,r4,r4
 1202b18:	2109883a 	add	r4,r4,r4
 1202b1c:	1907883a 	add	r3,r3,r4
 1202b20:	38000426 	beq	r7,zero,1202b34 <memset+0x114>
 1202b24:	19cf883a 	add	r7,r3,r7
 1202b28:	19400005 	stb	r5,0(r3)
 1202b2c:	18c00044 	addi	r3,r3,1
 1202b30:	19fffd1e 	bne	r3,r7,1202b28 <__alt_mem_instruction_tcm+0xff202b28>
 1202b34:	f800283a 	ret
 1202b38:	2007883a 	mov	r3,r4
 1202b3c:	300f883a 	mov	r7,r6
 1202b40:	003fc806 	br	1202a64 <__alt_mem_instruction_tcm+0xff202a64>

01202b44 <__sread>:
 1202b44:	defffe04 	addi	sp,sp,-8
 1202b48:	dc000015 	stw	r16,0(sp)
 1202b4c:	2821883a 	mov	r16,r5
 1202b50:	2940038f 	ldh	r5,14(r5)
 1202b54:	dfc00115 	stw	ra,4(sp)
 1202b58:	1202f4c0 	call	1202f4c <_read_r>
 1202b5c:	10000716 	blt	r2,zero,1202b7c <__sread+0x38>
 1202b60:	80c01417 	ldw	r3,80(r16)
 1202b64:	1887883a 	add	r3,r3,r2
 1202b68:	80c01415 	stw	r3,80(r16)
 1202b6c:	dfc00117 	ldw	ra,4(sp)
 1202b70:	dc000017 	ldw	r16,0(sp)
 1202b74:	dec00204 	addi	sp,sp,8
 1202b78:	f800283a 	ret
 1202b7c:	80c0030b 	ldhu	r3,12(r16)
 1202b80:	18fbffcc 	andi	r3,r3,61439
 1202b84:	80c0030d 	sth	r3,12(r16)
 1202b88:	dfc00117 	ldw	ra,4(sp)
 1202b8c:	dc000017 	ldw	r16,0(sp)
 1202b90:	dec00204 	addi	sp,sp,8
 1202b94:	f800283a 	ret

01202b98 <__seofread>:
 1202b98:	0005883a 	mov	r2,zero
 1202b9c:	f800283a 	ret

01202ba0 <__swrite>:
 1202ba0:	2880030b 	ldhu	r2,12(r5)
 1202ba4:	defffb04 	addi	sp,sp,-20
 1202ba8:	dcc00315 	stw	r19,12(sp)
 1202bac:	dc800215 	stw	r18,8(sp)
 1202bb0:	dc400115 	stw	r17,4(sp)
 1202bb4:	dc000015 	stw	r16,0(sp)
 1202bb8:	dfc00415 	stw	ra,16(sp)
 1202bbc:	10c0400c 	andi	r3,r2,256
 1202bc0:	2821883a 	mov	r16,r5
 1202bc4:	2027883a 	mov	r19,r4
 1202bc8:	3025883a 	mov	r18,r6
 1202bcc:	3823883a 	mov	r17,r7
 1202bd0:	18000526 	beq	r3,zero,1202be8 <__swrite+0x48>
 1202bd4:	2940038f 	ldh	r5,14(r5)
 1202bd8:	000d883a 	mov	r6,zero
 1202bdc:	01c00084 	movi	r7,2
 1202be0:	1202ef00 	call	1202ef0 <_lseek_r>
 1202be4:	8080030b 	ldhu	r2,12(r16)
 1202be8:	8140038f 	ldh	r5,14(r16)
 1202bec:	10bbffcc 	andi	r2,r2,61439
 1202bf0:	9809883a 	mov	r4,r19
 1202bf4:	900d883a 	mov	r6,r18
 1202bf8:	880f883a 	mov	r7,r17
 1202bfc:	8080030d 	sth	r2,12(r16)
 1202c00:	dfc00417 	ldw	ra,16(sp)
 1202c04:	dcc00317 	ldw	r19,12(sp)
 1202c08:	dc800217 	ldw	r18,8(sp)
 1202c0c:	dc400117 	ldw	r17,4(sp)
 1202c10:	dc000017 	ldw	r16,0(sp)
 1202c14:	dec00504 	addi	sp,sp,20
 1202c18:	1202c801 	jmpi	1202c80 <_write_r>

01202c1c <__sseek>:
 1202c1c:	defffe04 	addi	sp,sp,-8
 1202c20:	dc000015 	stw	r16,0(sp)
 1202c24:	2821883a 	mov	r16,r5
 1202c28:	2940038f 	ldh	r5,14(r5)
 1202c2c:	dfc00115 	stw	ra,4(sp)
 1202c30:	1202ef00 	call	1202ef0 <_lseek_r>
 1202c34:	00ffffc4 	movi	r3,-1
 1202c38:	10c00826 	beq	r2,r3,1202c5c <__sseek+0x40>
 1202c3c:	80c0030b 	ldhu	r3,12(r16)
 1202c40:	80801415 	stw	r2,80(r16)
 1202c44:	18c40014 	ori	r3,r3,4096
 1202c48:	80c0030d 	sth	r3,12(r16)
 1202c4c:	dfc00117 	ldw	ra,4(sp)
 1202c50:	dc000017 	ldw	r16,0(sp)
 1202c54:	dec00204 	addi	sp,sp,8
 1202c58:	f800283a 	ret
 1202c5c:	80c0030b 	ldhu	r3,12(r16)
 1202c60:	18fbffcc 	andi	r3,r3,61439
 1202c64:	80c0030d 	sth	r3,12(r16)
 1202c68:	dfc00117 	ldw	ra,4(sp)
 1202c6c:	dc000017 	ldw	r16,0(sp)
 1202c70:	dec00204 	addi	sp,sp,8
 1202c74:	f800283a 	ret

01202c78 <__sclose>:
 1202c78:	2940038f 	ldh	r5,14(r5)
 1202c7c:	1202cdc1 	jmpi	1202cdc <_close_r>

01202c80 <_write_r>:
 1202c80:	defffd04 	addi	sp,sp,-12
 1202c84:	dc000015 	stw	r16,0(sp)
 1202c88:	04004874 	movhi	r16,289
 1202c8c:	dc400115 	stw	r17,4(sp)
 1202c90:	8426e204 	addi	r16,r16,-25720
 1202c94:	2023883a 	mov	r17,r4
 1202c98:	2809883a 	mov	r4,r5
 1202c9c:	300b883a 	mov	r5,r6
 1202ca0:	380d883a 	mov	r6,r7
 1202ca4:	dfc00215 	stw	ra,8(sp)
 1202ca8:	80000015 	stw	zero,0(r16)
 1202cac:	1203a700 	call	1203a70 <write>
 1202cb0:	00ffffc4 	movi	r3,-1
 1202cb4:	10c00526 	beq	r2,r3,1202ccc <_write_r+0x4c>
 1202cb8:	dfc00217 	ldw	ra,8(sp)
 1202cbc:	dc400117 	ldw	r17,4(sp)
 1202cc0:	dc000017 	ldw	r16,0(sp)
 1202cc4:	dec00304 	addi	sp,sp,12
 1202cc8:	f800283a 	ret
 1202ccc:	80c00017 	ldw	r3,0(r16)
 1202cd0:	183ff926 	beq	r3,zero,1202cb8 <__alt_mem_instruction_tcm+0xff202cb8>
 1202cd4:	88c00015 	stw	r3,0(r17)
 1202cd8:	003ff706 	br	1202cb8 <__alt_mem_instruction_tcm+0xff202cb8>

01202cdc <_close_r>:
 1202cdc:	defffd04 	addi	sp,sp,-12
 1202ce0:	dc000015 	stw	r16,0(sp)
 1202ce4:	04004874 	movhi	r16,289
 1202ce8:	dc400115 	stw	r17,4(sp)
 1202cec:	8426e204 	addi	r16,r16,-25720
 1202cf0:	2023883a 	mov	r17,r4
 1202cf4:	2809883a 	mov	r4,r5
 1202cf8:	dfc00215 	stw	ra,8(sp)
 1202cfc:	80000015 	stw	zero,0(r16)
 1202d00:	1202ff80 	call	1202ff8 <close>
 1202d04:	00ffffc4 	movi	r3,-1
 1202d08:	10c00526 	beq	r2,r3,1202d20 <_close_r+0x44>
 1202d0c:	dfc00217 	ldw	ra,8(sp)
 1202d10:	dc400117 	ldw	r17,4(sp)
 1202d14:	dc000017 	ldw	r16,0(sp)
 1202d18:	dec00304 	addi	sp,sp,12
 1202d1c:	f800283a 	ret
 1202d20:	80c00017 	ldw	r3,0(r16)
 1202d24:	183ff926 	beq	r3,zero,1202d0c <__alt_mem_instruction_tcm+0xff202d0c>
 1202d28:	88c00015 	stw	r3,0(r17)
 1202d2c:	003ff706 	br	1202d0c <__alt_mem_instruction_tcm+0xff202d0c>

01202d30 <_fclose_r>:
 1202d30:	28003226 	beq	r5,zero,1202dfc <_fclose_r+0xcc>
 1202d34:	defffc04 	addi	sp,sp,-16
 1202d38:	dc400115 	stw	r17,4(sp)
 1202d3c:	2023883a 	mov	r17,r4
 1202d40:	dc000015 	stw	r16,0(sp)
 1202d44:	dfc00315 	stw	ra,12(sp)
 1202d48:	dc800215 	stw	r18,8(sp)
 1202d4c:	2821883a 	mov	r16,r5
 1202d50:	12022a40 	call	12022a4 <__sfp_lock_acquire>
 1202d54:	88000226 	beq	r17,zero,1202d60 <_fclose_r+0x30>
 1202d58:	88800e17 	ldw	r2,56(r17)
 1202d5c:	10002926 	beq	r2,zero,1202e04 <_fclose_r+0xd4>
 1202d60:	8080030f 	ldh	r2,12(r16)
 1202d64:	10002226 	beq	r2,zero,1202df0 <_fclose_r+0xc0>
 1202d68:	8809883a 	mov	r4,r17
 1202d6c:	800b883a 	mov	r5,r16
 1202d70:	1201cec0 	call	1201cec <_fflush_r>
 1202d74:	1025883a 	mov	r18,r2
 1202d78:	80800b17 	ldw	r2,44(r16)
 1202d7c:	10000426 	beq	r2,zero,1202d90 <_fclose_r+0x60>
 1202d80:	81400717 	ldw	r5,28(r16)
 1202d84:	8809883a 	mov	r4,r17
 1202d88:	103ee83a 	callr	r2
 1202d8c:	10002616 	blt	r2,zero,1202e28 <_fclose_r+0xf8>
 1202d90:	8080030b 	ldhu	r2,12(r16)
 1202d94:	1080200c 	andi	r2,r2,128
 1202d98:	10001f1e 	bne	r2,zero,1202e18 <_fclose_r+0xe8>
 1202d9c:	81400c17 	ldw	r5,48(r16)
 1202da0:	28000526 	beq	r5,zero,1202db8 <_fclose_r+0x88>
 1202da4:	80801004 	addi	r2,r16,64
 1202da8:	28800226 	beq	r5,r2,1202db4 <_fclose_r+0x84>
 1202dac:	8809883a 	mov	r4,r17
 1202db0:	12024080 	call	1202408 <_free_r>
 1202db4:	80000c15 	stw	zero,48(r16)
 1202db8:	81401117 	ldw	r5,68(r16)
 1202dbc:	28000326 	beq	r5,zero,1202dcc <_fclose_r+0x9c>
 1202dc0:	8809883a 	mov	r4,r17
 1202dc4:	12024080 	call	1202408 <_free_r>
 1202dc8:	80001115 	stw	zero,68(r16)
 1202dcc:	8000030d 	sth	zero,12(r16)
 1202dd0:	12022a80 	call	12022a8 <__sfp_lock_release>
 1202dd4:	9005883a 	mov	r2,r18
 1202dd8:	dfc00317 	ldw	ra,12(sp)
 1202ddc:	dc800217 	ldw	r18,8(sp)
 1202de0:	dc400117 	ldw	r17,4(sp)
 1202de4:	dc000017 	ldw	r16,0(sp)
 1202de8:	dec00404 	addi	sp,sp,16
 1202dec:	f800283a 	ret
 1202df0:	12022a80 	call	12022a8 <__sfp_lock_release>
 1202df4:	0005883a 	mov	r2,zero
 1202df8:	003ff706 	br	1202dd8 <__alt_mem_instruction_tcm+0xff202dd8>
 1202dfc:	0005883a 	mov	r2,zero
 1202e00:	f800283a 	ret
 1202e04:	8809883a 	mov	r4,r17
 1202e08:	12022940 	call	1202294 <__sinit>
 1202e0c:	8080030f 	ldh	r2,12(r16)
 1202e10:	103fd51e 	bne	r2,zero,1202d68 <__alt_mem_instruction_tcm+0xff202d68>
 1202e14:	003ff606 	br	1202df0 <__alt_mem_instruction_tcm+0xff202df0>
 1202e18:	81400417 	ldw	r5,16(r16)
 1202e1c:	8809883a 	mov	r4,r17
 1202e20:	12024080 	call	1202408 <_free_r>
 1202e24:	003fdd06 	br	1202d9c <__alt_mem_instruction_tcm+0xff202d9c>
 1202e28:	04bfffc4 	movi	r18,-1
 1202e2c:	003fd806 	br	1202d90 <__alt_mem_instruction_tcm+0xff202d90>

01202e30 <fclose>:
 1202e30:	00804874 	movhi	r2,289
 1202e34:	10a6cf04 	addi	r2,r2,-25796
 1202e38:	200b883a 	mov	r5,r4
 1202e3c:	11000017 	ldw	r4,0(r2)
 1202e40:	1202d301 	jmpi	1202d30 <_fclose_r>

01202e44 <_fstat_r>:
 1202e44:	defffd04 	addi	sp,sp,-12
 1202e48:	dc000015 	stw	r16,0(sp)
 1202e4c:	04004874 	movhi	r16,289
 1202e50:	dc400115 	stw	r17,4(sp)
 1202e54:	8426e204 	addi	r16,r16,-25720
 1202e58:	2023883a 	mov	r17,r4
 1202e5c:	2809883a 	mov	r4,r5
 1202e60:	300b883a 	mov	r5,r6
 1202e64:	dfc00215 	stw	ra,8(sp)
 1202e68:	80000015 	stw	zero,0(r16)
 1202e6c:	12031440 	call	1203144 <fstat>
 1202e70:	00ffffc4 	movi	r3,-1
 1202e74:	10c00526 	beq	r2,r3,1202e8c <_fstat_r+0x48>
 1202e78:	dfc00217 	ldw	ra,8(sp)
 1202e7c:	dc400117 	ldw	r17,4(sp)
 1202e80:	dc000017 	ldw	r16,0(sp)
 1202e84:	dec00304 	addi	sp,sp,12
 1202e88:	f800283a 	ret
 1202e8c:	80c00017 	ldw	r3,0(r16)
 1202e90:	183ff926 	beq	r3,zero,1202e78 <__alt_mem_instruction_tcm+0xff202e78>
 1202e94:	88c00015 	stw	r3,0(r17)
 1202e98:	003ff706 	br	1202e78 <__alt_mem_instruction_tcm+0xff202e78>

01202e9c <_isatty_r>:
 1202e9c:	defffd04 	addi	sp,sp,-12
 1202ea0:	dc000015 	stw	r16,0(sp)
 1202ea4:	04004874 	movhi	r16,289
 1202ea8:	dc400115 	stw	r17,4(sp)
 1202eac:	8426e204 	addi	r16,r16,-25720
 1202eb0:	2023883a 	mov	r17,r4
 1202eb4:	2809883a 	mov	r4,r5
 1202eb8:	dfc00215 	stw	ra,8(sp)
 1202ebc:	80000015 	stw	zero,0(r16)
 1202ec0:	12035140 	call	1203514 <isatty>
 1202ec4:	00ffffc4 	movi	r3,-1
 1202ec8:	10c00526 	beq	r2,r3,1202ee0 <_isatty_r+0x44>
 1202ecc:	dfc00217 	ldw	ra,8(sp)
 1202ed0:	dc400117 	ldw	r17,4(sp)
 1202ed4:	dc000017 	ldw	r16,0(sp)
 1202ed8:	dec00304 	addi	sp,sp,12
 1202edc:	f800283a 	ret
 1202ee0:	80c00017 	ldw	r3,0(r16)
 1202ee4:	183ff926 	beq	r3,zero,1202ecc <__alt_mem_instruction_tcm+0xff202ecc>
 1202ee8:	88c00015 	stw	r3,0(r17)
 1202eec:	003ff706 	br	1202ecc <__alt_mem_instruction_tcm+0xff202ecc>

01202ef0 <_lseek_r>:
 1202ef0:	defffd04 	addi	sp,sp,-12
 1202ef4:	dc000015 	stw	r16,0(sp)
 1202ef8:	04004874 	movhi	r16,289
 1202efc:	dc400115 	stw	r17,4(sp)
 1202f00:	8426e204 	addi	r16,r16,-25720
 1202f04:	2023883a 	mov	r17,r4
 1202f08:	2809883a 	mov	r4,r5
 1202f0c:	300b883a 	mov	r5,r6
 1202f10:	380d883a 	mov	r6,r7
 1202f14:	dfc00215 	stw	ra,8(sp)
 1202f18:	80000015 	stw	zero,0(r16)
 1202f1c:	12036080 	call	1203608 <lseek>
 1202f20:	00ffffc4 	movi	r3,-1
 1202f24:	10c00526 	beq	r2,r3,1202f3c <_lseek_r+0x4c>
 1202f28:	dfc00217 	ldw	ra,8(sp)
 1202f2c:	dc400117 	ldw	r17,4(sp)
 1202f30:	dc000017 	ldw	r16,0(sp)
 1202f34:	dec00304 	addi	sp,sp,12
 1202f38:	f800283a 	ret
 1202f3c:	80c00017 	ldw	r3,0(r16)
 1202f40:	183ff926 	beq	r3,zero,1202f28 <__alt_mem_instruction_tcm+0xff202f28>
 1202f44:	88c00015 	stw	r3,0(r17)
 1202f48:	003ff706 	br	1202f28 <__alt_mem_instruction_tcm+0xff202f28>

01202f4c <_read_r>:
 1202f4c:	defffd04 	addi	sp,sp,-12
 1202f50:	dc000015 	stw	r16,0(sp)
 1202f54:	04004874 	movhi	r16,289
 1202f58:	dc400115 	stw	r17,4(sp)
 1202f5c:	8426e204 	addi	r16,r16,-25720
 1202f60:	2023883a 	mov	r17,r4
 1202f64:	2809883a 	mov	r4,r5
 1202f68:	300b883a 	mov	r5,r6
 1202f6c:	380d883a 	mov	r6,r7
 1202f70:	dfc00215 	stw	ra,8(sp)
 1202f74:	80000015 	stw	zero,0(r16)
 1202f78:	12037e40 	call	12037e4 <read>
 1202f7c:	00ffffc4 	movi	r3,-1
 1202f80:	10c00526 	beq	r2,r3,1202f98 <_read_r+0x4c>
 1202f84:	dfc00217 	ldw	ra,8(sp)
 1202f88:	dc400117 	ldw	r17,4(sp)
 1202f8c:	dc000017 	ldw	r16,0(sp)
 1202f90:	dec00304 	addi	sp,sp,12
 1202f94:	f800283a 	ret
 1202f98:	80c00017 	ldw	r3,0(r16)
 1202f9c:	183ff926 	beq	r3,zero,1202f84 <__alt_mem_instruction_tcm+0xff202f84>
 1202fa0:	88c00015 	stw	r3,0(r17)
 1202fa4:	003ff706 	br	1202f84 <__alt_mem_instruction_tcm+0xff202f84>

01202fa8 <alt_get_errno>:
#undef errno

extern int errno;

static ALT_INLINE int* alt_get_errno(void)
{
 1202fa8:	defffe04 	addi	sp,sp,-8
 1202fac:	dfc00115 	stw	ra,4(sp)
 1202fb0:	df000015 	stw	fp,0(sp)
 1202fb4:	d839883a 	mov	fp,sp
  return ((alt_errno) ? alt_errno() : &errno);
 1202fb8:	00804874 	movhi	r2,289
 1202fbc:	10a6d704 	addi	r2,r2,-25764
 1202fc0:	10800017 	ldw	r2,0(r2)
 1202fc4:	10000526 	beq	r2,zero,1202fdc <alt_get_errno+0x34>
 1202fc8:	00804874 	movhi	r2,289
 1202fcc:	10a6d704 	addi	r2,r2,-25764
 1202fd0:	10800017 	ldw	r2,0(r2)
 1202fd4:	103ee83a 	callr	r2
 1202fd8:	00000206 	br	1202fe4 <alt_get_errno+0x3c>
 1202fdc:	00804874 	movhi	r2,289
 1202fe0:	10a6e204 	addi	r2,r2,-25720
}
 1202fe4:	e037883a 	mov	sp,fp
 1202fe8:	dfc00117 	ldw	ra,4(sp)
 1202fec:	df000017 	ldw	fp,0(sp)
 1202ff0:	dec00204 	addi	sp,sp,8
 1202ff4:	f800283a 	ret

01202ff8 <close>:
 *
 * ALT_CLOSE is mapped onto the close() system call in alt_syscall.h
 */
 
int ALT_CLOSE (int fildes)
{
 1202ff8:	defffb04 	addi	sp,sp,-20
 1202ffc:	dfc00415 	stw	ra,16(sp)
 1203000:	df000315 	stw	fp,12(sp)
 1203004:	df000304 	addi	fp,sp,12
 1203008:	e13fff15 	stw	r4,-4(fp)
   * A common error case is that when the file descriptor was created, the call
   * to open() failed resulting in a negative file descriptor. This is trapped
   * below so that we don't try and process an invalid file descriptor.
   */

  fd = (fildes < 0) ? NULL : &alt_fd_list[fildes];
 120300c:	e0bfff17 	ldw	r2,-4(fp)
 1203010:	10000616 	blt	r2,zero,120302c <close+0x34>
 1203014:	e0bfff17 	ldw	r2,-4(fp)
 1203018:	10c00324 	muli	r3,r2,12
 120301c:	00804874 	movhi	r2,289
 1203020:	10a21f04 	addi	r2,r2,-30596
 1203024:	1885883a 	add	r2,r3,r2
 1203028:	00000106 	br	1203030 <close+0x38>
 120302c:	0005883a 	mov	r2,zero
 1203030:	e0bffd15 	stw	r2,-12(fp)

  if (fd)
 1203034:	e0bffd17 	ldw	r2,-12(fp)
 1203038:	10001926 	beq	r2,zero,12030a0 <close+0xa8>
    /*
     * If the associated file system/device has a close function, call it so 
     * that any necessary cleanup code can run.
     */

    rval = (fd->dev->close) ? fd->dev->close(fd) : 0;
 120303c:	e0bffd17 	ldw	r2,-12(fp)
 1203040:	10800017 	ldw	r2,0(r2)
 1203044:	10800417 	ldw	r2,16(r2)
 1203048:	10000626 	beq	r2,zero,1203064 <close+0x6c>
 120304c:	e0bffd17 	ldw	r2,-12(fp)
 1203050:	10800017 	ldw	r2,0(r2)
 1203054:	10800417 	ldw	r2,16(r2)
 1203058:	e13ffd17 	ldw	r4,-12(fp)
 120305c:	103ee83a 	callr	r2
 1203060:	00000106 	br	1203068 <close+0x70>
 1203064:	0005883a 	mov	r2,zero
 1203068:	e0bffe15 	stw	r2,-8(fp)

    /* Free the file descriptor structure and return. */

    alt_release_fd (fildes);
 120306c:	e13fff17 	ldw	r4,-4(fp)
 1203070:	12038e00 	call	12038e0 <alt_release_fd>
    if (rval < 0)
 1203074:	e0bffe17 	ldw	r2,-8(fp)
 1203078:	1000070e 	bge	r2,zero,1203098 <close+0xa0>
    {
      ALT_ERRNO = -rval;
 120307c:	1202fa80 	call	1202fa8 <alt_get_errno>
 1203080:	1007883a 	mov	r3,r2
 1203084:	e0bffe17 	ldw	r2,-8(fp)
 1203088:	0085c83a 	sub	r2,zero,r2
 120308c:	18800015 	stw	r2,0(r3)
      return -1;
 1203090:	00bfffc4 	movi	r2,-1
 1203094:	00000706 	br	12030b4 <close+0xbc>
    }
    return 0;
 1203098:	0005883a 	mov	r2,zero
 120309c:	00000506 	br	12030b4 <close+0xbc>
  }
  else
  {
    ALT_ERRNO = EBADFD;
 12030a0:	1202fa80 	call	1202fa8 <alt_get_errno>
 12030a4:	1007883a 	mov	r3,r2
 12030a8:	00801444 	movi	r2,81
 12030ac:	18800015 	stw	r2,0(r3)
    return -1;
 12030b0:	00bfffc4 	movi	r2,-1
  }
}
 12030b4:	e037883a 	mov	sp,fp
 12030b8:	dfc00117 	ldw	ra,4(sp)
 12030bc:	df000017 	ldw	fp,0(sp)
 12030c0:	dec00204 	addi	sp,sp,8
 12030c4:	f800283a 	ret

012030c8 <alt_dev_null_write>:
 * by the alt_dev_null device. It simple discards all data passed to it, and
 * indicates that the data has been successfully transmitted.
 */

static int alt_dev_null_write (alt_fd* fd, const char* ptr, int len)
{
 12030c8:	defffc04 	addi	sp,sp,-16
 12030cc:	df000315 	stw	fp,12(sp)
 12030d0:	df000304 	addi	fp,sp,12
 12030d4:	e13ffd15 	stw	r4,-12(fp)
 12030d8:	e17ffe15 	stw	r5,-8(fp)
 12030dc:	e1bfff15 	stw	r6,-4(fp)
  return len;
 12030e0:	e0bfff17 	ldw	r2,-4(fp)
}
 12030e4:	e037883a 	mov	sp,fp
 12030e8:	df000017 	ldw	fp,0(sp)
 12030ec:	dec00104 	addi	sp,sp,4
 12030f0:	f800283a 	ret

012030f4 <alt_get_errno>:
#undef errno

extern int errno;

static ALT_INLINE int* alt_get_errno(void)
{
 12030f4:	defffe04 	addi	sp,sp,-8
 12030f8:	dfc00115 	stw	ra,4(sp)
 12030fc:	df000015 	stw	fp,0(sp)
 1203100:	d839883a 	mov	fp,sp
  return ((alt_errno) ? alt_errno() : &errno);
 1203104:	00804874 	movhi	r2,289
 1203108:	10a6d704 	addi	r2,r2,-25764
 120310c:	10800017 	ldw	r2,0(r2)
 1203110:	10000526 	beq	r2,zero,1203128 <alt_get_errno+0x34>
 1203114:	00804874 	movhi	r2,289
 1203118:	10a6d704 	addi	r2,r2,-25764
 120311c:	10800017 	ldw	r2,0(r2)
 1203120:	103ee83a 	callr	r2
 1203124:	00000206 	br	1203130 <alt_get_errno+0x3c>
 1203128:	00804874 	movhi	r2,289
 120312c:	10a6e204 	addi	r2,r2,-25720
}
 1203130:	e037883a 	mov	sp,fp
 1203134:	dfc00117 	ldw	ra,4(sp)
 1203138:	df000017 	ldw	fp,0(sp)
 120313c:	dec00204 	addi	sp,sp,8
 1203140:	f800283a 	ret

01203144 <fstat>:
}

#else /* !ALT_USE_DIRECT_DRIVERS */

int ALT_FSTAT (int file, struct stat *st)
{
 1203144:	defffb04 	addi	sp,sp,-20
 1203148:	dfc00415 	stw	ra,16(sp)
 120314c:	df000315 	stw	fp,12(sp)
 1203150:	df000304 	addi	fp,sp,12
 1203154:	e13ffe15 	stw	r4,-8(fp)
 1203158:	e17fff15 	stw	r5,-4(fp)
   * A common error case is that when the file descriptor was created, the call
   * to open() failed resulting in a negative file descriptor. This is trapped
   * below so that we don't try and process an invalid file descriptor.
   */

  fd = (file < 0) ? NULL : &alt_fd_list[file];
 120315c:	e0bffe17 	ldw	r2,-8(fp)
 1203160:	10000616 	blt	r2,zero,120317c <fstat+0x38>
 1203164:	e0bffe17 	ldw	r2,-8(fp)
 1203168:	10c00324 	muli	r3,r2,12
 120316c:	00804874 	movhi	r2,289
 1203170:	10a21f04 	addi	r2,r2,-30596
 1203174:	1885883a 	add	r2,r3,r2
 1203178:	00000106 	br	1203180 <fstat+0x3c>
 120317c:	0005883a 	mov	r2,zero
 1203180:	e0bffd15 	stw	r2,-12(fp)
  
  if (fd)
 1203184:	e0bffd17 	ldw	r2,-12(fp)
 1203188:	10001026 	beq	r2,zero,12031cc <fstat+0x88>
  {
    /* Call the drivers fstat() function to fill out the "st" structure. */

    if (fd->dev->fstat)
 120318c:	e0bffd17 	ldw	r2,-12(fp)
 1203190:	10800017 	ldw	r2,0(r2)
 1203194:	10800817 	ldw	r2,32(r2)
 1203198:	10000726 	beq	r2,zero,12031b8 <fstat+0x74>
    {
      return fd->dev->fstat(fd, st);
 120319c:	e0bffd17 	ldw	r2,-12(fp)
 12031a0:	10800017 	ldw	r2,0(r2)
 12031a4:	10800817 	ldw	r2,32(r2)
 12031a8:	e13ffd17 	ldw	r4,-12(fp)
 12031ac:	e17fff17 	ldw	r5,-4(fp)
 12031b0:	103ee83a 	callr	r2
 12031b4:	00000a06 	br	12031e0 <fstat+0x9c>
     * device.
     */
 
    else
    {
      st->st_mode = _IFCHR;
 12031b8:	e0bfff17 	ldw	r2,-4(fp)
 12031bc:	00c80004 	movi	r3,8192
 12031c0:	10c00115 	stw	r3,4(r2)
      return 0;
 12031c4:	0005883a 	mov	r2,zero
 12031c8:	00000506 	br	12031e0 <fstat+0x9c>
    }
  }
  else
  {
    ALT_ERRNO = EBADFD;
 12031cc:	12030f40 	call	12030f4 <alt_get_errno>
 12031d0:	1007883a 	mov	r3,r2
 12031d4:	00801444 	movi	r2,81
 12031d8:	18800015 	stw	r2,0(r3)
    return -1;
 12031dc:	00bfffc4 	movi	r2,-1
  }
}
 12031e0:	e037883a 	mov	sp,fp
 12031e4:	dfc00117 	ldw	ra,4(sp)
 12031e8:	df000017 	ldw	fp,0(sp)
 12031ec:	dec00204 	addi	sp,sp,8
 12031f0:	f800283a 	ret

012031f4 <alt_ic_isr_register>:
  * @param irq              IRQ number
  * @return                 0 if successful, else error (-1)
  */
int alt_ic_isr_register(alt_u32 ic_id, alt_u32 irq, alt_isr_func isr, 
  void *isr_context, void *flags)
{
 12031f4:	defff904 	addi	sp,sp,-28
 12031f8:	dfc00615 	stw	ra,24(sp)
 12031fc:	df000515 	stw	fp,20(sp)
 1203200:	df000504 	addi	fp,sp,20
 1203204:	e13ffc15 	stw	r4,-16(fp)
 1203208:	e17ffd15 	stw	r5,-12(fp)
 120320c:	e1bffe15 	stw	r6,-8(fp)
 1203210:	e1ffff15 	stw	r7,-4(fp)
    return alt_iic_isr_register(ic_id, irq, isr, isr_context, flags);
 1203214:	e0800217 	ldw	r2,8(fp)
 1203218:	d8800015 	stw	r2,0(sp)
 120321c:	e13ffc17 	ldw	r4,-16(fp)
 1203220:	e17ffd17 	ldw	r5,-12(fp)
 1203224:	e1bffe17 	ldw	r6,-8(fp)
 1203228:	e1ffff17 	ldw	r7,-4(fp)
 120322c:	12033d40 	call	12033d4 <alt_iic_isr_register>
}  
 1203230:	e037883a 	mov	sp,fp
 1203234:	dfc00117 	ldw	ra,4(sp)
 1203238:	df000017 	ldw	fp,0(sp)
 120323c:	dec00204 	addi	sp,sp,8
 1203240:	f800283a 	ret

01203244 <alt_ic_irq_enable>:
  * @param ic_id            Ignored.
  * @param irq              IRQ number
  * @return                 0 if successful, else error (-1)
  */
int alt_ic_irq_enable (alt_u32 ic_id, alt_u32 irq)
{
 1203244:	defff904 	addi	sp,sp,-28
 1203248:	df000615 	stw	fp,24(sp)
 120324c:	df000604 	addi	fp,sp,24
 1203250:	e13ffe15 	stw	r4,-8(fp)
 1203254:	e17fff15 	stw	r5,-4(fp)
 1203258:	e0bfff17 	ldw	r2,-4(fp)
 120325c:	e0bffa15 	stw	r2,-24(fp)
static ALT_INLINE alt_irq_context ALT_ALWAYS_INLINE 
       alt_irq_disable_all (void)
{
  alt_irq_context context;

  NIOS2_READ_STATUS (context);
 1203260:	0005303a 	rdctl	r2,status
 1203264:	e0bffb15 	stw	r2,-20(fp)

  NIOS2_WRITE_STATUS (context & ~NIOS2_STATUS_PIE_MSK);
 1203268:	e0fffb17 	ldw	r3,-20(fp)
 120326c:	00bfff84 	movi	r2,-2
 1203270:	1884703a 	and	r2,r3,r2
 1203274:	1001703a 	wrctl	status,r2
  
  return context;
 1203278:	e0bffb17 	ldw	r2,-20(fp)
static ALT_INLINE int ALT_ALWAYS_INLINE alt_irq_enable (alt_u32 id)
{
  alt_irq_context  status;
  extern volatile alt_u32 alt_irq_active;

  status = alt_irq_disable_all ();
 120327c:	e0bffc15 	stw	r2,-16(fp)

  alt_irq_active |= (1 << id);
 1203280:	e0bffa17 	ldw	r2,-24(fp)
 1203284:	00c00044 	movi	r3,1
 1203288:	1884983a 	sll	r2,r3,r2
 120328c:	1007883a 	mov	r3,r2
 1203290:	00804874 	movhi	r2,289
 1203294:	10a6e304 	addi	r2,r2,-25716
 1203298:	10800017 	ldw	r2,0(r2)
 120329c:	1886b03a 	or	r3,r3,r2
 12032a0:	00804874 	movhi	r2,289
 12032a4:	10a6e304 	addi	r2,r2,-25716
 12032a8:	10c00015 	stw	r3,0(r2)
  NIOS2_WRITE_IENABLE (alt_irq_active);
 12032ac:	00804874 	movhi	r2,289
 12032b0:	10a6e304 	addi	r2,r2,-25716
 12032b4:	10800017 	ldw	r2,0(r2)
 12032b8:	100170fa 	wrctl	ienable,r2
 12032bc:	e0bffc17 	ldw	r2,-16(fp)
 12032c0:	e0bffd15 	stw	r2,-12(fp)
  status &= ~NIOS2_STATUS_PIE_MSK;
  status |= (context & NIOS2_STATUS_PIE_MSK);
  
  NIOS2_WRITE_STATUS (status);
#else
  NIOS2_WRITE_STATUS (context);
 12032c4:	e0bffd17 	ldw	r2,-12(fp)
 12032c8:	1001703a 	wrctl	status,r2

  alt_irq_enable_all(status);

  return 0;
 12032cc:	0005883a 	mov	r2,zero
    return alt_irq_enable(irq);
 12032d0:	0001883a 	nop
}
 12032d4:	e037883a 	mov	sp,fp
 12032d8:	df000017 	ldw	fp,0(sp)
 12032dc:	dec00104 	addi	sp,sp,4
 12032e0:	f800283a 	ret

012032e4 <alt_ic_irq_disable>:
  * @param ic_id            Ignored.
  * @param irq              IRQ number
  * @return                 0 if successful, else error (-1)
  */
int alt_ic_irq_disable(alt_u32 ic_id, alt_u32 irq)
{
 12032e4:	defff904 	addi	sp,sp,-28
 12032e8:	df000615 	stw	fp,24(sp)
 12032ec:	df000604 	addi	fp,sp,24
 12032f0:	e13ffe15 	stw	r4,-8(fp)
 12032f4:	e17fff15 	stw	r5,-4(fp)
 12032f8:	e0bfff17 	ldw	r2,-4(fp)
 12032fc:	e0bffa15 	stw	r2,-24(fp)
static ALT_INLINE alt_irq_context ALT_ALWAYS_INLINE 
       alt_irq_disable_all (void)
{
  alt_irq_context context;

  NIOS2_READ_STATUS (context);
 1203300:	0005303a 	rdctl	r2,status
 1203304:	e0bffb15 	stw	r2,-20(fp)

  NIOS2_WRITE_STATUS (context & ~NIOS2_STATUS_PIE_MSK);
 1203308:	e0fffb17 	ldw	r3,-20(fp)
 120330c:	00bfff84 	movi	r2,-2
 1203310:	1884703a 	and	r2,r3,r2
 1203314:	1001703a 	wrctl	status,r2
  
  return context;
 1203318:	e0bffb17 	ldw	r2,-20(fp)
static ALT_INLINE int ALT_ALWAYS_INLINE alt_irq_disable (alt_u32 id)
{
  alt_irq_context  status;
  extern volatile alt_u32 alt_irq_active;

  status = alt_irq_disable_all ();
 120331c:	e0bffc15 	stw	r2,-16(fp)

  alt_irq_active &= ~(1 << id);
 1203320:	e0bffa17 	ldw	r2,-24(fp)
 1203324:	00c00044 	movi	r3,1
 1203328:	1884983a 	sll	r2,r3,r2
 120332c:	0084303a 	nor	r2,zero,r2
 1203330:	1007883a 	mov	r3,r2
 1203334:	00804874 	movhi	r2,289
 1203338:	10a6e304 	addi	r2,r2,-25716
 120333c:	10800017 	ldw	r2,0(r2)
 1203340:	1886703a 	and	r3,r3,r2
 1203344:	00804874 	movhi	r2,289
 1203348:	10a6e304 	addi	r2,r2,-25716
 120334c:	10c00015 	stw	r3,0(r2)
  NIOS2_WRITE_IENABLE (alt_irq_active);
 1203350:	00804874 	movhi	r2,289
 1203354:	10a6e304 	addi	r2,r2,-25716
 1203358:	10800017 	ldw	r2,0(r2)
 120335c:	100170fa 	wrctl	ienable,r2
 1203360:	e0bffc17 	ldw	r2,-16(fp)
 1203364:	e0bffd15 	stw	r2,-12(fp)
  status &= ~NIOS2_STATUS_PIE_MSK;
  status |= (context & NIOS2_STATUS_PIE_MSK);
  
  NIOS2_WRITE_STATUS (status);
#else
  NIOS2_WRITE_STATUS (context);
 1203368:	e0bffd17 	ldw	r2,-12(fp)
 120336c:	1001703a 	wrctl	status,r2

  alt_irq_enable_all(status);

  return 0;
 1203370:	0005883a 	mov	r2,zero
    return alt_irq_disable(irq);
 1203374:	0001883a 	nop
}
 1203378:	e037883a 	mov	sp,fp
 120337c:	df000017 	ldw	fp,0(sp)
 1203380:	dec00104 	addi	sp,sp,4
 1203384:	f800283a 	ret

01203388 <alt_ic_irq_enabled>:
  * @param irq              IRQ number
  * @return                 Zero if corresponding interrupt is disabled and
  *                         non-zero otherwise.
  */
alt_u32 alt_ic_irq_enabled(alt_u32 ic_id, alt_u32 irq)
{
 1203388:	defffc04 	addi	sp,sp,-16
 120338c:	df000315 	stw	fp,12(sp)
 1203390:	df000304 	addi	fp,sp,12
 1203394:	e13ffe15 	stw	r4,-8(fp)
 1203398:	e17fff15 	stw	r5,-4(fp)
    alt_u32 irq_enabled;

    NIOS2_READ_IENABLE(irq_enabled);
 120339c:	000530fa 	rdctl	r2,ienable
 12033a0:	e0bffd15 	stw	r2,-12(fp)

    return (irq_enabled & (1 << irq)) ? 1: 0;
 12033a4:	e0bfff17 	ldw	r2,-4(fp)
 12033a8:	00c00044 	movi	r3,1
 12033ac:	1884983a 	sll	r2,r3,r2
 12033b0:	1007883a 	mov	r3,r2
 12033b4:	e0bffd17 	ldw	r2,-12(fp)
 12033b8:	1884703a 	and	r2,r3,r2
 12033bc:	1004c03a 	cmpne	r2,r2,zero
 12033c0:	10803fcc 	andi	r2,r2,255
}
 12033c4:	e037883a 	mov	sp,fp
 12033c8:	df000017 	ldw	fp,0(sp)
 12033cc:	dec00104 	addi	sp,sp,4
 12033d0:	f800283a 	ret

012033d4 <alt_iic_isr_register>:
  * @param flags            
  * @return                 0 if successful, else error (-1)
  */
int alt_iic_isr_register(alt_u32 ic_id, alt_u32 irq, alt_isr_func isr, 
  void *isr_context, void *flags)
{
 12033d4:	defff504 	addi	sp,sp,-44
 12033d8:	dfc00a15 	stw	ra,40(sp)
 12033dc:	df000915 	stw	fp,36(sp)
 12033e0:	df000904 	addi	fp,sp,36
 12033e4:	e13ffc15 	stw	r4,-16(fp)
 12033e8:	e17ffd15 	stw	r5,-12(fp)
 12033ec:	e1bffe15 	stw	r6,-8(fp)
 12033f0:	e1ffff15 	stw	r7,-4(fp)
  int rc = -EINVAL;  
 12033f4:	00bffa84 	movi	r2,-22
 12033f8:	e0bff715 	stw	r2,-36(fp)
  int id = irq;             /* IRQ interpreted as the interrupt ID. */
 12033fc:	e0bffd17 	ldw	r2,-12(fp)
 1203400:	e0bff815 	stw	r2,-32(fp)
  alt_irq_context status;

  if (id < ALT_NIRQ)
 1203404:	e0bff817 	ldw	r2,-32(fp)
 1203408:	10800808 	cmpgei	r2,r2,32
 120340c:	1000271e 	bne	r2,zero,12034ac <alt_iic_isr_register+0xd8>
static ALT_INLINE alt_irq_context ALT_ALWAYS_INLINE 
       alt_irq_disable_all (void)
{
  alt_irq_context context;

  NIOS2_READ_STATUS (context);
 1203410:	0005303a 	rdctl	r2,status
 1203414:	e0bffa15 	stw	r2,-24(fp)

  NIOS2_WRITE_STATUS (context & ~NIOS2_STATUS_PIE_MSK);
 1203418:	e0fffa17 	ldw	r3,-24(fp)
 120341c:	00bfff84 	movi	r2,-2
 1203420:	1884703a 	and	r2,r3,r2
 1203424:	1001703a 	wrctl	status,r2
  
  return context;
 1203428:	e0bffa17 	ldw	r2,-24(fp)
     * interrupts are disabled while the handler tables are updated to ensure
     * that an interrupt doesn't occur while the tables are in an inconsistant
     * state.
     */

    status = alt_irq_disable_all();
 120342c:	e0bff915 	stw	r2,-28(fp)

    alt_irq[id].handler = isr;
 1203430:	00804874 	movhi	r2,289
 1203434:	10a6f404 	addi	r2,r2,-25648
 1203438:	e0fff817 	ldw	r3,-32(fp)
 120343c:	180690fa 	slli	r3,r3,3
 1203440:	10c5883a 	add	r2,r2,r3
 1203444:	e0fffe17 	ldw	r3,-8(fp)
 1203448:	10c00015 	stw	r3,0(r2)
    alt_irq[id].context = isr_context;
 120344c:	00804874 	movhi	r2,289
 1203450:	10a6f404 	addi	r2,r2,-25648
 1203454:	e0fff817 	ldw	r3,-32(fp)
 1203458:	180690fa 	slli	r3,r3,3
 120345c:	10c5883a 	add	r2,r2,r3
 1203460:	10800104 	addi	r2,r2,4
 1203464:	e0ffff17 	ldw	r3,-4(fp)
 1203468:	10c00015 	stw	r3,0(r2)

    rc = (isr) ? alt_ic_irq_enable(ic_id, id) : alt_ic_irq_disable(ic_id, id);
 120346c:	e0bffe17 	ldw	r2,-8(fp)
 1203470:	10000526 	beq	r2,zero,1203488 <alt_iic_isr_register+0xb4>
 1203474:	e0bff817 	ldw	r2,-32(fp)
 1203478:	e13ffc17 	ldw	r4,-16(fp)
 120347c:	100b883a 	mov	r5,r2
 1203480:	12032440 	call	1203244 <alt_ic_irq_enable>
 1203484:	00000406 	br	1203498 <alt_iic_isr_register+0xc4>
 1203488:	e0bff817 	ldw	r2,-32(fp)
 120348c:	e13ffc17 	ldw	r4,-16(fp)
 1203490:	100b883a 	mov	r5,r2
 1203494:	12032e40 	call	12032e4 <alt_ic_irq_disable>
 1203498:	e0bff715 	stw	r2,-36(fp)
 120349c:	e0bff917 	ldw	r2,-28(fp)
 12034a0:	e0bffb15 	stw	r2,-20(fp)
  status &= ~NIOS2_STATUS_PIE_MSK;
  status |= (context & NIOS2_STATUS_PIE_MSK);
  
  NIOS2_WRITE_STATUS (status);
#else
  NIOS2_WRITE_STATUS (context);
 12034a4:	e0bffb17 	ldw	r2,-20(fp)
 12034a8:	1001703a 	wrctl	status,r2

    alt_irq_enable_all(status);
  }

  return rc; 
 12034ac:	e0bff717 	ldw	r2,-36(fp)
}
 12034b0:	e037883a 	mov	sp,fp
 12034b4:	dfc00117 	ldw	ra,4(sp)
 12034b8:	df000017 	ldw	fp,0(sp)
 12034bc:	dec00204 	addi	sp,sp,8
 12034c0:	f800283a 	ret

012034c4 <alt_get_errno>:
#undef errno

extern int errno;

static ALT_INLINE int* alt_get_errno(void)
{
 12034c4:	defffe04 	addi	sp,sp,-8
 12034c8:	dfc00115 	stw	ra,4(sp)
 12034cc:	df000015 	stw	fp,0(sp)
 12034d0:	d839883a 	mov	fp,sp
  return ((alt_errno) ? alt_errno() : &errno);
 12034d4:	00804874 	movhi	r2,289
 12034d8:	10a6d704 	addi	r2,r2,-25764
 12034dc:	10800017 	ldw	r2,0(r2)
 12034e0:	10000526 	beq	r2,zero,12034f8 <alt_get_errno+0x34>
 12034e4:	00804874 	movhi	r2,289
 12034e8:	10a6d704 	addi	r2,r2,-25764
 12034ec:	10800017 	ldw	r2,0(r2)
 12034f0:	103ee83a 	callr	r2
 12034f4:	00000206 	br	1203500 <alt_get_errno+0x3c>
 12034f8:	00804874 	movhi	r2,289
 12034fc:	10a6e204 	addi	r2,r2,-25720
}
 1203500:	e037883a 	mov	sp,fp
 1203504:	dfc00117 	ldw	ra,4(sp)
 1203508:	df000017 	ldw	fp,0(sp)
 120350c:	dec00204 	addi	sp,sp,8
 1203510:	f800283a 	ret

01203514 <isatty>:
 *
 * ALT_ISATTY is mapped onto the isatty() system call in alt_syscall.h
 */
 
int ALT_ISATTY (int file)
{
 1203514:	deffed04 	addi	sp,sp,-76
 1203518:	dfc01215 	stw	ra,72(sp)
 120351c:	df001115 	stw	fp,68(sp)
 1203520:	df001104 	addi	fp,sp,68
 1203524:	e13fff15 	stw	r4,-4(fp)
   * A common error case is that when the file descriptor was created, the call
   * to open() failed resulting in a negative file descriptor. This is trapped
   * below so that we don't try and process an invalid file descriptor.
   */

  fd = (file < 0) ? NULL : &alt_fd_list[file];
 1203528:	e0bfff17 	ldw	r2,-4(fp)
 120352c:	10000616 	blt	r2,zero,1203548 <isatty+0x34>
 1203530:	e0bfff17 	ldw	r2,-4(fp)
 1203534:	10c00324 	muli	r3,r2,12
 1203538:	00804874 	movhi	r2,289
 120353c:	10a21f04 	addi	r2,r2,-30596
 1203540:	1885883a 	add	r2,r3,r2
 1203544:	00000106 	br	120354c <isatty+0x38>
 1203548:	0005883a 	mov	r2,zero
 120354c:	e0bfef15 	stw	r2,-68(fp)
  
  if (fd)
 1203550:	e0bfef17 	ldw	r2,-68(fp)
 1203554:	10000e26 	beq	r2,zero,1203590 <isatty+0x7c>
    /*
     * If a device driver does not provide an fstat() function, then it is 
     * treated as a terminal device by default.
     */

    if (!fd->dev->fstat)
 1203558:	e0bfef17 	ldw	r2,-68(fp)
 120355c:	10800017 	ldw	r2,0(r2)
 1203560:	10800817 	ldw	r2,32(r2)
 1203564:	1000021e 	bne	r2,zero,1203570 <isatty+0x5c>
    {
      return 1;
 1203568:	00800044 	movi	r2,1
 120356c:	00000d06 	br	12035a4 <isatty+0x90>
     * this is called so that the device can identify itself.
     */ 

    else
    {
      fstat (file, &stat);
 1203570:	e0bff004 	addi	r2,fp,-64
 1203574:	e13fff17 	ldw	r4,-4(fp)
 1203578:	100b883a 	mov	r5,r2
 120357c:	12031440 	call	1203144 <fstat>
      return (stat.st_mode == _IFCHR) ? 1 : 0;
 1203580:	e0bff117 	ldw	r2,-60(fp)
 1203584:	10880020 	cmpeqi	r2,r2,8192
 1203588:	10803fcc 	andi	r2,r2,255
 120358c:	00000506 	br	12035a4 <isatty+0x90>
    }
  }
  else
  {
    ALT_ERRNO = EBADFD;
 1203590:	12034c40 	call	12034c4 <alt_get_errno>
 1203594:	1007883a 	mov	r3,r2
 1203598:	00801444 	movi	r2,81
 120359c:	18800015 	stw	r2,0(r3)
    return 0;
 12035a0:	0005883a 	mov	r2,zero
  }
}
 12035a4:	e037883a 	mov	sp,fp
 12035a8:	dfc00117 	ldw	ra,4(sp)
 12035ac:	df000017 	ldw	fp,0(sp)
 12035b0:	dec00204 	addi	sp,sp,8
 12035b4:	f800283a 	ret

012035b8 <alt_get_errno>:
#undef errno

extern int errno;

static ALT_INLINE int* alt_get_errno(void)
{
 12035b8:	defffe04 	addi	sp,sp,-8
 12035bc:	dfc00115 	stw	ra,4(sp)
 12035c0:	df000015 	stw	fp,0(sp)
 12035c4:	d839883a 	mov	fp,sp
  return ((alt_errno) ? alt_errno() : &errno);
 12035c8:	00804874 	movhi	r2,289
 12035cc:	10a6d704 	addi	r2,r2,-25764
 12035d0:	10800017 	ldw	r2,0(r2)
 12035d4:	10000526 	beq	r2,zero,12035ec <alt_get_errno+0x34>
 12035d8:	00804874 	movhi	r2,289
 12035dc:	10a6d704 	addi	r2,r2,-25764
 12035e0:	10800017 	ldw	r2,0(r2)
 12035e4:	103ee83a 	callr	r2
 12035e8:	00000206 	br	12035f4 <alt_get_errno+0x3c>
 12035ec:	00804874 	movhi	r2,289
 12035f0:	10a6e204 	addi	r2,r2,-25720
}
 12035f4:	e037883a 	mov	sp,fp
 12035f8:	dfc00117 	ldw	ra,4(sp)
 12035fc:	df000017 	ldw	fp,0(sp)
 1203600:	dec00204 	addi	sp,sp,8
 1203604:	f800283a 	ret

01203608 <lseek>:
 * ALT_LSEEK is mapped onto the lseek() system call in alt_syscall.h
 *
 */

off_t ALT_LSEEK (int file, off_t ptr, int dir)
{
 1203608:	defff904 	addi	sp,sp,-28
 120360c:	dfc00615 	stw	ra,24(sp)
 1203610:	df000515 	stw	fp,20(sp)
 1203614:	df000504 	addi	fp,sp,20
 1203618:	e13ffd15 	stw	r4,-12(fp)
 120361c:	e17ffe15 	stw	r5,-8(fp)
 1203620:	e1bfff15 	stw	r6,-4(fp)
  alt_fd* fd;
  off_t   rc = 0; 
 1203624:	e03ffb15 	stw	zero,-20(fp)
   * A common error case is that when the file descriptor was created, the call
   * to open() failed resulting in a negative file descriptor. This is trapped
   * below so that we don't try and process an invalid file descriptor.
   */

  fd = (file < 0) ? NULL : &alt_fd_list[file];
 1203628:	e0bffd17 	ldw	r2,-12(fp)
 120362c:	10000616 	blt	r2,zero,1203648 <lseek+0x40>
 1203630:	e0bffd17 	ldw	r2,-12(fp)
 1203634:	10c00324 	muli	r3,r2,12
 1203638:	00804874 	movhi	r2,289
 120363c:	10a21f04 	addi	r2,r2,-30596
 1203640:	1885883a 	add	r2,r3,r2
 1203644:	00000106 	br	120364c <lseek+0x44>
 1203648:	0005883a 	mov	r2,zero
 120364c:	e0bffc15 	stw	r2,-16(fp)
  
  if (fd) 
 1203650:	e0bffc17 	ldw	r2,-16(fp)
 1203654:	10001026 	beq	r2,zero,1203698 <lseek+0x90>
    /*
     * If the device driver provides an implementation of the lseek() function,
     * then call that to process the request.
     */
 
    if (fd->dev->lseek)
 1203658:	e0bffc17 	ldw	r2,-16(fp)
 120365c:	10800017 	ldw	r2,0(r2)
 1203660:	10800717 	ldw	r2,28(r2)
 1203664:	10000926 	beq	r2,zero,120368c <lseek+0x84>
    {
      rc = fd->dev->lseek(fd, ptr, dir);
 1203668:	e0bffc17 	ldw	r2,-16(fp)
 120366c:	10800017 	ldw	r2,0(r2)
 1203670:	10800717 	ldw	r2,28(r2)
 1203674:	e13ffc17 	ldw	r4,-16(fp)
 1203678:	e17ffe17 	ldw	r5,-8(fp)
 120367c:	e1bfff17 	ldw	r6,-4(fp)
 1203680:	103ee83a 	callr	r2
 1203684:	e0bffb15 	stw	r2,-20(fp)
 1203688:	00000506 	br	12036a0 <lseek+0x98>
     * Otherwise return an error.
     */

    else
    {
      rc = -ENOTSUP;
 120368c:	00bfde84 	movi	r2,-134
 1203690:	e0bffb15 	stw	r2,-20(fp)
 1203694:	00000206 	br	12036a0 <lseek+0x98>
    }
  }
  else  
  {
    rc = -EBADFD;
 1203698:	00bfebc4 	movi	r2,-81
 120369c:	e0bffb15 	stw	r2,-20(fp)
  }

  if (rc < 0)
 12036a0:	e0bffb17 	ldw	r2,-20(fp)
 12036a4:	1000070e 	bge	r2,zero,12036c4 <lseek+0xbc>
  {
    ALT_ERRNO = -rc;
 12036a8:	12035b80 	call	12035b8 <alt_get_errno>
 12036ac:	1007883a 	mov	r3,r2
 12036b0:	e0bffb17 	ldw	r2,-20(fp)
 12036b4:	0085c83a 	sub	r2,zero,r2
 12036b8:	18800015 	stw	r2,0(r3)
    rc = -1;
 12036bc:	00bfffc4 	movi	r2,-1
 12036c0:	e0bffb15 	stw	r2,-20(fp)
  }

  return rc;
 12036c4:	e0bffb17 	ldw	r2,-20(fp)
}
 12036c8:	e037883a 	mov	sp,fp
 12036cc:	dfc00117 	ldw	ra,4(sp)
 12036d0:	df000017 	ldw	fp,0(sp)
 12036d4:	dec00204 	addi	sp,sp,8
 12036d8:	f800283a 	ret

012036dc <alt_main>:
 * devices/filesystems/components in the system; and call the entry point for
 * the users application, i.e. main().
 */

void alt_main (void)
{
 12036dc:	defffd04 	addi	sp,sp,-12
 12036e0:	dfc00215 	stw	ra,8(sp)
 12036e4:	df000115 	stw	fp,4(sp)
 12036e8:	df000104 	addi	fp,sp,4
#endif

  /* ALT LOG - please see HAL/sys/alt_log_printf.h for details */
  ALT_LOG_PRINT_BOOT("[alt_main.c] Entering alt_main, calling alt_irq_init.\r\n");
  /* Initialize the interrupt controller. */
  alt_irq_init (NULL);
 12036ec:	0009883a 	mov	r4,zero
 12036f0:	1203ba00 	call	1203ba0 <alt_irq_init>

  /* Initialize the operating system */
  ALT_LOG_PRINT_BOOT("[alt_main.c] Done alt_irq_init, calling alt_os_init.\r\n");
  ALT_OS_INIT();
 12036f4:	0001883a 	nop
  ALT_LOG_PRINT_BOOT("[alt_main.c] Done OS Init, calling alt_sem_create.\r\n");
  ALT_SEM_CREATE (&alt_fd_list_lock, 1);

  /* Initialize the device drivers/software components. */
  ALT_LOG_PRINT_BOOT("[alt_main.c] Calling alt_sys_init.\r\n");
  alt_sys_init();
 12036f8:	1203bd40 	call	1203bd4 <alt_sys_init>
   * devices be present (not equal to /dev/null) and if direct drivers
   * aren't being used.
   */

    ALT_LOG_PRINT_BOOT("[alt_main.c] Redirecting IO.\r\n");
    alt_io_redirect(ALT_STDOUT, ALT_STDIN, ALT_STDERR);
 12036fc:	01004834 	movhi	r4,288
 1203700:	211ffd04 	addi	r4,r4,32756
 1203704:	01404834 	movhi	r5,288
 1203708:	295ffd04 	addi	r5,r5,32756
 120370c:	01804834 	movhi	r6,288
 1203710:	319ffd04 	addi	r6,r6,32756
 1203714:	1206b340 	call	1206b34 <alt_io_redirect>
  /* 
   * Call the C++ constructors 
   */

  ALT_LOG_PRINT_BOOT("[alt_main.c] Calling C++ constructors.\r\n");
  _do_ctors ();
 1203718:	12068680 	call	1206868 <_do_ctors>
   * redefined as _exit()). This is in the interest of reducing code footprint,
   * in that the atexit() overhead is removed when it's not needed.
   */

  ALT_LOG_PRINT_BOOT("[alt_main.c] Calling atexit.\r\n");
  atexit (_do_dtors);
 120371c:	01004834 	movhi	r4,288
 1203720:	211a3104 	addi	r4,r4,26820
 1203724:	1207ae80 	call	1207ae8 <atexit>
  ALT_LOG_PRINT_BOOT("[alt_main.c] Calling main.\r\n");

#ifdef ALT_NO_EXIT
  main (alt_argc, alt_argv, alt_envp);
#else
  result = main (alt_argc, alt_argv, alt_envp);
 1203728:	d1201617 	ldw	r4,-32680(gp)
 120372c:	d0e01717 	ldw	r3,-32676(gp)
 1203730:	d0a01817 	ldw	r2,-32672(gp)
 1203734:	180b883a 	mov	r5,r3
 1203738:	100d883a 	mov	r6,r2
 120373c:	12003680 	call	1200368 <main>
 1203740:	e0bfff15 	stw	r2,-4(fp)
  close(STDOUT_FILENO);
 1203744:	01000044 	movi	r4,1
 1203748:	1202ff80 	call	1202ff8 <close>
  exit (result);
 120374c:	e13fff17 	ldw	r4,-4(fp)
 1203750:	1207afc0 	call	1207afc <exit>

01203754 <__malloc_lock>:
 * configuration is single threaded, so there is nothing to do here. Note that 
 * this requires that malloc is never called by an interrupt service routine.
 */

void __malloc_lock ( struct _reent *_r )
{
 1203754:	defffe04 	addi	sp,sp,-8
 1203758:	df000115 	stw	fp,4(sp)
 120375c:	df000104 	addi	fp,sp,4
 1203760:	e13fff15 	stw	r4,-4(fp)
}
 1203764:	e037883a 	mov	sp,fp
 1203768:	df000017 	ldw	fp,0(sp)
 120376c:	dec00104 	addi	sp,sp,4
 1203770:	f800283a 	ret

01203774 <__malloc_unlock>:
/*
 *
 */

void __malloc_unlock ( struct _reent *_r )
{
 1203774:	defffe04 	addi	sp,sp,-8
 1203778:	df000115 	stw	fp,4(sp)
 120377c:	df000104 	addi	fp,sp,4
 1203780:	e13fff15 	stw	r4,-4(fp)
}
 1203784:	e037883a 	mov	sp,fp
 1203788:	df000017 	ldw	fp,0(sp)
 120378c:	dec00104 	addi	sp,sp,4
 1203790:	f800283a 	ret

01203794 <alt_get_errno>:
#undef errno

extern int errno;

static ALT_INLINE int* alt_get_errno(void)
{
 1203794:	defffe04 	addi	sp,sp,-8
 1203798:	dfc00115 	stw	ra,4(sp)
 120379c:	df000015 	stw	fp,0(sp)
 12037a0:	d839883a 	mov	fp,sp
  return ((alt_errno) ? alt_errno() : &errno);
 12037a4:	00804874 	movhi	r2,289
 12037a8:	10a6d704 	addi	r2,r2,-25764
 12037ac:	10800017 	ldw	r2,0(r2)
 12037b0:	10000526 	beq	r2,zero,12037c8 <alt_get_errno+0x34>
 12037b4:	00804874 	movhi	r2,289
 12037b8:	10a6d704 	addi	r2,r2,-25764
 12037bc:	10800017 	ldw	r2,0(r2)
 12037c0:	103ee83a 	callr	r2
 12037c4:	00000206 	br	12037d0 <alt_get_errno+0x3c>
 12037c8:	00804874 	movhi	r2,289
 12037cc:	10a6e204 	addi	r2,r2,-25720
}
 12037d0:	e037883a 	mov	sp,fp
 12037d4:	dfc00117 	ldw	ra,4(sp)
 12037d8:	df000017 	ldw	fp,0(sp)
 12037dc:	dec00204 	addi	sp,sp,8
 12037e0:	f800283a 	ret

012037e4 <read>:
}

#else /* !ALT_USE_DIRECT_DRIVERS */

int ALT_READ (int file, void *ptr, size_t len)
{
 12037e4:	defff904 	addi	sp,sp,-28
 12037e8:	dfc00615 	stw	ra,24(sp)
 12037ec:	df000515 	stw	fp,20(sp)
 12037f0:	df000504 	addi	fp,sp,20
 12037f4:	e13ffd15 	stw	r4,-12(fp)
 12037f8:	e17ffe15 	stw	r5,-8(fp)
 12037fc:	e1bfff15 	stw	r6,-4(fp)
   * A common error case is that when the file descriptor was created, the call
   * to open() failed resulting in a negative file descriptor. This is trapped
   * below so that we don't try and process an invalid file descriptor.
   */

  fd = (file < 0) ? NULL : &alt_fd_list[file];
 1203800:	e0bffd17 	ldw	r2,-12(fp)
 1203804:	10000616 	blt	r2,zero,1203820 <read+0x3c>
 1203808:	e0bffd17 	ldw	r2,-12(fp)
 120380c:	10c00324 	muli	r3,r2,12
 1203810:	00804874 	movhi	r2,289
 1203814:	10a21f04 	addi	r2,r2,-30596
 1203818:	1885883a 	add	r2,r3,r2
 120381c:	00000106 	br	1203824 <read+0x40>
 1203820:	0005883a 	mov	r2,zero
 1203824:	e0bffb15 	stw	r2,-20(fp)
  
  if (fd)
 1203828:	e0bffb17 	ldw	r2,-20(fp)
 120382c:	10002226 	beq	r2,zero,12038b8 <read+0xd4>
     * If the file has not been opened with read access, or if the driver does
     * not provide an implementation of read(), generate an error. Otherwise
     * call the drivers read() function to process the request.
     */

    if (((fd->fd_flags & O_ACCMODE) != O_WRONLY) && 
 1203830:	e0bffb17 	ldw	r2,-20(fp)
 1203834:	10800217 	ldw	r2,8(r2)
 1203838:	108000cc 	andi	r2,r2,3
 120383c:	10800060 	cmpeqi	r2,r2,1
 1203840:	1000181e 	bne	r2,zero,12038a4 <read+0xc0>
        (fd->dev->read))
 1203844:	e0bffb17 	ldw	r2,-20(fp)
 1203848:	10800017 	ldw	r2,0(r2)
 120384c:	10800517 	ldw	r2,20(r2)
     * If the file has not been opened with read access, or if the driver does
     * not provide an implementation of read(), generate an error. Otherwise
     * call the drivers read() function to process the request.
     */

    if (((fd->fd_flags & O_ACCMODE) != O_WRONLY) && 
 1203850:	10001426 	beq	r2,zero,12038a4 <read+0xc0>
        (fd->dev->read))
      {
        if ((rval = fd->dev->read(fd, ptr, len)) < 0)
 1203854:	e0bffb17 	ldw	r2,-20(fp)
 1203858:	10800017 	ldw	r2,0(r2)
 120385c:	10800517 	ldw	r2,20(r2)
 1203860:	e0ffff17 	ldw	r3,-4(fp)
 1203864:	e13ffb17 	ldw	r4,-20(fp)
 1203868:	e17ffe17 	ldw	r5,-8(fp)
 120386c:	180d883a 	mov	r6,r3
 1203870:	103ee83a 	callr	r2
 1203874:	e0bffc15 	stw	r2,-16(fp)
 1203878:	e0bffc17 	ldw	r2,-16(fp)
 120387c:	1000070e 	bge	r2,zero,120389c <read+0xb8>
        {
          ALT_ERRNO = -rval;
 1203880:	12037940 	call	1203794 <alt_get_errno>
 1203884:	1007883a 	mov	r3,r2
 1203888:	e0bffc17 	ldw	r2,-16(fp)
 120388c:	0085c83a 	sub	r2,zero,r2
 1203890:	18800015 	stw	r2,0(r3)
          return -1;
 1203894:	00bfffc4 	movi	r2,-1
 1203898:	00000c06 	br	12038cc <read+0xe8>
        }
        return rval;
 120389c:	e0bffc17 	ldw	r2,-16(fp)
 12038a0:	00000a06 	br	12038cc <read+0xe8>
      }
      else
      {
        ALT_ERRNO = EACCES;
 12038a4:	12037940 	call	1203794 <alt_get_errno>
 12038a8:	1007883a 	mov	r3,r2
 12038ac:	00800344 	movi	r2,13
 12038b0:	18800015 	stw	r2,0(r3)
 12038b4:	00000406 	br	12038c8 <read+0xe4>
      }
    }
  else
  {
    ALT_ERRNO = EBADFD;
 12038b8:	12037940 	call	1203794 <alt_get_errno>
 12038bc:	1007883a 	mov	r3,r2
 12038c0:	00801444 	movi	r2,81
 12038c4:	18800015 	stw	r2,0(r3)
  }
  return -1;
 12038c8:	00bfffc4 	movi	r2,-1
}
 12038cc:	e037883a 	mov	sp,fp
 12038d0:	dfc00117 	ldw	ra,4(sp)
 12038d4:	df000017 	ldw	fp,0(sp)
 12038d8:	dec00204 	addi	sp,sp,8
 12038dc:	f800283a 	ret

012038e0 <alt_release_fd>:
 * File descriptors correcponding to standard in, standard out and standard 
 * error cannont be released backed to the pool. They are always reserved.
 */

void alt_release_fd (int fd)
{
 12038e0:	defffe04 	addi	sp,sp,-8
 12038e4:	df000115 	stw	fp,4(sp)
 12038e8:	df000104 	addi	fp,sp,4
 12038ec:	e13fff15 	stw	r4,-4(fp)
  if (fd > 2)
 12038f0:	e0bfff17 	ldw	r2,-4(fp)
 12038f4:	108000d0 	cmplti	r2,r2,3
 12038f8:	10000d1e 	bne	r2,zero,1203930 <alt_release_fd+0x50>
  {
    alt_fd_list[fd].fd_flags = 0;
 12038fc:	00804874 	movhi	r2,289
 1203900:	10a21f04 	addi	r2,r2,-30596
 1203904:	e0ffff17 	ldw	r3,-4(fp)
 1203908:	18c00324 	muli	r3,r3,12
 120390c:	10c5883a 	add	r2,r2,r3
 1203910:	10800204 	addi	r2,r2,8
 1203914:	10000015 	stw	zero,0(r2)
    alt_fd_list[fd].dev      = 0;
 1203918:	00804874 	movhi	r2,289
 120391c:	10a21f04 	addi	r2,r2,-30596
 1203920:	e0ffff17 	ldw	r3,-4(fp)
 1203924:	18c00324 	muli	r3,r3,12
 1203928:	10c5883a 	add	r2,r2,r3
 120392c:	10000015 	stw	zero,0(r2)
  }
}
 1203930:	e037883a 	mov	sp,fp
 1203934:	df000017 	ldw	fp,0(sp)
 1203938:	dec00104 	addi	sp,sp,4
 120393c:	f800283a 	ret

01203940 <sbrk>:
#endif
 
caddr_t ALT_SBRK (int incr) __attribute__ ((no_instrument_function ));

caddr_t ALT_SBRK (int incr)
{ 
 1203940:	defff904 	addi	sp,sp,-28
 1203944:	df000615 	stw	fp,24(sp)
 1203948:	df000604 	addi	fp,sp,24
 120394c:	e13fff15 	stw	r4,-4(fp)
static ALT_INLINE alt_irq_context ALT_ALWAYS_INLINE 
       alt_irq_disable_all (void)
{
  alt_irq_context context;

  NIOS2_READ_STATUS (context);
 1203950:	0005303a 	rdctl	r2,status
 1203954:	e0bffc15 	stw	r2,-16(fp)

  NIOS2_WRITE_STATUS (context & ~NIOS2_STATUS_PIE_MSK);
 1203958:	e0fffc17 	ldw	r3,-16(fp)
 120395c:	00bfff84 	movi	r2,-2
 1203960:	1884703a 	and	r2,r3,r2
 1203964:	1001703a 	wrctl	status,r2
  
  return context;
 1203968:	e0bffc17 	ldw	r2,-16(fp)
  alt_irq_context context;
  char *prev_heap_end; 

  context = alt_irq_disable_all();
 120396c:	e0bffa15 	stw	r2,-24(fp)

  /* Always return data aligned on a word boundary */
  heap_end = (char *)(((unsigned int)heap_end + 3) & ~3);
 1203970:	d0a00b17 	ldw	r2,-32724(gp)
 1203974:	10c000c4 	addi	r3,r2,3
 1203978:	00bfff04 	movi	r2,-4
 120397c:	1884703a 	and	r2,r3,r2
 1203980:	d0a00b15 	stw	r2,-32724(gp)
  if (((heap_end + incr) - __alt_heap_start) > ALT_MAX_HEAP_BYTES) {
    alt_irq_enable_all(context);
    return (caddr_t)-1;
  }
#else
  if ((heap_end + incr) > __alt_heap_limit) {
 1203984:	d0e00b17 	ldw	r3,-32724(gp)
 1203988:	e0bfff17 	ldw	r2,-4(fp)
 120398c:	1887883a 	add	r3,r3,r2
 1203990:	00805034 	movhi	r2,320
 1203994:	10800004 	addi	r2,r2,0
 1203998:	10c0062e 	bgeu	r2,r3,12039b4 <sbrk+0x74>
 120399c:	e0bffa17 	ldw	r2,-24(fp)
 12039a0:	e0bffd15 	stw	r2,-12(fp)
  status &= ~NIOS2_STATUS_PIE_MSK;
  status |= (context & NIOS2_STATUS_PIE_MSK);
  
  NIOS2_WRITE_STATUS (status);
#else
  NIOS2_WRITE_STATUS (context);
 12039a4:	e0bffd17 	ldw	r2,-12(fp)
 12039a8:	1001703a 	wrctl	status,r2
    alt_irq_enable_all(context);
    return (caddr_t)-1;
 12039ac:	00bfffc4 	movi	r2,-1
 12039b0:	00000b06 	br	12039e0 <sbrk+0xa0>
  }
#endif

  prev_heap_end = heap_end; 
 12039b4:	d0a00b17 	ldw	r2,-32724(gp)
 12039b8:	e0bffb15 	stw	r2,-20(fp)
  heap_end += incr; 
 12039bc:	d0e00b17 	ldw	r3,-32724(gp)
 12039c0:	e0bfff17 	ldw	r2,-4(fp)
 12039c4:	1885883a 	add	r2,r3,r2
 12039c8:	d0a00b15 	stw	r2,-32724(gp)
 12039cc:	e0bffa17 	ldw	r2,-24(fp)
 12039d0:	e0bffe15 	stw	r2,-8(fp)
 12039d4:	e0bffe17 	ldw	r2,-8(fp)
 12039d8:	1001703a 	wrctl	status,r2

#endif

  alt_irq_enable_all(context);

  return (caddr_t) prev_heap_end; 
 12039dc:	e0bffb17 	ldw	r2,-20(fp)
} 
 12039e0:	e037883a 	mov	sp,fp
 12039e4:	df000017 	ldw	fp,0(sp)
 12039e8:	dec00104 	addi	sp,sp,4
 12039ec:	f800283a 	ret

012039f0 <usleep>:
#if defined (__GNUC__) && __GNUC__ >= 4
int ALT_USLEEP (useconds_t us)
#else
unsigned int ALT_USLEEP (unsigned int us)
#endif
{
 12039f0:	defffd04 	addi	sp,sp,-12
 12039f4:	dfc00215 	stw	ra,8(sp)
 12039f8:	df000115 	stw	fp,4(sp)
 12039fc:	df000104 	addi	fp,sp,4
 1203a00:	e13fff15 	stw	r4,-4(fp)
  return alt_busy_sleep(us);
 1203a04:	e13fff17 	ldw	r4,-4(fp)
 1203a08:	12065a80 	call	12065a8 <alt_busy_sleep>
}
 1203a0c:	e037883a 	mov	sp,fp
 1203a10:	dfc00117 	ldw	ra,4(sp)
 1203a14:	df000017 	ldw	fp,0(sp)
 1203a18:	dec00204 	addi	sp,sp,8
 1203a1c:	f800283a 	ret

01203a20 <alt_get_errno>:
#undef errno

extern int errno;

static ALT_INLINE int* alt_get_errno(void)
{
 1203a20:	defffe04 	addi	sp,sp,-8
 1203a24:	dfc00115 	stw	ra,4(sp)
 1203a28:	df000015 	stw	fp,0(sp)
 1203a2c:	d839883a 	mov	fp,sp
  return ((alt_errno) ? alt_errno() : &errno);
 1203a30:	00804874 	movhi	r2,289
 1203a34:	10a6d704 	addi	r2,r2,-25764
 1203a38:	10800017 	ldw	r2,0(r2)
 1203a3c:	10000526 	beq	r2,zero,1203a54 <alt_get_errno+0x34>
 1203a40:	00804874 	movhi	r2,289
 1203a44:	10a6d704 	addi	r2,r2,-25764
 1203a48:	10800017 	ldw	r2,0(r2)
 1203a4c:	103ee83a 	callr	r2
 1203a50:	00000206 	br	1203a5c <alt_get_errno+0x3c>
 1203a54:	00804874 	movhi	r2,289
 1203a58:	10a6e204 	addi	r2,r2,-25720
}
 1203a5c:	e037883a 	mov	sp,fp
 1203a60:	dfc00117 	ldw	ra,4(sp)
 1203a64:	df000017 	ldw	fp,0(sp)
 1203a68:	dec00204 	addi	sp,sp,8
 1203a6c:	f800283a 	ret

01203a70 <write>:
}

#else /* !ALT_USE_DIRECT_DRIVERS */

int ALT_WRITE (int file, const void *ptr, size_t len)
{
 1203a70:	defff904 	addi	sp,sp,-28
 1203a74:	dfc00615 	stw	ra,24(sp)
 1203a78:	df000515 	stw	fp,20(sp)
 1203a7c:	df000504 	addi	fp,sp,20
 1203a80:	e13ffd15 	stw	r4,-12(fp)
 1203a84:	e17ffe15 	stw	r5,-8(fp)
 1203a88:	e1bfff15 	stw	r6,-4(fp)
   * A common error case is that when the file descriptor was created, the call
   * to open() failed resulting in a negative file descriptor. This is trapped
   * below so that we don't try and process an invalid file descriptor.
   */

  fd = (file < 0) ? NULL : &alt_fd_list[file];
 1203a8c:	e0bffd17 	ldw	r2,-12(fp)
 1203a90:	10000616 	blt	r2,zero,1203aac <write+0x3c>
 1203a94:	e0bffd17 	ldw	r2,-12(fp)
 1203a98:	10c00324 	muli	r3,r2,12
 1203a9c:	00804874 	movhi	r2,289
 1203aa0:	10a21f04 	addi	r2,r2,-30596
 1203aa4:	1885883a 	add	r2,r3,r2
 1203aa8:	00000106 	br	1203ab0 <write+0x40>
 1203aac:	0005883a 	mov	r2,zero
 1203ab0:	e0bffb15 	stw	r2,-20(fp)
  
  if (fd)
 1203ab4:	e0bffb17 	ldw	r2,-20(fp)
 1203ab8:	10002126 	beq	r2,zero,1203b40 <write+0xd0>
     * If the file has not been opened with write access, or if the driver does
     * not provide an implementation of write(), generate an error. Otherwise
     * call the drivers write() function to process the request.
     */

    if (((fd->fd_flags & O_ACCMODE) != O_RDONLY) && fd->dev->write)
 1203abc:	e0bffb17 	ldw	r2,-20(fp)
 1203ac0:	10800217 	ldw	r2,8(r2)
 1203ac4:	108000cc 	andi	r2,r2,3
 1203ac8:	10001826 	beq	r2,zero,1203b2c <write+0xbc>
 1203acc:	e0bffb17 	ldw	r2,-20(fp)
 1203ad0:	10800017 	ldw	r2,0(r2)
 1203ad4:	10800617 	ldw	r2,24(r2)
 1203ad8:	10001426 	beq	r2,zero,1203b2c <write+0xbc>
    {
      
      /* ALT_LOG - see altera_hal/HAL/inc/sys/alt_log_printf.h */
      ALT_LOG_WRITE_FUNCTION(ptr,len);

      if ((rval = fd->dev->write(fd, ptr, len)) < 0)
 1203adc:	e0bffb17 	ldw	r2,-20(fp)
 1203ae0:	10800017 	ldw	r2,0(r2)
 1203ae4:	10800617 	ldw	r2,24(r2)
 1203ae8:	e0ffff17 	ldw	r3,-4(fp)
 1203aec:	e13ffb17 	ldw	r4,-20(fp)
 1203af0:	e17ffe17 	ldw	r5,-8(fp)
 1203af4:	180d883a 	mov	r6,r3
 1203af8:	103ee83a 	callr	r2
 1203afc:	e0bffc15 	stw	r2,-16(fp)
 1203b00:	e0bffc17 	ldw	r2,-16(fp)
 1203b04:	1000070e 	bge	r2,zero,1203b24 <write+0xb4>
      {
        ALT_ERRNO = -rval;
 1203b08:	1203a200 	call	1203a20 <alt_get_errno>
 1203b0c:	1007883a 	mov	r3,r2
 1203b10:	e0bffc17 	ldw	r2,-16(fp)
 1203b14:	0085c83a 	sub	r2,zero,r2
 1203b18:	18800015 	stw	r2,0(r3)
        return -1;
 1203b1c:	00bfffc4 	movi	r2,-1
 1203b20:	00000c06 	br	1203b54 <write+0xe4>
      }
      return rval;
 1203b24:	e0bffc17 	ldw	r2,-16(fp)
 1203b28:	00000a06 	br	1203b54 <write+0xe4>
    }
    else
    {
      ALT_ERRNO = EACCES;
 1203b2c:	1203a200 	call	1203a20 <alt_get_errno>
 1203b30:	1007883a 	mov	r3,r2
 1203b34:	00800344 	movi	r2,13
 1203b38:	18800015 	stw	r2,0(r3)
 1203b3c:	00000406 	br	1203b50 <write+0xe0>
    }
  }
  else  
  {
    ALT_ERRNO = EBADFD;
 1203b40:	1203a200 	call	1203a20 <alt_get_errno>
 1203b44:	1007883a 	mov	r3,r2
 1203b48:	00801444 	movi	r2,81
 1203b4c:	18800015 	stw	r2,0(r3)
  }
  return -1;
 1203b50:	00bfffc4 	movi	r2,-1
}
 1203b54:	e037883a 	mov	sp,fp
 1203b58:	dfc00117 	ldw	ra,4(sp)
 1203b5c:	df000017 	ldw	fp,0(sp)
 1203b60:	dec00204 	addi	sp,sp,8
 1203b64:	f800283a 	ret

01203b68 <alt_dev_reg>:
 */

extern int alt_fs_reg  (alt_dev* dev); 

static ALT_INLINE int alt_dev_reg (alt_dev* dev)
{
 1203b68:	defffd04 	addi	sp,sp,-12
 1203b6c:	dfc00215 	stw	ra,8(sp)
 1203b70:	df000115 	stw	fp,4(sp)
 1203b74:	df000104 	addi	fp,sp,4
 1203b78:	e13fff15 	stw	r4,-4(fp)
  extern alt_llist alt_dev_list;

  return alt_dev_llist_insert ((alt_dev_llist*) dev, &alt_dev_list);
 1203b7c:	e13fff17 	ldw	r4,-4(fp)
 1203b80:	01404874 	movhi	r5,289
 1203b84:	2966d404 	addi	r5,r5,-25776
 1203b88:	12067c40 	call	12067c4 <alt_dev_llist_insert>
}
 1203b8c:	e037883a 	mov	sp,fp
 1203b90:	dfc00117 	ldw	ra,4(sp)
 1203b94:	df000017 	ldw	fp,0(sp)
 1203b98:	dec00204 	addi	sp,sp,8
 1203b9c:	f800283a 	ret

01203ba0 <alt_irq_init>:
 * The "base" parameter is ignored and only
 * present for backwards-compatibility.
 */

void alt_irq_init ( const void* base )
{
 1203ba0:	defffd04 	addi	sp,sp,-12
 1203ba4:	dfc00215 	stw	ra,8(sp)
 1203ba8:	df000115 	stw	fp,4(sp)
 1203bac:	df000104 	addi	fp,sp,4
 1203bb0:	e13fff15 	stw	r4,-4(fp)
    ALTERA_NIOS2_GEN2_IRQ_INIT ( CPU, cpu);
 1203bb4:	1206fbc0 	call	1206fbc <altera_nios2_gen2_irq_init>
 * alt_irq_cpu_enable_interrupts() enables the CPU to start taking interrupts.
 */
static ALT_INLINE void ALT_ALWAYS_INLINE 
       alt_irq_cpu_enable_interrupts (void)
{
    NIOS2_WRITE_STATUS(NIOS2_STATUS_PIE_MSK
 1203bb8:	00800044 	movi	r2,1
 1203bbc:	1001703a 	wrctl	status,r2
    alt_irq_cpu_enable_interrupts();
}
 1203bc0:	e037883a 	mov	sp,fp
 1203bc4:	dfc00117 	ldw	ra,4(sp)
 1203bc8:	df000017 	ldw	fp,0(sp)
 1203bcc:	dec00204 	addi	sp,sp,8
 1203bd0:	f800283a 	ret

01203bd4 <alt_sys_init>:
 * Initialize the non-interrupt controller devices.
 * Called after alt_irq_init().
 */

void alt_sys_init( void )
{
 1203bd4:	defffe04 	addi	sp,sp,-8
 1203bd8:	dfc00115 	stw	ra,4(sp)
 1203bdc:	df000015 	stw	fp,0(sp)
 1203be0:	d839883a 	mov	fp,sp
    ALTERA_AVALON_TIMER_INIT ( HIGH_RES_TIMER, high_res_timer);
    ALTERA_AVALON_TIMER_INIT ( SYS_CLK_TIMER, sys_clk_timer);
 1203be4:	01005034 	movhi	r4,320
 1203be8:	21040804 	addi	r4,r4,4128
 1203bec:	000b883a 	mov	r5,zero
 1203bf0:	000d883a 	mov	r6,zero
 1203bf4:	01c0fa04 	movi	r7,1000
 1203bf8:	12063e00 	call	12063e0 <alt_avalon_timer_sc_init>
    ALTERA_AVALON_CFI_FLASH_INIT ( EXT_FLASH_CTL, ext_flash_ctl);
 1203bfc:	01004874 	movhi	r4,289
 1203c00:	21227f04 	addi	r4,r4,-30212
 1203c04:	1203c780 	call	1203c78 <alt_flash_cfi_init>
    ALTERA_AVALON_JTAG_UART_INIT ( JTAG_UART, jtag_uart);
 1203c08:	01004874 	movhi	r4,289
 1203c0c:	2122c004 	addi	r4,r4,-29952
 1203c10:	000b883a 	mov	r5,zero
 1203c14:	01800044 	movi	r6,1
 1203c18:	1205a840 	call	1205a84 <altera_avalon_jtag_uart_init>
 1203c1c:	01004874 	movhi	r4,289
 1203c20:	2122b604 	addi	r4,r4,-29992
 1203c24:	1203b680 	call	1203b68 <alt_dev_reg>
    ALTERA_AVALON_SYSID_QSYS_INIT ( SYSID, sysid);
 1203c28:	0001883a 	nop
}
 1203c2c:	e037883a 	mov	sp,fp
 1203c30:	dfc00117 	ldw	ra,4(sp)
 1203c34:	df000017 	ldw	fp,0(sp)
 1203c38:	dec00204 	addi	sp,sp,8
 1203c3c:	f800283a 	ret

01203c40 <alt_flash_device_register>:

typedef struct alt_flash_dev alt_flash_dev; 
typedef alt_flash_dev alt_flash_fd;

static ALT_INLINE int alt_flash_device_register( alt_flash_fd* fd)
{
 1203c40:	defffd04 	addi	sp,sp,-12
 1203c44:	dfc00215 	stw	ra,8(sp)
 1203c48:	df000115 	stw	fp,4(sp)
 1203c4c:	df000104 	addi	fp,sp,4
 1203c50:	e13fff15 	stw	r4,-4(fp)
  extern alt_llist alt_flash_dev_list;

  return alt_dev_llist_insert ((alt_dev_llist*) fd, &alt_flash_dev_list);
 1203c54:	e13fff17 	ldw	r4,-4(fp)
 1203c58:	01404874 	movhi	r5,289
 1203c5c:	2966da04 	addi	r5,r5,-25752
 1203c60:	12067c40 	call	12067c4 <alt_dev_llist_insert>
}
 1203c64:	e037883a 	mov	sp,fp
 1203c68:	dfc00117 	ldw	ra,4(sp)
 1203c6c:	df000017 	ldw	fp,0(sp)
 1203c70:	dec00204 	addi	sp,sp,8
 1203c74:	f800283a 	ret

01203c78 <alt_flash_cfi_init>:
 * Read the CFI table and fill out the alt_flash_cfi_dev structure with all the 
 * information we need to program the flash.
 * 
 */
int alt_flash_cfi_init( alt_flash_cfi_dev* flash  )
{
 1203c78:	defffc04 	addi	sp,sp,-16
 1203c7c:	dfc00315 	stw	ra,12(sp)
 1203c80:	df000215 	stw	fp,8(sp)
 1203c84:	df000204 	addi	fp,sp,8
 1203c88:	e13fff15 	stw	r4,-4(fp)
  int ret_code = 0;
 1203c8c:	e03ffe15 	stw	zero,-8(fp)
 
  ret_code = alt_read_cfi_width( flash );
 1203c90:	e13fff17 	ldw	r4,-4(fp)
 1203c94:	12050c40 	call	12050c4 <alt_read_cfi_width>
 1203c98:	e0bffe15 	stw	r2,-8(fp)
  
  if (!ret_code)
 1203c9c:	e0bffe17 	ldw	r2,-8(fp)
 1203ca0:	1000031e 	bne	r2,zero,1203cb0 <alt_flash_cfi_init+0x38>
    ret_code = alt_set_flash_width_func( flash );
 1203ca4:	e13fff17 	ldw	r4,-4(fp)
 1203ca8:	12048240 	call	1204824 <alt_set_flash_width_func>
 1203cac:	e0bffe15 	stw	r2,-8(fp)
  
  if (!ret_code)
 1203cb0:	e0bffe17 	ldw	r2,-8(fp)
 1203cb4:	1000031e 	bne	r2,zero,1203cc4 <alt_flash_cfi_init+0x4c>
    ret_code = alt_read_cfi_table( flash );
 1203cb8:	e13fff17 	ldw	r4,-4(fp)
 1203cbc:	1204afc0 	call	1204afc <alt_read_cfi_table>
 1203cc0:	e0bffe15 	stw	r2,-8(fp)

  if (!ret_code) 
 1203cc4:	e0bffe17 	ldw	r2,-8(fp)
 1203cc8:	1000031e 	bne	r2,zero,1203cd8 <alt_flash_cfi_init+0x60>
    ret_code = alt_set_flash_algorithm_func( flash);
 1203ccc:	e13fff17 	ldw	r4,-4(fp)
 1203cd0:	12049e00 	call	12049e0 <alt_set_flash_algorithm_func>
 1203cd4:	e0bffe15 	stw	r2,-8(fp)

  /*
  *  Register this device as a valid flash device type
  */ 
  if (!ret_code)
 1203cd8:	e0bffe17 	ldw	r2,-8(fp)
 1203cdc:	1000041e 	bne	r2,zero,1203cf0 <alt_flash_cfi_init+0x78>
    ret_code = alt_flash_device_register(&(flash->dev));
 1203ce0:	e0bfff17 	ldw	r2,-4(fp)
 1203ce4:	1009883a 	mov	r4,r2
 1203ce8:	1203c400 	call	1203c40 <alt_flash_device_register>
 1203cec:	e0bffe15 	stw	r2,-8(fp)
 
  return ret_code;
 1203cf0:	e0bffe17 	ldw	r2,-8(fp)
}
 1203cf4:	e037883a 	mov	sp,fp
 1203cf8:	dfc00117 	ldw	ra,4(sp)
 1203cfc:	df000017 	ldw	fp,0(sp)
 1203d00:	dec00204 	addi	sp,sp,8
 1203d04:	f800283a 	ret

01203d08 <alt_flash_cfi_write>:
 * large buffer to tie up in our programming library, when not all users will 
 * want that functionality.
 */
 int alt_flash_cfi_write( alt_flash_dev* flash_info, int offset, 
                          const void* src_addr, int length )
 {
 1203d08:	defff104 	addi	sp,sp,-60
 1203d0c:	dfc00e15 	stw	ra,56(sp)
 1203d10:	df000d15 	stw	fp,52(sp)
 1203d14:	df000d04 	addi	fp,sp,52
 1203d18:	e13ffc15 	stw	r4,-16(fp)
 1203d1c:	e17ffd15 	stw	r5,-12(fp)
 1203d20:	e1bffe15 	stw	r6,-8(fp)
 1203d24:	e1ffff15 	stw	r7,-4(fp)
  int         ret_code = 0;
 1203d28:	e03ff415 	stw	zero,-48(fp)
  int         i,j;
  int         data_to_write;
  int         full_length = length;
 1203d2c:	e0bfff17 	ldw	r2,-4(fp)
 1203d30:	e0bff815 	stw	r2,-32(fp)
  int         current_offset;
  int         start_offset = offset;
 1203d34:	e0bffd17 	ldw	r2,-12(fp)
 1203d38:	e0bff915 	stw	r2,-28(fp)
  alt_flash_cfi_dev* flash = (alt_flash_cfi_dev*)flash_info;
 1203d3c:	e0bffc17 	ldw	r2,-16(fp)
 1203d40:	e0bffa15 	stw	r2,-24(fp)

  /*
   * First and foremost which sectors are affected?
   */   
  for(i=0;i<flash->dev.number_of_regions;i++)
 1203d44:	e03ff515 	stw	zero,-44(fp)
 1203d48:	00008706 	br	1203f68 <alt_flash_cfi_write+0x260>
  {
    /* Is it in this erase block region?*/
    if((offset >= flash->dev.region_info[i].offset) &&
 1203d4c:	e0fffa17 	ldw	r3,-24(fp)
 1203d50:	e0bff517 	ldw	r2,-44(fp)
 1203d54:	1004913a 	slli	r2,r2,4
 1203d58:	1885883a 	add	r2,r3,r2
 1203d5c:	10800d04 	addi	r2,r2,52
 1203d60:	10800017 	ldw	r2,0(r2)
 1203d64:	e0fffd17 	ldw	r3,-12(fp)
 1203d68:	18807c16 	blt	r3,r2,1203f5c <alt_flash_cfi_write+0x254>
      (offset < (flash->dev.region_info[i].offset + 
 1203d6c:	e0fffa17 	ldw	r3,-24(fp)
 1203d70:	e0bff517 	ldw	r2,-44(fp)
 1203d74:	1004913a 	slli	r2,r2,4
 1203d78:	1885883a 	add	r2,r3,r2
 1203d7c:	10800d04 	addi	r2,r2,52
 1203d80:	10c00017 	ldw	r3,0(r2)
      flash->dev.region_info[i].region_size)))
 1203d84:	e13ffa17 	ldw	r4,-24(fp)
 1203d88:	e0bff517 	ldw	r2,-44(fp)
 1203d8c:	1004913a 	slli	r2,r2,4
 1203d90:	2085883a 	add	r2,r4,r2
 1203d94:	10800e04 	addi	r2,r2,56
 1203d98:	10800017 	ldw	r2,0(r2)
   */   
  for(i=0;i<flash->dev.number_of_regions;i++)
  {
    /* Is it in this erase block region?*/
    if((offset >= flash->dev.region_info[i].offset) &&
      (offset < (flash->dev.region_info[i].offset + 
 1203d9c:	1885883a 	add	r2,r3,r2
   * First and foremost which sectors are affected?
   */   
  for(i=0;i<flash->dev.number_of_regions;i++)
  {
    /* Is it in this erase block region?*/
    if((offset >= flash->dev.region_info[i].offset) &&
 1203da0:	e0fffd17 	ldw	r3,-12(fp)
 1203da4:	18806d0e 	bge	r3,r2,1203f5c <alt_flash_cfi_write+0x254>
      (offset < (flash->dev.region_info[i].offset + 
      flash->dev.region_info[i].region_size)))
    {
      current_offset = flash->dev.region_info[i].offset;
 1203da8:	e0fffa17 	ldw	r3,-24(fp)
 1203dac:	e0bff517 	ldw	r2,-44(fp)
 1203db0:	1004913a 	slli	r2,r2,4
 1203db4:	1885883a 	add	r2,r3,r2
 1203db8:	10800d04 	addi	r2,r2,52
 1203dbc:	10800017 	ldw	r2,0(r2)
 1203dc0:	e0bff715 	stw	r2,-36(fp)

      for(j=0;j<flash->dev.region_info[i].number_of_blocks;j++)
 1203dc4:	e03ff615 	stw	zero,-40(fp)
 1203dc8:	00005c06 	br	1203f3c <alt_flash_cfi_write+0x234>
      {
        if ((offset >= current_offset ) && 
 1203dcc:	e0fffd17 	ldw	r3,-12(fp)
 1203dd0:	e0bff717 	ldw	r2,-36(fp)
 1203dd4:	18804d16 	blt	r3,r2,1203f0c <alt_flash_cfi_write+0x204>
            (offset < (current_offset + 
            flash->dev.region_info[i].block_size)))
 1203dd8:	e0fffa17 	ldw	r3,-24(fp)
 1203ddc:	e0bff517 	ldw	r2,-44(fp)
 1203de0:	10800104 	addi	r2,r2,4
 1203de4:	1004913a 	slli	r2,r2,4
 1203de8:	1885883a 	add	r2,r3,r2
 1203dec:	10c00017 	ldw	r3,0(r2)
      current_offset = flash->dev.region_info[i].offset;

      for(j=0;j<flash->dev.region_info[i].number_of_blocks;j++)
      {
        if ((offset >= current_offset ) && 
            (offset < (current_offset + 
 1203df0:	e0bff717 	ldw	r2,-36(fp)
 1203df4:	1885883a 	add	r2,r3,r2
    {
      current_offset = flash->dev.region_info[i].offset;

      for(j=0;j<flash->dev.region_info[i].number_of_blocks;j++)
      {
        if ((offset >= current_offset ) && 
 1203df8:	e0fffd17 	ldw	r3,-12(fp)
 1203dfc:	1880430e 	bge	r3,r2,1203f0c <alt_flash_cfi_write+0x204>
        {
          /*
           * Check if the contents of the block are different
           * from the data we wish to put there
           */
          data_to_write = ( current_offset + flash->dev.region_info[i].block_size 
 1203e00:	e0fffa17 	ldw	r3,-24(fp)
 1203e04:	e0bff517 	ldw	r2,-44(fp)
 1203e08:	10800104 	addi	r2,r2,4
 1203e0c:	1004913a 	slli	r2,r2,4
 1203e10:	1885883a 	add	r2,r3,r2
 1203e14:	10c00017 	ldw	r3,0(r2)
 1203e18:	e0bff717 	ldw	r2,-36(fp)
 1203e1c:	1887883a 	add	r3,r3,r2
 1203e20:	e0bffd17 	ldw	r2,-12(fp)
 1203e24:	1885c83a 	sub	r2,r3,r2
 1203e28:	e0bffb15 	stw	r2,-20(fp)
                            - offset); 
          data_to_write = MIN(data_to_write, length);
 1203e2c:	e0fffb17 	ldw	r3,-20(fp)
 1203e30:	e0bfff17 	ldw	r2,-4(fp)
 1203e34:	1880010e 	bge	r3,r2,1203e3c <alt_flash_cfi_write+0x134>
 1203e38:	1805883a 	mov	r2,r3
 1203e3c:	e0bffb15 	stw	r2,-20(fp)
          if(memcmp(src_addr, 
                    (alt_u8*)flash->dev.base_addr+offset,
 1203e40:	e0bffa17 	ldw	r2,-24(fp)
 1203e44:	10c00a17 	ldw	r3,40(r2)
           * from the data we wish to put there
           */
          data_to_write = ( current_offset + flash->dev.region_info[i].block_size 
                            - offset); 
          data_to_write = MIN(data_to_write, length);
          if(memcmp(src_addr, 
 1203e48:	e0bffd17 	ldw	r2,-12(fp)
 1203e4c:	1887883a 	add	r3,r3,r2
 1203e50:	e0bffb17 	ldw	r2,-20(fp)
 1203e54:	e13ffe17 	ldw	r4,-8(fp)
 1203e58:	180b883a 	mov	r5,r3
 1203e5c:	100d883a 	mov	r6,r2
 1203e60:	1207b340 	call	1207b34 <memcmp>
 1203e64:	10001326 	beq	r2,zero,1203eb4 <alt_flash_cfi_write+0x1ac>
                    (alt_u8*)flash->dev.base_addr+offset,
                    data_to_write))
          {
            ret_code = (*flash->dev.erase_block)( &flash->dev, current_offset);
 1203e68:	e0bffa17 	ldw	r2,-24(fp)
 1203e6c:	10800817 	ldw	r2,32(r2)
 1203e70:	e0fffa17 	ldw	r3,-24(fp)
 1203e74:	1809883a 	mov	r4,r3
 1203e78:	e17ff717 	ldw	r5,-36(fp)
 1203e7c:	103ee83a 	callr	r2
 1203e80:	e0bff415 	stw	r2,-48(fp)

            if (!ret_code)
 1203e84:	e0bff417 	ldw	r2,-48(fp)
 1203e88:	10000a1e 	bne	r2,zero,1203eb4 <alt_flash_cfi_write+0x1ac>
            {
              ret_code = (*flash->dev.write_block)( 
 1203e8c:	e0bffa17 	ldw	r2,-24(fp)
 1203e90:	10800917 	ldw	r2,36(r2)
 1203e94:	e13ffa17 	ldw	r4,-24(fp)
 1203e98:	e0fffb17 	ldw	r3,-20(fp)
 1203e9c:	d8c00015 	stw	r3,0(sp)
 1203ea0:	e17ff717 	ldw	r5,-36(fp)
 1203ea4:	e1bffd17 	ldw	r6,-12(fp)
 1203ea8:	e1fffe17 	ldw	r7,-8(fp)
 1203eac:	103ee83a 	callr	r2
 1203eb0:	e0bff415 	stw	r2,-48(fp)
                                                  data_to_write);
            }
          }    
    
          /* Was this the last block? */    
          if ((length == data_to_write) || ret_code)
 1203eb4:	e0ffff17 	ldw	r3,-4(fp)
 1203eb8:	e0bffb17 	ldw	r2,-20(fp)
 1203ebc:	18802e26 	beq	r3,r2,1203f78 <alt_flash_cfi_write+0x270>
 1203ec0:	e0bff417 	ldw	r2,-48(fp)
 1203ec4:	10002c1e 	bne	r2,zero,1203f78 <alt_flash_cfi_write+0x270>
          {
            goto finished;
          }
          
          length -= data_to_write;
 1203ec8:	e0ffff17 	ldw	r3,-4(fp)
 1203ecc:	e0bffb17 	ldw	r2,-20(fp)
 1203ed0:	1885c83a 	sub	r2,r3,r2
 1203ed4:	e0bfff15 	stw	r2,-4(fp)
          offset = current_offset + flash->dev.region_info[i].block_size;
 1203ed8:	e0fffa17 	ldw	r3,-24(fp)
 1203edc:	e0bff517 	ldw	r2,-44(fp)
 1203ee0:	10800104 	addi	r2,r2,4
 1203ee4:	1004913a 	slli	r2,r2,4
 1203ee8:	1885883a 	add	r2,r3,r2
 1203eec:	10c00017 	ldw	r3,0(r2)
 1203ef0:	e0bff717 	ldw	r2,-36(fp)
 1203ef4:	1885883a 	add	r2,r3,r2
 1203ef8:	e0bffd15 	stw	r2,-12(fp)
          src_addr = (alt_u8*)src_addr + data_to_write;
 1203efc:	e0bffb17 	ldw	r2,-20(fp)
 1203f00:	e0fffe17 	ldw	r3,-8(fp)
 1203f04:	1885883a 	add	r2,r3,r2
 1203f08:	e0bffe15 	stw	r2,-8(fp)
        }
        current_offset += flash->dev.region_info[i].block_size;
 1203f0c:	e0fffa17 	ldw	r3,-24(fp)
 1203f10:	e0bff517 	ldw	r2,-44(fp)
 1203f14:	10800104 	addi	r2,r2,4
 1203f18:	1004913a 	slli	r2,r2,4
 1203f1c:	1885883a 	add	r2,r3,r2
 1203f20:	10800017 	ldw	r2,0(r2)
 1203f24:	e0fff717 	ldw	r3,-36(fp)
 1203f28:	1885883a 	add	r2,r3,r2
 1203f2c:	e0bff715 	stw	r2,-36(fp)
      (offset < (flash->dev.region_info[i].offset + 
      flash->dev.region_info[i].region_size)))
    {
      current_offset = flash->dev.region_info[i].offset;

      for(j=0;j<flash->dev.region_info[i].number_of_blocks;j++)
 1203f30:	e0bff617 	ldw	r2,-40(fp)
 1203f34:	10800044 	addi	r2,r2,1
 1203f38:	e0bff615 	stw	r2,-40(fp)
 1203f3c:	e0fffa17 	ldw	r3,-24(fp)
 1203f40:	e0bff517 	ldw	r2,-44(fp)
 1203f44:	1004913a 	slli	r2,r2,4
 1203f48:	1885883a 	add	r2,r3,r2
 1203f4c:	10800f04 	addi	r2,r2,60
 1203f50:	10800017 	ldw	r2,0(r2)
 1203f54:	e0fff617 	ldw	r3,-40(fp)
 1203f58:	18bf9c16 	blt	r3,r2,1203dcc <__alt_mem_instruction_tcm+0xff203dcc>
  alt_flash_cfi_dev* flash = (alt_flash_cfi_dev*)flash_info;

  /*
   * First and foremost which sectors are affected?
   */   
  for(i=0;i<flash->dev.number_of_regions;i++)
 1203f5c:	e0bff517 	ldw	r2,-44(fp)
 1203f60:	10800044 	addi	r2,r2,1
 1203f64:	e0bff515 	stw	r2,-44(fp)
 1203f68:	e0bffa17 	ldw	r2,-24(fp)
 1203f6c:	10800c17 	ldw	r2,48(r2)
 1203f70:	e0fff517 	ldw	r3,-44(fp)
 1203f74:	18bf7516 	blt	r3,r2,1203d4c <__alt_mem_instruction_tcm+0xff203d4c>
      }     
    } 
  }
finished:    

  alt_dcache_flush((alt_u8*)flash->dev.base_addr+start_offset, full_length);
 1203f78:	e0bffa17 	ldw	r2,-24(fp)
 1203f7c:	10c00a17 	ldw	r3,40(r2)
 1203f80:	e0bff917 	ldw	r2,-28(fp)
 1203f84:	1887883a 	add	r3,r3,r2
 1203f88:	e0bff817 	ldw	r2,-32(fp)
 1203f8c:	1809883a 	mov	r4,r3
 1203f90:	100b883a 	mov	r5,r2
 1203f94:	12067000 	call	1206700 <alt_dcache_flush>
  return ret_code;
 1203f98:	e0bff417 	ldw	r2,-48(fp)
}
 1203f9c:	e037883a 	mov	sp,fp
 1203fa0:	dfc00117 	ldw	ra,4(sp)
 1203fa4:	df000017 	ldw	fp,0(sp)
 1203fa8:	dec00204 	addi	sp,sp,8
 1203fac:	f800283a 	ret

01203fb0 <alt_flash_cfi_get_info>:
 * 
 *  Pass the table of erase blocks to the user
 */
int alt_flash_cfi_get_info( alt_flash_fd* fd, flash_region** info, 
                            int* number_of_regions)
{
 1203fb0:	defffa04 	addi	sp,sp,-24
 1203fb4:	df000515 	stw	fp,20(sp)
 1203fb8:	df000504 	addi	fp,sp,20
 1203fbc:	e13ffd15 	stw	r4,-12(fp)
 1203fc0:	e17ffe15 	stw	r5,-8(fp)
 1203fc4:	e1bfff15 	stw	r6,-4(fp)
  int ret_code = 0;
 1203fc8:	e03ffb15 	stw	zero,-20(fp)
  alt_flash_dev* flash = (alt_flash_dev*)fd;
 1203fcc:	e0bffd17 	ldw	r2,-12(fp)
 1203fd0:	e0bffc15 	stw	r2,-16(fp)

  *number_of_regions = flash->number_of_regions;
 1203fd4:	e0bffc17 	ldw	r2,-16(fp)
 1203fd8:	10c00c17 	ldw	r3,48(r2)
 1203fdc:	e0bfff17 	ldw	r2,-4(fp)
 1203fe0:	10c00015 	stw	r3,0(r2)

  if (!flash->number_of_regions)
 1203fe4:	e0bffc17 	ldw	r2,-16(fp)
 1203fe8:	10800c17 	ldw	r2,48(r2)
 1203fec:	1000031e 	bne	r2,zero,1203ffc <alt_flash_cfi_get_info+0x4c>
  {
    ret_code = -EIO;
 1203ff0:	00bffec4 	movi	r2,-5
 1203ff4:	e0bffb15 	stw	r2,-20(fp)
 1203ff8:	00000b06 	br	1204028 <alt_flash_cfi_get_info+0x78>
  }
  else if (flash->number_of_regions > ALT_MAX_NUMBER_OF_FLASH_REGIONS)
 1203ffc:	e0bffc17 	ldw	r2,-16(fp)
 1204000:	10800c17 	ldw	r2,48(r2)
 1204004:	10800250 	cmplti	r2,r2,9
 1204008:	1000031e 	bne	r2,zero,1204018 <alt_flash_cfi_get_info+0x68>
  {
    ret_code = -ENOMEM;
 120400c:	00bffd04 	movi	r2,-12
 1204010:	e0bffb15 	stw	r2,-20(fp)
 1204014:	00000406 	br	1204028 <alt_flash_cfi_get_info+0x78>
  }
  else
  {
    *info = &flash->region_info[0];
 1204018:	e0bffc17 	ldw	r2,-16(fp)
 120401c:	10c00d04 	addi	r3,r2,52
 1204020:	e0bffe17 	ldw	r2,-8(fp)
 1204024:	10c00015 	stw	r3,0(r2)
  }

  return ret_code;
 1204028:	e0bffb17 	ldw	r2,-20(fp)
}
 120402c:	e037883a 	mov	sp,fp
 1204030:	df000017 	ldw	fp,0(sp)
 1204034:	dec00104 	addi	sp,sp,4
 1204038:	f800283a 	ret

0120403c <alt_flash_cfi_read>:
 *  Read from an area in flash, you could use memcopy yourself
 *  for these flash types, but we're trying to be generic and future proof
 */
int alt_flash_cfi_read( alt_flash_dev* flash_info, int offset, 
                        void* dest_addr, int length )
{
 120403c:	defff904 	addi	sp,sp,-28
 1204040:	dfc00615 	stw	ra,24(sp)
 1204044:	df000515 	stw	fp,20(sp)
 1204048:	df000504 	addi	fp,sp,20
 120404c:	e13ffc15 	stw	r4,-16(fp)
 1204050:	e17ffd15 	stw	r5,-12(fp)
 1204054:	e1bffe15 	stw	r6,-8(fp)
 1204058:	e1ffff15 	stw	r7,-4(fp)
  alt_flash_cfi_dev* flash = (alt_flash_cfi_dev*)flash_info;
 120405c:	e0bffc17 	ldw	r2,-16(fp)
 1204060:	e0bffb15 	stw	r2,-20(fp)
  memcpy(dest_addr, (alt_u8*)flash->dev.base_addr+offset, length);
 1204064:	e0bffb17 	ldw	r2,-20(fp)
 1204068:	10c00a17 	ldw	r3,40(r2)
 120406c:	e0bffd17 	ldw	r2,-12(fp)
 1204070:	1887883a 	add	r3,r3,r2
 1204074:	e0bfff17 	ldw	r2,-4(fp)
 1204078:	e13ffe17 	ldw	r4,-8(fp)
 120407c:	180b883a 	mov	r5,r3
 1204080:	100d883a 	mov	r6,r2
 1204084:	12013340 	call	1201334 <memcpy>
  return 0;
 1204088:	0005883a 	mov	r2,zero
}
 120408c:	e037883a 	mov	sp,fp
 1204090:	dfc00117 	ldw	ra,4(sp)
 1204094:	df000017 	ldw	fp,0(sp)
 1204098:	dec00204 	addi	sp,sp,8
 120409c:	f800283a 	ret

012040a0 <alt_write_value_to_flash>:
* It writes the largest word size that the flash can support
* so if it's an 8 bit flash it writes bytes
* 16 bit half word etc.
*/
void alt_write_value_to_flash(alt_flash_cfi_dev* flash, int offset, const alt_u8* src_addr)
{
 12040a0:	defffa04 	addi	sp,sp,-24
 12040a4:	df000515 	stw	fp,20(sp)
 12040a8:	df000504 	addi	fp,sp,20
 12040ac:	e13ffd15 	stw	r4,-12(fp)
 12040b0:	e17ffe15 	stw	r5,-8(fp)
 12040b4:	e1bfff15 	stw	r6,-4(fp)
  alt_u16 half_word_value;
  alt_u32 word_value;

  if (flash->mode_width == 1)
 12040b8:	e0bffd17 	ldw	r2,-12(fp)
 12040bc:	10802f17 	ldw	r2,188(r2)
 12040c0:	10800058 	cmpnei	r2,r2,1
 12040c4:	1000091e 	bne	r2,zero,12040ec <alt_write_value_to_flash+0x4c>
  {
    IOWR_8DIRECT(flash->dev.base_addr, offset, *src_addr);
 12040c8:	e0bffd17 	ldw	r2,-12(fp)
 12040cc:	10c00a17 	ldw	r3,40(r2)
 12040d0:	e0bffe17 	ldw	r2,-8(fp)
 12040d4:	1885883a 	add	r2,r3,r2
 12040d8:	e0ffff17 	ldw	r3,-4(fp)
 12040dc:	18c00003 	ldbu	r3,0(r3)
 12040e0:	18c03fcc 	andi	r3,r3,255
 12040e4:	10c00025 	stbio	r3,0(r2)
 12040e8:	00003e06 	br	12041e4 <alt_write_value_to_flash+0x144>
  }
  else if (flash->mode_width == 2)
 12040ec:	e0bffd17 	ldw	r2,-12(fp)
 12040f0:	10802f17 	ldw	r2,188(r2)
 12040f4:	10800098 	cmpnei	r2,r2,2
 12040f8:	1000141e 	bne	r2,zero,120414c <alt_write_value_to_flash+0xac>
  {
    half_word_value = (alt_u16)(*src_addr);
 12040fc:	e0bfff17 	ldw	r2,-4(fp)
 1204100:	10800003 	ldbu	r2,0(r2)
 1204104:	10803fcc 	andi	r2,r2,255
 1204108:	e0bffb0d 	sth	r2,-20(fp)
    half_word_value |= (alt_u16)(*(src_addr + 1)) << 8;
 120410c:	e0bfff17 	ldw	r2,-4(fp)
 1204110:	10800044 	addi	r2,r2,1
 1204114:	10800003 	ldbu	r2,0(r2)
 1204118:	10803fcc 	andi	r2,r2,255
 120411c:	1004923a 	slli	r2,r2,8
 1204120:	1007883a 	mov	r3,r2
 1204124:	e0bffb0b 	ldhu	r2,-20(fp)
 1204128:	1884b03a 	or	r2,r3,r2
 120412c:	e0bffb0d 	sth	r2,-20(fp)
    IOWR_16DIRECT(flash->dev.base_addr, offset, half_word_value);
 1204130:	e0bffd17 	ldw	r2,-12(fp)
 1204134:	10c00a17 	ldw	r3,40(r2)
 1204138:	e0bffe17 	ldw	r2,-8(fp)
 120413c:	1885883a 	add	r2,r3,r2
 1204140:	e0fffb0b 	ldhu	r3,-20(fp)
 1204144:	10c0002d 	sthio	r3,0(r2)
 1204148:	00002606 	br	12041e4 <alt_write_value_to_flash+0x144>
  }
  else if (flash->mode_width == 4)
 120414c:	e0bffd17 	ldw	r2,-12(fp)
 1204150:	10802f17 	ldw	r2,188(r2)
 1204154:	10800118 	cmpnei	r2,r2,4
 1204158:	1000221e 	bne	r2,zero,12041e4 <alt_write_value_to_flash+0x144>
  {
    word_value = (alt_u32)(*src_addr);
 120415c:	e0bfff17 	ldw	r2,-4(fp)
 1204160:	10800003 	ldbu	r2,0(r2)
 1204164:	10803fcc 	andi	r2,r2,255
 1204168:	e0bffc15 	stw	r2,-16(fp)
    word_value |= ((alt_u32)(*(src_addr + 1)) << 8);
 120416c:	e0bfff17 	ldw	r2,-4(fp)
 1204170:	10800044 	addi	r2,r2,1
 1204174:	10800003 	ldbu	r2,0(r2)
 1204178:	10803fcc 	andi	r2,r2,255
 120417c:	1004923a 	slli	r2,r2,8
 1204180:	e0fffc17 	ldw	r3,-16(fp)
 1204184:	1884b03a 	or	r2,r3,r2
 1204188:	e0bffc15 	stw	r2,-16(fp)
    word_value |= ((alt_u32)(*(src_addr + 2)) << 16);
 120418c:	e0bfff17 	ldw	r2,-4(fp)
 1204190:	10800084 	addi	r2,r2,2
 1204194:	10800003 	ldbu	r2,0(r2)
 1204198:	10803fcc 	andi	r2,r2,255
 120419c:	1004943a 	slli	r2,r2,16
 12041a0:	e0fffc17 	ldw	r3,-16(fp)
 12041a4:	1884b03a 	or	r2,r3,r2
 12041a8:	e0bffc15 	stw	r2,-16(fp)
    word_value |= ((alt_u32)(*(src_addr + 3)) << 24);
 12041ac:	e0bfff17 	ldw	r2,-4(fp)
 12041b0:	108000c4 	addi	r2,r2,3
 12041b4:	10800003 	ldbu	r2,0(r2)
 12041b8:	10803fcc 	andi	r2,r2,255
 12041bc:	1004963a 	slli	r2,r2,24
 12041c0:	e0fffc17 	ldw	r3,-16(fp)
 12041c4:	1884b03a 	or	r2,r3,r2
 12041c8:	e0bffc15 	stw	r2,-16(fp)
    IOWR_32DIRECT(flash->dev.base_addr, offset, word_value);
 12041cc:	e0bffd17 	ldw	r2,-12(fp)
 12041d0:	10c00a17 	ldw	r3,40(r2)
 12041d4:	e0bffe17 	ldw	r2,-8(fp)
 12041d8:	1885883a 	add	r2,r3,r2
 12041dc:	e0fffc17 	ldw	r3,-16(fp)
 12041e0:	10c00035 	stwio	r3,0(r2)
  }

  return;
 12041e4:	0001883a 	nop
}
 12041e8:	e037883a 	mov	sp,fp
 12041ec:	df000017 	ldw	fp,0(sp)
 12041f0:	dec00104 	addi	sp,sp,4
 12041f4:	f800283a 	ret

012041f8 <alt_flash_program_block>:
*/
int alt_flash_program_block(  alt_flash_cfi_dev* flash, const int offset, 
                        const alt_u8* src_addr, 
                        const int length,
                        alt_program_word_fn program_word_func)
{
 12041f8:	defff304 	addi	sp,sp,-52
 12041fc:	dfc00c15 	stw	ra,48(sp)
 1204200:	df000b15 	stw	fp,44(sp)
 1204204:	df000b04 	addi	fp,sp,44
 1204208:	e13ffc15 	stw	r4,-16(fp)
 120420c:	e17ffd15 	stw	r5,-12(fp)
 1204210:	e1bffe15 	stw	r6,-8(fp)
 1204214:	e1ffff15 	stw	r7,-4(fp)
  int     ret_code = 0;
 1204218:	e03ff515 	stw	zero,-44(fp)

  /*
   * First take care of any writes which are on none native boundaries
   * as far as the flash is concerned.
   */
  bytes_to_preserve = ((int)((alt_u8*)flash->dev.base_addr + offset) % 
 120421c:	e0bffc17 	ldw	r2,-16(fp)
 1204220:	10c00a17 	ldw	r3,40(r2)
 1204224:	e0bffd17 	ldw	r2,-12(fp)
 1204228:	1885883a 	add	r2,r3,r2
 120422c:	1007883a 	mov	r3,r2
                      flash->mode_width);
 1204230:	e0bffc17 	ldw	r2,-16(fp)
 1204234:	10802f17 	ldw	r2,188(r2)

  /*
   * First take care of any writes which are on none native boundaries
   * as far as the flash is concerned.
   */
  bytes_to_preserve = ((int)((alt_u8*)flash->dev.base_addr + offset) % 
 1204238:	1809883a 	mov	r4,r3
 120423c:	100b883a 	mov	r5,r2
 1204240:	1207f180 	call	1207f18 <__modsi3>
 1204244:	e0bff815 	stw	r2,-32(fp)
                      flash->mode_width);
  if ( bytes_to_preserve != 0)
 1204248:	e0bff817 	ldw	r2,-32(fp)
 120424c:	10003a26 	beq	r2,zero,1204338 <alt_flash_program_block+0x140>
  {
    unaligned_bytes = flash->mode_width - bytes_to_preserve;
 1204250:	e0bffc17 	ldw	r2,-16(fp)
 1204254:	10c02f17 	ldw	r3,188(r2)
 1204258:	e0bff817 	ldw	r2,-32(fp)
 120425c:	1885c83a 	sub	r2,r3,r2
 1204260:	e0bff915 	stw	r2,-28(fp)
    /*
     * Read the bytes we wish to preserve out of flash
     */
    for (i=0;i<bytes_to_preserve;i++)
 1204264:	e03ff615 	stw	zero,-40(fp)
 1204268:	00001206 	br	12042b4 <alt_flash_program_block+0xbc>
    {
      unaligned[i] = IORD_8DIRECT(flash->dev.base_addr, 
 120426c:	e0bffc17 	ldw	r2,-16(fp)
 1204270:	10800a17 	ldw	r2,40(r2)
 1204274:	e13ffd17 	ldw	r4,-12(fp)
 1204278:	e0fff817 	ldw	r3,-32(fp)
 120427c:	20c9c83a 	sub	r4,r4,r3
 1204280:	e0fff617 	ldw	r3,-40(fp)
 1204284:	20c7883a 	add	r3,r4,r3
 1204288:	10c5883a 	add	r2,r2,r3
 120428c:	10800023 	ldbuio	r2,0(r2)
 1204290:	10803fcc 	andi	r2,r2,255
 1204294:	1009883a 	mov	r4,r2
 1204298:	e0fffb04 	addi	r3,fp,-20
 120429c:	e0bff617 	ldw	r2,-40(fp)
 12042a0:	1885883a 	add	r2,r3,r2
 12042a4:	11000005 	stb	r4,0(r2)
  {
    unaligned_bytes = flash->mode_width - bytes_to_preserve;
    /*
     * Read the bytes we wish to preserve out of flash
     */
    for (i=0;i<bytes_to_preserve;i++)
 12042a8:	e0bff617 	ldw	r2,-40(fp)
 12042ac:	10800044 	addi	r2,r2,1
 12042b0:	e0bff615 	stw	r2,-40(fp)
 12042b4:	e0fff617 	ldw	r3,-40(fp)
 12042b8:	e0bff817 	ldw	r2,-32(fp)
 12042bc:	18bfeb16 	blt	r3,r2,120426c <__alt_mem_instruction_tcm+0xff20426c>
    {
      unaligned[i] = IORD_8DIRECT(flash->dev.base_addr, 
                                offset-bytes_to_preserve+i);
    }

    for (i=0;i<unaligned_bytes;i++)
 12042c0:	e03ff615 	stw	zero,-40(fp)
 12042c4:	00000d06 	br	12042fc <alt_flash_program_block+0x104>
    {
      unaligned[bytes_to_preserve + i] = *(alt_u8*)(src_addr + i);
 12042c8:	e0fff817 	ldw	r3,-32(fp)
 12042cc:	e0bff617 	ldw	r2,-40(fp)
 12042d0:	1885883a 	add	r2,r3,r2
 12042d4:	e0fff617 	ldw	r3,-40(fp)
 12042d8:	e13ffe17 	ldw	r4,-8(fp)
 12042dc:	20c7883a 	add	r3,r4,r3
 12042e0:	18c00003 	ldbu	r3,0(r3)
 12042e4:	e13ffb04 	addi	r4,fp,-20
 12042e8:	2085883a 	add	r2,r4,r2
 12042ec:	10c00005 	stb	r3,0(r2)
    {
      unaligned[i] = IORD_8DIRECT(flash->dev.base_addr, 
                                offset-bytes_to_preserve+i);
    }

    for (i=0;i<unaligned_bytes;i++)
 12042f0:	e0bff617 	ldw	r2,-40(fp)
 12042f4:	10800044 	addi	r2,r2,1
 12042f8:	e0bff615 	stw	r2,-40(fp)
 12042fc:	e0fff617 	ldw	r3,-40(fp)
 1204300:	e0bff917 	ldw	r2,-28(fp)
 1204304:	18bff016 	blt	r3,r2,12042c8 <__alt_mem_instruction_tcm+0xff2042c8>
    {
      unaligned[bytes_to_preserve + i] = *(alt_u8*)(src_addr + i);
    }
    
    ret_code = (*program_word_func)(flash, offset-bytes_to_preserve, unaligned);
 1204308:	e0fffd17 	ldw	r3,-12(fp)
 120430c:	e0bff817 	ldw	r2,-32(fp)
 1204310:	188bc83a 	sub	r5,r3,r2
 1204314:	e0fffb04 	addi	r3,fp,-20
 1204318:	e0800217 	ldw	r2,8(fp)
 120431c:	e13ffc17 	ldw	r4,-16(fp)
 1204320:	180d883a 	mov	r6,r3
 1204324:	103ee83a 	callr	r2
 1204328:	e0bff515 	stw	r2,-44(fp)
    i = unaligned_bytes;
 120432c:	e0bff917 	ldw	r2,-28(fp)
 1204330:	e0bff615 	stw	r2,-40(fp)
 1204334:	00000106 	br	120433c <alt_flash_program_block+0x144>
  }
  else
  {
    i = 0;
 1204338:	e03ff615 	stw	zero,-40(fp)
  }

  unaligned_end_bytes = (offset+length) % flash->mode_width;
 120433c:	e0fffd17 	ldw	r3,-12(fp)
 1204340:	e0bfff17 	ldw	r2,-4(fp)
 1204344:	1887883a 	add	r3,r3,r2
 1204348:	e0bffc17 	ldw	r2,-16(fp)
 120434c:	10802f17 	ldw	r2,188(r2)
 1204350:	1809883a 	mov	r4,r3
 1204354:	100b883a 	mov	r5,r2
 1204358:	1207f180 	call	1207f18 <__modsi3>
 120435c:	e0bffa15 	stw	r2,-24(fp)
  while ((ret_code == 0) && (i < (length-unaligned_end_bytes)))
 1204360:	00001006 	br	12043a4 <alt_flash_program_block+0x1ac>
  {
    ret_code = (*program_word_func)(flash, offset+i, src_addr+i);
 1204364:	e0fffd17 	ldw	r3,-12(fp)
 1204368:	e0bff617 	ldw	r2,-40(fp)
 120436c:	188b883a 	add	r5,r3,r2
 1204370:	e0bff617 	ldw	r2,-40(fp)
 1204374:	e0fffe17 	ldw	r3,-8(fp)
 1204378:	1887883a 	add	r3,r3,r2
 120437c:	e0800217 	ldw	r2,8(fp)
 1204380:	e13ffc17 	ldw	r4,-16(fp)
 1204384:	180d883a 	mov	r6,r3
 1204388:	103ee83a 	callr	r2
 120438c:	e0bff515 	stw	r2,-44(fp)
    i += flash->mode_width;     
 1204390:	e0bffc17 	ldw	r2,-16(fp)
 1204394:	10802f17 	ldw	r2,188(r2)
 1204398:	e0fff617 	ldw	r3,-40(fp)
 120439c:	1885883a 	add	r2,r3,r2
 12043a0:	e0bff615 	stw	r2,-40(fp)
  {
    i = 0;
  }

  unaligned_end_bytes = (offset+length) % flash->mode_width;
  while ((ret_code == 0) && (i < (length-unaligned_end_bytes)))
 12043a4:	e0bff517 	ldw	r2,-44(fp)
 12043a8:	1000051e 	bne	r2,zero,12043c0 <alt_flash_program_block+0x1c8>
 12043ac:	e0ffff17 	ldw	r3,-4(fp)
 12043b0:	e0bffa17 	ldw	r2,-24(fp)
 12043b4:	1885c83a 	sub	r2,r3,r2
 12043b8:	e0fff617 	ldw	r3,-40(fp)
 12043bc:	18bfe916 	blt	r3,r2,1204364 <__alt_mem_instruction_tcm+0xff204364>

  /*
   * Now take care of any writes at the end of the buffer which are on none 
   * native boundaries as far as the flash is concerned.
   */
  if (unaligned_end_bytes && !ret_code)
 12043c0:	e0bffa17 	ldw	r2,-24(fp)
 12043c4:	10003b26 	beq	r2,zero,12044b4 <alt_flash_program_block+0x2bc>
 12043c8:	e0bff517 	ldw	r2,-44(fp)
 12043cc:	1000391e 	bne	r2,zero,12044b4 <alt_flash_program_block+0x2bc>
  {
    bytes_to_preserve = flash->mode_width - unaligned_end_bytes;
 12043d0:	e0bffc17 	ldw	r2,-16(fp)
 12043d4:	10c02f17 	ldw	r3,188(r2)
 12043d8:	e0bffa17 	ldw	r2,-24(fp)
 12043dc:	1885c83a 	sub	r2,r3,r2
 12043e0:	e0bff815 	stw	r2,-32(fp)
    
    for (j=0;j<unaligned_end_bytes;j++)
 12043e4:	e03ff715 	stw	zero,-36(fp)
 12043e8:	00000d06 	br	1204420 <alt_flash_program_block+0x228>
    {
      unaligned[j] = *(alt_u8*)(src_addr+i+j);
 12043ec:	e0fff617 	ldw	r3,-40(fp)
 12043f0:	e0bff717 	ldw	r2,-36(fp)
 12043f4:	1885883a 	add	r2,r3,r2
 12043f8:	e0fffe17 	ldw	r3,-8(fp)
 12043fc:	1885883a 	add	r2,r3,r2
 1204400:	10c00003 	ldbu	r3,0(r2)
 1204404:	e13ffb04 	addi	r4,fp,-20
 1204408:	e0bff717 	ldw	r2,-36(fp)
 120440c:	2085883a 	add	r2,r4,r2
 1204410:	10c00005 	stb	r3,0(r2)
   */
  if (unaligned_end_bytes && !ret_code)
  {
    bytes_to_preserve = flash->mode_width - unaligned_end_bytes;
    
    for (j=0;j<unaligned_end_bytes;j++)
 1204414:	e0bff717 	ldw	r2,-36(fp)
 1204418:	10800044 	addi	r2,r2,1
 120441c:	e0bff715 	stw	r2,-36(fp)
 1204420:	e0fff717 	ldw	r3,-36(fp)
 1204424:	e0bffa17 	ldw	r2,-24(fp)
 1204428:	18bff016 	blt	r3,r2,12043ec <__alt_mem_instruction_tcm+0xff2043ec>
    {
      unaligned[j] = *(alt_u8*)(src_addr+i+j);
    }
    
    for (j=0;j<bytes_to_preserve;j++)
 120442c:	e03ff715 	stw	zero,-36(fp)
 1204430:	00001406 	br	1204484 <alt_flash_program_block+0x28c>
    {
      unaligned[unaligned_end_bytes+j] = IORD_8DIRECT(flash->dev.base_addr, 
 1204434:	e0fffa17 	ldw	r3,-24(fp)
 1204438:	e0bff717 	ldw	r2,-36(fp)
 120443c:	1885883a 	add	r2,r3,r2
 1204440:	e0fffc17 	ldw	r3,-16(fp)
 1204444:	18c00a17 	ldw	r3,40(r3)
 1204448:	e17ffd17 	ldw	r5,-12(fp)
 120444c:	e13fff17 	ldw	r4,-4(fp)
 1204450:	290b883a 	add	r5,r5,r4
 1204454:	e13ff717 	ldw	r4,-36(fp)
 1204458:	2909883a 	add	r4,r5,r4
 120445c:	1907883a 	add	r3,r3,r4
 1204460:	18c00023 	ldbuio	r3,0(r3)
 1204464:	18c03fcc 	andi	r3,r3,255
 1204468:	1809883a 	mov	r4,r3
 120446c:	e0fffb04 	addi	r3,fp,-20
 1204470:	1885883a 	add	r2,r3,r2
 1204474:	11000005 	stb	r4,0(r2)
    for (j=0;j<unaligned_end_bytes;j++)
    {
      unaligned[j] = *(alt_u8*)(src_addr+i+j);
    }
    
    for (j=0;j<bytes_to_preserve;j++)
 1204478:	e0bff717 	ldw	r2,-36(fp)
 120447c:	10800044 	addi	r2,r2,1
 1204480:	e0bff715 	stw	r2,-36(fp)
 1204484:	e0fff717 	ldw	r3,-36(fp)
 1204488:	e0bff817 	ldw	r2,-32(fp)
 120448c:	18bfe916 	blt	r3,r2,1204434 <__alt_mem_instruction_tcm+0xff204434>
    {
      unaligned[unaligned_end_bytes+j] = IORD_8DIRECT(flash->dev.base_addr, 
                                                      offset+length+j);
    }

    ret_code = (*program_word_func)(flash, offset+i, unaligned);      
 1204490:	e0fffd17 	ldw	r3,-12(fp)
 1204494:	e0bff617 	ldw	r2,-40(fp)
 1204498:	188b883a 	add	r5,r3,r2
 120449c:	e0fffb04 	addi	r3,fp,-20
 12044a0:	e0800217 	ldw	r2,8(fp)
 12044a4:	e13ffc17 	ldw	r4,-16(fp)
 12044a8:	180d883a 	mov	r6,r3
 12044ac:	103ee83a 	callr	r2
 12044b0:	e0bff515 	stw	r2,-44(fp)
  }

  return ret_code;
 12044b4:	e0bff517 	ldw	r2,-44(fp)
}
 12044b8:	e037883a 	mov	sp,fp
 12044bc:	dfc00117 	ldw	ra,4(sp)
 12044c0:	df000017 	ldw	fp,0(sp)
 12044c4:	dec00204 	addi	sp,sp,8
 12044c8:	f800283a 	ret

012044cc <alt_read_query_entry_8bit>:

/*
 *  Read an 8 bit value from the CFI query table in flash
 */
alt_u8 alt_read_query_entry_8bit( alt_flash_cfi_dev* flash, int address)
{
 12044cc:	defffd04 	addi	sp,sp,-12
 12044d0:	df000215 	stw	fp,8(sp)
 12044d4:	df000204 	addi	fp,sp,8
 12044d8:	e13ffe15 	stw	r4,-8(fp)
 12044dc:	e17fff15 	stw	r5,-4(fp)
  return IORD_8DIRECT((alt_u8*)flash->dev.base_addr, address);
 12044e0:	e0bffe17 	ldw	r2,-8(fp)
 12044e4:	10c00a17 	ldw	r3,40(r2)
 12044e8:	e0bfff17 	ldw	r2,-4(fp)
 12044ec:	1885883a 	add	r2,r3,r2
 12044f0:	10800023 	ldbuio	r2,0(r2)
 12044f4:	10803fcc 	andi	r2,r2,255
}
 12044f8:	e037883a 	mov	sp,fp
 12044fc:	df000017 	ldw	fp,0(sp)
 1204500:	dec00104 	addi	sp,sp,4
 1204504:	f800283a 	ret

01204508 <alt_read_query_entry_16bit>:

alt_u8 alt_read_query_entry_16bit( alt_flash_cfi_dev* flash, int address)
{
 1204508:	defffd04 	addi	sp,sp,-12
 120450c:	df000215 	stw	fp,8(sp)
 1204510:	df000204 	addi	fp,sp,8
 1204514:	e13ffe15 	stw	r4,-8(fp)
 1204518:	e17fff15 	stw	r5,-4(fp)
  return (IORD_16DIRECT((alt_u8*)flash->dev.base_addr, address*2) & 0xff);
 120451c:	e0bffe17 	ldw	r2,-8(fp)
 1204520:	10c00a17 	ldw	r3,40(r2)
 1204524:	e0bfff17 	ldw	r2,-4(fp)
 1204528:	1085883a 	add	r2,r2,r2
 120452c:	1885883a 	add	r2,r3,r2
 1204530:	1080002b 	ldhuio	r2,0(r2)
 1204534:	10bfffcc 	andi	r2,r2,65535
}
 1204538:	e037883a 	mov	sp,fp
 120453c:	df000017 	ldw	fp,0(sp)
 1204540:	dec00104 	addi	sp,sp,4
 1204544:	f800283a 	ret

01204548 <alt_read_query_entry_32bit>:

alt_u8 alt_read_query_entry_32bit( alt_flash_cfi_dev* flash, int address)
{
 1204548:	defffd04 	addi	sp,sp,-12
 120454c:	df000215 	stw	fp,8(sp)
 1204550:	df000204 	addi	fp,sp,8
 1204554:	e13ffe15 	stw	r4,-8(fp)
 1204558:	e17fff15 	stw	r5,-4(fp)
  return (IORD_32DIRECT((alt_u8*)flash->dev.base_addr, address*4) & 0xff);
 120455c:	e0bffe17 	ldw	r2,-8(fp)
 1204560:	10c00a17 	ldw	r3,40(r2)
 1204564:	e0bfff17 	ldw	r2,-4(fp)
 1204568:	1085883a 	add	r2,r2,r2
 120456c:	1085883a 	add	r2,r2,r2
 1204570:	1885883a 	add	r2,r3,r2
 1204574:	10800037 	ldwio	r2,0(r2)
}
 1204578:	e037883a 	mov	sp,fp
 120457c:	df000017 	ldw	fp,0(sp)
 1204580:	dec00104 	addi	sp,sp,4
 1204584:	f800283a 	ret

01204588 <alt_write_flash_command_8bit_device_8bit_mode>:

/*
 * Write an 8 bit command to a flash
 */
void alt_write_flash_command_8bit_device_8bit_mode( void* base_addr, int offset, alt_u8 value)
{
 1204588:	defffc04 	addi	sp,sp,-16
 120458c:	df000315 	stw	fp,12(sp)
 1204590:	df000304 	addi	fp,sp,12
 1204594:	e13ffd15 	stw	r4,-12(fp)
 1204598:	e17ffe15 	stw	r5,-8(fp)
 120459c:	3005883a 	mov	r2,r6
 12045a0:	e0bfff05 	stb	r2,-4(fp)
  IOWR_8DIRECT(base_addr, offset, value);
 12045a4:	e0bffe17 	ldw	r2,-8(fp)
 12045a8:	e0fffd17 	ldw	r3,-12(fp)
 12045ac:	1885883a 	add	r2,r3,r2
 12045b0:	e0ffff03 	ldbu	r3,-4(fp)
 12045b4:	10c00025 	stbio	r3,0(r2)
  return;
 12045b8:	0001883a 	nop
}
 12045bc:	e037883a 	mov	sp,fp
 12045c0:	df000017 	ldw	fp,0(sp)
 12045c4:	dec00104 	addi	sp,sp,4
 12045c8:	f800283a 	ret

012045cc <alt_write_flash_command_16bit_device_8bit_mode>:

void alt_write_flash_command_16bit_device_8bit_mode( void* base_addr, int offset, alt_u8 value)
{
 12045cc:	defffc04 	addi	sp,sp,-16
 12045d0:	df000315 	stw	fp,12(sp)
 12045d4:	df000304 	addi	fp,sp,12
 12045d8:	e13ffd15 	stw	r4,-12(fp)
 12045dc:	e17ffe15 	stw	r5,-8(fp)
 12045e0:	3005883a 	mov	r2,r6
 12045e4:	e0bfff05 	stb	r2,-4(fp)
  if (offset % 2)
 12045e8:	e0bffe17 	ldw	r2,-8(fp)
 12045ec:	1080004c 	andi	r2,r2,1
 12045f0:	10000826 	beq	r2,zero,1204614 <alt_write_flash_command_16bit_device_8bit_mode+0x48>
  {
    IOWR_8DIRECT(base_addr, offset*2, value);
 12045f4:	e0bffe17 	ldw	r2,-8(fp)
 12045f8:	1085883a 	add	r2,r2,r2
 12045fc:	1007883a 	mov	r3,r2
 1204600:	e0bffd17 	ldw	r2,-12(fp)
 1204604:	10c5883a 	add	r2,r2,r3
 1204608:	e0ffff03 	ldbu	r3,-4(fp)
 120460c:	10c00025 	stbio	r3,0(r2)
 1204610:	00000706 	br	1204630 <alt_write_flash_command_16bit_device_8bit_mode+0x64>
  }
  else
  {
    IOWR_8DIRECT(base_addr, (offset*2)+1, value);
 1204614:	e0bffe17 	ldw	r2,-8(fp)
 1204618:	1085883a 	add	r2,r2,r2
 120461c:	10800044 	addi	r2,r2,1
 1204620:	e0fffd17 	ldw	r3,-12(fp)
 1204624:	1885883a 	add	r2,r3,r2
 1204628:	e0ffff03 	ldbu	r3,-4(fp)
 120462c:	10c00025 	stbio	r3,0(r2)
  }
  return;
 1204630:	0001883a 	nop
}
 1204634:	e037883a 	mov	sp,fp
 1204638:	df000017 	ldw	fp,0(sp)
 120463c:	dec00104 	addi	sp,sp,4
 1204640:	f800283a 	ret

01204644 <alt_write_flash_command_32bit_device_8bit_mode>:

void alt_write_flash_command_32bit_device_8bit_mode( void* base_addr, int offset, alt_u8 value)
{
 1204644:	defffc04 	addi	sp,sp,-16
 1204648:	df000315 	stw	fp,12(sp)
 120464c:	df000304 	addi	fp,sp,12
 1204650:	e13ffd15 	stw	r4,-12(fp)
 1204654:	e17ffe15 	stw	r5,-8(fp)
 1204658:	3005883a 	mov	r2,r6
 120465c:	e0bfff05 	stb	r2,-4(fp)
  IOWR_8DIRECT(base_addr, offset*4, value);
 1204660:	e0bffe17 	ldw	r2,-8(fp)
 1204664:	1085883a 	add	r2,r2,r2
 1204668:	1085883a 	add	r2,r2,r2
 120466c:	1007883a 	mov	r3,r2
 1204670:	e0bffd17 	ldw	r2,-12(fp)
 1204674:	10c5883a 	add	r2,r2,r3
 1204678:	e0ffff03 	ldbu	r3,-4(fp)
 120467c:	10c00025 	stbio	r3,0(r2)
  return;
 1204680:	0001883a 	nop
}
 1204684:	e037883a 	mov	sp,fp
 1204688:	df000017 	ldw	fp,0(sp)
 120468c:	dec00104 	addi	sp,sp,4
 1204690:	f800283a 	ret

01204694 <alt_write_flash_command_16bit_device_16bit_mode>:

void alt_write_flash_command_16bit_device_16bit_mode( void* base_addr, int offset, alt_u8 value)
{
 1204694:	defffc04 	addi	sp,sp,-16
 1204698:	df000315 	stw	fp,12(sp)
 120469c:	df000304 	addi	fp,sp,12
 12046a0:	e13ffd15 	stw	r4,-12(fp)
 12046a4:	e17ffe15 	stw	r5,-8(fp)
 12046a8:	3005883a 	mov	r2,r6
 12046ac:	e0bfff05 	stb	r2,-4(fp)
  IOWR_16DIRECT(base_addr, offset*2, ((alt_u16)value)& 0x00ff);
 12046b0:	e0bffe17 	ldw	r2,-8(fp)
 12046b4:	1085883a 	add	r2,r2,r2
 12046b8:	1007883a 	mov	r3,r2
 12046bc:	e0bffd17 	ldw	r2,-12(fp)
 12046c0:	10c5883a 	add	r2,r2,r3
 12046c4:	e0ffff03 	ldbu	r3,-4(fp)
 12046c8:	10c0002d 	sthio	r3,0(r2)
  return;
 12046cc:	0001883a 	nop
}
 12046d0:	e037883a 	mov	sp,fp
 12046d4:	df000017 	ldw	fp,0(sp)
 12046d8:	dec00104 	addi	sp,sp,4
 12046dc:	f800283a 	ret

012046e0 <alt_write_flash_command_32bit_device_16bit_mode>:

void alt_write_flash_command_32bit_device_16bit_mode( void* base_addr, int offset, alt_u8 value)
{
 12046e0:	defffc04 	addi	sp,sp,-16
 12046e4:	df000315 	stw	fp,12(sp)
 12046e8:	df000304 	addi	fp,sp,12
 12046ec:	e13ffd15 	stw	r4,-12(fp)
 12046f0:	e17ffe15 	stw	r5,-8(fp)
 12046f4:	3005883a 	mov	r2,r6
 12046f8:	e0bfff05 	stb	r2,-4(fp)
  IOWR_16DIRECT(base_addr, offset*4, ((alt_u16)value)& 0x00ff);
 12046fc:	e0bffe17 	ldw	r2,-8(fp)
 1204700:	1085883a 	add	r2,r2,r2
 1204704:	1085883a 	add	r2,r2,r2
 1204708:	1007883a 	mov	r3,r2
 120470c:	e0bffd17 	ldw	r2,-12(fp)
 1204710:	10c5883a 	add	r2,r2,r3
 1204714:	e0ffff03 	ldbu	r3,-4(fp)
 1204718:	10c0002d 	sthio	r3,0(r2)
  return;
 120471c:	0001883a 	nop
}
 1204720:	e037883a 	mov	sp,fp
 1204724:	df000017 	ldw	fp,0(sp)
 1204728:	dec00104 	addi	sp,sp,4
 120472c:	f800283a 	ret

01204730 <alt_write_flash_command_32bit_device_32bit_mode>:

void alt_write_flash_command_32bit_device_32bit_mode( void* base_addr, int offset, alt_u8 value)
{
 1204730:	defffc04 	addi	sp,sp,-16
 1204734:	df000315 	stw	fp,12(sp)
 1204738:	df000304 	addi	fp,sp,12
 120473c:	e13ffd15 	stw	r4,-12(fp)
 1204740:	e17ffe15 	stw	r5,-8(fp)
 1204744:	3005883a 	mov	r2,r6
 1204748:	e0bfff05 	stb	r2,-4(fp)
  IOWR_32DIRECT(base_addr, offset*4, ((alt_u32)value)& 0x000000ff);
 120474c:	e0bffe17 	ldw	r2,-8(fp)
 1204750:	1085883a 	add	r2,r2,r2
 1204754:	1085883a 	add	r2,r2,r2
 1204758:	1007883a 	mov	r3,r2
 120475c:	e0bffd17 	ldw	r2,-12(fp)
 1204760:	10c5883a 	add	r2,r2,r3
 1204764:	e0ffff03 	ldbu	r3,-4(fp)
 1204768:	10c00035 	stwio	r3,0(r2)
  return;
 120476c:	0001883a 	nop
}
 1204770:	e037883a 	mov	sp,fp
 1204774:	df000017 	ldw	fp,0(sp)
 1204778:	dec00104 	addi	sp,sp,4
 120477c:	f800283a 	ret

01204780 <alt_write_native_8bit>:

/*
 * Write the value passed to the flash
 */
void alt_write_native_8bit( void* address, alt_u32 value)
{
 1204780:	defffd04 	addi	sp,sp,-12
 1204784:	df000215 	stw	fp,8(sp)
 1204788:	df000204 	addi	fp,sp,8
 120478c:	e13ffe15 	stw	r4,-8(fp)
 1204790:	e17fff15 	stw	r5,-4(fp)
  IOWR_8DIRECT(address, 0, (alt_u8)(value&0xff));
 1204794:	e0bfff17 	ldw	r2,-4(fp)
 1204798:	10c03fcc 	andi	r3,r2,255
 120479c:	e0bffe17 	ldw	r2,-8(fp)
 12047a0:	10c00025 	stbio	r3,0(r2)
  return;
 12047a4:	0001883a 	nop
}
 12047a8:	e037883a 	mov	sp,fp
 12047ac:	df000017 	ldw	fp,0(sp)
 12047b0:	dec00104 	addi	sp,sp,4
 12047b4:	f800283a 	ret

012047b8 <alt_write_native_16bit>:

void alt_write_native_16bit( void* address, alt_u32 value)
{
 12047b8:	defffd04 	addi	sp,sp,-12
 12047bc:	df000215 	stw	fp,8(sp)
 12047c0:	df000204 	addi	fp,sp,8
 12047c4:	e13ffe15 	stw	r4,-8(fp)
 12047c8:	e17fff15 	stw	r5,-4(fp)
  IOWR_16DIRECT(address, 0, ((alt_u16)value)& 0xffff);
 12047cc:	e0bfff17 	ldw	r2,-4(fp)
 12047d0:	10ffffcc 	andi	r3,r2,65535
 12047d4:	e0bffe17 	ldw	r2,-8(fp)
 12047d8:	10c0002d 	sthio	r3,0(r2)
  return;
 12047dc:	0001883a 	nop
}
 12047e0:	e037883a 	mov	sp,fp
 12047e4:	df000017 	ldw	fp,0(sp)
 12047e8:	dec00104 	addi	sp,sp,4
 12047ec:	f800283a 	ret

012047f0 <alt_write_native_32bit>:

void alt_write_native_32bit( void* address, alt_u32 value)
{
 12047f0:	defffd04 	addi	sp,sp,-12
 12047f4:	df000215 	stw	fp,8(sp)
 12047f8:	df000204 	addi	fp,sp,8
 12047fc:	e13ffe15 	stw	r4,-8(fp)
 1204800:	e17fff15 	stw	r5,-4(fp)
  IOWR_32DIRECT(address, 0, value);
 1204804:	e0ffff17 	ldw	r3,-4(fp)
 1204808:	e0bffe17 	ldw	r2,-8(fp)
 120480c:	10c00035 	stwio	r3,0(r2)
  return;
 1204810:	0001883a 	nop
}
 1204814:	e037883a 	mov	sp,fp
 1204818:	df000017 	ldw	fp,0(sp)
 120481c:	dec00104 	addi	sp,sp,4
 1204820:	f800283a 	ret

01204824 <alt_set_flash_width_func>:
 * 
 * Setup the function pointers for writing a byte to the flash for the width
 * of the device
 */
int alt_set_flash_width_func( alt_flash_cfi_dev* flash)
{ 
 1204824:	defffd04 	addi	sp,sp,-12
 1204828:	df000215 	stw	fp,8(sp)
 120482c:	df000204 	addi	fp,sp,8
 1204830:	e13fff15 	stw	r4,-4(fp)
  int ret_code = 0;
 1204834:	e03ffe15 	stw	zero,-8(fp)
  
  switch(flash->mode_width)
 1204838:	e0bfff17 	ldw	r2,-4(fp)
 120483c:	10802f17 	ldw	r2,188(r2)
 1204840:	10c000a0 	cmpeqi	r3,r2,2
 1204844:	1800241e 	bne	r3,zero,12048d8 <alt_set_flash_width_func+0xb4>
 1204848:	10c00120 	cmpeqi	r3,r2,4
 120484c:	1800391e 	bne	r3,zero,1204934 <alt_set_flash_width_func+0x110>
 1204850:	10800060 	cmpeqi	r2,r2,1
 1204854:	10004026 	beq	r2,zero,1204958 <alt_set_flash_width_func+0x134>
  {
    case 1:
    {
      flash->write_native = alt_write_native_8bit;
 1204858:	e0ffff17 	ldw	r3,-4(fp)
 120485c:	00804834 	movhi	r2,288
 1204860:	1091e004 	addi	r2,r2,18304
 1204864:	18803615 	stw	r2,216(r3)

      if (flash->device_width == 1)
 1204868:	e0bfff17 	ldw	r2,-4(fp)
 120486c:	10803017 	ldw	r2,192(r2)
 1204870:	10800058 	cmpnei	r2,r2,1
 1204874:	1000051e 	bne	r2,zero,120488c <alt_set_flash_width_func+0x68>
      {
        flash->write_command = alt_write_flash_command_8bit_device_8bit_mode;
 1204878:	e0ffff17 	ldw	r3,-4(fp)
 120487c:	00804834 	movhi	r2,288
 1204880:	10916204 	addi	r2,r2,17800
 1204884:	18803415 	stw	r2,208(r3)
 1204888:	00001206 	br	12048d4 <alt_set_flash_width_func+0xb0>
      }
      else if (flash->device_width == 2)
 120488c:	e0bfff17 	ldw	r2,-4(fp)
 1204890:	10803017 	ldw	r2,192(r2)
 1204894:	10800098 	cmpnei	r2,r2,2
 1204898:	1000051e 	bne	r2,zero,12048b0 <alt_set_flash_width_func+0x8c>
      {
        flash->write_command = alt_write_flash_command_16bit_device_8bit_mode;
 120489c:	e0ffff17 	ldw	r3,-4(fp)
 12048a0:	00804834 	movhi	r2,288
 12048a4:	10917304 	addi	r2,r2,17868
 12048a8:	18803415 	stw	r2,208(r3)
 12048ac:	00000906 	br	12048d4 <alt_set_flash_width_func+0xb0>
      }
      else if (flash->device_width == 4)
 12048b0:	e0bfff17 	ldw	r2,-4(fp)
 12048b4:	10803017 	ldw	r2,192(r2)
 12048b8:	10800118 	cmpnei	r2,r2,4
 12048bc:	1000051e 	bne	r2,zero,12048d4 <alt_set_flash_width_func+0xb0>
      {
        flash->write_command = alt_write_flash_command_32bit_device_8bit_mode;
 12048c0:	e0ffff17 	ldw	r3,-4(fp)
 12048c4:	00804834 	movhi	r2,288
 12048c8:	10919104 	addi	r2,r2,17988
 12048cc:	18803415 	stw	r2,208(r3)
      }
      break;
 12048d0:	00002306 	br	1204960 <alt_set_flash_width_func+0x13c>
 12048d4:	00002206 	br	1204960 <alt_set_flash_width_func+0x13c>
    }
    case 2:
    {
      flash->write_native = alt_write_native_16bit;
 12048d8:	e0ffff17 	ldw	r3,-4(fp)
 12048dc:	00804834 	movhi	r2,288
 12048e0:	1091ee04 	addi	r2,r2,18360
 12048e4:	18803615 	stw	r2,216(r3)

      if (flash->device_width == 2)
 12048e8:	e0bfff17 	ldw	r2,-4(fp)
 12048ec:	10803017 	ldw	r2,192(r2)
 12048f0:	10800098 	cmpnei	r2,r2,2
 12048f4:	1000051e 	bne	r2,zero,120490c <alt_set_flash_width_func+0xe8>
      {
        flash->write_command = alt_write_flash_command_16bit_device_16bit_mode;
 12048f8:	e0ffff17 	ldw	r3,-4(fp)
 12048fc:	00804834 	movhi	r2,288
 1204900:	1091a504 	addi	r2,r2,18068
 1204904:	18803415 	stw	r2,208(r3)
 1204908:	00000906 	br	1204930 <alt_set_flash_width_func+0x10c>
      }
      else if (flash->device_width == 4)
 120490c:	e0bfff17 	ldw	r2,-4(fp)
 1204910:	10803017 	ldw	r2,192(r2)
 1204914:	10800118 	cmpnei	r2,r2,4
 1204918:	1000051e 	bne	r2,zero,1204930 <alt_set_flash_width_func+0x10c>
      {
        flash->write_command = alt_write_flash_command_32bit_device_16bit_mode;
 120491c:	e0ffff17 	ldw	r3,-4(fp)
 1204920:	00804834 	movhi	r2,288
 1204924:	1091b804 	addi	r2,r2,18144
 1204928:	18803415 	stw	r2,208(r3)
      }

      break;
 120492c:	00000c06 	br	1204960 <alt_set_flash_width_func+0x13c>
 1204930:	00000b06 	br	1204960 <alt_set_flash_width_func+0x13c>
    }
    case 4:
    {
      flash->write_native = alt_write_native_32bit;
 1204934:	e0ffff17 	ldw	r3,-4(fp)
 1204938:	00804834 	movhi	r2,288
 120493c:	1091fc04 	addi	r2,r2,18416
 1204940:	18803615 	stw	r2,216(r3)
      flash->write_command = alt_write_flash_command_32bit_device_32bit_mode;
 1204944:	e0ffff17 	ldw	r3,-4(fp)
 1204948:	00804834 	movhi	r2,288
 120494c:	1091cc04 	addi	r2,r2,18224
 1204950:	18803415 	stw	r2,208(r3)
      break;
 1204954:	00000206 	br	1204960 <alt_set_flash_width_func+0x13c>
    }
    default:
    {
      ret_code = -EACCES;
 1204958:	00bffcc4 	movi	r2,-13
 120495c:	e0bffe15 	stw	r2,-8(fp)
    }
  }

  if (!ret_code)
 1204960:	e0bffe17 	ldw	r2,-8(fp)
 1204964:	1000191e 	bne	r2,zero,12049cc <alt_set_flash_width_func+0x1a8>
  {
    switch(flash->device_width)
 1204968:	e0bfff17 	ldw	r2,-4(fp)
 120496c:	10803017 	ldw	r2,192(r2)
 1204970:	10c000a0 	cmpeqi	r3,r2,2
 1204974:	1800091e 	bne	r3,zero,120499c <alt_set_flash_width_func+0x178>
 1204978:	10c00120 	cmpeqi	r3,r2,4
 120497c:	18000c1e 	bne	r3,zero,12049b0 <alt_set_flash_width_func+0x18c>
 1204980:	10800060 	cmpeqi	r2,r2,1
 1204984:	10000f26 	beq	r2,zero,12049c4 <alt_set_flash_width_func+0x1a0>
    {
      case 1:
      {
        flash->read_query = alt_read_query_entry_8bit;
 1204988:	e0ffff17 	ldw	r3,-4(fp)
 120498c:	00804834 	movhi	r2,288
 1204990:	10913304 	addi	r2,r2,17612
 1204994:	18803515 	stw	r2,212(r3)
        break;
 1204998:	00000c06 	br	12049cc <alt_set_flash_width_func+0x1a8>
      }
      case 2:
      {
        flash->read_query = alt_read_query_entry_16bit;
 120499c:	e0ffff17 	ldw	r3,-4(fp)
 12049a0:	00804834 	movhi	r2,288
 12049a4:	10914204 	addi	r2,r2,17672
 12049a8:	18803515 	stw	r2,212(r3)
        break;
 12049ac:	00000706 	br	12049cc <alt_set_flash_width_func+0x1a8>
      }
      case 4:
      {
        flash->read_query = alt_read_query_entry_32bit;
 12049b0:	e0ffff17 	ldw	r3,-4(fp)
 12049b4:	00804834 	movhi	r2,288
 12049b8:	10915204 	addi	r2,r2,17736
 12049bc:	18803515 	stw	r2,212(r3)
        break;
 12049c0:	00000206 	br	12049cc <alt_set_flash_width_func+0x1a8>
      }
      default:
      {
        ret_code = -EACCES;
 12049c4:	00bffcc4 	movi	r2,-13
 12049c8:	e0bffe15 	stw	r2,-8(fp)
      }
    }
  }

  return ret_code;
 12049cc:	e0bffe17 	ldw	r2,-8(fp)
}
 12049d0:	e037883a 	mov	sp,fp
 12049d4:	df000017 	ldw	fp,0(sp)
 12049d8:	dec00104 	addi	sp,sp,4
 12049dc:	f800283a 	ret

012049e0 <alt_set_flash_algorithm_func>:
 * 
 * Setup the function pointers to the functions for this algorithm
 * 
 */
int alt_set_flash_algorithm_func( alt_flash_cfi_dev* flash)
{
 12049e0:	defffd04 	addi	sp,sp,-12
 12049e4:	df000215 	stw	fp,8(sp)
 12049e8:	df000204 	addi	fp,sp,8
 12049ec:	e13fff15 	stw	r4,-4(fp)
  int ret_code = 0;
 12049f0:	e03ffe15 	stw	zero,-8(fp)
 
  switch(flash->algorithm)
 12049f4:	e0bfff17 	ldw	r2,-4(fp)
 12049f8:	10802e17 	ldw	r2,184(r2)
 12049fc:	10c000a0 	cmpeqi	r3,r2,2
 1204a00:	1800051e 	bne	r3,zero,1204a18 <alt_set_flash_algorithm_func+0x38>
 1204a04:	10c000e0 	cmpeqi	r3,r2,3
 1204a08:	18000c1e 	bne	r3,zero,1204a3c <alt_set_flash_algorithm_func+0x5c>
 1204a0c:	10800060 	cmpeqi	r2,r2,1
 1204a10:	10000a1e 	bne	r2,zero,1204a3c <alt_set_flash_algorithm_func+0x5c>
 1204a14:	00001206 	br	1204a60 <alt_set_flash_algorithm_func+0x80>
  {
    case CFI_ALG_AMD:
    {
      flash->dev.erase_block = alt_erase_block_amd;
 1204a18:	e0ffff17 	ldw	r3,-4(fp)
 1204a1c:	00804834 	movhi	r2,288
 1204a20:	109c1104 	addi	r2,r2,28740
 1204a24:	18800815 	stw	r2,32(r3)
      flash->dev.write_block = alt_program_amd;
 1204a28:	e0ffff17 	ldw	r3,-4(fp)
 1204a2c:	00804834 	movhi	r2,288
 1204a30:	109bf704 	addi	r2,r2,28636
 1204a34:	18800915 	stw	r2,36(r3)
      break;
 1204a38:	00000b06 	br	1204a68 <alt_set_flash_algorithm_func+0x88>
    }
    case CFI_ALG_INTEL:
    case CFI_ALG_INTEL_STRATA:
    {
      flash->dev.erase_block = alt_erase_block_intel;
 1204a3c:	e0ffff17 	ldw	r3,-4(fp)
 1204a40:	00804834 	movhi	r2,288
 1204a44:	109d2f04 	addi	r2,r2,29884
 1204a48:	18800815 	stw	r2,32(r3)
      flash->dev.write_block = alt_program_intel;
 1204a4c:	e0ffff17 	ldw	r3,-4(fp)
 1204a50:	00804834 	movhi	r2,288
 1204a54:	109d0f04 	addi	r2,r2,29756
 1204a58:	18800915 	stw	r2,36(r3)
      break;
 1204a5c:	00000206 	br	1204a68 <alt_set_flash_algorithm_func+0x88>
    }
    default:
    {
      ret_code = -EIO;
 1204a60:	00bffec4 	movi	r2,-5
 1204a64:	e0bffe15 	stw	r2,-8(fp)
    }
  } 
  return ret_code;  
 1204a68:	e0bffe17 	ldw	r2,-8(fp)
}
 1204a6c:	e037883a 	mov	sp,fp
 1204a70:	df000017 	ldw	fp,0(sp)
 1204a74:	dec00104 	addi	sp,sp,4
 1204a78:	f800283a 	ret

01204a7c <alt_read_16bit_query_entry>:
 * read_16bit_query_entry
 * 
 * Read a 16 bit entry from the CFI Query table
 */
static alt_u16 alt_read_16bit_query_entry(alt_flash_cfi_dev* flash, int address)
{
 1204a7c:	defffb04 	addi	sp,sp,-20
 1204a80:	dfc00415 	stw	ra,16(sp)
 1204a84:	df000315 	stw	fp,12(sp)
 1204a88:	df000304 	addi	fp,sp,12
 1204a8c:	e13ffe15 	stw	r4,-8(fp)
 1204a90:	e17fff15 	stw	r5,-4(fp)
  alt_u16 ret_code;

  ret_code = (*flash->read_query)( flash, address);
 1204a94:	e0bffe17 	ldw	r2,-8(fp)
