
niosII_training.elf:     file format elf32-littlenios2
niosII_training.elf
architecture: nios2:r1, flags 0x00000112:
EXEC_P, HAS_SYMS, D_PAGED
start address 0x01200240

Program Header:
    LOAD off    0x00001000 vaddr 0x00800000 paddr 0x00800000 align 2**12
         filesz 0x00000000 memsz 0x00000000 flags r-x
    LOAD off    0x00001020 vaddr 0x01200020 paddr 0x01200020 align 2**12
         filesz 0x00009bcc memsz 0x00009d24 flags rwx

Sections:
Idx Name          Size      VMA       LMA       File off  Algn
  0 .entry        00000000  00800000  00800000  00001000  2**5
                  CONTENTS, ALLOC, LOAD, READONLY, CODE
  1 .exceptions   00000220  01200020  01200020  00001020  2**2
                  CONTENTS, ALLOC, LOAD, READONLY, CODE
  2 .text         00007dec  01200240  01200240  00001240  2**2
                  CONTENTS, ALLOC, LOAD, READONLY, CODE
  3 .rodata       00000070  0120802c  0120802c  0000902c  2**2
                  CONTENTS, ALLOC, LOAD, READONLY, DATA
  4 .rwdata       00001b50  0120809c  0120809c  0000909c  2**2
                  CONTENTS, ALLOC, LOAD, DATA, SMALL_DATA
  5 .bss          00000158  01209bec  01209bec  0000abec  2**2
                  ALLOC, SMALL_DATA
  6 .ext_flash_ctl 00000000  00800020  00800020  0000abec  2**0
                  CONTENTS
  7 .ext_ram_ctl  00000000  01209d44  01209d44  0000abec  2**0
                  CONTENTS
  8 .instruction_tcm 00000000  02000000  02000000  0000abec  2**0
                  CONTENTS
  9 .comment      00000023  00000000  00000000  0000abec  2**0
                  CONTENTS, READONLY
 10 .debug_aranges 00000a10  00000000  00000000  0000ac10  2**3
                  CONTENTS, READONLY, DEBUGGING
 11 .debug_info   00018a35  00000000  00000000  0000b620  2**0
                  CONTENTS, READONLY, DEBUGGING
 12 .debug_abbrev 000066a9  00000000  00000000  00024055  2**0
                  CONTENTS, READONLY, DEBUGGING
 13 .debug_line   000071cf  00000000  00000000  0002a6fe  2**0
                  CONTENTS, READONLY, DEBUGGING
 14 .debug_frame  00001b1c  00000000  00000000  000318d0  2**2
                  CONTENTS, READONLY, DEBUGGING
 15 .debug_str    00002dc0  00000000  00000000  000333ec  2**0
                  CONTENTS, READONLY, DEBUGGING
 16 .debug_loc    00004683  00000000  00000000  000361ac  2**0
                  CONTENTS, READONLY, DEBUGGING
 17 .debug_alt_sim_info 00000050  00000000  00000000  0003a830  2**2
                  CONTENTS, READONLY, DEBUGGING
 18 .debug_ranges 00000308  00000000  00000000  0003a880  2**3
                  CONTENTS, READONLY, DEBUGGING
 19 .thread_model 00000003  00000000  00000000  0003d7c9  2**0
                  CONTENTS, READONLY
 20 .cpu          00000003  00000000  00000000  0003d7cc  2**0
                  CONTENTS, READONLY
 21 .qsys         00000001  00000000  00000000  0003d7cf  2**0
                  CONTENTS, READONLY
 22 .simulation_enabled 00000001  00000000  00000000  0003d7d0  2**0
                  CONTENTS, READONLY
 23 .sysid_hash   00000004  00000000  00000000  0003d7d1  2**0
                  CONTENTS, READONLY
 24 .sysid_base   00000004  00000000  00000000  0003d7d5  2**0
                  CONTENTS, READONLY
 25 .sysid_time   00000004  00000000  00000000  0003d7d9  2**0
                  CONTENTS, READONLY
 26 .stderr_dev   00000009  00000000  00000000  0003d7dd  2**0
                  CONTENTS, READONLY
 27 .stdin_dev    00000009  00000000  00000000  0003d7e6  2**0
                  CONTENTS, READONLY
 28 .stdout_dev   00000009  00000000  00000000  0003d7ef  2**0
                  CONTENTS, READONLY
 29 .sopc_system_name 00000006  00000000  00000000  0003d7f8  2**0
                  CONTENTS, READONLY
 30 .quartus_project_dir 00000017  00000000  00000000  0003d7fe  2**0
                  CONTENTS, READONLY
SYMBOL TABLE:
00800000 l    d  .entry	00000000 .entry
01200020 l    d  .exceptions	00000000 .exceptions
01200240 l    d  .text	00000000 .text
0120802c l    d  .rodata	00000000 .rodata
0120809c l    d  .rwdata	00000000 .rwdata
01209bec l    d  .bss	00000000 .bss
00800020 l    d  .ext_flash_ctl	00000000 .ext_flash_ctl
01209d44 l    d  .ext_ram_ctl	00000000 .ext_ram_ctl
02000000 l    d  .instruction_tcm	00000000 .instruction_tcm
00000000 l    d  .comment	00000000 .comment
00000000 l    d  .debug_aranges	00000000 .debug_aranges
00000000 l    d  .debug_info	00000000 .debug_info
00000000 l    d  .debug_abbrev	00000000 .debug_abbrev
00000000 l    d  .debug_line	00000000 .debug_line
00000000 l    d  .debug_frame	00000000 .debug_frame
00000000 l    d  .debug_str	00000000 .debug_str
00000000 l    d  .debug_loc	00000000 .debug_loc
00000000 l    d  .debug_alt_sim_info	00000000 .debug_alt_sim_info
00000000 l    d  .debug_ranges	00000000 .debug_ranges
00000000 l    df *ABS*	00000000 ../niosII_training_bsp//obj/HAL/src/crt0.o
01200284 l       .text	00000000 alt_after_alt_main
00000000 l    df *ABS*	00000000 alt_irq_handler.c
00000000 l    df *ABS*	00000000 alt_instruction_exception_entry.c
00000000 l    df *ABS*	00000000 simple.c
01200288 l     F .text	0000006c handle_button_interrupts
012002f4 l     F .text	00000074 init_button_pio
00000000 l    df *ABS*	00000000 puts.c
00000000 l    df *ABS*	00000000 strlen.c
00000000 l    df *ABS*	00000000 fvwrite.c
00000000 l    df *ABS*	00000000 impure.c
0120809c l     O .rwdata	00000424 impure_data
00000000 l    df *ABS*	00000000 mallocr.c
00000000 l    df *ABS*	00000000 memchr.c
00000000 l    df *ABS*	00000000 memcpy.c
00000000 l    df *ABS*	00000000 memmove.c
00000000 l    df *ABS*	00000000 mallocr.c
00000000 l    df *ABS*	00000000 sbrkr.c
00000000 l    df *ABS*	00000000 wsetup.c
00000000 l    df *ABS*	00000000 fflush.c
00000000 l    df *ABS*	00000000 findfp.c
01201fb8 l     F .text	00000008 __fp_lock
01201fc0 l     F .text	00000008 __fp_unlock
01201fd4 l     F .text	000001a0 __sinit.part.1
00000000 l    df *ABS*	00000000 mallocr.c
00000000 l    df *ABS*	00000000 fwalk.c
00000000 l    df *ABS*	00000000 int_errno.c
00000000 l    df *ABS*	00000000 makebuf.c
00000000 l    df *ABS*	00000000 memset.c
00000000 l    df *ABS*	00000000 stdio.c
00000000 l    df *ABS*	00000000 writer.c
00000000 l    df *ABS*	00000000 closer.c
00000000 l    df *ABS*	00000000 fclose.c
00000000 l    df *ABS*	00000000 fstatr.c
00000000 l    df *ABS*	00000000 isattyr.c
00000000 l    df *ABS*	00000000 lseekr.c
00000000 l    df *ABS*	00000000 readr.c
00000000 l    df *ABS*	00000000 alt_close.c
0120301c l     F .text	00000050 alt_get_errno
00000000 l    df *ABS*	00000000 alt_dev.c
0120313c l     F .text	0000002c alt_dev_null_write
00000000 l    df *ABS*	00000000 alt_errno.c
00000000 l    df *ABS*	00000000 alt_fstat.c
01203168 l     F .text	00000050 alt_get_errno
00000000 l    df *ABS*	00000000 alt_iic.c
00000000 l    df *ABS*	00000000 alt_iic_isr_register.c
00000000 l    df *ABS*	00000000 alt_irq_vars.c
00000000 l    df *ABS*	00000000 alt_isatty.c
01203538 l     F .text	00000050 alt_get_errno
00000000 l    df *ABS*	00000000 alt_lseek.c
0120362c l     F .text	00000050 alt_get_errno
00000000 l    df *ABS*	00000000 alt_main.c
00000000 l    df *ABS*	00000000 alt_malloc_lock.c
00000000 l    df *ABS*	00000000 alt_read.c
01203808 l     F .text	00000050 alt_get_errno
00000000 l    df *ABS*	00000000 alt_release_fd.c
00000000 l    df *ABS*	00000000 alt_sbrk.c
01209bd8 l     O .rwdata	00000004 heap_end
00000000 l    df *ABS*	00000000 alt_usleep.c
00000000 l    df *ABS*	00000000 alt_write.c
01203a94 l     F .text	00000050 alt_get_errno
00000000 l    df *ABS*	00000000 alt_sys_init.c
01203bdc l     F .text	00000038 alt_dev_reg
01208a70 l     O .rwdata	000000dc ext_flash_ctl
01208b4c l     O .rwdata	00001060 jtag_uart
00000000 l    df *ABS*	00000000 altera_avalon_cfi_flash.c
01203cb4 l     F .text	00000038 alt_flash_device_register
00000000 l    df *ABS*	00000000 altera_avalon_cfi_flash_table.c
01204af0 l     F .text	00000080 alt_read_16bit_query_entry
00000000 l    df *ABS*	00000000 altera_avalon_jtag_uart_fd.c
00000000 l    df *ABS*	00000000 altera_avalon_jtag_uart_init.c
01205bbc l     F .text	00000204 altera_avalon_jtag_uart_irq
01205dc0 l     F .text	000000a8 altera_avalon_jtag_uart_timeout
00000000 l    df *ABS*	00000000 altera_avalon_jtag_uart_ioctl.c
00000000 l    df *ABS*	00000000 altera_avalon_jtag_uart_read.c
00000000 l    df *ABS*	00000000 altera_avalon_jtag_uart_write.c
00000000 l    df *ABS*	00000000 altera_avalon_timer_sc.c
012063e0 l     F .text	00000074 alt_avalon_timer_sc_irq
00000000 l    df *ABS*	00000000 alt_alarm_start.c
00000000 l    df *ABS*	00000000 alt_busy_sleep.c
00000000 l    df *ABS*	00000000 alt_dcache_flush.c
00000000 l    df *ABS*	00000000 alt_dev_llist_insert.c
012067e8 l     F .text	00000050 alt_get_errno
00000000 l    df *ABS*	00000000 alt_do_ctors.c
00000000 l    df *ABS*	00000000 alt_do_dtors.c
00000000 l    df *ABS*	00000000 alt_flash_dev.c
00000000 l    df *ABS*	00000000 alt_io_redirect.c
01206ae8 l     F .text	000000c0 alt_open_fd
00000000 l    df *ABS*	00000000 alt_open.c
01206c20 l     F .text	00000050 alt_get_errno
01206c70 l     F .text	000000cc alt_file_locked
00000000 l    df *ABS*	00000000 alt_tick.c
00000000 l    df *ABS*	00000000 altera_nios2_gen2_irq.c
00000000 l    df *ABS*	00000000 altera_avalon_cfi_flash_amd.c
012073e4 l     F .text	000000cc alt_write_word_amd
012072c8 l     F .text	0000011c alt_wait_for_command_to_complete_amd
00000000 l    df *ABS*	00000000 altera_avalon_cfi_flash_intel.c
012076b8 l     F .text	00000178 alt_unlock_block_intel
01207830 l     F .text	000000d4 alt_write_word_intel
00000000 l    df *ABS*	00000000 alt_find_dev.c
00000000 l    df *ABS*	00000000 alt_find_file.c
00000000 l    df *ABS*	00000000 alt_get_fd.c
00000000 l    df *ABS*	00000000 atexit.c
00000000 l    df *ABS*	00000000 exit.c
00000000 l    df *ABS*	00000000 memcmp.c
00000000 l    df *ABS*	00000000 __atexit.c
00000000 l    df *ABS*	00000000 __call_atexit.c
00000000 l    df *ABS*	00000000 lib2-divmod.c
01207ecc l     F .text	0000006c udivmodsi4
00000000 l    df *ABS*	00000000 alt_exit.c
01209c10 g     O .bss	00000004 alt_instruction_exception_handler
01202f10 g     F .text	00000054 _isatty_r
01203750 g     F .text	00000078 alt_main
01200510 g     F .text	000000b8 _puts_r
012045bc g     F .text	00000040 alt_read_query_entry_32bit
01209c44 g     O .bss	00000100 alt_irq
01202f64 g     F .text	0000005c _lseek_r
01203d7c g     F .text	000002a8 alt_flash_cfi_write
01209d44 g       *ABS*	00000000 __alt_heap_start
01202c90 g     F .text	0000005c __sseek
01202308 g     F .text	00000010 __sinit
01202174 g     F .text	00000064 __sfmoreglue
012037e8 g     F .text	00000020 __malloc_unlock
012014e0 g     F .text	0000015c memmove
012022f0 g     F .text	00000018 _cleanup
01207030 g     F .text	00000020 altera_nios2_gen2_irq_init
00000000  w      *UND*	00000000 __errno
02000000 g       *ABS*	00000000 __alt_mem_instruction_tcm
01204754 g     F .text	00000050 alt_write_flash_command_32bit_device_16bit_mode
00800000 g     F .entry	00000000 __reset
01209bec g     O .bss	00000004 edge_capture
01202eb8 g     F .text	00000058 _fstat_r
0120426c g     F .text	000002d4 alt_flash_program_block
01209bfc g     O .bss	00000004 errno
01202c0c g     F .text	00000008 __seofread
01209c08 g     O .bss	00000004 alt_argv
01211bac g       *ABS*	00000000 _gp
01203a64 g     F .text	00000030 usleep
012088f0 g     O .rwdata	00000180 alt_fd_list
01207904 g     F .text	00000090 alt_find_dev
012013a8 g     F .text	00000138 memcpy
01201fc8 g     F .text	0000000c _cleanup_r
01206ba8 g     F .text	00000078 alt_io_redirect
01200000 g       *ABS*	00000000 __alt_mem_ext_ram_ctl
0120802c g       *ABS*	00000000 __DTOR_END__
012005c8 g     F .text	00000014 puts
01206a4c g     F .text	0000009c alt_exception_cause_generated_bad_addr
01205fbc g     F .text	0000020c altera_avalon_jtag_uart_read
00000000  w      *UND*	00000000 malloc
01207fe8 g     F .text	00000008 .hidden __udivsi3
01203588 g     F .text	000000a4 isatty
01209bf8 g     O .bss	00000004 __malloc_top_pad
01200674 g     F .text	000004a4 __sfvwrite_r
01201bdc g     F .text	00000054 _sbrk_r
012074b0 g     F .text	00000080 alt_program_intel
01202fc0 g     F .text	0000005c _read_r
01206774 g     F .text	00000074 alt_dcache_flush
01209bcc g     O .rwdata	00000004 alt_max_fd
01204540 g     F .text	0000003c alt_read_query_entry_8bit
01202da4 g     F .text	00000100 _fclose_r
01207530 g     F .text	00000188 alt_erase_block_intel
01201f88 g     F .text	00000030 fflush
01209bf4 g     O .bss	00000004 __malloc_max_sbrked_mem
0120367c g     F .text	000000d4 lseek
01209bac g     O .rwdata	00000004 _global_impure_ptr
0120163c g     F .text	000005a0 _realloc_r
01209d44 g       *ABS*	00000000 __bss_end
01203448 g     F .text	000000f0 alt_iic_isr_register
01206f2c g     F .text	00000104 alt_tick
01202328 g     F .text	00000018 __fp_lock_all
012033fc g     F .text	0000004c alt_ic_irq_enabled
01206e94 g     F .text	00000098 alt_alarm_stop
01209c00 g     O .bss	00000004 alt_irq_active
012000fc g     F .exceptions	000000d0 alt_irq_handler
012088c8 g     O .rwdata	00000028 alt_dev_null
01204a54 g     F .text	0000009c alt_set_flash_algorithm_func
012045fc g     F .text	00000044 alt_write_flash_command_8bit_device_8bit_mode
01209bc4 g     O .rwdata	00000008 alt_dev_list
01203ae4 g     F .text	000000f8 write
012031b8 g     F .text	000000b0 fstat
012058bc g     F .text	000000d8 alt_check_primary_table
01207ff0 g     F .text	00000008 .hidden __umodsi3
012040b0 g     F .text	00000064 alt_flash_cfi_read
012047f4 g     F .text	00000038 alt_write_native_8bit
01209d44 g       *ABS*	00000000 end
01204640 g     F .text	00000078 alt_write_flash_command_16bit_device_8bit_mode
01204b70 g     F .text	000005c8 alt_read_cfi_table
01205af8 g     F .text	000000c4 altera_avalon_jtag_uart_init
012001cc g     F .exceptions	00000074 alt_instruction_exception_entry
0120802c g       *ABS*	00000000 __CTOR_LIST__
01400000 g       *ABS*	00000000 __alt_stack_pointer
01206454 g     F .text	00000088 alt_avalon_timer_sc_init
012061c8 g     F .text	00000218 altera_avalon_jtag_uart_write
01203cec g     F .text	00000090 alt_flash_cfi_init
01202318 g     F .text	00000004 __sfp_lock_acquire
012012c0 g     F .text	000000e8 memchr
0120247c g     F .text	000002f0 _free_r
01207d38 g     F .text	00000194 __call_exitprocs
01209bb4 g     O .rwdata	00000004 __malloc_sbrk_base
01200240 g     F .text	00000048 _start
01209c14 g     O .bss	00000004 _alt_tick_rate
01209c18 g     O .bss	00000004 _alt_nticks
01203858 g     F .text	000000fc read
01203c48 g     F .text	0000006c alt_sys_init
01207c24 g     F .text	00000114 __register_exitproc
0120457c g     F .text	00000040 alt_read_query_entry_16bit
01205e68 g     F .text	00000068 altera_avalon_jtag_uart_close
00800000 g       *ABS*	00000000 __alt_mem_ext_flash_ctl
01209c1c g     O .bss	00000028 __malloc_current_mallinfo
01204898 g     F .text	000001bc alt_set_flash_width_func
01205994 g     F .text	00000060 altera_avalon_jtag_uart_read_fd
01207aa8 g     F .text	000000b4 alt_get_fd
0120661c g     F .text	00000158 alt_busy_sleep
01202d50 g     F .text	00000054 _close_r
012070b8 g     F .text	00000210 alt_erase_block_amd
01207ba8 g     F .text	0000007c memcmp
01205a54 g     F .text	00000050 altera_avalon_jtag_uart_close_fd
01209d44 g       *ABS*	00000000 __alt_stack_base
01205aa4 g     F .text	00000054 altera_avalon_jtag_uart_ioctl_fd
01201c30 g     F .text	00000130 __swsetup_r
01205138 g     F .text	00000784 alt_read_cfi_width
012021d8 g     F .text	00000118 __sfp
012084c0 g     O .rwdata	00000408 __malloc_av_
01202324 g     F .text	00000004 __sinit_lock_release
01202bb8 g     F .text	00000054 __sread
01207994 g     F .text	00000114 alt_find_file
01206838 g     F .text	000000a4 alt_dev_llist_insert
012037c8 g     F .text	00000020 __malloc_lock
012039b4 g     F .text	000000b0 sbrk
01201d60 g     F .text	00000228 _fflush_r
01209bdc g     O .rwdata	00000008 alt_flash_dev_list
01204708 g     F .text	0000004c alt_write_flash_command_16bit_device_16bit_mode
01209bec g       *ABS*	00000000 __bss_start
01202a94 g     F .text	00000124 memset
01200368 g     F .text	000001a8 main
01209c0c g     O .bss	00000004 alt_envp
01209bf0 g     O .bss	00000004 __malloc_max_total_mem
012059f4 g     F .text	00000060 altera_avalon_jtag_uart_write_fd
01202cec g     F .text	00000008 __sclose
01400000 g       *ABS*	00000000 __alt_heap_limit
01202ea4 g     F .text	00000014 fclose
01200b18 g     F .text	000007a8 _malloc_r
01209bd0 g     O .rwdata	00000004 alt_errno
012047a4 g     F .text	00000050 alt_write_flash_command_32bit_device_32bit_mode
0120276c g     F .text	000000b8 _fwalk
01204114 g     F .text	00000158 alt_write_value_to_flash
0120482c g     F .text	00000038 alt_write_native_16bit
01207f38 g     F .text	00000054 .hidden __divsi3
01202358 g     F .text	00000124 _malloc_trim_r
0120802c g       *ABS*	00000000 __CTOR_END__
0120802c g       *ABS*	00000000 __DTOR_LIST__
01203c14 g     F .text	00000034 alt_irq_init
01203954 g     F .text	00000060 alt_release_fd
01207b5c g     F .text	00000014 atexit
01202cf4 g     F .text	0000005c _write_r
01209bb0 g     O .rwdata	00000004 _impure_ptr
01209c04 g     O .bss	00000004 alt_argc
01206938 g     F .text	0000005c _do_dtors
01200020 g       .exceptions	00000000 alt_irq_entry
01202340 g     F .text	00000018 __fp_unlock_all
01209bbc g     O .rwdata	00000008 alt_fs_list
012046b8 g     F .text	00000050 alt_write_flash_command_32bit_device_8bit_mode
01203268 g     F .text	00000050 alt_ic_isr_register
01209bec g       *ABS*	00000000 _edata
01209d44 g       *ABS*	00000000 _end
01206994 g     F .text	00000068 alt_flash_open_dev
01205ed0 g     F .text	000000ec altera_avalon_jtag_uart_ioctl
01203358 g     F .text	000000a4 alt_ic_irq_disable
01202c14 g     F .text	0000007c __swrite
01209bb8 g     O .rwdata	00000004 __malloc_trim_threshold
01207b70 g     F .text	00000038 exit
01202824 g     F .text	000000b8 _fwalk_reent
012069fc g     F .text	00000050 alt_flash_close_dev
01207f8c g     F .text	0000005c .hidden __modsi3
01400000 g       *ABS*	00000000 __alt_data_end
01200020 g     F .exceptions	00000000 alt_exception
0120231c g     F .text	00000004 __sfp_lock_release
01207ff8 g     F .text	00000034 _exit
012064dc g     F .text	00000140 alt_alarm_start
012028dc g     F .text	000001b8 __smakebuf_r
01204864 g     F .text	00000034 alt_write_native_32bit
012005dc g     F .text	00000098 strlen
01206d3c g     F .text	00000158 open
01204024 g     F .text	0000008c alt_flash_cfi_get_info
01209bd4 g     O .rwdata	00000004 alt_priority_mask
012032b8 g     F .text	000000a0 alt_ic_irq_enable
01209be4 g     O .rwdata	00000008 alt_alarm_list
012068dc g     F .text	0000005c _do_ctors
0120306c g     F .text	000000d0 close
01207050 g     F .text	00000068 alt_program_amd
00000000  w      *UND*	00000000 free
01202320 g     F .text	00000004 __sinit_lock_acquire



Disassembly of section .exceptions:

01200020 <alt_exception>:
 1200020:	deffed04 	addi	sp,sp,-76
 1200024:	dfc00015 	stw	ra,0(sp)
 1200028:	d8400215 	stw	at,8(sp)
 120002c:	d8800315 	stw	r2,12(sp)
 1200030:	d8c00415 	stw	r3,16(sp)
 1200034:	d9000515 	stw	r4,20(sp)
 1200038:	d9400615 	stw	r5,24(sp)
 120003c:	d9800715 	stw	r6,28(sp)
 1200040:	d9c00815 	stw	r7,32(sp)
 1200044:	000b307a 	rdctl	r5,estatus
 1200048:	da000915 	stw	r8,36(sp)
 120004c:	da400a15 	stw	r9,40(sp)
 1200050:	da800b15 	stw	r10,44(sp)
 1200054:	dac00c15 	stw	r11,48(sp)
 1200058:	db000d15 	stw	r12,52(sp)
 120005c:	db400e15 	stw	r13,56(sp)
 1200060:	db800f15 	stw	r14,60(sp)
 1200064:	dbc01015 	stw	r15,64(sp)
 1200068:	d9401115 	stw	r5,68(sp)
 120006c:	ebffff04 	addi	r15,ea,-4
 1200070:	dbc01215 	stw	r15,72(sp)
 1200074:	0009313a 	rdctl	r4,ipending
 1200078:	2880004c 	andi	r2,r5,1
 120007c:	10000326 	beq	r2,zero,120008c <alt_exception+0x6c>
 1200080:	20000226 	beq	r4,zero,120008c <alt_exception+0x6c>
 1200084:	12000fc0 	call	12000fc <alt_irq_handler>
 1200088:	00000706 	br	12000a8 <alt_exception+0x88>
 120008c:	df401215 	stw	ea,72(sp)
 1200090:	e8bfff17 	ldw	r2,-4(ea)
 1200094:	e93fff04 	addi	r4,ea,-4
 1200098:	12001cc0 	call	12001cc <alt_instruction_exception_entry>
 120009c:	1000021e 	bne	r2,zero,12000a8 <alt_exception+0x88>
 12000a0:	ebffff04 	addi	r15,ea,-4
 12000a4:	dbc01215 	stw	r15,72(sp)
 12000a8:	d9401117 	ldw	r5,68(sp)
 12000ac:	df401217 	ldw	ea,72(sp)
 12000b0:	dfc00017 	ldw	ra,0(sp)
 12000b4:	2801707a 	wrctl	estatus,r5
 12000b8:	d8400217 	ldw	at,8(sp)
 12000bc:	d8800317 	ldw	r2,12(sp)
 12000c0:	d8c00417 	ldw	r3,16(sp)
 12000c4:	d9000517 	ldw	r4,20(sp)
 12000c8:	d9400617 	ldw	r5,24(sp)
 12000cc:	d9800717 	ldw	r6,28(sp)
 12000d0:	d9c00817 	ldw	r7,32(sp)
 12000d4:	da000917 	ldw	r8,36(sp)
 12000d8:	da400a17 	ldw	r9,40(sp)
 12000dc:	da800b17 	ldw	r10,44(sp)
 12000e0:	dac00c17 	ldw	r11,48(sp)
 12000e4:	db000d17 	ldw	r12,52(sp)
 12000e8:	db400e17 	ldw	r13,56(sp)
 12000ec:	db800f17 	ldw	r14,60(sp)
 12000f0:	dbc01017 	ldw	r15,64(sp)
 12000f4:	dec01304 	addi	sp,sp,76
 12000f8:	ef80083a 	eret

012000fc <alt_irq_handler>:
 12000fc:	defff904 	addi	sp,sp,-28
 1200100:	dfc00615 	stw	ra,24(sp)
 1200104:	df000515 	stw	fp,20(sp)
 1200108:	df000504 	addi	fp,sp,20
 120010c:	0001883a 	nop
 1200110:	0005313a 	rdctl	r2,ipending
 1200114:	e0bffe15 	stw	r2,-8(fp)
 1200118:	e0bffe17 	ldw	r2,-8(fp)
 120011c:	e0bffb15 	stw	r2,-20(fp)
 1200120:	e03ffd15 	stw	zero,-12(fp)
 1200124:	00800044 	movi	r2,1
 1200128:	e0bffc15 	stw	r2,-16(fp)
 120012c:	e0fffb17 	ldw	r3,-20(fp)
 1200130:	e0bffc17 	ldw	r2,-16(fp)
 1200134:	1884703a 	and	r2,r3,r2
 1200138:	10001426 	beq	r2,zero,120018c <alt_irq_handler+0x90>
 120013c:	00804874 	movhi	r2,289
 1200140:	10a71104 	addi	r2,r2,-25532
 1200144:	e0fffd17 	ldw	r3,-12(fp)
 1200148:	180690fa 	slli	r3,r3,3
 120014c:	10c5883a 	add	r2,r2,r3
 1200150:	10c00017 	ldw	r3,0(r2)
 1200154:	00804874 	movhi	r2,289
 1200158:	10a71104 	addi	r2,r2,-25532
 120015c:	e13ffd17 	ldw	r4,-12(fp)
 1200160:	200890fa 	slli	r4,r4,3
 1200164:	1105883a 	add	r2,r2,r4
 1200168:	10800104 	addi	r2,r2,4
 120016c:	10800017 	ldw	r2,0(r2)
 1200170:	1009883a 	mov	r4,r2
 1200174:	183ee83a 	callr	r3
 1200178:	0001883a 	nop
 120017c:	0005313a 	rdctl	r2,ipending
 1200180:	e0bfff15 	stw	r2,-4(fp)
 1200184:	e0bfff17 	ldw	r2,-4(fp)
 1200188:	00000706 	br	12001a8 <alt_irq_handler+0xac>
 120018c:	e0bffc17 	ldw	r2,-16(fp)
 1200190:	1085883a 	add	r2,r2,r2
 1200194:	e0bffc15 	stw	r2,-16(fp)
 1200198:	e0bffd17 	ldw	r2,-12(fp)
 120019c:	10800044 	addi	r2,r2,1
 12001a0:	e0bffd15 	stw	r2,-12(fp)
 12001a4:	003fe106 	br	120012c <__alt_mem_instruction_tcm+0xff20012c>
 12001a8:	e0bffb15 	stw	r2,-20(fp)
 12001ac:	e0bffb17 	ldw	r2,-20(fp)
 12001b0:	103fdb1e 	bne	r2,zero,1200120 <__alt_mem_instruction_tcm+0xff200120>
 12001b4:	0001883a 	nop
 12001b8:	e037883a 	mov	sp,fp
 12001bc:	dfc00117 	ldw	ra,4(sp)
 12001c0:	df000017 	ldw	fp,0(sp)
 12001c4:	dec00204 	addi	sp,sp,8
 12001c8:	f800283a 	ret

012001cc <alt_instruction_exception_entry>:
 12001cc:	defffb04 	addi	sp,sp,-20
 12001d0:	dfc00415 	stw	ra,16(sp)
 12001d4:	df000315 	stw	fp,12(sp)
 12001d8:	df000304 	addi	fp,sp,12
 12001dc:	e13fff15 	stw	r4,-4(fp)
 12001e0:	000531fa 	rdctl	r2,exception
 12001e4:	e0bffd15 	stw	r2,-12(fp)
 12001e8:	e0bffd17 	ldw	r2,-12(fp)
 12001ec:	10801f0c 	andi	r2,r2,124
 12001f0:	1004d0ba 	srli	r2,r2,2
 12001f4:	e0bffd15 	stw	r2,-12(fp)
 12001f8:	0005333a 	rdctl	r2,badaddr
 12001fc:	e0bffe15 	stw	r2,-8(fp)
 1200200:	d0a01917 	ldw	r2,-32668(gp)
 1200204:	10000726 	beq	r2,zero,1200224 <alt_instruction_exception_entry+0x58>
 1200208:	d0a01917 	ldw	r2,-32668(gp)
 120020c:	e0fffd17 	ldw	r3,-12(fp)
 1200210:	1809883a 	mov	r4,r3
 1200214:	e17fff17 	ldw	r5,-4(fp)
 1200218:	e1bffe17 	ldw	r6,-8(fp)
 120021c:	103ee83a 	callr	r2
 1200220:	00000206 	br	120022c <alt_instruction_exception_entry+0x60>
 1200224:	003da03a 	break	0
 1200228:	0005883a 	mov	r2,zero
 120022c:	e037883a 	mov	sp,fp
 1200230:	dfc00117 	ldw	ra,4(sp)
 1200234:	df000017 	ldw	fp,0(sp)
 1200238:	dec00204 	addi	sp,sp,8
 120023c:	f800283a 	ret

Disassembly of section .text:

01200240 <_start>:
 1200240:	00840014 	movui	r2,4096
 1200244:	10000033 	initd	0(r2)
 1200248:	10bff804 	addi	r2,r2,-32
 120024c:	00bffd16 	blt	zero,r2,1200244 <__alt_mem_instruction_tcm+0xff200244>
 1200250:	06c05034 	movhi	sp,320
 1200254:	dec00014 	ori	sp,sp,0
 1200258:	06804874 	movhi	gp,289
 120025c:	d686eb14 	ori	gp,gp,7084
 1200260:	00804834 	movhi	r2,288
 1200264:	10a6fb14 	ori	r2,r2,39916
 1200268:	00c04834 	movhi	r3,288
 120026c:	18e75114 	ori	r3,r3,40260
 1200270:	10c00326 	beq	r2,r3,1200280 <_start+0x40>
 1200274:	10000015 	stw	zero,0(r2)
 1200278:	10800104 	addi	r2,r2,4
 120027c:	10fffd36 	bltu	r2,r3,1200274 <__alt_mem_instruction_tcm+0xff200274>
 1200280:	12037500 	call	1203750 <alt_main>

01200284 <alt_after_alt_main>:
 1200284:	003fff06 	br	1200284 <__alt_mem_instruction_tcm+0xff200284>

01200288 <handle_button_interrupts>:
#ifdef ALT_ENHANCED_INTERRUPT_API_PRESENT
    static void handle_button_interrupts(void* context)
#else
    static void handle_button_interrupts(void* context, alt_u32 id)
#endif
{
 1200288:	defffc04 	addi	sp,sp,-16
 120028c:	dfc00315 	stw	ra,12(sp)
 1200290:	df000215 	stw	fp,8(sp)
 1200294:	df000204 	addi	fp,sp,8
 1200298:	e13fff15 	stw	r4,-4(fp)
    /* Cast context to edge_capture's type. It is important that this
    be declared volatile to avoid unwanted compiler optimization. */
    volatile int* edge_capture_ptr = (volatile int*) context;
 120029c:	e0bfff17 	ldw	r2,-4(fp)
 12002a0:	e0bffe15 	stw	r2,-8(fp)
    /*
    * Read the edge capture register on the button PIO.
    * Store value.
    */
    *edge_capture_ptr =
    IORD_ALTERA_AVALON_PIO_EDGE_CAP(BUTTONS_BASE);
 12002a4:	00805034 	movhi	r2,320
 12002a8:	10841304 	addi	r2,r2,4172
 12002ac:	10c00037 	ldwio	r3,0(r2)
    volatile int* edge_capture_ptr = (volatile int*) context;
    /*
    * Read the edge capture register on the button PIO.
    * Store value.
    */
    *edge_capture_ptr =
 12002b0:	e0bffe17 	ldw	r2,-8(fp)
 12002b4:	10c00015 	stw	r3,0(r2)
    IORD_ALTERA_AVALON_PIO_EDGE_CAP(BUTTONS_BASE);
    /* Write to the edge capture register to reset it. */
    IOWR_ALTERA_AVALON_PIO_EDGE_CAP(BUTTONS_BASE, 0);
 12002b8:	0007883a 	mov	r3,zero
 12002bc:	00805034 	movhi	r2,320
 12002c0:	10841304 	addi	r2,r2,4172
 12002c4:	10c00035 	stwio	r3,0(r2)
    /* Read the PIO to delay ISR exit. This is done to prevent a
    spurious interrupt in systems with high processor -> pio
    latency and fast interrupts. */
    IORD_ALTERA_AVALON_PIO_EDGE_CAP(BUTTONS_BASE);
 12002c8:	00805034 	movhi	r2,320
 12002cc:	10841304 	addi	r2,r2,4172
 12002d0:	10800037 	ldwio	r2,0(r2)
    printf("Handler captured!\n");
 12002d4:	01004874 	movhi	r4,289
 12002d8:	21200b04 	addi	r4,r4,-32724
 12002dc:	12005c80 	call	12005c8 <puts>
}
 12002e0:	e037883a 	mov	sp,fp
 12002e4:	dfc00117 	ldw	ra,4(sp)
 12002e8:	df000017 	ldw	fp,0(sp)
 12002ec:	dec00204 	addi	sp,sp,8
 12002f0:	f800283a 	ret

012002f4 <init_button_pio>:

/* Initialize the button_pio. */
static void init_button_pio()
{
 12002f4:	defffc04 	addi	sp,sp,-16
 12002f8:	dfc00315 	stw	ra,12(sp)
 12002fc:	df000215 	stw	fp,8(sp)
 1200300:	df000204 	addi	fp,sp,8
    /* Recast the edge_capture pointer to match the
    alt_irq_register() function prototype. */
    void* edge_capture_ptr = (void*) &edge_capture;
 1200304:	d0a01004 	addi	r2,gp,-32704
 1200308:	e0bfff15 	stw	r2,-4(fp)
    /* Enable all 4 button interrupts. */
    //можем обрабатывать со всех четырех линий.кнопок
    IOWR_ALTERA_AVALON_PIO_IRQ_MASK(BUTTONS_BASE, 0xf);
 120030c:	00c003c4 	movi	r3,15
 1200310:	00805034 	movhi	r2,320
 1200314:	10841204 	addi	r2,r2,4168
 1200318:	10c00035 	stwio	r3,0(r2)
    /* Reset the edge capture register. */
    // сбрасываем регистр edge capture
    IOWR_ALTERA_AVALON_PIO_EDGE_CAP(BUTTONS_BASE, 0x0);
 120031c:	0007883a 	mov	r3,zero
 1200320:	00805034 	movhi	r2,320
 1200324:	10841304 	addi	r2,r2,4172
 1200328:	10c00035 	stwio	r3,0(r2)
    /* Register the ISR. */
    // задание обработчика прерываний
    #ifdef ALT_ENHANCED_INTERRUPT_API_PRESENT
        alt_ic_isr_register(BUTTONS_IRQ_INTERRUPT_CONTROLLER_ID,
 120032c:	d8000015 	stw	zero,0(sp)
 1200330:	0009883a 	mov	r4,zero
 1200334:	01400084 	movi	r5,2
 1200338:	01804834 	movhi	r6,288
 120033c:	3180a204 	addi	r6,r6,648
 1200340:	e1ffff17 	ldw	r7,-4(fp)
 1200344:	12032680 	call	1203268 <alt_ic_isr_register>
            edge_capture_ptr, 0x0);
    #else
        alt_irq_register( BUTTON_PIO_IRQ, edge_capture_ptr, handle_button_interrupts );
    #endif

    printf("Init done!\n");
 1200348:	01004874 	movhi	r4,289
 120034c:	21201004 	addi	r4,r4,-32704
 1200350:	12005c80 	call	12005c8 <puts>
}
 1200354:	e037883a 	mov	sp,fp
 1200358:	dfc00117 	ldw	ra,4(sp)
 120035c:	df000017 	ldw	fp,0(sp)
 1200360:	dec00204 	addi	sp,sp,8
 1200364:	f800283a 	ret

01200368 <main>:

int main(void)
{
 1200368:	defff904 	addi	sp,sp,-28
 120036c:	dfc00615 	stw	ra,24(sp)
 1200370:	df000515 	stw	fp,20(sp)
 1200374:	df000504 	addi	fp,sp,20
    int led = 0x00;
 1200378:	e03ffb15 	stw	zero,-20(fp)

    int a1 = 0;
 120037c:	e03ffc15 	stw	zero,-16(fp)
    int a2 = 0;
 1200380:	e03ffd15 	stw	zero,-12(fp)
    int a3 = 0;
 1200384:	e03ffe15 	stw	zero,-8(fp)
    int a4 = 0;
 1200388:	e03fff15 	stw	zero,-4(fp)

    edge_capture = 0xF;
 120038c:	008003c4 	movi	r2,15
 1200390:	d0a01015 	stw	r2,-32704(gp)

    init_button_pio();
 1200394:	12002f40 	call	12002f4 <init_button_pio>

    printf("Simple\n");   // print a message to show that program is running
 1200398:	01004874 	movhi	r4,289
 120039c:	21201304 	addi	r4,r4,-32692
 12003a0:	12005c80 	call	12005c8 <puts>

    IOWR_ALTERA_AVALON_PIO_DATA(GREEN_LED_BASE,led); // write initial value
 12003a4:	00805034 	movhi	r2,320
 12003a8:	10841404 	addi	r2,r2,4176
 12003ac:	e0fffb17 	ldw	r3,-20(fp)
 12003b0:	10c00035 	stwio	r3,0(r2)
    while (1)
    {
        if (edge_capture != NONE_PRESSED)  // if button pressed
 12003b4:	d0a01017 	ldw	r2,-32704(gp)
 12003b8:	108003e0 	cmpeqi	r2,r2,15
 12003bc:	1000531e 	bne	r2,zero,120050c <main+0x1a4>
        {

            switch(edge_capture) {
 12003c0:	d0a01017 	ldw	r2,-32704(gp)
 12003c4:	10c000a0 	cmpeqi	r3,r2,2
 12003c8:	1800241e 	bne	r3,zero,120045c <main+0xf4>
 12003cc:	10c000c8 	cmpgei	r3,r2,3
 12003d0:	1800031e 	bne	r3,zero,12003e0 <main+0x78>
 12003d4:	10800060 	cmpeqi	r2,r2,1
 12003d8:	1000061e 	bne	r2,zero,12003f4 <main+0x8c>
 12003dc:	00003906 	br	12004c4 <main+0x15c>
 12003e0:	10c00120 	cmpeqi	r3,r2,4
 12003e4:	18002a1e 	bne	r3,zero,1200490 <main+0x128>
 12003e8:	10800220 	cmpeqi	r2,r2,8
 12003ec:	10000e1e 	bne	r2,zero,1200428 <main+0xc0>
 12003f0:	00003406 	br	12004c4 <main+0x15c>
                case BTN_RIGHT_PRESSED:
                	if (a1 == 0) {
 12003f4:	e0bffc17 	ldw	r2,-16(fp)
 12003f8:	1000061e 	bne	r2,zero,1200414 <main+0xac>
                		led += 0x02;
 12003fc:	e0bffb17 	ldw	r2,-20(fp)
 1200400:	10800084 	addi	r2,r2,2
 1200404:	e0bffb15 	stw	r2,-20(fp)
                		a1 = 1;
 1200408:	00800044 	movi	r2,1
 120040c:	e0bffc15 	stw	r2,-16(fp)
                	else {
                		led -= 0x02;
                		a1 = 0;
                	}

                    break;
 1200410:	00002c06 	br	12004c4 <main+0x15c>
                	if (a1 == 0) {
                		led += 0x02;
                		a1 = 1;
                	}
                	else {
                		led -= 0x02;
 1200414:	e0bffb17 	ldw	r2,-20(fp)
 1200418:	10bfff84 	addi	r2,r2,-2
 120041c:	e0bffb15 	stw	r2,-20(fp)
                		a1 = 0;
 1200420:	e03ffc15 	stw	zero,-16(fp)
                	}

                    break;
 1200424:	00002706 	br	12004c4 <main+0x15c>
                case BTN_LEFT_PRESSED:

                	if (a2 == 0) {
 1200428:	e0bffd17 	ldw	r2,-12(fp)
 120042c:	1000061e 	bne	r2,zero,1200448 <main+0xe0>
                		led += 0x10;
 1200430:	e0bffb17 	ldw	r2,-20(fp)
 1200434:	10800404 	addi	r2,r2,16
 1200438:	e0bffb15 	stw	r2,-20(fp)
                		a2 = 1;
 120043c:	00800044 	movi	r2,1
 1200440:	e0bffd15 	stw	r2,-12(fp)
                	else {
                		led -= 0x10;
                		a2 = 0;
                	}

                    break;
 1200444:	00001f06 	br	12004c4 <main+0x15c>
                	if (a2 == 0) {
                		led += 0x10;
                		a2 = 1;
                	}
                	else {
                		led -= 0x10;
 1200448:	e0bffb17 	ldw	r2,-20(fp)
 120044c:	10bffc04 	addi	r2,r2,-16
 1200450:	e0bffb15 	stw	r2,-20(fp)
                		a2 = 0;
 1200454:	e03ffd15 	stw	zero,-12(fp)
                	}

                    break;
 1200458:	00001a06 	br	12004c4 <main+0x15c>
                case BTN_CNTR_RIGHT:
                	if (a3 == 0) {
 120045c:	e0bffe17 	ldw	r2,-8(fp)
 1200460:	1000061e 	bne	r2,zero,120047c <main+0x114>
                		led += 0x04;
 1200464:	e0bffb17 	ldw	r2,-20(fp)
 1200468:	10800104 	addi	r2,r2,4
 120046c:	e0bffb15 	stw	r2,-20(fp)
                		a3 = 1;
 1200470:	00800044 	movi	r2,1
 1200474:	e0bffe15 	stw	r2,-8(fp)
                	}
                	else {
                		led -= 0x04;
                		a3 = 0;
                	}
                    break;
 1200478:	00001206 	br	12004c4 <main+0x15c>
                	if (a3 == 0) {
                		led += 0x04;
                		a3 = 1;
                	}
                	else {
                		led -= 0x04;
 120047c:	e0bffb17 	ldw	r2,-20(fp)
 1200480:	10bfff04 	addi	r2,r2,-4
 1200484:	e0bffb15 	stw	r2,-20(fp)
                		a3 = 0;
 1200488:	e03ffe15 	stw	zero,-8(fp)
                	}
                    break;
 120048c:	00000d06 	br	12004c4 <main+0x15c>
                case BTN_CNTR_LEFT:
                	if (a4 == 0) {
 1200490:	e0bfff17 	ldw	r2,-4(fp)
 1200494:	1000061e 	bne	r2,zero,12004b0 <main+0x148>
                		led += 0x08;
 1200498:	e0bffb17 	ldw	r2,-20(fp)
 120049c:	10800204 	addi	r2,r2,8
 12004a0:	e0bffb15 	stw	r2,-20(fp)
                		a4 = 1;
 12004a4:	00800044 	movi	r2,1
 12004a8:	e0bfff15 	stw	r2,-4(fp)
                	}
                	else {
                		led -= 0x08;
                		a4 = 0;
                	}
                    break;
 12004ac:	00000406 	br	12004c0 <main+0x158>
                	if (a4 == 0) {
                		led += 0x08;
                		a4 = 1;
                	}
                	else {
                		led -= 0x08;
 12004b0:	e0bffb17 	ldw	r2,-20(fp)
 12004b4:	10bffe04 	addi	r2,r2,-8
 12004b8:	e0bffb15 	stw	r2,-20(fp)
                		a4 = 0;
 12004bc:	e03fff15 	stw	zero,-4(fp)
                	}
                    break;
 12004c0:	0001883a 	nop

            }
            edge_capture = 0xF;
 12004c4:	008003c4 	movi	r2,15
 12004c8:	d0a01015 	stw	r2,-32704(gp)

            IOWR_ALTERA_AVALON_PIO_DATA(GREEN_LED_BASE, led);
 12004cc:	00805034 	movhi	r2,320
 12004d0:	10841404 	addi	r2,r2,4176
 12004d4:	e0fffb17 	ldw	r3,-20(fp)
 12004d8:	10c00035 	stwio	r3,0(r2)

            usleep (DEBOUNCE);
 12004dc:	011d4c04 	movi	r4,30000
 12004e0:	1203a640 	call	1203a64 <usleep>
            while (edge_capture != NONE_PRESSED)  // wait for button release
 12004e4:	00000406 	br	12004f8 <main+0x190>
                edge_capture = IORD_ALTERA_AVALON_PIO_DATA(BUTTONS_BASE);
 12004e8:	00805034 	movhi	r2,320
 12004ec:	10841004 	addi	r2,r2,4160
 12004f0:	10800037 	ldwio	r2,0(r2)
 12004f4:	d0a01015 	stw	r2,-32704(gp)
            edge_capture = 0xF;

            IOWR_ALTERA_AVALON_PIO_DATA(GREEN_LED_BASE, led);

            usleep (DEBOUNCE);
            while (edge_capture != NONE_PRESSED)  // wait for button release
 12004f8:	d0a01017 	ldw	r2,-32704(gp)
 12004fc:	108003d8 	cmpnei	r2,r2,15
 1200500:	103ff91e 	bne	r2,zero,12004e8 <__alt_mem_instruction_tcm+0xff2004e8>
                edge_capture = IORD_ALTERA_AVALON_PIO_DATA(BUTTONS_BASE);
            usleep (DEBOUNCE);
 1200504:	011d4c04 	movi	r4,30000
 1200508:	1203a640 	call	1203a64 <usleep>
        }

    }
 120050c:	003fa906 	br	12003b4 <__alt_mem_instruction_tcm+0xff2003b4>

01200510 <_puts_r>:
 1200510:	defff604 	addi	sp,sp,-40
 1200514:	dc000715 	stw	r16,28(sp)
 1200518:	2021883a 	mov	r16,r4
 120051c:	2809883a 	mov	r4,r5
 1200520:	dc400815 	stw	r17,32(sp)
 1200524:	dfc00915 	stw	ra,36(sp)
 1200528:	2823883a 	mov	r17,r5
 120052c:	12005dc0 	call	12005dc <strlen>
 1200530:	00c04874 	movhi	r3,289
 1200534:	18e6ec04 	addi	r3,r3,-25680
 1200538:	18c00017 	ldw	r3,0(r3)
 120053c:	11000044 	addi	r4,r2,1
 1200540:	d8800115 	stw	r2,4(sp)
 1200544:	18c00217 	ldw	r3,8(r3)
 1200548:	01404874 	movhi	r5,289
 120054c:	29601504 	addi	r5,r5,-32684
 1200550:	1880030b 	ldhu	r2,12(r3)
 1200554:	d9400215 	stw	r5,8(sp)
 1200558:	d9000615 	stw	r4,24(sp)
 120055c:	01400044 	movi	r5,1
 1200560:	01000084 	movi	r4,2
 1200564:	d9000515 	stw	r4,20(sp)
 1200568:	dc400015 	stw	r17,0(sp)
 120056c:	d9400315 	stw	r5,12(sp)
 1200570:	dec00415 	stw	sp,16(sp)
 1200574:	1108000c 	andi	r4,r2,8192
 1200578:	2000061e 	bne	r4,zero,1200594 <_puts_r+0x84>
 120057c:	19401917 	ldw	r5,100(r3)
 1200580:	0137ffc4 	movi	r4,-8193
 1200584:	10880014 	ori	r2,r2,8192
 1200588:	2908703a 	and	r4,r5,r4
 120058c:	1880030d 	sth	r2,12(r3)
 1200590:	19001915 	stw	r4,100(r3)
 1200594:	81400217 	ldw	r5,8(r16)
 1200598:	8009883a 	mov	r4,r16
 120059c:	d9800404 	addi	r6,sp,16
 12005a0:	12006740 	call	1200674 <__sfvwrite_r>
 12005a4:	1000061e 	bne	r2,zero,12005c0 <_puts_r+0xb0>
 12005a8:	00800284 	movi	r2,10
 12005ac:	dfc00917 	ldw	ra,36(sp)
 12005b0:	dc400817 	ldw	r17,32(sp)
 12005b4:	dc000717 	ldw	r16,28(sp)
 12005b8:	dec00a04 	addi	sp,sp,40
 12005bc:	f800283a 	ret
 12005c0:	00bfffc4 	movi	r2,-1
 12005c4:	003ff906 	br	12005ac <__alt_mem_instruction_tcm+0xff2005ac>

012005c8 <puts>:
 12005c8:	00804874 	movhi	r2,289
 12005cc:	10a6ec04 	addi	r2,r2,-25680
 12005d0:	200b883a 	mov	r5,r4
 12005d4:	11000017 	ldw	r4,0(r2)
 12005d8:	12005101 	jmpi	1200510 <_puts_r>

012005dc <strlen>:
 12005dc:	208000cc 	andi	r2,r4,3
 12005e0:	10002026 	beq	r2,zero,1200664 <strlen+0x88>
 12005e4:	20800007 	ldb	r2,0(r4)
 12005e8:	10002026 	beq	r2,zero,120066c <strlen+0x90>
 12005ec:	2005883a 	mov	r2,r4
 12005f0:	00000206 	br	12005fc <strlen+0x20>
 12005f4:	10c00007 	ldb	r3,0(r2)
 12005f8:	18001826 	beq	r3,zero,120065c <strlen+0x80>
 12005fc:	10800044 	addi	r2,r2,1
 1200600:	10c000cc 	andi	r3,r2,3
 1200604:	183ffb1e 	bne	r3,zero,12005f4 <__alt_mem_instruction_tcm+0xff2005f4>
 1200608:	10c00017 	ldw	r3,0(r2)
 120060c:	01ffbff4 	movhi	r7,65279
 1200610:	39ffbfc4 	addi	r7,r7,-257
 1200614:	00ca303a 	nor	r5,zero,r3
 1200618:	01a02074 	movhi	r6,32897
 120061c:	19c7883a 	add	r3,r3,r7
 1200620:	31a02004 	addi	r6,r6,-32640
 1200624:	1946703a 	and	r3,r3,r5
 1200628:	1986703a 	and	r3,r3,r6
 120062c:	1800091e 	bne	r3,zero,1200654 <strlen+0x78>
 1200630:	10800104 	addi	r2,r2,4
 1200634:	10c00017 	ldw	r3,0(r2)
 1200638:	19cb883a 	add	r5,r3,r7
 120063c:	00c6303a 	nor	r3,zero,r3
 1200640:	28c6703a 	and	r3,r5,r3
 1200644:	1986703a 	and	r3,r3,r6
 1200648:	183ff926 	beq	r3,zero,1200630 <__alt_mem_instruction_tcm+0xff200630>
 120064c:	00000106 	br	1200654 <strlen+0x78>
 1200650:	10800044 	addi	r2,r2,1
 1200654:	10c00007 	ldb	r3,0(r2)
 1200658:	183ffd1e 	bne	r3,zero,1200650 <__alt_mem_instruction_tcm+0xff200650>
 120065c:	1105c83a 	sub	r2,r2,r4
 1200660:	f800283a 	ret
 1200664:	2005883a 	mov	r2,r4
 1200668:	003fe706 	br	1200608 <__alt_mem_instruction_tcm+0xff200608>
 120066c:	0005883a 	mov	r2,zero
 1200670:	f800283a 	ret

01200674 <__sfvwrite_r>:
 1200674:	30800217 	ldw	r2,8(r6)
 1200678:	10004526 	beq	r2,zero,1200790 <__sfvwrite_r+0x11c>
 120067c:	28c0030b 	ldhu	r3,12(r5)
 1200680:	defff404 	addi	sp,sp,-48
 1200684:	dd400715 	stw	r21,28(sp)
 1200688:	dcc00515 	stw	r19,20(sp)
 120068c:	dc000215 	stw	r16,8(sp)
 1200690:	dfc00b15 	stw	ra,44(sp)
 1200694:	df000a15 	stw	fp,40(sp)
 1200698:	ddc00915 	stw	r23,36(sp)
 120069c:	dd800815 	stw	r22,32(sp)
 12006a0:	dd000615 	stw	r20,24(sp)
 12006a4:	dc800415 	stw	r18,16(sp)
 12006a8:	dc400315 	stw	r17,12(sp)
 12006ac:	1880020c 	andi	r2,r3,8
 12006b0:	2821883a 	mov	r16,r5
 12006b4:	202b883a 	mov	r21,r4
 12006b8:	3027883a 	mov	r19,r6
 12006bc:	10002526 	beq	r2,zero,1200754 <__sfvwrite_r+0xe0>
 12006c0:	28800417 	ldw	r2,16(r5)
 12006c4:	10002326 	beq	r2,zero,1200754 <__sfvwrite_r+0xe0>
 12006c8:	1880008c 	andi	r2,r3,2
 12006cc:	9c400017 	ldw	r17,0(r19)
 12006d0:	10003126 	beq	r2,zero,1200798 <__sfvwrite_r+0x124>
 12006d4:	0029883a 	mov	r20,zero
 12006d8:	0025883a 	mov	r18,zero
 12006dc:	05810004 	movi	r22,1024
 12006e0:	a00d883a 	mov	r6,r20
 12006e4:	a809883a 	mov	r4,r21
 12006e8:	90002526 	beq	r18,zero,1200780 <__sfvwrite_r+0x10c>
 12006ec:	900f883a 	mov	r7,r18
 12006f0:	81400717 	ldw	r5,28(r16)
 12006f4:	b480012e 	bgeu	r22,r18,12006fc <__sfvwrite_r+0x88>
 12006f8:	01c10004 	movi	r7,1024
 12006fc:	80800917 	ldw	r2,36(r16)
 1200700:	103ee83a 	callr	r2
 1200704:	0080510e 	bge	zero,r2,120084c <__sfvwrite_r+0x1d8>
 1200708:	98c00217 	ldw	r3,8(r19)
 120070c:	a0a9883a 	add	r20,r20,r2
 1200710:	90a5c83a 	sub	r18,r18,r2
 1200714:	1885c83a 	sub	r2,r3,r2
 1200718:	98800215 	stw	r2,8(r19)
 120071c:	103ff01e 	bne	r2,zero,12006e0 <__alt_mem_instruction_tcm+0xff2006e0>
 1200720:	0005883a 	mov	r2,zero
 1200724:	dfc00b17 	ldw	ra,44(sp)
 1200728:	df000a17 	ldw	fp,40(sp)
 120072c:	ddc00917 	ldw	r23,36(sp)
 1200730:	dd800817 	ldw	r22,32(sp)
 1200734:	dd400717 	ldw	r21,28(sp)
 1200738:	dd000617 	ldw	r20,24(sp)
 120073c:	dcc00517 	ldw	r19,20(sp)
 1200740:	dc800417 	ldw	r18,16(sp)
 1200744:	dc400317 	ldw	r17,12(sp)
 1200748:	dc000217 	ldw	r16,8(sp)
 120074c:	dec00c04 	addi	sp,sp,48
 1200750:	f800283a 	ret
 1200754:	a809883a 	mov	r4,r21
 1200758:	800b883a 	mov	r5,r16
 120075c:	1201c300 	call	1201c30 <__swsetup_r>
 1200760:	80c0030b 	ldhu	r3,12(r16)
 1200764:	103fd826 	beq	r2,zero,12006c8 <__alt_mem_instruction_tcm+0xff2006c8>
 1200768:	18c01014 	ori	r3,r3,64
 120076c:	80c0030d 	sth	r3,12(r16)
 1200770:	00c00244 	movi	r3,9
 1200774:	00bfffc4 	movi	r2,-1
 1200778:	a8c00015 	stw	r3,0(r21)
 120077c:	003fe906 	br	1200724 <__alt_mem_instruction_tcm+0xff200724>
 1200780:	8d000017 	ldw	r20,0(r17)
 1200784:	8c800117 	ldw	r18,4(r17)
 1200788:	8c400204 	addi	r17,r17,8
 120078c:	003fd406 	br	12006e0 <__alt_mem_instruction_tcm+0xff2006e0>
 1200790:	0005883a 	mov	r2,zero
 1200794:	f800283a 	ret
 1200798:	1880004c 	andi	r2,r3,1
 120079c:	1000301e 	bne	r2,zero,1200860 <__sfvwrite_r+0x1ec>
 12007a0:	002f883a 	mov	r23,zero
 12007a4:	0025883a 	mov	r18,zero
 12007a8:	90001c26 	beq	r18,zero,120081c <__sfvwrite_r+0x1a8>
 12007ac:	1880800c 	andi	r2,r3,512
 12007b0:	85000217 	ldw	r20,8(r16)
 12007b4:	10006c26 	beq	r2,zero,1200968 <__sfvwrite_r+0x2f4>
 12007b8:	a02d883a 	mov	r22,r20
 12007bc:	95008536 	bltu	r18,r20,12009d4 <__sfvwrite_r+0x360>
 12007c0:	1881200c 	andi	r2,r3,1152
 12007c4:	10009d1e 	bne	r2,zero,1200a3c <__sfvwrite_r+0x3c8>
 12007c8:	81000017 	ldw	r4,0(r16)
 12007cc:	a039883a 	mov	fp,r20
 12007d0:	9029883a 	mov	r20,r18
 12007d4:	b80b883a 	mov	r5,r23
 12007d8:	b00d883a 	mov	r6,r22
 12007dc:	12014e00 	call	12014e0 <memmove>
 12007e0:	80c00217 	ldw	r3,8(r16)
 12007e4:	81000017 	ldw	r4,0(r16)
 12007e8:	9005883a 	mov	r2,r18
 12007ec:	1f39c83a 	sub	fp,r3,fp
 12007f0:	258f883a 	add	r7,r4,r22
 12007f4:	87000215 	stw	fp,8(r16)
 12007f8:	81c00015 	stw	r7,0(r16)
 12007fc:	98c00217 	ldw	r3,8(r19)
 1200800:	b8af883a 	add	r23,r23,r2
 1200804:	90a5c83a 	sub	r18,r18,r2
 1200808:	1d05c83a 	sub	r2,r3,r20
 120080c:	98800215 	stw	r2,8(r19)
 1200810:	103fc326 	beq	r2,zero,1200720 <__alt_mem_instruction_tcm+0xff200720>
 1200814:	80c0030b 	ldhu	r3,12(r16)
 1200818:	903fe41e 	bne	r18,zero,12007ac <__alt_mem_instruction_tcm+0xff2007ac>
 120081c:	8dc00017 	ldw	r23,0(r17)
 1200820:	8c800117 	ldw	r18,4(r17)
 1200824:	8c400204 	addi	r17,r17,8
 1200828:	003fdf06 	br	12007a8 <__alt_mem_instruction_tcm+0xff2007a8>
 120082c:	120163c0 	call	120163c <_realloc_r>
 1200830:	102d883a 	mov	r22,r2
 1200834:	1000a01e 	bne	r2,zero,1200ab8 <__sfvwrite_r+0x444>
 1200838:	81400417 	ldw	r5,16(r16)
 120083c:	a809883a 	mov	r4,r21
 1200840:	120247c0 	call	120247c <_free_r>
 1200844:	00800304 	movi	r2,12
 1200848:	a8800015 	stw	r2,0(r21)
 120084c:	80c0030b 	ldhu	r3,12(r16)
 1200850:	00bfffc4 	movi	r2,-1
 1200854:	18c01014 	ori	r3,r3,64
 1200858:	80c0030d 	sth	r3,12(r16)
 120085c:	003fb106 	br	1200724 <__alt_mem_instruction_tcm+0xff200724>
 1200860:	0029883a 	mov	r20,zero
 1200864:	0011883a 	mov	r8,zero
 1200868:	0039883a 	mov	fp,zero
 120086c:	0025883a 	mov	r18,zero
 1200870:	90001f26 	beq	r18,zero,12008f0 <__sfvwrite_r+0x27c>
 1200874:	40006826 	beq	r8,zero,1200a18 <__sfvwrite_r+0x3a4>
 1200878:	a02f883a 	mov	r23,r20
 120087c:	9500012e 	bgeu	r18,r20,1200884 <__sfvwrite_r+0x210>
 1200880:	902f883a 	mov	r23,r18
 1200884:	81000017 	ldw	r4,0(r16)
 1200888:	80800417 	ldw	r2,16(r16)
 120088c:	b82d883a 	mov	r22,r23
 1200890:	81800217 	ldw	r6,8(r16)
 1200894:	81c00517 	ldw	r7,20(r16)
 1200898:	1100022e 	bgeu	r2,r4,12008a4 <__sfvwrite_r+0x230>
 120089c:	31c7883a 	add	r3,r6,r7
 12008a0:	1dc01816 	blt	r3,r23,1200904 <__sfvwrite_r+0x290>
 12008a4:	b9c03f16 	blt	r23,r7,12009a4 <__sfvwrite_r+0x330>
 12008a8:	80800917 	ldw	r2,36(r16)
 12008ac:	81400717 	ldw	r5,28(r16)
 12008b0:	a809883a 	mov	r4,r21
 12008b4:	da000115 	stw	r8,4(sp)
 12008b8:	e00d883a 	mov	r6,fp
 12008bc:	103ee83a 	callr	r2
 12008c0:	102d883a 	mov	r22,r2
 12008c4:	da000117 	ldw	r8,4(sp)
 12008c8:	00bfe00e 	bge	zero,r2,120084c <__alt_mem_instruction_tcm+0xff20084c>
 12008cc:	a5a9c83a 	sub	r20,r20,r22
 12008d0:	a0001f26 	beq	r20,zero,1200950 <__sfvwrite_r+0x2dc>
 12008d4:	98800217 	ldw	r2,8(r19)
 12008d8:	e5b9883a 	add	fp,fp,r22
 12008dc:	95a5c83a 	sub	r18,r18,r22
 12008e0:	15adc83a 	sub	r22,r2,r22
 12008e4:	9d800215 	stw	r22,8(r19)
 12008e8:	b03f8d26 	beq	r22,zero,1200720 <__alt_mem_instruction_tcm+0xff200720>
 12008ec:	903fe11e 	bne	r18,zero,1200874 <__alt_mem_instruction_tcm+0xff200874>
 12008f0:	8f000017 	ldw	fp,0(r17)
 12008f4:	8c800117 	ldw	r18,4(r17)
 12008f8:	0011883a 	mov	r8,zero
 12008fc:	8c400204 	addi	r17,r17,8
 1200900:	003fdb06 	br	1200870 <__alt_mem_instruction_tcm+0xff200870>
 1200904:	180d883a 	mov	r6,r3
 1200908:	e00b883a 	mov	r5,fp
 120090c:	da000115 	stw	r8,4(sp)
 1200910:	d8c00015 	stw	r3,0(sp)
 1200914:	12014e00 	call	12014e0 <memmove>
 1200918:	d8c00017 	ldw	r3,0(sp)
 120091c:	80800017 	ldw	r2,0(r16)
 1200920:	a809883a 	mov	r4,r21
 1200924:	800b883a 	mov	r5,r16
 1200928:	10c5883a 	add	r2,r2,r3
 120092c:	80800015 	stw	r2,0(r16)
 1200930:	d8c00015 	stw	r3,0(sp)
 1200934:	1201d600 	call	1201d60 <_fflush_r>
 1200938:	d8c00017 	ldw	r3,0(sp)
 120093c:	da000117 	ldw	r8,4(sp)
 1200940:	103fc21e 	bne	r2,zero,120084c <__alt_mem_instruction_tcm+0xff20084c>
 1200944:	182d883a 	mov	r22,r3
 1200948:	a5a9c83a 	sub	r20,r20,r22
 120094c:	a03fe11e 	bne	r20,zero,12008d4 <__alt_mem_instruction_tcm+0xff2008d4>
 1200950:	a809883a 	mov	r4,r21
 1200954:	800b883a 	mov	r5,r16
 1200958:	1201d600 	call	1201d60 <_fflush_r>
 120095c:	103fbb1e 	bne	r2,zero,120084c <__alt_mem_instruction_tcm+0xff20084c>
 1200960:	0011883a 	mov	r8,zero
 1200964:	003fdb06 	br	12008d4 <__alt_mem_instruction_tcm+0xff2008d4>
 1200968:	81000017 	ldw	r4,0(r16)
 120096c:	80800417 	ldw	r2,16(r16)
 1200970:	1100012e 	bgeu	r2,r4,1200978 <__sfvwrite_r+0x304>
 1200974:	a4805a36 	bltu	r20,r18,1200ae0 <__sfvwrite_r+0x46c>
 1200978:	81c00517 	ldw	r7,20(r16)
 120097c:	91c01a36 	bltu	r18,r7,12009e8 <__sfvwrite_r+0x374>
 1200980:	80800917 	ldw	r2,36(r16)
 1200984:	81400717 	ldw	r5,28(r16)
 1200988:	a809883a 	mov	r4,r21
 120098c:	b80d883a 	mov	r6,r23
 1200990:	103ee83a 	callr	r2
 1200994:	1029883a 	mov	r20,r2
 1200998:	00bfac0e 	bge	zero,r2,120084c <__alt_mem_instruction_tcm+0xff20084c>
 120099c:	a005883a 	mov	r2,r20
 12009a0:	003f9606 	br	12007fc <__alt_mem_instruction_tcm+0xff2007fc>
 12009a4:	b80d883a 	mov	r6,r23
 12009a8:	e00b883a 	mov	r5,fp
 12009ac:	da000115 	stw	r8,4(sp)
 12009b0:	12014e00 	call	12014e0 <memmove>
 12009b4:	80800217 	ldw	r2,8(r16)
 12009b8:	80c00017 	ldw	r3,0(r16)
 12009bc:	da000117 	ldw	r8,4(sp)
 12009c0:	15c5c83a 	sub	r2,r2,r23
 12009c4:	1def883a 	add	r23,r3,r23
 12009c8:	80800215 	stw	r2,8(r16)
 12009cc:	85c00015 	stw	r23,0(r16)
 12009d0:	003fbe06 	br	12008cc <__alt_mem_instruction_tcm+0xff2008cc>
 12009d4:	81000017 	ldw	r4,0(r16)
 12009d8:	9039883a 	mov	fp,r18
 12009dc:	9029883a 	mov	r20,r18
 12009e0:	902d883a 	mov	r22,r18
 12009e4:	003f7b06 	br	12007d4 <__alt_mem_instruction_tcm+0xff2007d4>
 12009e8:	b80b883a 	mov	r5,r23
 12009ec:	900d883a 	mov	r6,r18
 12009f0:	12014e00 	call	12014e0 <memmove>
 12009f4:	80c00217 	ldw	r3,8(r16)
 12009f8:	80800017 	ldw	r2,0(r16)
 12009fc:	9029883a 	mov	r20,r18
 1200a00:	1c87c83a 	sub	r3,r3,r18
 1200a04:	1485883a 	add	r2,r2,r18
 1200a08:	80800015 	stw	r2,0(r16)
 1200a0c:	80c00215 	stw	r3,8(r16)
 1200a10:	9005883a 	mov	r2,r18
 1200a14:	003f7906 	br	12007fc <__alt_mem_instruction_tcm+0xff2007fc>
 1200a18:	e009883a 	mov	r4,fp
 1200a1c:	01400284 	movi	r5,10
 1200a20:	900d883a 	mov	r6,r18
 1200a24:	12012c00 	call	12012c0 <memchr>
 1200a28:	10003826 	beq	r2,zero,1200b0c <__sfvwrite_r+0x498>
 1200a2c:	10800044 	addi	r2,r2,1
 1200a30:	1729c83a 	sub	r20,r2,fp
 1200a34:	02000044 	movi	r8,1
 1200a38:	003f8f06 	br	1200878 <__alt_mem_instruction_tcm+0xff200878>
 1200a3c:	80800517 	ldw	r2,20(r16)
 1200a40:	81400417 	ldw	r5,16(r16)
 1200a44:	87000017 	ldw	fp,0(r16)
 1200a48:	10a9883a 	add	r20,r2,r2
 1200a4c:	a085883a 	add	r2,r20,r2
 1200a50:	1028d7fa 	srli	r20,r2,31
 1200a54:	e179c83a 	sub	fp,fp,r5
 1200a58:	e1000044 	addi	r4,fp,1
 1200a5c:	a085883a 	add	r2,r20,r2
 1200a60:	1029d07a 	srai	r20,r2,1
 1200a64:	2485883a 	add	r2,r4,r18
 1200a68:	a00d883a 	mov	r6,r20
 1200a6c:	a080022e 	bgeu	r20,r2,1200a78 <__sfvwrite_r+0x404>
 1200a70:	1029883a 	mov	r20,r2
 1200a74:	100d883a 	mov	r6,r2
 1200a78:	18c1000c 	andi	r3,r3,1024
 1200a7c:	a809883a 	mov	r4,r21
 1200a80:	183f6a26 	beq	r3,zero,120082c <__alt_mem_instruction_tcm+0xff20082c>
 1200a84:	300b883a 	mov	r5,r6
 1200a88:	1200b180 	call	1200b18 <_malloc_r>
 1200a8c:	102d883a 	mov	r22,r2
 1200a90:	103f6c26 	beq	r2,zero,1200844 <__alt_mem_instruction_tcm+0xff200844>
 1200a94:	81400417 	ldw	r5,16(r16)
 1200a98:	1009883a 	mov	r4,r2
 1200a9c:	e00d883a 	mov	r6,fp
 1200aa0:	12013a80 	call	12013a8 <memcpy>
 1200aa4:	8080030b 	ldhu	r2,12(r16)
 1200aa8:	00fedfc4 	movi	r3,-1153
 1200aac:	10c4703a 	and	r2,r2,r3
 1200ab0:	10802014 	ori	r2,r2,128
 1200ab4:	8080030d 	sth	r2,12(r16)
 1200ab8:	b709883a 	add	r4,r22,fp
 1200abc:	a707c83a 	sub	r3,r20,fp
 1200ac0:	85800415 	stw	r22,16(r16)
 1200ac4:	85000515 	stw	r20,20(r16)
 1200ac8:	81000015 	stw	r4,0(r16)
 1200acc:	9039883a 	mov	fp,r18
 1200ad0:	80c00215 	stw	r3,8(r16)
 1200ad4:	9029883a 	mov	r20,r18
 1200ad8:	902d883a 	mov	r22,r18
 1200adc:	003f3d06 	br	12007d4 <__alt_mem_instruction_tcm+0xff2007d4>
 1200ae0:	b80b883a 	mov	r5,r23
 1200ae4:	a00d883a 	mov	r6,r20
 1200ae8:	12014e00 	call	12014e0 <memmove>
 1200aec:	80800017 	ldw	r2,0(r16)
 1200af0:	a809883a 	mov	r4,r21
 1200af4:	800b883a 	mov	r5,r16
 1200af8:	1505883a 	add	r2,r2,r20
 1200afc:	80800015 	stw	r2,0(r16)
 1200b00:	1201d600 	call	1201d60 <_fflush_r>
 1200b04:	103fa526 	beq	r2,zero,120099c <__alt_mem_instruction_tcm+0xff20099c>
 1200b08:	003f5006 	br	120084c <__alt_mem_instruction_tcm+0xff20084c>
 1200b0c:	95000044 	addi	r20,r18,1
 1200b10:	02000044 	movi	r8,1
 1200b14:	003f5806 	br	1200878 <__alt_mem_instruction_tcm+0xff200878>

01200b18 <_malloc_r>:
 1200b18:	defff504 	addi	sp,sp,-44
 1200b1c:	dc800315 	stw	r18,12(sp)
 1200b20:	dfc00a15 	stw	ra,40(sp)
 1200b24:	df000915 	stw	fp,36(sp)
 1200b28:	ddc00815 	stw	r23,32(sp)
 1200b2c:	dd800715 	stw	r22,28(sp)
 1200b30:	dd400615 	stw	r21,24(sp)
 1200b34:	dd000515 	stw	r20,20(sp)
 1200b38:	dcc00415 	stw	r19,16(sp)
 1200b3c:	dc400215 	stw	r17,8(sp)
 1200b40:	dc000115 	stw	r16,4(sp)
 1200b44:	288002c4 	addi	r2,r5,11
 1200b48:	00c00584 	movi	r3,22
 1200b4c:	2025883a 	mov	r18,r4
 1200b50:	18802a2e 	bgeu	r3,r2,1200bfc <_malloc_r+0xe4>
 1200b54:	047ffe04 	movi	r17,-8
 1200b58:	1462703a 	and	r17,r2,r17
 1200b5c:	88009e16 	blt	r17,zero,1200dd8 <_malloc_r+0x2c0>
 1200b60:	89409d36 	bltu	r17,r5,1200dd8 <_malloc_r+0x2c0>
 1200b64:	12037c80 	call	12037c8 <__malloc_lock>
 1200b68:	00807dc4 	movi	r2,503
 1200b6c:	14402736 	bltu	r2,r17,1200c0c <_malloc_r+0xf4>
 1200b70:	8806d0fa 	srli	r3,r17,3
 1200b74:	04c04874 	movhi	r19,289
 1200b78:	9ce13004 	addi	r19,r19,-31552
 1200b7c:	18c5883a 	add	r2,r3,r3
 1200b80:	1085883a 	add	r2,r2,r2
 1200b84:	1085883a 	add	r2,r2,r2
 1200b88:	9885883a 	add	r2,r19,r2
 1200b8c:	14000317 	ldw	r16,12(r2)
 1200b90:	80814a26 	beq	r16,r2,12010bc <_malloc_r+0x5a4>
 1200b94:	80c00117 	ldw	r3,4(r16)
 1200b98:	81000317 	ldw	r4,12(r16)
 1200b9c:	00bfff04 	movi	r2,-4
 1200ba0:	1884703a 	and	r2,r3,r2
 1200ba4:	81400217 	ldw	r5,8(r16)
 1200ba8:	8085883a 	add	r2,r16,r2
 1200bac:	10c00117 	ldw	r3,4(r2)
 1200bb0:	29000315 	stw	r4,12(r5)
 1200bb4:	21400215 	stw	r5,8(r4)
 1200bb8:	18c00054 	ori	r3,r3,1
 1200bbc:	10c00115 	stw	r3,4(r2)
 1200bc0:	9009883a 	mov	r4,r18
 1200bc4:	12037e80 	call	12037e8 <__malloc_unlock>
 1200bc8:	80800204 	addi	r2,r16,8
 1200bcc:	dfc00a17 	ldw	ra,40(sp)
 1200bd0:	df000917 	ldw	fp,36(sp)
 1200bd4:	ddc00817 	ldw	r23,32(sp)
 1200bd8:	dd800717 	ldw	r22,28(sp)
 1200bdc:	dd400617 	ldw	r21,24(sp)
 1200be0:	dd000517 	ldw	r20,20(sp)
 1200be4:	dcc00417 	ldw	r19,16(sp)
 1200be8:	dc800317 	ldw	r18,12(sp)
 1200bec:	dc400217 	ldw	r17,8(sp)
 1200bf0:	dc000117 	ldw	r16,4(sp)
 1200bf4:	dec00b04 	addi	sp,sp,44
 1200bf8:	f800283a 	ret
 1200bfc:	04400404 	movi	r17,16
 1200c00:	89407536 	bltu	r17,r5,1200dd8 <_malloc_r+0x2c0>
 1200c04:	12037c80 	call	12037c8 <__malloc_lock>
 1200c08:	003fd906 	br	1200b70 <__alt_mem_instruction_tcm+0xff200b70>
 1200c0c:	8806d27a 	srli	r3,r17,9
 1200c10:	18007526 	beq	r3,zero,1200de8 <_malloc_r+0x2d0>
 1200c14:	00800104 	movi	r2,4
 1200c18:	10c0ef36 	bltu	r2,r3,1200fd8 <_malloc_r+0x4c0>
 1200c1c:	8806d1ba 	srli	r3,r17,6
 1200c20:	19c00e04 	addi	r7,r3,56
 1200c24:	39cb883a 	add	r5,r7,r7
 1200c28:	04c04874 	movhi	r19,289
 1200c2c:	294b883a 	add	r5,r5,r5
 1200c30:	9ce13004 	addi	r19,r19,-31552
 1200c34:	294b883a 	add	r5,r5,r5
 1200c38:	994b883a 	add	r5,r19,r5
 1200c3c:	2c000317 	ldw	r16,12(r5)
 1200c40:	2c000e26 	beq	r5,r16,1200c7c <_malloc_r+0x164>
 1200c44:	80800117 	ldw	r2,4(r16)
 1200c48:	01bfff04 	movi	r6,-4
 1200c4c:	010003c4 	movi	r4,15
 1200c50:	1184703a 	and	r2,r2,r6
 1200c54:	1447c83a 	sub	r3,r2,r17
 1200c58:	20c00716 	blt	r4,r3,1200c78 <_malloc_r+0x160>
 1200c5c:	1800650e 	bge	r3,zero,1200df4 <_malloc_r+0x2dc>
 1200c60:	84000317 	ldw	r16,12(r16)
 1200c64:	2c000526 	beq	r5,r16,1200c7c <_malloc_r+0x164>
 1200c68:	80800117 	ldw	r2,4(r16)
 1200c6c:	1184703a 	and	r2,r2,r6
 1200c70:	1447c83a 	sub	r3,r2,r17
 1200c74:	20fff90e 	bge	r4,r3,1200c5c <__alt_mem_instruction_tcm+0xff200c5c>
 1200c78:	39ffffc4 	addi	r7,r7,-1
 1200c7c:	38c00044 	addi	r3,r7,1
 1200c80:	01804874 	movhi	r6,289
 1200c84:	9c000417 	ldw	r16,16(r19)
 1200c88:	31a13004 	addi	r6,r6,-31552
 1200c8c:	32400204 	addi	r9,r6,8
 1200c90:	82410326 	beq	r16,r9,12010a0 <_malloc_r+0x588>
 1200c94:	81000117 	ldw	r4,4(r16)
 1200c98:	00bfff04 	movi	r2,-4
 1200c9c:	208e703a 	and	r7,r4,r2
 1200ca0:	3c45c83a 	sub	r2,r7,r17
 1200ca4:	010003c4 	movi	r4,15
 1200ca8:	2080ee16 	blt	r4,r2,1201064 <_malloc_r+0x54c>
 1200cac:	32400515 	stw	r9,20(r6)
 1200cb0:	32400415 	stw	r9,16(r6)
 1200cb4:	1000510e 	bge	r2,zero,1200dfc <_malloc_r+0x2e4>
 1200cb8:	00807fc4 	movi	r2,511
 1200cbc:	11c0ce36 	bltu	r2,r7,1200ff8 <_malloc_r+0x4e0>
 1200cc0:	3808d0fa 	srli	r4,r7,3
 1200cc4:	01c00044 	movi	r7,1
 1200cc8:	30800117 	ldw	r2,4(r6)
 1200ccc:	210b883a 	add	r5,r4,r4
 1200cd0:	294b883a 	add	r5,r5,r5
 1200cd4:	2009d0ba 	srai	r4,r4,2
 1200cd8:	294b883a 	add	r5,r5,r5
 1200cdc:	298b883a 	add	r5,r5,r6
 1200ce0:	2a000217 	ldw	r8,8(r5)
 1200ce4:	3908983a 	sll	r4,r7,r4
 1200ce8:	81400315 	stw	r5,12(r16)
 1200cec:	82000215 	stw	r8,8(r16)
 1200cf0:	2088b03a 	or	r4,r4,r2
 1200cf4:	2c000215 	stw	r16,8(r5)
 1200cf8:	31000115 	stw	r4,4(r6)
 1200cfc:	44000315 	stw	r16,12(r8)
 1200d00:	1805d0ba 	srai	r2,r3,2
 1200d04:	01400044 	movi	r5,1
 1200d08:	288a983a 	sll	r5,r5,r2
 1200d0c:	21404336 	bltu	r4,r5,1200e1c <_malloc_r+0x304>
 1200d10:	2144703a 	and	r2,r4,r5
 1200d14:	10000a1e 	bne	r2,zero,1200d40 <_malloc_r+0x228>
 1200d18:	00bfff04 	movi	r2,-4
 1200d1c:	294b883a 	add	r5,r5,r5
 1200d20:	1886703a 	and	r3,r3,r2
 1200d24:	2144703a 	and	r2,r4,r5
 1200d28:	18c00104 	addi	r3,r3,4
 1200d2c:	1000041e 	bne	r2,zero,1200d40 <_malloc_r+0x228>
 1200d30:	294b883a 	add	r5,r5,r5
 1200d34:	2144703a 	and	r2,r4,r5
 1200d38:	18c00104 	addi	r3,r3,4
 1200d3c:	103ffc26 	beq	r2,zero,1200d30 <__alt_mem_instruction_tcm+0xff200d30>
 1200d40:	023fff04 	movi	r8,-4
 1200d44:	01c003c4 	movi	r7,15
 1200d48:	18c5883a 	add	r2,r3,r3
 1200d4c:	1085883a 	add	r2,r2,r2
 1200d50:	1085883a 	add	r2,r2,r2
 1200d54:	9895883a 	add	r10,r19,r2
 1200d58:	52c00304 	addi	r11,r10,12
 1200d5c:	1819883a 	mov	r12,r3
 1200d60:	5c000017 	ldw	r16,0(r11)
 1200d64:	59bffd04 	addi	r6,r11,-12
 1200d68:	8180041e 	bne	r16,r6,1200d7c <_malloc_r+0x264>
 1200d6c:	0000ce06 	br	12010a8 <_malloc_r+0x590>
 1200d70:	2000d70e 	bge	r4,zero,12010d0 <_malloc_r+0x5b8>
 1200d74:	84000317 	ldw	r16,12(r16)
 1200d78:	8180cb26 	beq	r16,r6,12010a8 <_malloc_r+0x590>
 1200d7c:	80800117 	ldw	r2,4(r16)
 1200d80:	1204703a 	and	r2,r2,r8
 1200d84:	1449c83a 	sub	r4,r2,r17
 1200d88:	393ff90e 	bge	r7,r4,1200d70 <__alt_mem_instruction_tcm+0xff200d70>
 1200d8c:	80800317 	ldw	r2,12(r16)
 1200d90:	80c00217 	ldw	r3,8(r16)
 1200d94:	89400054 	ori	r5,r17,1
 1200d98:	81400115 	stw	r5,4(r16)
 1200d9c:	18800315 	stw	r2,12(r3)
 1200da0:	10c00215 	stw	r3,8(r2)
 1200da4:	8463883a 	add	r17,r16,r17
 1200da8:	9c400515 	stw	r17,20(r19)
 1200dac:	9c400415 	stw	r17,16(r19)
 1200db0:	20800054 	ori	r2,r4,1
 1200db4:	88800115 	stw	r2,4(r17)
 1200db8:	8a400315 	stw	r9,12(r17)
 1200dbc:	8a400215 	stw	r9,8(r17)
 1200dc0:	8923883a 	add	r17,r17,r4
 1200dc4:	89000015 	stw	r4,0(r17)
 1200dc8:	9009883a 	mov	r4,r18
 1200dcc:	12037e80 	call	12037e8 <__malloc_unlock>
 1200dd0:	80800204 	addi	r2,r16,8
 1200dd4:	003f7d06 	br	1200bcc <__alt_mem_instruction_tcm+0xff200bcc>
 1200dd8:	00800304 	movi	r2,12
 1200ddc:	90800015 	stw	r2,0(r18)
 1200de0:	0005883a 	mov	r2,zero
 1200de4:	003f7906 	br	1200bcc <__alt_mem_instruction_tcm+0xff200bcc>
 1200de8:	01401f84 	movi	r5,126
 1200dec:	01c00fc4 	movi	r7,63
 1200df0:	003f8d06 	br	1200c28 <__alt_mem_instruction_tcm+0xff200c28>
 1200df4:	81000317 	ldw	r4,12(r16)
 1200df8:	003f6a06 	br	1200ba4 <__alt_mem_instruction_tcm+0xff200ba4>
 1200dfc:	81c5883a 	add	r2,r16,r7
 1200e00:	10c00117 	ldw	r3,4(r2)
 1200e04:	9009883a 	mov	r4,r18
 1200e08:	18c00054 	ori	r3,r3,1
 1200e0c:	10c00115 	stw	r3,4(r2)
 1200e10:	12037e80 	call	12037e8 <__malloc_unlock>
 1200e14:	80800204 	addi	r2,r16,8
 1200e18:	003f6c06 	br	1200bcc <__alt_mem_instruction_tcm+0xff200bcc>
 1200e1c:	9c000217 	ldw	r16,8(r19)
 1200e20:	00bfff04 	movi	r2,-4
 1200e24:	85800117 	ldw	r22,4(r16)
 1200e28:	b0ac703a 	and	r22,r22,r2
 1200e2c:	b4400336 	bltu	r22,r17,1200e3c <_malloc_r+0x324>
 1200e30:	b445c83a 	sub	r2,r22,r17
 1200e34:	00c003c4 	movi	r3,15
 1200e38:	18805d16 	blt	r3,r2,1200fb0 <_malloc_r+0x498>
 1200e3c:	05c04874 	movhi	r23,289
 1200e40:	00804874 	movhi	r2,289
 1200e44:	bde6ed04 	addi	r23,r23,-25676
 1200e48:	10a6fe04 	addi	r2,r2,-25608
 1200e4c:	15400017 	ldw	r21,0(r2)
 1200e50:	b9000017 	ldw	r4,0(r23)
 1200e54:	00ffffc4 	movi	r3,-1
 1200e58:	858d883a 	add	r6,r16,r22
 1200e5c:	8d6b883a 	add	r21,r17,r21
 1200e60:	20c0e426 	beq	r4,r3,12011f4 <_malloc_r+0x6dc>
 1200e64:	ad4403c4 	addi	r21,r21,4111
 1200e68:	00fc0004 	movi	r3,-4096
 1200e6c:	a8ea703a 	and	r21,r21,r3
 1200e70:	9009883a 	mov	r4,r18
 1200e74:	a80b883a 	mov	r5,r21
 1200e78:	d9800015 	stw	r6,0(sp)
 1200e7c:	1201bdc0 	call	1201bdc <_sbrk_r>
 1200e80:	00ffffc4 	movi	r3,-1
 1200e84:	1029883a 	mov	r20,r2
 1200e88:	d9800017 	ldw	r6,0(sp)
 1200e8c:	10c0a426 	beq	r2,r3,1201120 <_malloc_r+0x608>
 1200e90:	1180a236 	bltu	r2,r6,120111c <_malloc_r+0x604>
 1200e94:	07004874 	movhi	fp,289
 1200e98:	e7270704 	addi	fp,fp,-25572
 1200e9c:	e0c00017 	ldw	r3,0(fp)
 1200ea0:	a8c7883a 	add	r3,r21,r3
 1200ea4:	e0c00015 	stw	r3,0(fp)
 1200ea8:	3500da26 	beq	r6,r20,1201214 <_malloc_r+0x6fc>
 1200eac:	b9000017 	ldw	r4,0(r23)
 1200eb0:	00bfffc4 	movi	r2,-1
 1200eb4:	2080e426 	beq	r4,r2,1201248 <_malloc_r+0x730>
 1200eb8:	a185c83a 	sub	r2,r20,r6
 1200ebc:	1885883a 	add	r2,r3,r2
 1200ec0:	e0800015 	stw	r2,0(fp)
 1200ec4:	a0c001cc 	andi	r3,r20,7
 1200ec8:	1800b526 	beq	r3,zero,12011a0 <_malloc_r+0x688>
 1200ecc:	a0e9c83a 	sub	r20,r20,r3
 1200ed0:	00840204 	movi	r2,4104
 1200ed4:	a5000204 	addi	r20,r20,8
 1200ed8:	10c7c83a 	sub	r3,r2,r3
 1200edc:	a545883a 	add	r2,r20,r21
 1200ee0:	1083ffcc 	andi	r2,r2,4095
 1200ee4:	18abc83a 	sub	r21,r3,r2
 1200ee8:	9009883a 	mov	r4,r18
 1200eec:	a80b883a 	mov	r5,r21
 1200ef0:	1201bdc0 	call	1201bdc <_sbrk_r>
 1200ef4:	00ffffc4 	movi	r3,-1
 1200ef8:	10c0d026 	beq	r2,r3,120123c <_malloc_r+0x724>
 1200efc:	1507c83a 	sub	r3,r2,r20
 1200f00:	a8c7883a 	add	r3,r21,r3
 1200f04:	18c00054 	ori	r3,r3,1
 1200f08:	e0800017 	ldw	r2,0(fp)
 1200f0c:	9d000215 	stw	r20,8(r19)
 1200f10:	a0c00115 	stw	r3,4(r20)
 1200f14:	a887883a 	add	r3,r21,r2
 1200f18:	e0c00015 	stw	r3,0(fp)
 1200f1c:	84c00e26 	beq	r16,r19,1200f58 <_malloc_r+0x440>
 1200f20:	018003c4 	movi	r6,15
 1200f24:	3580a02e 	bgeu	r6,r22,12011a8 <_malloc_r+0x690>
 1200f28:	81400117 	ldw	r5,4(r16)
 1200f2c:	013ffe04 	movi	r4,-8
 1200f30:	b0bffd04 	addi	r2,r22,-12
 1200f34:	1104703a 	and	r2,r2,r4
 1200f38:	2900004c 	andi	r4,r5,1
 1200f3c:	1108b03a 	or	r4,r2,r4
 1200f40:	81000115 	stw	r4,4(r16)
 1200f44:	01400144 	movi	r5,5
 1200f48:	8089883a 	add	r4,r16,r2
 1200f4c:	21400115 	stw	r5,4(r4)
 1200f50:	21400215 	stw	r5,8(r4)
 1200f54:	3080c036 	bltu	r6,r2,1201258 <_malloc_r+0x740>
 1200f58:	00804874 	movhi	r2,289
 1200f5c:	10a6fd04 	addi	r2,r2,-25612
 1200f60:	11000017 	ldw	r4,0(r2)
 1200f64:	20c0012e 	bgeu	r4,r3,1200f6c <_malloc_r+0x454>
 1200f68:	10c00015 	stw	r3,0(r2)
 1200f6c:	00804874 	movhi	r2,289
 1200f70:	10a6fc04 	addi	r2,r2,-25616
 1200f74:	11000017 	ldw	r4,0(r2)
 1200f78:	9c000217 	ldw	r16,8(r19)
 1200f7c:	20c0012e 	bgeu	r4,r3,1200f84 <_malloc_r+0x46c>
 1200f80:	10c00015 	stw	r3,0(r2)
 1200f84:	80c00117 	ldw	r3,4(r16)
 1200f88:	00bfff04 	movi	r2,-4
 1200f8c:	1886703a 	and	r3,r3,r2
 1200f90:	1c45c83a 	sub	r2,r3,r17
 1200f94:	1c400236 	bltu	r3,r17,1200fa0 <_malloc_r+0x488>
 1200f98:	00c003c4 	movi	r3,15
 1200f9c:	18800416 	blt	r3,r2,1200fb0 <_malloc_r+0x498>
 1200fa0:	9009883a 	mov	r4,r18
 1200fa4:	12037e80 	call	12037e8 <__malloc_unlock>
 1200fa8:	0005883a 	mov	r2,zero
 1200fac:	003f0706 	br	1200bcc <__alt_mem_instruction_tcm+0xff200bcc>
 1200fb0:	88c00054 	ori	r3,r17,1
 1200fb4:	80c00115 	stw	r3,4(r16)
 1200fb8:	8463883a 	add	r17,r16,r17
 1200fbc:	10800054 	ori	r2,r2,1
 1200fc0:	9c400215 	stw	r17,8(r19)
 1200fc4:	88800115 	stw	r2,4(r17)
 1200fc8:	9009883a 	mov	r4,r18
 1200fcc:	12037e80 	call	12037e8 <__malloc_unlock>
 1200fd0:	80800204 	addi	r2,r16,8
 1200fd4:	003efd06 	br	1200bcc <__alt_mem_instruction_tcm+0xff200bcc>
 1200fd8:	00800504 	movi	r2,20
 1200fdc:	10c0482e 	bgeu	r2,r3,1201100 <_malloc_r+0x5e8>
 1200fe0:	00801504 	movi	r2,84
 1200fe4:	10c06836 	bltu	r2,r3,1201188 <_malloc_r+0x670>
 1200fe8:	8806d33a 	srli	r3,r17,12
 1200fec:	19c01b84 	addi	r7,r3,110
 1200ff0:	39cb883a 	add	r5,r7,r7
 1200ff4:	003f0c06 	br	1200c28 <__alt_mem_instruction_tcm+0xff200c28>
 1200ff8:	3804d27a 	srli	r2,r7,9
 1200ffc:	01000104 	movi	r4,4
 1201000:	2080422e 	bgeu	r4,r2,120110c <_malloc_r+0x5f4>
 1201004:	01000504 	movi	r4,20
 1201008:	20807c36 	bltu	r4,r2,12011fc <_malloc_r+0x6e4>
 120100c:	110016c4 	addi	r4,r2,91
 1201010:	210b883a 	add	r5,r4,r4
 1201014:	294b883a 	add	r5,r5,r5
 1201018:	294b883a 	add	r5,r5,r5
 120101c:	994b883a 	add	r5,r19,r5
 1201020:	28800217 	ldw	r2,8(r5)
 1201024:	02004874 	movhi	r8,289
 1201028:	42213004 	addi	r8,r8,-31552
 120102c:	11406326 	beq	r2,r5,12011bc <_malloc_r+0x6a4>
 1201030:	01bfff04 	movi	r6,-4
 1201034:	11000117 	ldw	r4,4(r2)
 1201038:	2188703a 	and	r4,r4,r6
 120103c:	3900022e 	bgeu	r7,r4,1201048 <_malloc_r+0x530>
 1201040:	10800217 	ldw	r2,8(r2)
 1201044:	28bffb1e 	bne	r5,r2,1201034 <__alt_mem_instruction_tcm+0xff201034>
 1201048:	11800317 	ldw	r6,12(r2)
 120104c:	99000117 	ldw	r4,4(r19)
 1201050:	81800315 	stw	r6,12(r16)
 1201054:	80800215 	stw	r2,8(r16)
 1201058:	34000215 	stw	r16,8(r6)
 120105c:	14000315 	stw	r16,12(r2)
 1201060:	003f2706 	br	1200d00 <__alt_mem_instruction_tcm+0xff200d00>
 1201064:	88c00054 	ori	r3,r17,1
 1201068:	80c00115 	stw	r3,4(r16)
 120106c:	8463883a 	add	r17,r16,r17
 1201070:	34400515 	stw	r17,20(r6)
 1201074:	34400415 	stw	r17,16(r6)
 1201078:	10c00054 	ori	r3,r2,1
 120107c:	8a400315 	stw	r9,12(r17)
 1201080:	8a400215 	stw	r9,8(r17)
 1201084:	88c00115 	stw	r3,4(r17)
 1201088:	88a3883a 	add	r17,r17,r2
 120108c:	88800015 	stw	r2,0(r17)
 1201090:	9009883a 	mov	r4,r18
 1201094:	12037e80 	call	12037e8 <__malloc_unlock>
 1201098:	80800204 	addi	r2,r16,8
 120109c:	003ecb06 	br	1200bcc <__alt_mem_instruction_tcm+0xff200bcc>
 12010a0:	31000117 	ldw	r4,4(r6)
 12010a4:	003f1606 	br	1200d00 <__alt_mem_instruction_tcm+0xff200d00>
 12010a8:	63000044 	addi	r12,r12,1
 12010ac:	608000cc 	andi	r2,r12,3
 12010b0:	5ac00204 	addi	r11,r11,8
 12010b4:	103f2a1e 	bne	r2,zero,1200d60 <__alt_mem_instruction_tcm+0xff200d60>
 12010b8:	00002106 	br	1201140 <_malloc_r+0x628>
 12010bc:	80800204 	addi	r2,r16,8
 12010c0:	84000517 	ldw	r16,20(r16)
 12010c4:	143eb31e 	bne	r2,r16,1200b94 <__alt_mem_instruction_tcm+0xff200b94>
 12010c8:	18c00084 	addi	r3,r3,2
 12010cc:	003eec06 	br	1200c80 <__alt_mem_instruction_tcm+0xff200c80>
 12010d0:	8085883a 	add	r2,r16,r2
 12010d4:	10c00117 	ldw	r3,4(r2)
 12010d8:	81000317 	ldw	r4,12(r16)
 12010dc:	81400217 	ldw	r5,8(r16)
 12010e0:	18c00054 	ori	r3,r3,1
 12010e4:	10c00115 	stw	r3,4(r2)
 12010e8:	29000315 	stw	r4,12(r5)
 12010ec:	21400215 	stw	r5,8(r4)
 12010f0:	9009883a 	mov	r4,r18
 12010f4:	12037e80 	call	12037e8 <__malloc_unlock>
 12010f8:	80800204 	addi	r2,r16,8
 12010fc:	003eb306 	br	1200bcc <__alt_mem_instruction_tcm+0xff200bcc>
 1201100:	19c016c4 	addi	r7,r3,91
 1201104:	39cb883a 	add	r5,r7,r7
 1201108:	003ec706 	br	1200c28 <__alt_mem_instruction_tcm+0xff200c28>
 120110c:	3804d1ba 	srli	r2,r7,6
 1201110:	11000e04 	addi	r4,r2,56
 1201114:	210b883a 	add	r5,r4,r4
 1201118:	003fbe06 	br	1201014 <__alt_mem_instruction_tcm+0xff201014>
 120111c:	84ff5d26 	beq	r16,r19,1200e94 <__alt_mem_instruction_tcm+0xff200e94>
 1201120:	9c000217 	ldw	r16,8(r19)
 1201124:	00bfff04 	movi	r2,-4
 1201128:	80c00117 	ldw	r3,4(r16)
 120112c:	1886703a 	and	r3,r3,r2
 1201130:	003f9706 	br	1200f90 <__alt_mem_instruction_tcm+0xff200f90>
 1201134:	52800017 	ldw	r10,0(r10)
 1201138:	18ffffc4 	addi	r3,r3,-1
 120113c:	50805c1e 	bne	r10,r2,12012b0 <_malloc_r+0x798>
 1201140:	190000cc 	andi	r4,r3,3
 1201144:	50bffe04 	addi	r2,r10,-8
 1201148:	203ffa1e 	bne	r4,zero,1201134 <__alt_mem_instruction_tcm+0xff201134>
 120114c:	98800117 	ldw	r2,4(r19)
 1201150:	0146303a 	nor	r3,zero,r5
 1201154:	1884703a 	and	r2,r3,r2
 1201158:	98800115 	stw	r2,4(r19)
 120115c:	294b883a 	add	r5,r5,r5
 1201160:	117f2e36 	bltu	r2,r5,1200e1c <__alt_mem_instruction_tcm+0xff200e1c>
 1201164:	283f2d26 	beq	r5,zero,1200e1c <__alt_mem_instruction_tcm+0xff200e1c>
 1201168:	1146703a 	and	r3,r2,r5
 120116c:	1800521e 	bne	r3,zero,12012b8 <_malloc_r+0x7a0>
 1201170:	6007883a 	mov	r3,r12
 1201174:	294b883a 	add	r5,r5,r5
 1201178:	1148703a 	and	r4,r2,r5
 120117c:	18c00104 	addi	r3,r3,4
 1201180:	203ffc26 	beq	r4,zero,1201174 <__alt_mem_instruction_tcm+0xff201174>
 1201184:	003ef006 	br	1200d48 <__alt_mem_instruction_tcm+0xff200d48>
 1201188:	00805504 	movi	r2,340
 120118c:	10c01336 	bltu	r2,r3,12011dc <_malloc_r+0x6c4>
 1201190:	8806d3fa 	srli	r3,r17,15
 1201194:	19c01dc4 	addi	r7,r3,119
 1201198:	39cb883a 	add	r5,r7,r7
 120119c:	003ea206 	br	1200c28 <__alt_mem_instruction_tcm+0xff200c28>
 12011a0:	00c40004 	movi	r3,4096
 12011a4:	003f4d06 	br	1200edc <__alt_mem_instruction_tcm+0xff200edc>
 12011a8:	00800044 	movi	r2,1
 12011ac:	a0800115 	stw	r2,4(r20)
 12011b0:	a021883a 	mov	r16,r20
 12011b4:	0007883a 	mov	r3,zero
 12011b8:	003f7506 	br	1200f90 <__alt_mem_instruction_tcm+0xff200f90>
 12011bc:	200bd0ba 	srai	r5,r4,2
 12011c0:	01800044 	movi	r6,1
 12011c4:	41000117 	ldw	r4,4(r8)
 12011c8:	314a983a 	sll	r5,r6,r5
 12011cc:	100d883a 	mov	r6,r2
 12011d0:	2908b03a 	or	r4,r5,r4
 12011d4:	41000115 	stw	r4,4(r8)
 12011d8:	003f9d06 	br	1201050 <__alt_mem_instruction_tcm+0xff201050>
 12011dc:	00815504 	movi	r2,1364
 12011e0:	10c01336 	bltu	r2,r3,1201230 <_malloc_r+0x718>
 12011e4:	8806d4ba 	srli	r3,r17,18
 12011e8:	19c01f04 	addi	r7,r3,124
 12011ec:	39cb883a 	add	r5,r7,r7
 12011f0:	003e8d06 	br	1200c28 <__alt_mem_instruction_tcm+0xff200c28>
 12011f4:	ad400404 	addi	r21,r21,16
 12011f8:	003f1d06 	br	1200e70 <__alt_mem_instruction_tcm+0xff200e70>
 12011fc:	01001504 	movi	r4,84
 1201200:	20801c36 	bltu	r4,r2,1201274 <_malloc_r+0x75c>
 1201204:	3804d33a 	srli	r2,r7,12
 1201208:	11001b84 	addi	r4,r2,110
 120120c:	210b883a 	add	r5,r4,r4
 1201210:	003f8006 	br	1201014 <__alt_mem_instruction_tcm+0xff201014>
 1201214:	3083ffcc 	andi	r2,r6,4095
 1201218:	103f241e 	bne	r2,zero,1200eac <__alt_mem_instruction_tcm+0xff200eac>
 120121c:	99000217 	ldw	r4,8(r19)
 1201220:	ad85883a 	add	r2,r21,r22
 1201224:	10800054 	ori	r2,r2,1
 1201228:	20800115 	stw	r2,4(r4)
 120122c:	003f4a06 	br	1200f58 <__alt_mem_instruction_tcm+0xff200f58>
 1201230:	01403f04 	movi	r5,252
 1201234:	01c01f84 	movi	r7,126
 1201238:	003e7b06 	br	1200c28 <__alt_mem_instruction_tcm+0xff200c28>
 120123c:	00c00044 	movi	r3,1
 1201240:	002b883a 	mov	r21,zero
 1201244:	003f3006 	br	1200f08 <__alt_mem_instruction_tcm+0xff200f08>
 1201248:	00804874 	movhi	r2,289
 120124c:	10a6ed04 	addi	r2,r2,-25676
 1201250:	15000015 	stw	r20,0(r2)
 1201254:	003f1b06 	br	1200ec4 <__alt_mem_instruction_tcm+0xff200ec4>
 1201258:	9009883a 	mov	r4,r18
 120125c:	81400204 	addi	r5,r16,8
 1201260:	120247c0 	call	120247c <_free_r>
 1201264:	00804874 	movhi	r2,289
 1201268:	10a70704 	addi	r2,r2,-25572
 120126c:	10c00017 	ldw	r3,0(r2)
 1201270:	003f3906 	br	1200f58 <__alt_mem_instruction_tcm+0xff200f58>
 1201274:	01005504 	movi	r4,340
 1201278:	20800436 	bltu	r4,r2,120128c <_malloc_r+0x774>
 120127c:	3804d3fa 	srli	r2,r7,15
 1201280:	11001dc4 	addi	r4,r2,119
 1201284:	210b883a 	add	r5,r4,r4
 1201288:	003f6206 	br	1201014 <__alt_mem_instruction_tcm+0xff201014>
 120128c:	01015504 	movi	r4,1364
 1201290:	20800436 	bltu	r4,r2,12012a4 <_malloc_r+0x78c>
 1201294:	3804d4ba 	srli	r2,r7,18
 1201298:	11001f04 	addi	r4,r2,124
 120129c:	210b883a 	add	r5,r4,r4
 12012a0:	003f5c06 	br	1201014 <__alt_mem_instruction_tcm+0xff201014>
 12012a4:	01403f04 	movi	r5,252
 12012a8:	01001f84 	movi	r4,126
 12012ac:	003f5906 	br	1201014 <__alt_mem_instruction_tcm+0xff201014>
 12012b0:	98800117 	ldw	r2,4(r19)
 12012b4:	003fa906 	br	120115c <__alt_mem_instruction_tcm+0xff20115c>
 12012b8:	6007883a 	mov	r3,r12
 12012bc:	003ea206 	br	1200d48 <__alt_mem_instruction_tcm+0xff200d48>

012012c0 <memchr>:
 12012c0:	208000cc 	andi	r2,r4,3
 12012c4:	280f883a 	mov	r7,r5
 12012c8:	10003526 	beq	r2,zero,12013a0 <memchr+0xe0>
 12012cc:	30bfffc4 	addi	r2,r6,-1
 12012d0:	30001b26 	beq	r6,zero,1201340 <memchr+0x80>
 12012d4:	21800003 	ldbu	r6,0(r4)
 12012d8:	28c03fcc 	andi	r3,r5,255
 12012dc:	30c01a26 	beq	r6,r3,1201348 <memchr+0x88>
 12012e0:	180d883a 	mov	r6,r3
 12012e4:	00000406 	br	12012f8 <memchr+0x38>
 12012e8:	10001526 	beq	r2,zero,1201340 <memchr+0x80>
 12012ec:	20c00003 	ldbu	r3,0(r4)
 12012f0:	10bfffc4 	addi	r2,r2,-1
 12012f4:	19801426 	beq	r3,r6,1201348 <memchr+0x88>
 12012f8:	21000044 	addi	r4,r4,1
 12012fc:	20c000cc 	andi	r3,r4,3
 1201300:	183ff91e 	bne	r3,zero,12012e8 <__alt_mem_instruction_tcm+0xff2012e8>
 1201304:	024000c4 	movi	r9,3
 1201308:	48801136 	bltu	r9,r2,1201350 <memchr+0x90>
 120130c:	10000c26 	beq	r2,zero,1201340 <memchr+0x80>
 1201310:	20c00003 	ldbu	r3,0(r4)
 1201314:	29403fcc 	andi	r5,r5,255
 1201318:	19400b26 	beq	r3,r5,1201348 <memchr+0x88>
 120131c:	20c00044 	addi	r3,r4,1
 1201320:	2085883a 	add	r2,r4,r2
 1201324:	39803fcc 	andi	r6,r7,255
 1201328:	00000306 	br	1201338 <memchr+0x78>
 120132c:	18c00044 	addi	r3,r3,1
 1201330:	197fffc3 	ldbu	r5,-1(r3)
 1201334:	29800426 	beq	r5,r6,1201348 <memchr+0x88>
 1201338:	1809883a 	mov	r4,r3
 120133c:	18bffb1e 	bne	r3,r2,120132c <__alt_mem_instruction_tcm+0xff20132c>
 1201340:	0005883a 	mov	r2,zero
 1201344:	f800283a 	ret
 1201348:	2005883a 	mov	r2,r4
 120134c:	f800283a 	ret
 1201350:	28c03fcc 	andi	r3,r5,255
 1201354:	1810923a 	slli	r8,r3,8
 1201358:	02ffbff4 	movhi	r11,65279
 120135c:	02a02074 	movhi	r10,32897
 1201360:	40c6b03a 	or	r3,r8,r3
 1201364:	1810943a 	slli	r8,r3,16
 1201368:	5affbfc4 	addi	r11,r11,-257
 120136c:	52a02004 	addi	r10,r10,-32640
 1201370:	40d0b03a 	or	r8,r8,r3
 1201374:	20c00017 	ldw	r3,0(r4)
 1201378:	40c6f03a 	xor	r3,r8,r3
 120137c:	1acd883a 	add	r6,r3,r11
 1201380:	00c6303a 	nor	r3,zero,r3
 1201384:	30c6703a 	and	r3,r6,r3
 1201388:	1a86703a 	and	r3,r3,r10
 120138c:	183fdf1e 	bne	r3,zero,120130c <__alt_mem_instruction_tcm+0xff20130c>
 1201390:	10bfff04 	addi	r2,r2,-4
 1201394:	21000104 	addi	r4,r4,4
 1201398:	48bff636 	bltu	r9,r2,1201374 <__alt_mem_instruction_tcm+0xff201374>
 120139c:	003fdb06 	br	120130c <__alt_mem_instruction_tcm+0xff20130c>
 12013a0:	3005883a 	mov	r2,r6
 12013a4:	003fd706 	br	1201304 <__alt_mem_instruction_tcm+0xff201304>

012013a8 <memcpy>:
 12013a8:	deffff04 	addi	sp,sp,-4
 12013ac:	dc000015 	stw	r16,0(sp)
 12013b0:	00c003c4 	movi	r3,15
 12013b4:	2005883a 	mov	r2,r4
 12013b8:	1980432e 	bgeu	r3,r6,12014c8 <memcpy+0x120>
 12013bc:	2146b03a 	or	r3,r4,r5
 12013c0:	18c000cc 	andi	r3,r3,3
 12013c4:	1800421e 	bne	r3,zero,12014d0 <memcpy+0x128>
 12013c8:	343ffc04 	addi	r16,r6,-16
 12013cc:	8020d13a 	srli	r16,r16,4
 12013d0:	28c00104 	addi	r3,r5,4
 12013d4:	23400104 	addi	r13,r4,4
 12013d8:	801e913a 	slli	r15,r16,4
 12013dc:	2b000204 	addi	r12,r5,8
 12013e0:	22c00204 	addi	r11,r4,8
 12013e4:	7bc00504 	addi	r15,r15,20
 12013e8:	2a800304 	addi	r10,r5,12
 12013ec:	22400304 	addi	r9,r4,12
 12013f0:	2bdf883a 	add	r15,r5,r15
 12013f4:	2811883a 	mov	r8,r5
 12013f8:	200f883a 	mov	r7,r4
 12013fc:	41000017 	ldw	r4,0(r8)
 1201400:	39c00404 	addi	r7,r7,16
 1201404:	18c00404 	addi	r3,r3,16
 1201408:	393ffc15 	stw	r4,-16(r7)
 120140c:	1bbffc17 	ldw	r14,-16(r3)
 1201410:	6b400404 	addi	r13,r13,16
 1201414:	5ac00404 	addi	r11,r11,16
 1201418:	6bbffc15 	stw	r14,-16(r13)
 120141c:	63800017 	ldw	r14,0(r12)
 1201420:	4a400404 	addi	r9,r9,16
 1201424:	42000404 	addi	r8,r8,16
 1201428:	5bbffc15 	stw	r14,-16(r11)
 120142c:	53800017 	ldw	r14,0(r10)
 1201430:	63000404 	addi	r12,r12,16
 1201434:	52800404 	addi	r10,r10,16
 1201438:	4bbffc15 	stw	r14,-16(r9)
 120143c:	1bffef1e 	bne	r3,r15,12013fc <__alt_mem_instruction_tcm+0xff2013fc>
 1201440:	81c00044 	addi	r7,r16,1
 1201444:	380e913a 	slli	r7,r7,4
 1201448:	310003cc 	andi	r4,r6,15
 120144c:	02c000c4 	movi	r11,3
 1201450:	11c7883a 	add	r3,r2,r7
 1201454:	29cb883a 	add	r5,r5,r7
 1201458:	59001f2e 	bgeu	r11,r4,12014d8 <memcpy+0x130>
 120145c:	1813883a 	mov	r9,r3
 1201460:	2811883a 	mov	r8,r5
 1201464:	200f883a 	mov	r7,r4
 1201468:	42800017 	ldw	r10,0(r8)
 120146c:	4a400104 	addi	r9,r9,4
 1201470:	39ffff04 	addi	r7,r7,-4
 1201474:	4abfff15 	stw	r10,-4(r9)
 1201478:	42000104 	addi	r8,r8,4
 120147c:	59fffa36 	bltu	r11,r7,1201468 <__alt_mem_instruction_tcm+0xff201468>
 1201480:	213fff04 	addi	r4,r4,-4
 1201484:	2008d0ba 	srli	r4,r4,2
 1201488:	318000cc 	andi	r6,r6,3
 120148c:	21000044 	addi	r4,r4,1
 1201490:	2109883a 	add	r4,r4,r4
 1201494:	2109883a 	add	r4,r4,r4
 1201498:	1907883a 	add	r3,r3,r4
 120149c:	290b883a 	add	r5,r5,r4
 12014a0:	30000626 	beq	r6,zero,12014bc <memcpy+0x114>
 12014a4:	198d883a 	add	r6,r3,r6
 12014a8:	29c00003 	ldbu	r7,0(r5)
 12014ac:	18c00044 	addi	r3,r3,1
 12014b0:	29400044 	addi	r5,r5,1
 12014b4:	19ffffc5 	stb	r7,-1(r3)
 12014b8:	19bffb1e 	bne	r3,r6,12014a8 <__alt_mem_instruction_tcm+0xff2014a8>
 12014bc:	dc000017 	ldw	r16,0(sp)
 12014c0:	dec00104 	addi	sp,sp,4
 12014c4:	f800283a 	ret
 12014c8:	2007883a 	mov	r3,r4
 12014cc:	003ff406 	br	12014a0 <__alt_mem_instruction_tcm+0xff2014a0>
 12014d0:	2007883a 	mov	r3,r4
 12014d4:	003ff306 	br	12014a4 <__alt_mem_instruction_tcm+0xff2014a4>
 12014d8:	200d883a 	mov	r6,r4
 12014dc:	003ff006 	br	12014a0 <__alt_mem_instruction_tcm+0xff2014a0>

012014e0 <memmove>:
 12014e0:	2005883a 	mov	r2,r4
 12014e4:	29000b2e 	bgeu	r5,r4,1201514 <memmove+0x34>
 12014e8:	298f883a 	add	r7,r5,r6
 12014ec:	21c0092e 	bgeu	r4,r7,1201514 <memmove+0x34>
 12014f0:	2187883a 	add	r3,r4,r6
 12014f4:	198bc83a 	sub	r5,r3,r6
 12014f8:	30004b26 	beq	r6,zero,1201628 <memmove+0x148>
 12014fc:	39ffffc4 	addi	r7,r7,-1
 1201500:	39000003 	ldbu	r4,0(r7)
 1201504:	18ffffc4 	addi	r3,r3,-1
 1201508:	19000005 	stb	r4,0(r3)
 120150c:	197ffb1e 	bne	r3,r5,12014fc <__alt_mem_instruction_tcm+0xff2014fc>
 1201510:	f800283a 	ret
 1201514:	00c003c4 	movi	r3,15
 1201518:	1980412e 	bgeu	r3,r6,1201620 <memmove+0x140>
 120151c:	1146b03a 	or	r3,r2,r5
 1201520:	18c000cc 	andi	r3,r3,3
 1201524:	1800411e 	bne	r3,zero,120162c <memmove+0x14c>
 1201528:	33fffc04 	addi	r15,r6,-16
 120152c:	781ed13a 	srli	r15,r15,4
 1201530:	28c00104 	addi	r3,r5,4
 1201534:	13400104 	addi	r13,r2,4
 1201538:	781c913a 	slli	r14,r15,4
 120153c:	2b000204 	addi	r12,r5,8
 1201540:	12c00204 	addi	r11,r2,8
 1201544:	73800504 	addi	r14,r14,20
 1201548:	2a800304 	addi	r10,r5,12
 120154c:	12400304 	addi	r9,r2,12
 1201550:	2b9d883a 	add	r14,r5,r14
 1201554:	2811883a 	mov	r8,r5
 1201558:	100f883a 	mov	r7,r2
 120155c:	41000017 	ldw	r4,0(r8)
 1201560:	39c00404 	addi	r7,r7,16
 1201564:	18c00404 	addi	r3,r3,16
 1201568:	393ffc15 	stw	r4,-16(r7)
 120156c:	193ffc17 	ldw	r4,-16(r3)
 1201570:	6b400404 	addi	r13,r13,16
 1201574:	5ac00404 	addi	r11,r11,16
 1201578:	693ffc15 	stw	r4,-16(r13)
 120157c:	61000017 	ldw	r4,0(r12)
 1201580:	4a400404 	addi	r9,r9,16
 1201584:	42000404 	addi	r8,r8,16
 1201588:	593ffc15 	stw	r4,-16(r11)
 120158c:	51000017 	ldw	r4,0(r10)
 1201590:	63000404 	addi	r12,r12,16
 1201594:	52800404 	addi	r10,r10,16
 1201598:	493ffc15 	stw	r4,-16(r9)
 120159c:	1bbfef1e 	bne	r3,r14,120155c <__alt_mem_instruction_tcm+0xff20155c>
 12015a0:	79000044 	addi	r4,r15,1
 12015a4:	2008913a 	slli	r4,r4,4
 12015a8:	328003cc 	andi	r10,r6,15
 12015ac:	02c000c4 	movi	r11,3
 12015b0:	1107883a 	add	r3,r2,r4
 12015b4:	290b883a 	add	r5,r5,r4
 12015b8:	5a801e2e 	bgeu	r11,r10,1201634 <memmove+0x154>
 12015bc:	1813883a 	mov	r9,r3
 12015c0:	2811883a 	mov	r8,r5
 12015c4:	500f883a 	mov	r7,r10
 12015c8:	41000017 	ldw	r4,0(r8)
 12015cc:	4a400104 	addi	r9,r9,4
 12015d0:	39ffff04 	addi	r7,r7,-4
 12015d4:	493fff15 	stw	r4,-4(r9)
 12015d8:	42000104 	addi	r8,r8,4
 12015dc:	59fffa36 	bltu	r11,r7,12015c8 <__alt_mem_instruction_tcm+0xff2015c8>
 12015e0:	513fff04 	addi	r4,r10,-4
 12015e4:	2008d0ba 	srli	r4,r4,2
 12015e8:	318000cc 	andi	r6,r6,3
 12015ec:	21000044 	addi	r4,r4,1
 12015f0:	2109883a 	add	r4,r4,r4
 12015f4:	2109883a 	add	r4,r4,r4
 12015f8:	1907883a 	add	r3,r3,r4
 12015fc:	290b883a 	add	r5,r5,r4
 1201600:	30000926 	beq	r6,zero,1201628 <memmove+0x148>
 1201604:	198d883a 	add	r6,r3,r6
 1201608:	29c00003 	ldbu	r7,0(r5)
 120160c:	18c00044 	addi	r3,r3,1
 1201610:	29400044 	addi	r5,r5,1
 1201614:	19ffffc5 	stb	r7,-1(r3)
 1201618:	19bffb1e 	bne	r3,r6,1201608 <__alt_mem_instruction_tcm+0xff201608>
 120161c:	f800283a 	ret
 1201620:	1007883a 	mov	r3,r2
 1201624:	003ff606 	br	1201600 <__alt_mem_instruction_tcm+0xff201600>
 1201628:	f800283a 	ret
 120162c:	1007883a 	mov	r3,r2
 1201630:	003ff406 	br	1201604 <__alt_mem_instruction_tcm+0xff201604>
 1201634:	500d883a 	mov	r6,r10
 1201638:	003ff106 	br	1201600 <__alt_mem_instruction_tcm+0xff201600>

0120163c <_realloc_r>:
 120163c:	defff604 	addi	sp,sp,-40
 1201640:	dcc00315 	stw	r19,12(sp)
 1201644:	dc400115 	stw	r17,4(sp)
 1201648:	dfc00915 	stw	ra,36(sp)
 120164c:	df000815 	stw	fp,32(sp)
 1201650:	ddc00715 	stw	r23,28(sp)
 1201654:	dd800615 	stw	r22,24(sp)
 1201658:	dd400515 	stw	r21,20(sp)
 120165c:	dd000415 	stw	r20,16(sp)
 1201660:	dc800215 	stw	r18,8(sp)
 1201664:	dc000015 	stw	r16,0(sp)
 1201668:	2827883a 	mov	r19,r5
 120166c:	3023883a 	mov	r17,r6
 1201670:	2800bf26 	beq	r5,zero,1201970 <_realloc_r+0x334>
 1201674:	2025883a 	mov	r18,r4
 1201678:	12037c80 	call	12037c8 <__malloc_lock>
 120167c:	98ffff17 	ldw	r3,-4(r19)
 1201680:	01bfff04 	movi	r6,-4
 1201684:	890002c4 	addi	r4,r17,11
 1201688:	01c00584 	movi	r7,22
 120168c:	9d7ffe04 	addi	r21,r19,-8
 1201690:	19a0703a 	and	r16,r3,r6
 1201694:	39003f2e 	bgeu	r7,r4,1201794 <_realloc_r+0x158>
 1201698:	053ffe04 	movi	r20,-8
 120169c:	2528703a 	and	r20,r4,r20
 12016a0:	a00f883a 	mov	r7,r20
 12016a4:	a0008216 	blt	r20,zero,12018b0 <_realloc_r+0x274>
 12016a8:	a4408136 	bltu	r20,r17,12018b0 <_realloc_r+0x274>
 12016ac:	81c03c0e 	bge	r16,r7,12017a0 <_realloc_r+0x164>
 12016b0:	07004874 	movhi	fp,289
 12016b4:	e7213004 	addi	fp,fp,-31552
 12016b8:	e1000217 	ldw	r4,8(fp)
 12016bc:	ac05883a 	add	r2,r21,r16
 12016c0:	2080bf26 	beq	r4,r2,12019c0 <_realloc_r+0x384>
 12016c4:	11000117 	ldw	r4,4(r2)
 12016c8:	023fff84 	movi	r8,-2
 12016cc:	2210703a 	and	r8,r4,r8
 12016d0:	1211883a 	add	r8,r2,r8
 12016d4:	41400117 	ldw	r5,4(r8)
 12016d8:	2940004c 	andi	r5,r5,1
 12016dc:	28004a1e 	bne	r5,zero,1201808 <_realloc_r+0x1cc>
 12016e0:	017fff04 	movi	r5,-4
 12016e4:	2148703a 	and	r4,r4,r5
 12016e8:	2409883a 	add	r4,r4,r16
 12016ec:	21c0ad0e 	bge	r4,r7,12019a4 <_realloc_r+0x368>
 12016f0:	18c0004c 	andi	r3,r3,1
 12016f4:	18007f1e 	bne	r3,zero,12018f4 <_realloc_r+0x2b8>
 12016f8:	9dfffe17 	ldw	r23,-8(r19)
 12016fc:	adefc83a 	sub	r23,r21,r23
 1201700:	bd800117 	ldw	r22,4(r23)
 1201704:	b14a703a 	and	r5,r22,r5
 1201708:	216d883a 	add	r22,r4,r5
 120170c:	b1c04516 	blt	r22,r7,1201824 <_realloc_r+0x1e8>
 1201710:	10c00317 	ldw	r3,12(r2)
 1201714:	10800217 	ldw	r2,8(r2)
 1201718:	81bfff04 	addi	r6,r16,-4
 120171c:	bc400204 	addi	r17,r23,8
 1201720:	10c00315 	stw	r3,12(r2)
 1201724:	18800215 	stw	r2,8(r3)
 1201728:	b9400217 	ldw	r5,8(r23)
 120172c:	b8c00317 	ldw	r3,12(r23)
 1201730:	00800904 	movi	r2,36
 1201734:	28c00315 	stw	r3,12(r5)
 1201738:	19400215 	stw	r5,8(r3)
 120173c:	1180ef36 	bltu	r2,r6,1201afc <_realloc_r+0x4c0>
 1201740:	008004c4 	movi	r2,19
 1201744:	1180da2e 	bgeu	r2,r6,1201ab0 <_realloc_r+0x474>
 1201748:	98800017 	ldw	r2,0(r19)
 120174c:	b8800215 	stw	r2,8(r23)
 1201750:	98800117 	ldw	r2,4(r19)
 1201754:	b8800315 	stw	r2,12(r23)
 1201758:	008006c4 	movi	r2,27
 120175c:	1180fc2e 	bgeu	r2,r6,1201b50 <_realloc_r+0x514>
 1201760:	98800217 	ldw	r2,8(r19)
 1201764:	b8800415 	stw	r2,16(r23)
 1201768:	98800317 	ldw	r2,12(r19)
 120176c:	b8800515 	stw	r2,20(r23)
 1201770:	00800904 	movi	r2,36
 1201774:	3080421e 	bne	r6,r2,1201880 <_realloc_r+0x244>
 1201778:	98800417 	ldw	r2,16(r19)
 120177c:	9cc00604 	addi	r19,r19,24
 1201780:	b8c00804 	addi	r3,r23,32
 1201784:	b8800615 	stw	r2,24(r23)
 1201788:	98bfff17 	ldw	r2,-4(r19)
 120178c:	b8800715 	stw	r2,28(r23)
 1201790:	00003d06 	br	1201888 <_realloc_r+0x24c>
 1201794:	01c00404 	movi	r7,16
 1201798:	3829883a 	mov	r20,r7
 120179c:	003fc206 	br	12016a8 <__alt_mem_instruction_tcm+0xff2016a8>
 12017a0:	9823883a 	mov	r17,r19
 12017a4:	850fc83a 	sub	r7,r16,r20
 12017a8:	008003c4 	movi	r2,15
 12017ac:	18c0004c 	andi	r3,r3,1
 12017b0:	11c04336 	bltu	r2,r7,12018c0 <_realloc_r+0x284>
 12017b4:	1c06b03a 	or	r3,r3,r16
 12017b8:	a8c00115 	stw	r3,4(r21)
 12017bc:	ac21883a 	add	r16,r21,r16
 12017c0:	80c00117 	ldw	r3,4(r16)
 12017c4:	18c00054 	ori	r3,r3,1
 12017c8:	80c00115 	stw	r3,4(r16)
 12017cc:	9009883a 	mov	r4,r18
 12017d0:	12037e80 	call	12037e8 <__malloc_unlock>
 12017d4:	8805883a 	mov	r2,r17
 12017d8:	dfc00917 	ldw	ra,36(sp)
 12017dc:	df000817 	ldw	fp,32(sp)
 12017e0:	ddc00717 	ldw	r23,28(sp)
 12017e4:	dd800617 	ldw	r22,24(sp)
 12017e8:	dd400517 	ldw	r21,20(sp)
 12017ec:	dd000417 	ldw	r20,16(sp)
 12017f0:	dcc00317 	ldw	r19,12(sp)
 12017f4:	dc800217 	ldw	r18,8(sp)
 12017f8:	dc400117 	ldw	r17,4(sp)
 12017fc:	dc000017 	ldw	r16,0(sp)
 1201800:	dec00a04 	addi	sp,sp,40
 1201804:	f800283a 	ret
 1201808:	18c0004c 	andi	r3,r3,1
 120180c:	1800391e 	bne	r3,zero,12018f4 <_realloc_r+0x2b8>
 1201810:	9dfffe17 	ldw	r23,-8(r19)
 1201814:	00bfff04 	movi	r2,-4
 1201818:	adefc83a 	sub	r23,r21,r23
 120181c:	b9400117 	ldw	r5,4(r23)
 1201820:	288a703a 	and	r5,r5,r2
 1201824:	2c2d883a 	add	r22,r5,r16
 1201828:	b1c03216 	blt	r22,r7,12018f4 <_realloc_r+0x2b8>
 120182c:	b8800317 	ldw	r2,12(r23)
 1201830:	b8c00217 	ldw	r3,8(r23)
 1201834:	81bfff04 	addi	r6,r16,-4
 1201838:	01000904 	movi	r4,36
 120183c:	18800315 	stw	r2,12(r3)
 1201840:	10c00215 	stw	r3,8(r2)
 1201844:	bc400204 	addi	r17,r23,8
 1201848:	2180ac36 	bltu	r4,r6,1201afc <_realloc_r+0x4c0>
 120184c:	008004c4 	movi	r2,19
 1201850:	1180972e 	bgeu	r2,r6,1201ab0 <_realloc_r+0x474>
 1201854:	98800017 	ldw	r2,0(r19)
 1201858:	b8800215 	stw	r2,8(r23)
 120185c:	98800117 	ldw	r2,4(r19)
 1201860:	b8800315 	stw	r2,12(r23)
 1201864:	008006c4 	movi	r2,27
 1201868:	1180b92e 	bgeu	r2,r6,1201b50 <_realloc_r+0x514>
 120186c:	98800217 	ldw	r2,8(r19)
 1201870:	b8800415 	stw	r2,16(r23)
 1201874:	98800317 	ldw	r2,12(r19)
 1201878:	b8800515 	stw	r2,20(r23)
 120187c:	313fbe26 	beq	r6,r4,1201778 <__alt_mem_instruction_tcm+0xff201778>
 1201880:	b8c00604 	addi	r3,r23,24
 1201884:	9cc00404 	addi	r19,r19,16
 1201888:	98800017 	ldw	r2,0(r19)
 120188c:	b021883a 	mov	r16,r22
 1201890:	b82b883a 	mov	r21,r23
 1201894:	18800015 	stw	r2,0(r3)
 1201898:	98800117 	ldw	r2,4(r19)
 120189c:	18800115 	stw	r2,4(r3)
 12018a0:	98800217 	ldw	r2,8(r19)
 12018a4:	18800215 	stw	r2,8(r3)
 12018a8:	b8c00117 	ldw	r3,4(r23)
 12018ac:	003fbd06 	br	12017a4 <__alt_mem_instruction_tcm+0xff2017a4>
 12018b0:	00800304 	movi	r2,12
 12018b4:	90800015 	stw	r2,0(r18)
 12018b8:	0005883a 	mov	r2,zero
 12018bc:	003fc606 	br	12017d8 <__alt_mem_instruction_tcm+0xff2017d8>
 12018c0:	1d06b03a 	or	r3,r3,r20
 12018c4:	ad0b883a 	add	r5,r21,r20
 12018c8:	a8c00115 	stw	r3,4(r21)
 12018cc:	38800054 	ori	r2,r7,1
 12018d0:	28800115 	stw	r2,4(r5)
 12018d4:	29cf883a 	add	r7,r5,r7
 12018d8:	38800117 	ldw	r2,4(r7)
 12018dc:	9009883a 	mov	r4,r18
 12018e0:	29400204 	addi	r5,r5,8
 12018e4:	10800054 	ori	r2,r2,1
 12018e8:	38800115 	stw	r2,4(r7)
 12018ec:	120247c0 	call	120247c <_free_r>
 12018f0:	003fb606 	br	12017cc <__alt_mem_instruction_tcm+0xff2017cc>
 12018f4:	880b883a 	mov	r5,r17
 12018f8:	9009883a 	mov	r4,r18
 12018fc:	1200b180 	call	1200b18 <_malloc_r>
 1201900:	1023883a 	mov	r17,r2
 1201904:	1000aa26 	beq	r2,zero,1201bb0 <_realloc_r+0x574>
 1201908:	98ffff17 	ldw	r3,-4(r19)
 120190c:	113ffe04 	addi	r4,r2,-8
 1201910:	00bfff84 	movi	r2,-2
 1201914:	1884703a 	and	r2,r3,r2
 1201918:	a885883a 	add	r2,r21,r2
 120191c:	20808626 	beq	r4,r2,1201b38 <_realloc_r+0x4fc>
 1201920:	81bfff04 	addi	r6,r16,-4
 1201924:	00800904 	movi	r2,36
 1201928:	11807036 	bltu	r2,r6,1201aec <_realloc_r+0x4b0>
 120192c:	00c004c4 	movi	r3,19
 1201930:	19805636 	bltu	r3,r6,1201a8c <_realloc_r+0x450>
 1201934:	8805883a 	mov	r2,r17
 1201938:	9807883a 	mov	r3,r19
 120193c:	19000017 	ldw	r4,0(r3)
 1201940:	11000015 	stw	r4,0(r2)
 1201944:	19000117 	ldw	r4,4(r3)
 1201948:	11000115 	stw	r4,4(r2)
 120194c:	18c00217 	ldw	r3,8(r3)
 1201950:	10c00215 	stw	r3,8(r2)
 1201954:	980b883a 	mov	r5,r19
 1201958:	9009883a 	mov	r4,r18
 120195c:	120247c0 	call	120247c <_free_r>
 1201960:	9009883a 	mov	r4,r18
 1201964:	12037e80 	call	12037e8 <__malloc_unlock>
 1201968:	8805883a 	mov	r2,r17
 120196c:	003f9a06 	br	12017d8 <__alt_mem_instruction_tcm+0xff2017d8>
 1201970:	300b883a 	mov	r5,r6
 1201974:	dfc00917 	ldw	ra,36(sp)
 1201978:	df000817 	ldw	fp,32(sp)
 120197c:	ddc00717 	ldw	r23,28(sp)
 1201980:	dd800617 	ldw	r22,24(sp)
 1201984:	dd400517 	ldw	r21,20(sp)
 1201988:	dd000417 	ldw	r20,16(sp)
 120198c:	dcc00317 	ldw	r19,12(sp)
 1201990:	dc800217 	ldw	r18,8(sp)
 1201994:	dc400117 	ldw	r17,4(sp)
 1201998:	dc000017 	ldw	r16,0(sp)
 120199c:	dec00a04 	addi	sp,sp,40
 12019a0:	1200b181 	jmpi	1200b18 <_malloc_r>
 12019a4:	11400317 	ldw	r5,12(r2)
 12019a8:	10800217 	ldw	r2,8(r2)
 12019ac:	9823883a 	mov	r17,r19
 12019b0:	2021883a 	mov	r16,r4
 12019b4:	11400315 	stw	r5,12(r2)
 12019b8:	28800215 	stw	r2,8(r5)
 12019bc:	003f7906 	br	12017a4 <__alt_mem_instruction_tcm+0xff2017a4>
 12019c0:	21000117 	ldw	r4,4(r4)
 12019c4:	00bfff04 	movi	r2,-4
 12019c8:	a1800404 	addi	r6,r20,16
 12019cc:	2088703a 	and	r4,r4,r2
 12019d0:	2409883a 	add	r4,r4,r16
 12019d4:	2180380e 	bge	r4,r6,1201ab8 <_realloc_r+0x47c>
 12019d8:	18c0004c 	andi	r3,r3,1
 12019dc:	183fc51e 	bne	r3,zero,12018f4 <__alt_mem_instruction_tcm+0xff2018f4>
 12019e0:	9dfffe17 	ldw	r23,-8(r19)
 12019e4:	adefc83a 	sub	r23,r21,r23
 12019e8:	b9400117 	ldw	r5,4(r23)
 12019ec:	288a703a 	and	r5,r5,r2
 12019f0:	216d883a 	add	r22,r4,r5
 12019f4:	b1bf8b16 	blt	r22,r6,1201824 <__alt_mem_instruction_tcm+0xff201824>
 12019f8:	b8800317 	ldw	r2,12(r23)
 12019fc:	b8c00217 	ldw	r3,8(r23)
 1201a00:	81bfff04 	addi	r6,r16,-4
 1201a04:	01000904 	movi	r4,36
 1201a08:	18800315 	stw	r2,12(r3)
 1201a0c:	10c00215 	stw	r3,8(r2)
 1201a10:	bc400204 	addi	r17,r23,8
 1201a14:	21805a36 	bltu	r4,r6,1201b80 <_realloc_r+0x544>
 1201a18:	008004c4 	movi	r2,19
 1201a1c:	1180562e 	bgeu	r2,r6,1201b78 <_realloc_r+0x53c>
 1201a20:	98800017 	ldw	r2,0(r19)
 1201a24:	b8800215 	stw	r2,8(r23)
 1201a28:	98800117 	ldw	r2,4(r19)
 1201a2c:	b8800315 	stw	r2,12(r23)
 1201a30:	008006c4 	movi	r2,27
 1201a34:	11805636 	bltu	r2,r6,1201b90 <_realloc_r+0x554>
 1201a38:	b8800404 	addi	r2,r23,16
 1201a3c:	9cc00204 	addi	r19,r19,8
 1201a40:	98c00017 	ldw	r3,0(r19)
 1201a44:	10c00015 	stw	r3,0(r2)
 1201a48:	98c00117 	ldw	r3,4(r19)
 1201a4c:	10c00115 	stw	r3,4(r2)
 1201a50:	98c00217 	ldw	r3,8(r19)
 1201a54:	10c00215 	stw	r3,8(r2)
 1201a58:	bd07883a 	add	r3,r23,r20
 1201a5c:	b505c83a 	sub	r2,r22,r20
 1201a60:	e0c00215 	stw	r3,8(fp)
 1201a64:	10800054 	ori	r2,r2,1
 1201a68:	18800115 	stw	r2,4(r3)
 1201a6c:	b8800117 	ldw	r2,4(r23)
 1201a70:	9009883a 	mov	r4,r18
 1201a74:	1080004c 	andi	r2,r2,1
 1201a78:	a0a8b03a 	or	r20,r20,r2
 1201a7c:	bd000115 	stw	r20,4(r23)
 1201a80:	12037e80 	call	12037e8 <__malloc_unlock>
 1201a84:	8805883a 	mov	r2,r17
 1201a88:	003f5306 	br	12017d8 <__alt_mem_instruction_tcm+0xff2017d8>
 1201a8c:	98c00017 	ldw	r3,0(r19)
 1201a90:	88c00015 	stw	r3,0(r17)
 1201a94:	98c00117 	ldw	r3,4(r19)
 1201a98:	88c00115 	stw	r3,4(r17)
 1201a9c:	00c006c4 	movi	r3,27
 1201aa0:	19801d36 	bltu	r3,r6,1201b18 <_realloc_r+0x4dc>
 1201aa4:	88800204 	addi	r2,r17,8
 1201aa8:	98c00204 	addi	r3,r19,8
 1201aac:	003fa306 	br	120193c <__alt_mem_instruction_tcm+0xff20193c>
 1201ab0:	8807883a 	mov	r3,r17
 1201ab4:	003f7406 	br	1201888 <__alt_mem_instruction_tcm+0xff201888>
 1201ab8:	ad2b883a 	add	r21,r21,r20
 1201abc:	2505c83a 	sub	r2,r4,r20
 1201ac0:	e5400215 	stw	r21,8(fp)
 1201ac4:	10800054 	ori	r2,r2,1
 1201ac8:	a8800115 	stw	r2,4(r21)
 1201acc:	98bfff17 	ldw	r2,-4(r19)
 1201ad0:	9009883a 	mov	r4,r18
 1201ad4:	1080004c 	andi	r2,r2,1
 1201ad8:	a0a8b03a 	or	r20,r20,r2
 1201adc:	9d3fff15 	stw	r20,-4(r19)
 1201ae0:	12037e80 	call	12037e8 <__malloc_unlock>
 1201ae4:	9805883a 	mov	r2,r19
 1201ae8:	003f3b06 	br	12017d8 <__alt_mem_instruction_tcm+0xff2017d8>
 1201aec:	8809883a 	mov	r4,r17
 1201af0:	980b883a 	mov	r5,r19
 1201af4:	12014e00 	call	12014e0 <memmove>
 1201af8:	003f9606 	br	1201954 <__alt_mem_instruction_tcm+0xff201954>
 1201afc:	8809883a 	mov	r4,r17
 1201b00:	980b883a 	mov	r5,r19
 1201b04:	12014e00 	call	12014e0 <memmove>
 1201b08:	b8c00117 	ldw	r3,4(r23)
 1201b0c:	b021883a 	mov	r16,r22
 1201b10:	b82b883a 	mov	r21,r23
 1201b14:	003f2306 	br	12017a4 <__alt_mem_instruction_tcm+0xff2017a4>
 1201b18:	98c00217 	ldw	r3,8(r19)
 1201b1c:	88c00215 	stw	r3,8(r17)
 1201b20:	98c00317 	ldw	r3,12(r19)
 1201b24:	88c00315 	stw	r3,12(r17)
 1201b28:	30800c26 	beq	r6,r2,1201b5c <_realloc_r+0x520>
 1201b2c:	88800404 	addi	r2,r17,16
 1201b30:	98c00404 	addi	r3,r19,16
 1201b34:	003f8106 	br	120193c <__alt_mem_instruction_tcm+0xff20193c>
 1201b38:	893fff17 	ldw	r4,-4(r17)
 1201b3c:	00bfff04 	movi	r2,-4
 1201b40:	9823883a 	mov	r17,r19
 1201b44:	2084703a 	and	r2,r4,r2
 1201b48:	80a1883a 	add	r16,r16,r2
 1201b4c:	003f1506 	br	12017a4 <__alt_mem_instruction_tcm+0xff2017a4>
 1201b50:	b8c00404 	addi	r3,r23,16
 1201b54:	9cc00204 	addi	r19,r19,8
 1201b58:	003f4b06 	br	1201888 <__alt_mem_instruction_tcm+0xff201888>
 1201b5c:	99000417 	ldw	r4,16(r19)
 1201b60:	88800604 	addi	r2,r17,24
 1201b64:	98c00604 	addi	r3,r19,24
 1201b68:	89000415 	stw	r4,16(r17)
 1201b6c:	99000517 	ldw	r4,20(r19)
 1201b70:	89000515 	stw	r4,20(r17)
 1201b74:	003f7106 	br	120193c <__alt_mem_instruction_tcm+0xff20193c>
 1201b78:	8805883a 	mov	r2,r17
 1201b7c:	003fb006 	br	1201a40 <__alt_mem_instruction_tcm+0xff201a40>
 1201b80:	8809883a 	mov	r4,r17
 1201b84:	980b883a 	mov	r5,r19
 1201b88:	12014e00 	call	12014e0 <memmove>
 1201b8c:	003fb206 	br	1201a58 <__alt_mem_instruction_tcm+0xff201a58>
 1201b90:	98800217 	ldw	r2,8(r19)
 1201b94:	b8800415 	stw	r2,16(r23)
 1201b98:	98800317 	ldw	r2,12(r19)
 1201b9c:	b8800515 	stw	r2,20(r23)
 1201ba0:	31000726 	beq	r6,r4,1201bc0 <_realloc_r+0x584>
 1201ba4:	b8800604 	addi	r2,r23,24
 1201ba8:	9cc00404 	addi	r19,r19,16
 1201bac:	003fa406 	br	1201a40 <__alt_mem_instruction_tcm+0xff201a40>
 1201bb0:	9009883a 	mov	r4,r18
 1201bb4:	12037e80 	call	12037e8 <__malloc_unlock>
 1201bb8:	0005883a 	mov	r2,zero
 1201bbc:	003f0606 	br	12017d8 <__alt_mem_instruction_tcm+0xff2017d8>
 1201bc0:	98c00417 	ldw	r3,16(r19)
 1201bc4:	9cc00604 	addi	r19,r19,24
 1201bc8:	b8800804 	addi	r2,r23,32
 1201bcc:	b8c00615 	stw	r3,24(r23)
 1201bd0:	98ffff17 	ldw	r3,-4(r19)
 1201bd4:	b8c00715 	stw	r3,28(r23)
 1201bd8:	003f9906 	br	1201a40 <__alt_mem_instruction_tcm+0xff201a40>

01201bdc <_sbrk_r>:
 1201bdc:	defffd04 	addi	sp,sp,-12
 1201be0:	dc000015 	stw	r16,0(sp)
 1201be4:	04004874 	movhi	r16,289
 1201be8:	dc400115 	stw	r17,4(sp)
 1201bec:	8426ff04 	addi	r16,r16,-25604
 1201bf0:	2023883a 	mov	r17,r4
 1201bf4:	2809883a 	mov	r4,r5
 1201bf8:	dfc00215 	stw	ra,8(sp)
 1201bfc:	80000015 	stw	zero,0(r16)
 1201c00:	12039b40 	call	12039b4 <sbrk>
 1201c04:	00ffffc4 	movi	r3,-1
 1201c08:	10c00526 	beq	r2,r3,1201c20 <_sbrk_r+0x44>
 1201c0c:	dfc00217 	ldw	ra,8(sp)
 1201c10:	dc400117 	ldw	r17,4(sp)
 1201c14:	dc000017 	ldw	r16,0(sp)
 1201c18:	dec00304 	addi	sp,sp,12
 1201c1c:	f800283a 	ret
 1201c20:	80c00017 	ldw	r3,0(r16)
 1201c24:	183ff926 	beq	r3,zero,1201c0c <__alt_mem_instruction_tcm+0xff201c0c>
 1201c28:	88c00015 	stw	r3,0(r17)
 1201c2c:	003ff706 	br	1201c0c <__alt_mem_instruction_tcm+0xff201c0c>

01201c30 <__swsetup_r>:
 1201c30:	00804874 	movhi	r2,289
 1201c34:	defffd04 	addi	sp,sp,-12
 1201c38:	10a6ec04 	addi	r2,r2,-25680
 1201c3c:	dc400115 	stw	r17,4(sp)
 1201c40:	2023883a 	mov	r17,r4
 1201c44:	11000017 	ldw	r4,0(r2)
 1201c48:	dc000015 	stw	r16,0(sp)
 1201c4c:	dfc00215 	stw	ra,8(sp)
 1201c50:	2821883a 	mov	r16,r5
 1201c54:	20000226 	beq	r4,zero,1201c60 <__swsetup_r+0x30>
 1201c58:	20c00e17 	ldw	r3,56(r4)
 1201c5c:	18002e26 	beq	r3,zero,1201d18 <__swsetup_r+0xe8>
 1201c60:	8080030b 	ldhu	r2,12(r16)
 1201c64:	10c0020c 	andi	r3,r2,8
 1201c68:	100d883a 	mov	r6,r2
 1201c6c:	18000f26 	beq	r3,zero,1201cac <__swsetup_r+0x7c>
 1201c70:	80c00417 	ldw	r3,16(r16)
 1201c74:	18001526 	beq	r3,zero,1201ccc <__swsetup_r+0x9c>
 1201c78:	1100004c 	andi	r4,r2,1
 1201c7c:	20001c1e 	bne	r4,zero,1201cf0 <__swsetup_r+0xc0>
 1201c80:	1080008c 	andi	r2,r2,2
 1201c84:	1000261e 	bne	r2,zero,1201d20 <__swsetup_r+0xf0>
 1201c88:	80800517 	ldw	r2,20(r16)
 1201c8c:	80800215 	stw	r2,8(r16)
 1201c90:	18001c26 	beq	r3,zero,1201d04 <__swsetup_r+0xd4>
 1201c94:	0005883a 	mov	r2,zero
 1201c98:	dfc00217 	ldw	ra,8(sp)
 1201c9c:	dc400117 	ldw	r17,4(sp)
 1201ca0:	dc000017 	ldw	r16,0(sp)
 1201ca4:	dec00304 	addi	sp,sp,12
 1201ca8:	f800283a 	ret
 1201cac:	3080040c 	andi	r2,r6,16
 1201cb0:	10001726 	beq	r2,zero,1201d10 <__swsetup_r+0xe0>
 1201cb4:	3080010c 	andi	r2,r6,4
 1201cb8:	10001b1e 	bne	r2,zero,1201d28 <__swsetup_r+0xf8>
 1201cbc:	80c00417 	ldw	r3,16(r16)
 1201cc0:	30800214 	ori	r2,r6,8
 1201cc4:	8080030d 	sth	r2,12(r16)
 1201cc8:	183feb1e 	bne	r3,zero,1201c78 <__alt_mem_instruction_tcm+0xff201c78>
 1201ccc:	1140a00c 	andi	r5,r2,640
 1201cd0:	01008004 	movi	r4,512
 1201cd4:	293fe826 	beq	r5,r4,1201c78 <__alt_mem_instruction_tcm+0xff201c78>
 1201cd8:	8809883a 	mov	r4,r17
 1201cdc:	800b883a 	mov	r5,r16
 1201ce0:	12028dc0 	call	12028dc <__smakebuf_r>
 1201ce4:	8080030b 	ldhu	r2,12(r16)
 1201ce8:	80c00417 	ldw	r3,16(r16)
 1201cec:	003fe206 	br	1201c78 <__alt_mem_instruction_tcm+0xff201c78>
 1201cf0:	80800517 	ldw	r2,20(r16)
 1201cf4:	80000215 	stw	zero,8(r16)
 1201cf8:	0085c83a 	sub	r2,zero,r2
 1201cfc:	80800615 	stw	r2,24(r16)
 1201d00:	183fe41e 	bne	r3,zero,1201c94 <__alt_mem_instruction_tcm+0xff201c94>
 1201d04:	8080030b 	ldhu	r2,12(r16)
 1201d08:	1080200c 	andi	r2,r2,128
 1201d0c:	103fe226 	beq	r2,zero,1201c98 <__alt_mem_instruction_tcm+0xff201c98>
 1201d10:	00bfffc4 	movi	r2,-1
 1201d14:	003fe006 	br	1201c98 <__alt_mem_instruction_tcm+0xff201c98>
 1201d18:	12023080 	call	1202308 <__sinit>
 1201d1c:	003fd006 	br	1201c60 <__alt_mem_instruction_tcm+0xff201c60>
 1201d20:	0005883a 	mov	r2,zero
 1201d24:	003fd906 	br	1201c8c <__alt_mem_instruction_tcm+0xff201c8c>
 1201d28:	81400c17 	ldw	r5,48(r16)
 1201d2c:	28000626 	beq	r5,zero,1201d48 <__swsetup_r+0x118>
 1201d30:	80801004 	addi	r2,r16,64
 1201d34:	28800326 	beq	r5,r2,1201d44 <__swsetup_r+0x114>
 1201d38:	8809883a 	mov	r4,r17
 1201d3c:	120247c0 	call	120247c <_free_r>
 1201d40:	8180030b 	ldhu	r6,12(r16)
 1201d44:	80000c15 	stw	zero,48(r16)
 1201d48:	80c00417 	ldw	r3,16(r16)
 1201d4c:	00bff6c4 	movi	r2,-37
 1201d50:	118c703a 	and	r6,r2,r6
 1201d54:	80000115 	stw	zero,4(r16)
 1201d58:	80c00015 	stw	r3,0(r16)
 1201d5c:	003fd806 	br	1201cc0 <__alt_mem_instruction_tcm+0xff201cc0>

01201d60 <_fflush_r>:
 1201d60:	defffb04 	addi	sp,sp,-20
 1201d64:	dcc00315 	stw	r19,12(sp)
 1201d68:	dc000015 	stw	r16,0(sp)
 1201d6c:	dfc00415 	stw	ra,16(sp)
 1201d70:	dc800215 	stw	r18,8(sp)
 1201d74:	dc400115 	stw	r17,4(sp)
 1201d78:	2027883a 	mov	r19,r4
 1201d7c:	2821883a 	mov	r16,r5
 1201d80:	20000226 	beq	r4,zero,1201d8c <_fflush_r+0x2c>
 1201d84:	20800e17 	ldw	r2,56(r4)
 1201d88:	10005326 	beq	r2,zero,1201ed8 <_fflush_r+0x178>
 1201d8c:	8080030b 	ldhu	r2,12(r16)
 1201d90:	10ffffcc 	andi	r3,r2,65535
 1201d94:	18e0001c 	xori	r3,r3,32768
 1201d98:	18e00004 	addi	r3,r3,-32768
 1201d9c:	18002c26 	beq	r3,zero,1201e50 <_fflush_r+0xf0>
 1201da0:	10c0020c 	andi	r3,r2,8
 1201da4:	1800321e 	bne	r3,zero,1201e70 <_fflush_r+0x110>
 1201da8:	80c00117 	ldw	r3,4(r16)
 1201dac:	10820014 	ori	r2,r2,2048
 1201db0:	8080030d 	sth	r2,12(r16)
 1201db4:	00c0570e 	bge	zero,r3,1201f14 <_fflush_r+0x1b4>
 1201db8:	82000a17 	ldw	r8,40(r16)
 1201dbc:	40002426 	beq	r8,zero,1201e50 <_fflush_r+0xf0>
 1201dc0:	9c400017 	ldw	r17,0(r19)
 1201dc4:	10c4000c 	andi	r3,r2,4096
 1201dc8:	98000015 	stw	zero,0(r19)
 1201dcc:	18004626 	beq	r3,zero,1201ee8 <_fflush_r+0x188>
 1201dd0:	81801417 	ldw	r6,80(r16)
 1201dd4:	10c0010c 	andi	r3,r2,4
 1201dd8:	18000626 	beq	r3,zero,1201df4 <_fflush_r+0x94>
 1201ddc:	80c00117 	ldw	r3,4(r16)
 1201de0:	80800c17 	ldw	r2,48(r16)
 1201de4:	30cdc83a 	sub	r6,r6,r3
 1201de8:	10000226 	beq	r2,zero,1201df4 <_fflush_r+0x94>
 1201dec:	80800f17 	ldw	r2,60(r16)
 1201df0:	308dc83a 	sub	r6,r6,r2
 1201df4:	81400717 	ldw	r5,28(r16)
 1201df8:	9809883a 	mov	r4,r19
 1201dfc:	000f883a 	mov	r7,zero
 1201e00:	403ee83a 	callr	r8
 1201e04:	00ffffc4 	movi	r3,-1
 1201e08:	10c04526 	beq	r2,r3,1201f20 <_fflush_r+0x1c0>
 1201e0c:	80c0030b 	ldhu	r3,12(r16)
 1201e10:	81000417 	ldw	r4,16(r16)
 1201e14:	80000115 	stw	zero,4(r16)
 1201e18:	197dffcc 	andi	r5,r3,63487
 1201e1c:	8140030d 	sth	r5,12(r16)
 1201e20:	81000015 	stw	r4,0(r16)
 1201e24:	18c4000c 	andi	r3,r3,4096
 1201e28:	18000126 	beq	r3,zero,1201e30 <_fflush_r+0xd0>
 1201e2c:	80801415 	stw	r2,80(r16)
 1201e30:	81400c17 	ldw	r5,48(r16)
 1201e34:	9c400015 	stw	r17,0(r19)
 1201e38:	28000526 	beq	r5,zero,1201e50 <_fflush_r+0xf0>
 1201e3c:	80801004 	addi	r2,r16,64
 1201e40:	28800226 	beq	r5,r2,1201e4c <_fflush_r+0xec>
 1201e44:	9809883a 	mov	r4,r19
 1201e48:	120247c0 	call	120247c <_free_r>
 1201e4c:	80000c15 	stw	zero,48(r16)
 1201e50:	0005883a 	mov	r2,zero
 1201e54:	dfc00417 	ldw	ra,16(sp)
 1201e58:	dcc00317 	ldw	r19,12(sp)
 1201e5c:	dc800217 	ldw	r18,8(sp)
 1201e60:	dc400117 	ldw	r17,4(sp)
 1201e64:	dc000017 	ldw	r16,0(sp)
 1201e68:	dec00504 	addi	sp,sp,20
 1201e6c:	f800283a 	ret
 1201e70:	84800417 	ldw	r18,16(r16)
 1201e74:	903ff626 	beq	r18,zero,1201e50 <__alt_mem_instruction_tcm+0xff201e50>
 1201e78:	84400017 	ldw	r17,0(r16)
 1201e7c:	108000cc 	andi	r2,r2,3
 1201e80:	84800015 	stw	r18,0(r16)
 1201e84:	8ca3c83a 	sub	r17,r17,r18
 1201e88:	10001526 	beq	r2,zero,1201ee0 <_fflush_r+0x180>
 1201e8c:	0005883a 	mov	r2,zero
 1201e90:	80800215 	stw	r2,8(r16)
 1201e94:	04400316 	blt	zero,r17,1201ea4 <_fflush_r+0x144>
 1201e98:	003fed06 	br	1201e50 <__alt_mem_instruction_tcm+0xff201e50>
 1201e9c:	90a5883a 	add	r18,r18,r2
 1201ea0:	047feb0e 	bge	zero,r17,1201e50 <__alt_mem_instruction_tcm+0xff201e50>
 1201ea4:	80800917 	ldw	r2,36(r16)
 1201ea8:	81400717 	ldw	r5,28(r16)
 1201eac:	880f883a 	mov	r7,r17
 1201eb0:	900d883a 	mov	r6,r18
 1201eb4:	9809883a 	mov	r4,r19
 1201eb8:	103ee83a 	callr	r2
 1201ebc:	88a3c83a 	sub	r17,r17,r2
 1201ec0:	00bff616 	blt	zero,r2,1201e9c <__alt_mem_instruction_tcm+0xff201e9c>
 1201ec4:	80c0030b 	ldhu	r3,12(r16)
 1201ec8:	00bfffc4 	movi	r2,-1
 1201ecc:	18c01014 	ori	r3,r3,64
 1201ed0:	80c0030d 	sth	r3,12(r16)
 1201ed4:	003fdf06 	br	1201e54 <__alt_mem_instruction_tcm+0xff201e54>
 1201ed8:	12023080 	call	1202308 <__sinit>
 1201edc:	003fab06 	br	1201d8c <__alt_mem_instruction_tcm+0xff201d8c>
 1201ee0:	80800517 	ldw	r2,20(r16)
 1201ee4:	003fea06 	br	1201e90 <__alt_mem_instruction_tcm+0xff201e90>
 1201ee8:	81400717 	ldw	r5,28(r16)
 1201eec:	000d883a 	mov	r6,zero
 1201ef0:	9809883a 	mov	r4,r19
 1201ef4:	01c00044 	movi	r7,1
 1201ef8:	403ee83a 	callr	r8
 1201efc:	100d883a 	mov	r6,r2
 1201f00:	00bfffc4 	movi	r2,-1
 1201f04:	30801326 	beq	r6,r2,1201f54 <_fflush_r+0x1f4>
 1201f08:	8080030b 	ldhu	r2,12(r16)
 1201f0c:	82000a17 	ldw	r8,40(r16)
 1201f10:	003fb006 	br	1201dd4 <__alt_mem_instruction_tcm+0xff201dd4>
 1201f14:	80c00f17 	ldw	r3,60(r16)
 1201f18:	00ffa716 	blt	zero,r3,1201db8 <__alt_mem_instruction_tcm+0xff201db8>
 1201f1c:	003fcc06 	br	1201e50 <__alt_mem_instruction_tcm+0xff201e50>
 1201f20:	98c00017 	ldw	r3,0(r19)
 1201f24:	183fb926 	beq	r3,zero,1201e0c <__alt_mem_instruction_tcm+0xff201e0c>
 1201f28:	01000744 	movi	r4,29
 1201f2c:	19000226 	beq	r3,r4,1201f38 <_fflush_r+0x1d8>
 1201f30:	01000584 	movi	r4,22
 1201f34:	1900101e 	bne	r3,r4,1201f78 <_fflush_r+0x218>
 1201f38:	8080030b 	ldhu	r2,12(r16)
 1201f3c:	80c00417 	ldw	r3,16(r16)
 1201f40:	80000115 	stw	zero,4(r16)
 1201f44:	10bdffcc 	andi	r2,r2,63487
 1201f48:	8080030d 	sth	r2,12(r16)
 1201f4c:	80c00015 	stw	r3,0(r16)
 1201f50:	003fb706 	br	1201e30 <__alt_mem_instruction_tcm+0xff201e30>
 1201f54:	98800017 	ldw	r2,0(r19)
 1201f58:	103feb26 	beq	r2,zero,1201f08 <__alt_mem_instruction_tcm+0xff201f08>
 1201f5c:	00c00744 	movi	r3,29
 1201f60:	10c00226 	beq	r2,r3,1201f6c <_fflush_r+0x20c>
 1201f64:	00c00584 	movi	r3,22
 1201f68:	10ffd61e 	bne	r2,r3,1201ec4 <__alt_mem_instruction_tcm+0xff201ec4>
 1201f6c:	9c400015 	stw	r17,0(r19)
 1201f70:	0005883a 	mov	r2,zero
 1201f74:	003fb706 	br	1201e54 <__alt_mem_instruction_tcm+0xff201e54>
 1201f78:	80c0030b 	ldhu	r3,12(r16)
 1201f7c:	18c01014 	ori	r3,r3,64
 1201f80:	80c0030d 	sth	r3,12(r16)
 1201f84:	003fb306 	br	1201e54 <__alt_mem_instruction_tcm+0xff201e54>

01201f88 <fflush>:
 1201f88:	20000526 	beq	r4,zero,1201fa0 <fflush+0x18>
 1201f8c:	00804874 	movhi	r2,289
 1201f90:	10a6ec04 	addi	r2,r2,-25680
 1201f94:	200b883a 	mov	r5,r4
 1201f98:	11000017 	ldw	r4,0(r2)
 1201f9c:	1201d601 	jmpi	1201d60 <_fflush_r>
 1201fa0:	00804874 	movhi	r2,289
 1201fa4:	10a6eb04 	addi	r2,r2,-25684
 1201fa8:	11000017 	ldw	r4,0(r2)
 1201fac:	01404834 	movhi	r5,288
 1201fb0:	29475804 	addi	r5,r5,7520
 1201fb4:	12028241 	jmpi	1202824 <_fwalk_reent>

01201fb8 <__fp_lock>:
 1201fb8:	0005883a 	mov	r2,zero
 1201fbc:	f800283a 	ret

01201fc0 <__fp_unlock>:
 1201fc0:	0005883a 	mov	r2,zero
 1201fc4:	f800283a 	ret

01201fc8 <_cleanup_r>:
 1201fc8:	01404834 	movhi	r5,288
 1201fcc:	294ba904 	addi	r5,r5,11940
 1201fd0:	120276c1 	jmpi	120276c <_fwalk>

01201fd4 <__sinit.part.1>:
 1201fd4:	defff604 	addi	sp,sp,-40
 1201fd8:	00c04834 	movhi	r3,288
 1201fdc:	dfc00915 	stw	ra,36(sp)
 1201fe0:	df000815 	stw	fp,32(sp)
 1201fe4:	ddc00715 	stw	r23,28(sp)
 1201fe8:	dd800615 	stw	r22,24(sp)
 1201fec:	dd400515 	stw	r21,20(sp)
 1201ff0:	dd000415 	stw	r20,16(sp)
 1201ff4:	dcc00315 	stw	r19,12(sp)
 1201ff8:	dc800215 	stw	r18,8(sp)
 1201ffc:	dc400115 	stw	r17,4(sp)
 1202000:	dc000015 	stw	r16,0(sp)
 1202004:	18c7f204 	addi	r3,r3,8136
 1202008:	24000117 	ldw	r16,4(r4)
 120200c:	20c00f15 	stw	r3,60(r4)
 1202010:	07000044 	movi	fp,1
 1202014:	00c000c4 	movi	r3,3
 1202018:	2080bb04 	addi	r2,r4,748
 120201c:	20c0b915 	stw	r3,740(r4)
 1202020:	27000e15 	stw	fp,56(r4)
 1202024:	2080ba15 	stw	r2,744(r4)
 1202028:	2000b815 	stw	zero,736(r4)
 120202c:	05c00204 	movi	r23,8
 1202030:	00800104 	movi	r2,4
 1202034:	2025883a 	mov	r18,r4
 1202038:	b80d883a 	mov	r6,r23
 120203c:	81001704 	addi	r4,r16,92
 1202040:	000b883a 	mov	r5,zero
 1202044:	80000015 	stw	zero,0(r16)
 1202048:	80000115 	stw	zero,4(r16)
 120204c:	80000215 	stw	zero,8(r16)
 1202050:	8080030d 	sth	r2,12(r16)
 1202054:	80001915 	stw	zero,100(r16)
 1202058:	8000038d 	sth	zero,14(r16)
 120205c:	80000415 	stw	zero,16(r16)
 1202060:	80000515 	stw	zero,20(r16)
 1202064:	80000615 	stw	zero,24(r16)
 1202068:	1202a940 	call	1202a94 <memset>
 120206c:	05804834 	movhi	r22,288
 1202070:	94400217 	ldw	r17,8(r18)
 1202074:	05404834 	movhi	r21,288
 1202078:	05004834 	movhi	r20,288
 120207c:	04c04834 	movhi	r19,288
 1202080:	b58aee04 	addi	r22,r22,11192
 1202084:	ad4b0504 	addi	r21,r21,11284
 1202088:	a50b2404 	addi	r20,r20,11408
 120208c:	9ccb3b04 	addi	r19,r19,11500
 1202090:	85800815 	stw	r22,32(r16)
 1202094:	85400915 	stw	r21,36(r16)
 1202098:	85000a15 	stw	r20,40(r16)
 120209c:	84c00b15 	stw	r19,44(r16)
 12020a0:	84000715 	stw	r16,28(r16)
 12020a4:	00800284 	movi	r2,10
 12020a8:	89001704 	addi	r4,r17,92
 12020ac:	b80d883a 	mov	r6,r23
 12020b0:	000b883a 	mov	r5,zero
 12020b4:	88000015 	stw	zero,0(r17)
 12020b8:	88000115 	stw	zero,4(r17)
 12020bc:	88000215 	stw	zero,8(r17)
 12020c0:	8880030d 	sth	r2,12(r17)
 12020c4:	88001915 	stw	zero,100(r17)
 12020c8:	8f00038d 	sth	fp,14(r17)
 12020cc:	88000415 	stw	zero,16(r17)
 12020d0:	88000515 	stw	zero,20(r17)
 12020d4:	88000615 	stw	zero,24(r17)
 12020d8:	1202a940 	call	1202a94 <memset>
 12020dc:	94000317 	ldw	r16,12(r18)
 12020e0:	00800484 	movi	r2,18
 12020e4:	8c400715 	stw	r17,28(r17)
 12020e8:	8d800815 	stw	r22,32(r17)
 12020ec:	8d400915 	stw	r21,36(r17)
 12020f0:	8d000a15 	stw	r20,40(r17)
 12020f4:	8cc00b15 	stw	r19,44(r17)
 12020f8:	8080030d 	sth	r2,12(r16)
 12020fc:	00800084 	movi	r2,2
 1202100:	80000015 	stw	zero,0(r16)
 1202104:	80000115 	stw	zero,4(r16)
 1202108:	80000215 	stw	zero,8(r16)
 120210c:	80001915 	stw	zero,100(r16)
 1202110:	8080038d 	sth	r2,14(r16)
 1202114:	80000415 	stw	zero,16(r16)
 1202118:	80000515 	stw	zero,20(r16)
 120211c:	80000615 	stw	zero,24(r16)
 1202120:	81001704 	addi	r4,r16,92
 1202124:	000b883a 	mov	r5,zero
 1202128:	b80d883a 	mov	r6,r23
 120212c:	1202a940 	call	1202a94 <memset>
 1202130:	84000715 	stw	r16,28(r16)
 1202134:	85800815 	stw	r22,32(r16)
 1202138:	85400915 	stw	r21,36(r16)
 120213c:	85000a15 	stw	r20,40(r16)
 1202140:	84c00b15 	stw	r19,44(r16)
 1202144:	dfc00917 	ldw	ra,36(sp)
 1202148:	df000817 	ldw	fp,32(sp)
 120214c:	ddc00717 	ldw	r23,28(sp)
 1202150:	dd800617 	ldw	r22,24(sp)
 1202154:	dd400517 	ldw	r21,20(sp)
 1202158:	dd000417 	ldw	r20,16(sp)
 120215c:	dcc00317 	ldw	r19,12(sp)
 1202160:	dc800217 	ldw	r18,8(sp)
 1202164:	dc400117 	ldw	r17,4(sp)
 1202168:	dc000017 	ldw	r16,0(sp)
 120216c:	dec00a04 	addi	sp,sp,40
 1202170:	f800283a 	ret

01202174 <__sfmoreglue>:
 1202174:	defffc04 	addi	sp,sp,-16
 1202178:	dc400115 	stw	r17,4(sp)
 120217c:	2c401a24 	muli	r17,r5,104
 1202180:	dc800215 	stw	r18,8(sp)
 1202184:	2825883a 	mov	r18,r5
 1202188:	89400304 	addi	r5,r17,12
 120218c:	dc000015 	stw	r16,0(sp)
 1202190:	dfc00315 	stw	ra,12(sp)
 1202194:	1200b180 	call	1200b18 <_malloc_r>
 1202198:	1021883a 	mov	r16,r2
 120219c:	10000726 	beq	r2,zero,12021bc <__sfmoreglue+0x48>
 12021a0:	11000304 	addi	r4,r2,12
 12021a4:	10000015 	stw	zero,0(r2)
 12021a8:	14800115 	stw	r18,4(r2)
 12021ac:	11000215 	stw	r4,8(r2)
 12021b0:	000b883a 	mov	r5,zero
 12021b4:	880d883a 	mov	r6,r17
 12021b8:	1202a940 	call	1202a94 <memset>
 12021bc:	8005883a 	mov	r2,r16
 12021c0:	dfc00317 	ldw	ra,12(sp)
 12021c4:	dc800217 	ldw	r18,8(sp)
 12021c8:	dc400117 	ldw	r17,4(sp)
 12021cc:	dc000017 	ldw	r16,0(sp)
 12021d0:	dec00404 	addi	sp,sp,16
 12021d4:	f800283a 	ret

012021d8 <__sfp>:
 12021d8:	00804874 	movhi	r2,289
 12021dc:	defffb04 	addi	sp,sp,-20
 12021e0:	10a6eb04 	addi	r2,r2,-25684
 12021e4:	dc800215 	stw	r18,8(sp)
 12021e8:	14800017 	ldw	r18,0(r2)
 12021ec:	dcc00315 	stw	r19,12(sp)
 12021f0:	dfc00415 	stw	ra,16(sp)
 12021f4:	90800e17 	ldw	r2,56(r18)
 12021f8:	dc400115 	stw	r17,4(sp)
 12021fc:	dc000015 	stw	r16,0(sp)
 1202200:	2027883a 	mov	r19,r4
 1202204:	1000021e 	bne	r2,zero,1202210 <__sfp+0x38>
 1202208:	9009883a 	mov	r4,r18
 120220c:	1201fd40 	call	1201fd4 <__sinit.part.1>
 1202210:	9480b804 	addi	r18,r18,736
 1202214:	047fffc4 	movi	r17,-1
 1202218:	91400117 	ldw	r5,4(r18)
 120221c:	94000217 	ldw	r16,8(r18)
 1202220:	297fffc4 	addi	r5,r5,-1
 1202224:	28000a16 	blt	r5,zero,1202250 <__sfp+0x78>
 1202228:	8080030f 	ldh	r2,12(r16)
 120222c:	10000c26 	beq	r2,zero,1202260 <__sfp+0x88>
 1202230:	80c01d04 	addi	r3,r16,116
 1202234:	00000206 	br	1202240 <__sfp+0x68>
 1202238:	18bfe60f 	ldh	r2,-104(r3)
 120223c:	10000826 	beq	r2,zero,1202260 <__sfp+0x88>
 1202240:	297fffc4 	addi	r5,r5,-1
 1202244:	1c3ffd04 	addi	r16,r3,-12
 1202248:	18c01a04 	addi	r3,r3,104
 120224c:	2c7ffa1e 	bne	r5,r17,1202238 <__alt_mem_instruction_tcm+0xff202238>
 1202250:	90800017 	ldw	r2,0(r18)
 1202254:	10001d26 	beq	r2,zero,12022cc <__sfp+0xf4>
 1202258:	1025883a 	mov	r18,r2
 120225c:	003fee06 	br	1202218 <__alt_mem_instruction_tcm+0xff202218>
 1202260:	00bfffc4 	movi	r2,-1
 1202264:	8080038d 	sth	r2,14(r16)
 1202268:	00800044 	movi	r2,1
 120226c:	8080030d 	sth	r2,12(r16)
 1202270:	80001915 	stw	zero,100(r16)
 1202274:	80000015 	stw	zero,0(r16)
 1202278:	80000215 	stw	zero,8(r16)
 120227c:	80000115 	stw	zero,4(r16)
 1202280:	80000415 	stw	zero,16(r16)
 1202284:	80000515 	stw	zero,20(r16)
 1202288:	80000615 	stw	zero,24(r16)
 120228c:	81001704 	addi	r4,r16,92
 1202290:	000b883a 	mov	r5,zero
 1202294:	01800204 	movi	r6,8
 1202298:	1202a940 	call	1202a94 <memset>
 120229c:	8005883a 	mov	r2,r16
 12022a0:	80000c15 	stw	zero,48(r16)
 12022a4:	80000d15 	stw	zero,52(r16)
 12022a8:	80001115 	stw	zero,68(r16)
 12022ac:	80001215 	stw	zero,72(r16)
 12022b0:	dfc00417 	ldw	ra,16(sp)
 12022b4:	dcc00317 	ldw	r19,12(sp)
 12022b8:	dc800217 	ldw	r18,8(sp)
 12022bc:	dc400117 	ldw	r17,4(sp)
 12022c0:	dc000017 	ldw	r16,0(sp)
 12022c4:	dec00504 	addi	sp,sp,20
 12022c8:	f800283a 	ret
 12022cc:	9809883a 	mov	r4,r19
 12022d0:	01400104 	movi	r5,4
 12022d4:	12021740 	call	1202174 <__sfmoreglue>
 12022d8:	90800015 	stw	r2,0(r18)
 12022dc:	103fde1e 	bne	r2,zero,1202258 <__alt_mem_instruction_tcm+0xff202258>
 12022e0:	00800304 	movi	r2,12
 12022e4:	98800015 	stw	r2,0(r19)
 12022e8:	0005883a 	mov	r2,zero
 12022ec:	003ff006 	br	12022b0 <__alt_mem_instruction_tcm+0xff2022b0>

012022f0 <_cleanup>:
 12022f0:	00804874 	movhi	r2,289
 12022f4:	10a6eb04 	addi	r2,r2,-25684
 12022f8:	11000017 	ldw	r4,0(r2)
 12022fc:	01404834 	movhi	r5,288
 1202300:	294ba904 	addi	r5,r5,11940
 1202304:	120276c1 	jmpi	120276c <_fwalk>

01202308 <__sinit>:
 1202308:	20800e17 	ldw	r2,56(r4)
 120230c:	10000126 	beq	r2,zero,1202314 <__sinit+0xc>
 1202310:	f800283a 	ret
 1202314:	1201fd41 	jmpi	1201fd4 <__sinit.part.1>

01202318 <__sfp_lock_acquire>:
 1202318:	f800283a 	ret

0120231c <__sfp_lock_release>:
 120231c:	f800283a 	ret

01202320 <__sinit_lock_acquire>:
 1202320:	f800283a 	ret

01202324 <__sinit_lock_release>:
 1202324:	f800283a 	ret

01202328 <__fp_lock_all>:
 1202328:	00804874 	movhi	r2,289
 120232c:	10a6ec04 	addi	r2,r2,-25680
 1202330:	11000017 	ldw	r4,0(r2)
 1202334:	01404834 	movhi	r5,288
 1202338:	2947ee04 	addi	r5,r5,8120
 120233c:	120276c1 	jmpi	120276c <_fwalk>

01202340 <__fp_unlock_all>:
 1202340:	00804874 	movhi	r2,289
 1202344:	10a6ec04 	addi	r2,r2,-25680
 1202348:	11000017 	ldw	r4,0(r2)
 120234c:	01404834 	movhi	r5,288
 1202350:	2947f004 	addi	r5,r5,8128
 1202354:	120276c1 	jmpi	120276c <_fwalk>

01202358 <_malloc_trim_r>:
 1202358:	defffb04 	addi	sp,sp,-20
 120235c:	dcc00315 	stw	r19,12(sp)
 1202360:	04c04874 	movhi	r19,289
 1202364:	dc800215 	stw	r18,8(sp)
 1202368:	dc400115 	stw	r17,4(sp)
 120236c:	dc000015 	stw	r16,0(sp)
 1202370:	dfc00415 	stw	ra,16(sp)
 1202374:	2821883a 	mov	r16,r5
 1202378:	9ce13004 	addi	r19,r19,-31552
 120237c:	2025883a 	mov	r18,r4
 1202380:	12037c80 	call	12037c8 <__malloc_lock>
 1202384:	98800217 	ldw	r2,8(r19)
 1202388:	14400117 	ldw	r17,4(r2)
 120238c:	00bfff04 	movi	r2,-4
 1202390:	88a2703a 	and	r17,r17,r2
 1202394:	8c21c83a 	sub	r16,r17,r16
 1202398:	8403fbc4 	addi	r16,r16,4079
 120239c:	8020d33a 	srli	r16,r16,12
 12023a0:	0083ffc4 	movi	r2,4095
 12023a4:	843fffc4 	addi	r16,r16,-1
 12023a8:	8020933a 	slli	r16,r16,12
 12023ac:	1400060e 	bge	r2,r16,12023c8 <_malloc_trim_r+0x70>
 12023b0:	9009883a 	mov	r4,r18
 12023b4:	000b883a 	mov	r5,zero
 12023b8:	1201bdc0 	call	1201bdc <_sbrk_r>
 12023bc:	98c00217 	ldw	r3,8(r19)
 12023c0:	1c47883a 	add	r3,r3,r17
 12023c4:	10c00a26 	beq	r2,r3,12023f0 <_malloc_trim_r+0x98>
 12023c8:	9009883a 	mov	r4,r18
 12023cc:	12037e80 	call	12037e8 <__malloc_unlock>
 12023d0:	0005883a 	mov	r2,zero
 12023d4:	dfc00417 	ldw	ra,16(sp)
 12023d8:	dcc00317 	ldw	r19,12(sp)
 12023dc:	dc800217 	ldw	r18,8(sp)
 12023e0:	dc400117 	ldw	r17,4(sp)
 12023e4:	dc000017 	ldw	r16,0(sp)
 12023e8:	dec00504 	addi	sp,sp,20
 12023ec:	f800283a 	ret
 12023f0:	9009883a 	mov	r4,r18
 12023f4:	040bc83a 	sub	r5,zero,r16
 12023f8:	1201bdc0 	call	1201bdc <_sbrk_r>
 12023fc:	00ffffc4 	movi	r3,-1
 1202400:	10c00d26 	beq	r2,r3,1202438 <_malloc_trim_r+0xe0>
 1202404:	00c04874 	movhi	r3,289
 1202408:	18e70704 	addi	r3,r3,-25572
 120240c:	18800017 	ldw	r2,0(r3)
 1202410:	99000217 	ldw	r4,8(r19)
 1202414:	8c23c83a 	sub	r17,r17,r16
 1202418:	8c400054 	ori	r17,r17,1
 120241c:	1421c83a 	sub	r16,r2,r16
 1202420:	24400115 	stw	r17,4(r4)
 1202424:	9009883a 	mov	r4,r18
 1202428:	1c000015 	stw	r16,0(r3)
 120242c:	12037e80 	call	12037e8 <__malloc_unlock>
 1202430:	00800044 	movi	r2,1
 1202434:	003fe706 	br	12023d4 <__alt_mem_instruction_tcm+0xff2023d4>
 1202438:	9009883a 	mov	r4,r18
 120243c:	000b883a 	mov	r5,zero
 1202440:	1201bdc0 	call	1201bdc <_sbrk_r>
 1202444:	99000217 	ldw	r4,8(r19)
 1202448:	014003c4 	movi	r5,15
 120244c:	1107c83a 	sub	r3,r2,r4
 1202450:	28ffdd0e 	bge	r5,r3,12023c8 <__alt_mem_instruction_tcm+0xff2023c8>
 1202454:	01404874 	movhi	r5,289
 1202458:	2966ed04 	addi	r5,r5,-25676
 120245c:	29400017 	ldw	r5,0(r5)
 1202460:	18c00054 	ori	r3,r3,1
 1202464:	20c00115 	stw	r3,4(r4)
 1202468:	00c04874 	movhi	r3,289
 120246c:	1145c83a 	sub	r2,r2,r5
 1202470:	18e70704 	addi	r3,r3,-25572
 1202474:	18800015 	stw	r2,0(r3)
 1202478:	003fd306 	br	12023c8 <__alt_mem_instruction_tcm+0xff2023c8>

0120247c <_free_r>:
 120247c:	28004c26 	beq	r5,zero,12025b0 <_free_r+0x134>
 1202480:	defffd04 	addi	sp,sp,-12
 1202484:	dc400115 	stw	r17,4(sp)
 1202488:	dc000015 	stw	r16,0(sp)
 120248c:	2023883a 	mov	r17,r4
 1202490:	2821883a 	mov	r16,r5
 1202494:	dfc00215 	stw	ra,8(sp)
 1202498:	12037c80 	call	12037c8 <__malloc_lock>
 120249c:	813fff17 	ldw	r4,-4(r16)
 12024a0:	00bfff84 	movi	r2,-2
 12024a4:	02404874 	movhi	r9,289
 12024a8:	81bffe04 	addi	r6,r16,-8
 12024ac:	2084703a 	and	r2,r4,r2
 12024b0:	4a613004 	addi	r9,r9,-31552
 12024b4:	308b883a 	add	r5,r6,r2
 12024b8:	2a000117 	ldw	r8,4(r5)
 12024bc:	49c00217 	ldw	r7,8(r9)
 12024c0:	00ffff04 	movi	r3,-4
 12024c4:	40c6703a 	and	r3,r8,r3
 12024c8:	39405326 	beq	r7,r5,1202618 <_free_r+0x19c>
 12024cc:	28c00115 	stw	r3,4(r5)
 12024d0:	2100004c 	andi	r4,r4,1
 12024d4:	2000091e 	bne	r4,zero,12024fc <_free_r+0x80>
 12024d8:	81fffe17 	ldw	r7,-8(r16)
 12024dc:	4a000204 	addi	r8,r9,8
 12024e0:	31cdc83a 	sub	r6,r6,r7
 12024e4:	31000217 	ldw	r4,8(r6)
 12024e8:	11c5883a 	add	r2,r2,r7
 12024ec:	22006126 	beq	r4,r8,1202674 <_free_r+0x1f8>
 12024f0:	31c00317 	ldw	r7,12(r6)
 12024f4:	21c00315 	stw	r7,12(r4)
 12024f8:	39000215 	stw	r4,8(r7)
 12024fc:	28c9883a 	add	r4,r5,r3
 1202500:	21c00117 	ldw	r7,4(r4)
 1202504:	39c0004c 	andi	r7,r7,1
 1202508:	38000d1e 	bne	r7,zero,1202540 <_free_r+0xc4>
 120250c:	29000217 	ldw	r4,8(r5)
 1202510:	10c5883a 	add	r2,r2,r3
 1202514:	00c04874 	movhi	r3,289
 1202518:	18e13204 	addi	r3,r3,-31544
 120251c:	20c07526 	beq	r4,r3,12026f4 <_free_r+0x278>
 1202520:	29c00317 	ldw	r7,12(r5)
 1202524:	11400054 	ori	r5,r2,1
 1202528:	3087883a 	add	r3,r6,r2
 120252c:	21c00315 	stw	r7,12(r4)
 1202530:	39000215 	stw	r4,8(r7)
 1202534:	31400115 	stw	r5,4(r6)
 1202538:	18800015 	stw	r2,0(r3)
 120253c:	00000406 	br	1202550 <_free_r+0xd4>
 1202540:	10c00054 	ori	r3,r2,1
 1202544:	30c00115 	stw	r3,4(r6)
 1202548:	3087883a 	add	r3,r6,r2
 120254c:	18800015 	stw	r2,0(r3)
 1202550:	00c07fc4 	movi	r3,511
 1202554:	18801736 	bltu	r3,r2,12025b4 <_free_r+0x138>
 1202558:	1004d0fa 	srli	r2,r2,3
 120255c:	01400044 	movi	r5,1
 1202560:	49000117 	ldw	r4,4(r9)
 1202564:	1087883a 	add	r3,r2,r2
 1202568:	18c7883a 	add	r3,r3,r3
 120256c:	1005d0ba 	srai	r2,r2,2
 1202570:	18c7883a 	add	r3,r3,r3
 1202574:	1a47883a 	add	r3,r3,r9
 1202578:	19c00217 	ldw	r7,8(r3)
 120257c:	2884983a 	sll	r2,r5,r2
 1202580:	30c00315 	stw	r3,12(r6)
 1202584:	31c00215 	stw	r7,8(r6)
 1202588:	1104b03a 	or	r2,r2,r4
 120258c:	19800215 	stw	r6,8(r3)
 1202590:	48800115 	stw	r2,4(r9)
 1202594:	39800315 	stw	r6,12(r7)
 1202598:	8809883a 	mov	r4,r17
 120259c:	dfc00217 	ldw	ra,8(sp)
 12025a0:	dc400117 	ldw	r17,4(sp)
 12025a4:	dc000017 	ldw	r16,0(sp)
 12025a8:	dec00304 	addi	sp,sp,12
 12025ac:	12037e81 	jmpi	12037e8 <__malloc_unlock>
 12025b0:	f800283a 	ret
 12025b4:	1006d27a 	srli	r3,r2,9
 12025b8:	01000104 	movi	r4,4
 12025bc:	20c04036 	bltu	r4,r3,12026c0 <_free_r+0x244>
 12025c0:	1006d1ba 	srli	r3,r2,6
 12025c4:	19400e04 	addi	r5,r3,56
 12025c8:	2947883a 	add	r3,r5,r5
 12025cc:	18c7883a 	add	r3,r3,r3
 12025d0:	18c7883a 	add	r3,r3,r3
 12025d4:	1a49883a 	add	r4,r3,r9
 12025d8:	20c00217 	ldw	r3,8(r4)
 12025dc:	01c04874 	movhi	r7,289
 12025e0:	39e13004 	addi	r7,r7,-31552
 12025e4:	19003b26 	beq	r3,r4,12026d4 <_free_r+0x258>
 12025e8:	01ffff04 	movi	r7,-4
 12025ec:	19400117 	ldw	r5,4(r3)
 12025f0:	29ca703a 	and	r5,r5,r7
 12025f4:	1140022e 	bgeu	r2,r5,1202600 <_free_r+0x184>
 12025f8:	18c00217 	ldw	r3,8(r3)
 12025fc:	20fffb1e 	bne	r4,r3,12025ec <__alt_mem_instruction_tcm+0xff2025ec>
 1202600:	18800317 	ldw	r2,12(r3)
 1202604:	30800315 	stw	r2,12(r6)
 1202608:	30c00215 	stw	r3,8(r6)
 120260c:	11800215 	stw	r6,8(r2)
 1202610:	19800315 	stw	r6,12(r3)
 1202614:	003fe006 	br	1202598 <__alt_mem_instruction_tcm+0xff202598>
 1202618:	2100004c 	andi	r4,r4,1
 120261c:	1885883a 	add	r2,r3,r2
 1202620:	2000071e 	bne	r4,zero,1202640 <_free_r+0x1c4>
 1202624:	817ffe17 	ldw	r5,-8(r16)
 1202628:	314dc83a 	sub	r6,r6,r5
 120262c:	30c00317 	ldw	r3,12(r6)
 1202630:	31000217 	ldw	r4,8(r6)
 1202634:	1145883a 	add	r2,r2,r5
 1202638:	20c00315 	stw	r3,12(r4)
 120263c:	19000215 	stw	r4,8(r3)
 1202640:	10c00054 	ori	r3,r2,1
 1202644:	30c00115 	stw	r3,4(r6)
 1202648:	00c04874 	movhi	r3,289
 120264c:	18e6ee04 	addi	r3,r3,-25672
 1202650:	18c00017 	ldw	r3,0(r3)
 1202654:	49800215 	stw	r6,8(r9)
 1202658:	10ffcf36 	bltu	r2,r3,1202598 <__alt_mem_instruction_tcm+0xff202598>
 120265c:	00804874 	movhi	r2,289
 1202660:	10a6fe04 	addi	r2,r2,-25608
 1202664:	11400017 	ldw	r5,0(r2)
 1202668:	8809883a 	mov	r4,r17
 120266c:	12023580 	call	1202358 <_malloc_trim_r>
 1202670:	003fc906 	br	1202598 <__alt_mem_instruction_tcm+0xff202598>
 1202674:	28c9883a 	add	r4,r5,r3
 1202678:	21000117 	ldw	r4,4(r4)
 120267c:	2100004c 	andi	r4,r4,1
 1202680:	20000a1e 	bne	r4,zero,12026ac <_free_r+0x230>
 1202684:	29000317 	ldw	r4,12(r5)
 1202688:	29400217 	ldw	r5,8(r5)
 120268c:	10c5883a 	add	r2,r2,r3
 1202690:	10c00054 	ori	r3,r2,1
 1202694:	29000315 	stw	r4,12(r5)
 1202698:	21400215 	stw	r5,8(r4)
 120269c:	30c00115 	stw	r3,4(r6)
 12026a0:	308d883a 	add	r6,r6,r2
 12026a4:	30800015 	stw	r2,0(r6)
 12026a8:	003fbb06 	br	1202598 <__alt_mem_instruction_tcm+0xff202598>
 12026ac:	10c00054 	ori	r3,r2,1
 12026b0:	30c00115 	stw	r3,4(r6)
 12026b4:	308d883a 	add	r6,r6,r2
 12026b8:	30800015 	stw	r2,0(r6)
 12026bc:	003fb606 	br	1202598 <__alt_mem_instruction_tcm+0xff202598>
 12026c0:	01000504 	movi	r4,20
 12026c4:	20c01436 	bltu	r4,r3,1202718 <_free_r+0x29c>
 12026c8:	194016c4 	addi	r5,r3,91
 12026cc:	2947883a 	add	r3,r5,r5
 12026d0:	003fbe06 	br	12025cc <__alt_mem_instruction_tcm+0xff2025cc>
 12026d4:	280bd0ba 	srai	r5,r5,2
 12026d8:	00800044 	movi	r2,1
 12026dc:	39000117 	ldw	r4,4(r7)
 12026e0:	114a983a 	sll	r5,r2,r5
 12026e4:	1805883a 	mov	r2,r3
 12026e8:	2908b03a 	or	r4,r5,r4
 12026ec:	39000115 	stw	r4,4(r7)
 12026f0:	003fc406 	br	1202604 <__alt_mem_instruction_tcm+0xff202604>
 12026f4:	49800515 	stw	r6,20(r9)
 12026f8:	49800415 	stw	r6,16(r9)
 12026fc:	10c00054 	ori	r3,r2,1
 1202700:	31000315 	stw	r4,12(r6)
 1202704:	31000215 	stw	r4,8(r6)
 1202708:	30c00115 	stw	r3,4(r6)
 120270c:	308d883a 	add	r6,r6,r2
 1202710:	30800015 	stw	r2,0(r6)
 1202714:	003fa006 	br	1202598 <__alt_mem_instruction_tcm+0xff202598>
 1202718:	01001504 	movi	r4,84
 120271c:	20c00436 	bltu	r4,r3,1202730 <_free_r+0x2b4>
 1202720:	1006d33a 	srli	r3,r2,12
 1202724:	19401b84 	addi	r5,r3,110
 1202728:	2947883a 	add	r3,r5,r5
 120272c:	003fa706 	br	12025cc <__alt_mem_instruction_tcm+0xff2025cc>
 1202730:	01005504 	movi	r4,340
 1202734:	20c00436 	bltu	r4,r3,1202748 <_free_r+0x2cc>
 1202738:	1006d3fa 	srli	r3,r2,15
 120273c:	19401dc4 	addi	r5,r3,119
 1202740:	2947883a 	add	r3,r5,r5
 1202744:	003fa106 	br	12025cc <__alt_mem_instruction_tcm+0xff2025cc>
 1202748:	01015504 	movi	r4,1364
 120274c:	20c00436 	bltu	r4,r3,1202760 <_free_r+0x2e4>
 1202750:	1006d4ba 	srli	r3,r2,18
 1202754:	19401f04 	addi	r5,r3,124
 1202758:	2947883a 	add	r3,r5,r5
 120275c:	003f9b06 	br	12025cc <__alt_mem_instruction_tcm+0xff2025cc>
 1202760:	00c03f04 	movi	r3,252
 1202764:	01401f84 	movi	r5,126
 1202768:	003f9806 	br	12025cc <__alt_mem_instruction_tcm+0xff2025cc>

0120276c <_fwalk>:
 120276c:	defff804 	addi	sp,sp,-32
 1202770:	dd400515 	stw	r21,20(sp)
 1202774:	2540b804 	addi	r21,r4,736
 1202778:	dd800615 	stw	r22,24(sp)
 120277c:	dd000415 	stw	r20,16(sp)
 1202780:	dfc00715 	stw	ra,28(sp)
 1202784:	dcc00315 	stw	r19,12(sp)
 1202788:	dc800215 	stw	r18,8(sp)
 120278c:	dc400115 	stw	r17,4(sp)
 1202790:	dc000015 	stw	r16,0(sp)
 1202794:	2829883a 	mov	r20,r5
 1202798:	002d883a 	mov	r22,zero
 120279c:	12023180 	call	1202318 <__sfp_lock_acquire>
 12027a0:	a8001426 	beq	r21,zero,12027f4 <_fwalk+0x88>
 12027a4:	04ffffc4 	movi	r19,-1
 12027a8:	ac400117 	ldw	r17,4(r21)
 12027ac:	ac800217 	ldw	r18,8(r21)
 12027b0:	8c7fffc4 	addi	r17,r17,-1
 12027b4:	88000d16 	blt	r17,zero,12027ec <_fwalk+0x80>
 12027b8:	94000304 	addi	r16,r18,12
 12027bc:	94800384 	addi	r18,r18,14
 12027c0:	80c0000f 	ldh	r3,0(r16)
 12027c4:	8c7fffc4 	addi	r17,r17,-1
 12027c8:	813ffd04 	addi	r4,r16,-12
 12027cc:	18000426 	beq	r3,zero,12027e0 <_fwalk+0x74>
 12027d0:	90c0000f 	ldh	r3,0(r18)
 12027d4:	1cc00226 	beq	r3,r19,12027e0 <_fwalk+0x74>
 12027d8:	a03ee83a 	callr	r20
 12027dc:	b0acb03a 	or	r22,r22,r2
 12027e0:	84001a04 	addi	r16,r16,104
 12027e4:	94801a04 	addi	r18,r18,104
 12027e8:	8cfff51e 	bne	r17,r19,12027c0 <__alt_mem_instruction_tcm+0xff2027c0>
 12027ec:	ad400017 	ldw	r21,0(r21)
 12027f0:	a83fed1e 	bne	r21,zero,12027a8 <__alt_mem_instruction_tcm+0xff2027a8>
 12027f4:	120231c0 	call	120231c <__sfp_lock_release>
 12027f8:	b005883a 	mov	r2,r22
 12027fc:	dfc00717 	ldw	ra,28(sp)
 1202800:	dd800617 	ldw	r22,24(sp)
 1202804:	dd400517 	ldw	r21,20(sp)
 1202808:	dd000417 	ldw	r20,16(sp)
 120280c:	dcc00317 	ldw	r19,12(sp)
 1202810:	dc800217 	ldw	r18,8(sp)
 1202814:	dc400117 	ldw	r17,4(sp)
 1202818:	dc000017 	ldw	r16,0(sp)
 120281c:	dec00804 	addi	sp,sp,32
 1202820:	f800283a 	ret

01202824 <_fwalk_reent>:
 1202824:	defff804 	addi	sp,sp,-32
 1202828:	dd400515 	stw	r21,20(sp)
 120282c:	2540b804 	addi	r21,r4,736
 1202830:	dd800615 	stw	r22,24(sp)
 1202834:	dd000415 	stw	r20,16(sp)
 1202838:	dcc00315 	stw	r19,12(sp)
 120283c:	dfc00715 	stw	ra,28(sp)
 1202840:	dc800215 	stw	r18,8(sp)
 1202844:	dc400115 	stw	r17,4(sp)
 1202848:	dc000015 	stw	r16,0(sp)
 120284c:	2027883a 	mov	r19,r4
 1202850:	2829883a 	mov	r20,r5
 1202854:	002d883a 	mov	r22,zero
 1202858:	12023180 	call	1202318 <__sfp_lock_acquire>
 120285c:	a8001326 	beq	r21,zero,12028ac <_fwalk_reent+0x88>
 1202860:	04bfffc4 	movi	r18,-1
 1202864:	ac400117 	ldw	r17,4(r21)
 1202868:	ac000217 	ldw	r16,8(r21)
 120286c:	8c7fffc4 	addi	r17,r17,-1
 1202870:	88000c16 	blt	r17,zero,12028a4 <_fwalk_reent+0x80>
 1202874:	84000304 	addi	r16,r16,12
 1202878:	80c0000f 	ldh	r3,0(r16)
 120287c:	8c7fffc4 	addi	r17,r17,-1
 1202880:	817ffd04 	addi	r5,r16,-12
 1202884:	18000526 	beq	r3,zero,120289c <_fwalk_reent+0x78>
 1202888:	80c0008f 	ldh	r3,2(r16)
 120288c:	9809883a 	mov	r4,r19
 1202890:	1c800226 	beq	r3,r18,120289c <_fwalk_reent+0x78>
 1202894:	a03ee83a 	callr	r20
 1202898:	b0acb03a 	or	r22,r22,r2
 120289c:	84001a04 	addi	r16,r16,104
 12028a0:	8cbff51e 	bne	r17,r18,1202878 <__alt_mem_instruction_tcm+0xff202878>
 12028a4:	ad400017 	ldw	r21,0(r21)
 12028a8:	a83fee1e 	bne	r21,zero,1202864 <__alt_mem_instruction_tcm+0xff202864>
 12028ac:	120231c0 	call	120231c <__sfp_lock_release>
 12028b0:	b005883a 	mov	r2,r22
 12028b4:	dfc00717 	ldw	ra,28(sp)
 12028b8:	dd800617 	ldw	r22,24(sp)
 12028bc:	dd400517 	ldw	r21,20(sp)
 12028c0:	dd000417 	ldw	r20,16(sp)
 12028c4:	dcc00317 	ldw	r19,12(sp)
 12028c8:	dc800217 	ldw	r18,8(sp)
 12028cc:	dc400117 	ldw	r17,4(sp)
 12028d0:	dc000017 	ldw	r16,0(sp)
 12028d4:	dec00804 	addi	sp,sp,32
 12028d8:	f800283a 	ret

012028dc <__smakebuf_r>:
 12028dc:	2880030b 	ldhu	r2,12(r5)
 12028e0:	10c0008c 	andi	r3,r2,2
 12028e4:	1800401e 	bne	r3,zero,12029e8 <__smakebuf_r+0x10c>
 12028e8:	deffec04 	addi	sp,sp,-80
 12028ec:	dc000f15 	stw	r16,60(sp)
 12028f0:	2821883a 	mov	r16,r5
 12028f4:	2940038f 	ldh	r5,14(r5)
 12028f8:	dc401015 	stw	r17,64(sp)
 12028fc:	dfc01315 	stw	ra,76(sp)
 1202900:	dcc01215 	stw	r19,72(sp)
 1202904:	dc801115 	stw	r18,68(sp)
 1202908:	2023883a 	mov	r17,r4
 120290c:	28001b16 	blt	r5,zero,120297c <__smakebuf_r+0xa0>
 1202910:	d80d883a 	mov	r6,sp
 1202914:	1202eb80 	call	1202eb8 <_fstat_r>
 1202918:	10001716 	blt	r2,zero,1202978 <__smakebuf_r+0x9c>
 120291c:	d8800117 	ldw	r2,4(sp)
 1202920:	00e00014 	movui	r3,32768
 1202924:	10bc000c 	andi	r2,r2,61440
 1202928:	10c03726 	beq	r2,r3,1202a08 <__smakebuf_r+0x12c>
 120292c:	80c0030b 	ldhu	r3,12(r16)
 1202930:	18c20014 	ori	r3,r3,2048
 1202934:	80c0030d 	sth	r3,12(r16)
 1202938:	00c80004 	movi	r3,8192
 120293c:	10c03c1e 	bne	r2,r3,1202a30 <__smakebuf_r+0x154>
 1202940:	8140038f 	ldh	r5,14(r16)
 1202944:	8809883a 	mov	r4,r17
 1202948:	1202f100 	call	1202f10 <_isatty_r>
 120294c:	10004e26 	beq	r2,zero,1202a88 <__smakebuf_r+0x1ac>
 1202950:	8080030b 	ldhu	r2,12(r16)
 1202954:	04c00044 	movi	r19,1
 1202958:	80c010c4 	addi	r3,r16,67
 120295c:	14c4b03a 	or	r2,r2,r19
 1202960:	8080030d 	sth	r2,12(r16)
 1202964:	80c00015 	stw	r3,0(r16)
 1202968:	80c00415 	stw	r3,16(r16)
 120296c:	84c00515 	stw	r19,20(r16)
 1202970:	04810004 	movi	r18,1024
 1202974:	00000706 	br	1202994 <__smakebuf_r+0xb8>
 1202978:	8080030b 	ldhu	r2,12(r16)
 120297c:	10c0200c 	andi	r3,r2,128
 1202980:	18001f1e 	bne	r3,zero,1202a00 <__smakebuf_r+0x124>
 1202984:	04810004 	movi	r18,1024
 1202988:	10820014 	ori	r2,r2,2048
 120298c:	8080030d 	sth	r2,12(r16)
 1202990:	0027883a 	mov	r19,zero
 1202994:	8809883a 	mov	r4,r17
 1202998:	900b883a 	mov	r5,r18
 120299c:	1200b180 	call	1200b18 <_malloc_r>
 12029a0:	10002e26 	beq	r2,zero,1202a5c <__smakebuf_r+0x180>
 12029a4:	80c0030b 	ldhu	r3,12(r16)
 12029a8:	01004834 	movhi	r4,288
 12029ac:	2107f204 	addi	r4,r4,8136
 12029b0:	89000f15 	stw	r4,60(r17)
 12029b4:	18c02014 	ori	r3,r3,128
 12029b8:	80c0030d 	sth	r3,12(r16)
 12029bc:	80800015 	stw	r2,0(r16)
 12029c0:	80800415 	stw	r2,16(r16)
 12029c4:	84800515 	stw	r18,20(r16)
 12029c8:	98001c1e 	bne	r19,zero,1202a3c <__smakebuf_r+0x160>
 12029cc:	dfc01317 	ldw	ra,76(sp)
 12029d0:	dcc01217 	ldw	r19,72(sp)
 12029d4:	dc801117 	ldw	r18,68(sp)
 12029d8:	dc401017 	ldw	r17,64(sp)
 12029dc:	dc000f17 	ldw	r16,60(sp)
 12029e0:	dec01404 	addi	sp,sp,80
 12029e4:	f800283a 	ret
 12029e8:	288010c4 	addi	r2,r5,67
 12029ec:	28800015 	stw	r2,0(r5)
 12029f0:	28800415 	stw	r2,16(r5)
 12029f4:	00800044 	movi	r2,1
 12029f8:	28800515 	stw	r2,20(r5)
 12029fc:	f800283a 	ret
 1202a00:	04801004 	movi	r18,64
 1202a04:	003fe006 	br	1202988 <__alt_mem_instruction_tcm+0xff202988>
 1202a08:	81000a17 	ldw	r4,40(r16)
 1202a0c:	00c04834 	movhi	r3,288
 1202a10:	18cb2404 	addi	r3,r3,11408
 1202a14:	20ffc51e 	bne	r4,r3,120292c <__alt_mem_instruction_tcm+0xff20292c>
 1202a18:	80c0030b 	ldhu	r3,12(r16)
 1202a1c:	01010004 	movi	r4,1024
 1202a20:	81001315 	stw	r4,76(r16)
 1202a24:	1906b03a 	or	r3,r3,r4
 1202a28:	80c0030d 	sth	r3,12(r16)
 1202a2c:	003fc206 	br	1202938 <__alt_mem_instruction_tcm+0xff202938>
 1202a30:	0027883a 	mov	r19,zero
 1202a34:	04810004 	movi	r18,1024
 1202a38:	003fd606 	br	1202994 <__alt_mem_instruction_tcm+0xff202994>
 1202a3c:	8140038f 	ldh	r5,14(r16)
 1202a40:	8809883a 	mov	r4,r17
 1202a44:	1202f100 	call	1202f10 <_isatty_r>
 1202a48:	103fe026 	beq	r2,zero,12029cc <__alt_mem_instruction_tcm+0xff2029cc>
 1202a4c:	8080030b 	ldhu	r2,12(r16)
 1202a50:	10800054 	ori	r2,r2,1
 1202a54:	8080030d 	sth	r2,12(r16)
 1202a58:	003fdc06 	br	12029cc <__alt_mem_instruction_tcm+0xff2029cc>
 1202a5c:	8080030b 	ldhu	r2,12(r16)
 1202a60:	10c0800c 	andi	r3,r2,512
 1202a64:	183fd91e 	bne	r3,zero,12029cc <__alt_mem_instruction_tcm+0xff2029cc>
 1202a68:	10800094 	ori	r2,r2,2
 1202a6c:	80c010c4 	addi	r3,r16,67
 1202a70:	8080030d 	sth	r2,12(r16)
 1202a74:	00800044 	movi	r2,1
 1202a78:	80c00015 	stw	r3,0(r16)
 1202a7c:	80c00415 	stw	r3,16(r16)
 1202a80:	80800515 	stw	r2,20(r16)
 1202a84:	003fd106 	br	12029cc <__alt_mem_instruction_tcm+0xff2029cc>
 1202a88:	04c00044 	movi	r19,1
 1202a8c:	04810004 	movi	r18,1024
 1202a90:	003fc006 	br	1202994 <__alt_mem_instruction_tcm+0xff202994>

01202a94 <memset>:
 1202a94:	20c000cc 	andi	r3,r4,3
 1202a98:	2005883a 	mov	r2,r4
 1202a9c:	18004326 	beq	r3,zero,1202bac <memset+0x118>
 1202aa0:	31ffffc4 	addi	r7,r6,-1
 1202aa4:	30004026 	beq	r6,zero,1202ba8 <memset+0x114>
 1202aa8:	2813883a 	mov	r9,r5
 1202aac:	200d883a 	mov	r6,r4
 1202ab0:	2007883a 	mov	r3,r4
 1202ab4:	00000406 	br	1202ac8 <memset+0x34>
 1202ab8:	3a3fffc4 	addi	r8,r7,-1
 1202abc:	31800044 	addi	r6,r6,1
 1202ac0:	38003926 	beq	r7,zero,1202ba8 <memset+0x114>
 1202ac4:	400f883a 	mov	r7,r8
 1202ac8:	18c00044 	addi	r3,r3,1
 1202acc:	32400005 	stb	r9,0(r6)
 1202ad0:	1a0000cc 	andi	r8,r3,3
 1202ad4:	403ff81e 	bne	r8,zero,1202ab8 <__alt_mem_instruction_tcm+0xff202ab8>
 1202ad8:	010000c4 	movi	r4,3
 1202adc:	21c02d2e 	bgeu	r4,r7,1202b94 <memset+0x100>
 1202ae0:	29803fcc 	andi	r6,r5,255
 1202ae4:	3008923a 	slli	r4,r6,8
 1202ae8:	218cb03a 	or	r6,r4,r6
 1202aec:	3008943a 	slli	r4,r6,16
 1202af0:	218cb03a 	or	r6,r4,r6
 1202af4:	010003c4 	movi	r4,15
 1202af8:	21c0182e 	bgeu	r4,r7,1202b5c <memset+0xc8>
 1202afc:	3b3ffc04 	addi	r12,r7,-16
 1202b00:	6018d13a 	srli	r12,r12,4
 1202b04:	1a000104 	addi	r8,r3,4
 1202b08:	1ac00204 	addi	r11,r3,8
 1202b0c:	6008913a 	slli	r4,r12,4
 1202b10:	1a800304 	addi	r10,r3,12
 1202b14:	1813883a 	mov	r9,r3
 1202b18:	21000504 	addi	r4,r4,20
 1202b1c:	1909883a 	add	r4,r3,r4
 1202b20:	49800015 	stw	r6,0(r9)
 1202b24:	41800015 	stw	r6,0(r8)
 1202b28:	59800015 	stw	r6,0(r11)
 1202b2c:	51800015 	stw	r6,0(r10)
 1202b30:	42000404 	addi	r8,r8,16
 1202b34:	4a400404 	addi	r9,r9,16
 1202b38:	5ac00404 	addi	r11,r11,16
 1202b3c:	52800404 	addi	r10,r10,16
 1202b40:	413ff71e 	bne	r8,r4,1202b20 <__alt_mem_instruction_tcm+0xff202b20>
 1202b44:	63000044 	addi	r12,r12,1
 1202b48:	6018913a 	slli	r12,r12,4
 1202b4c:	39c003cc 	andi	r7,r7,15
 1202b50:	010000c4 	movi	r4,3
 1202b54:	1b07883a 	add	r3,r3,r12
 1202b58:	21c00e2e 	bgeu	r4,r7,1202b94 <memset+0x100>
 1202b5c:	1813883a 	mov	r9,r3
 1202b60:	3811883a 	mov	r8,r7
 1202b64:	010000c4 	movi	r4,3
 1202b68:	49800015 	stw	r6,0(r9)
 1202b6c:	423fff04 	addi	r8,r8,-4
 1202b70:	4a400104 	addi	r9,r9,4
 1202b74:	223ffc36 	bltu	r4,r8,1202b68 <__alt_mem_instruction_tcm+0xff202b68>
 1202b78:	393fff04 	addi	r4,r7,-4
 1202b7c:	2008d0ba 	srli	r4,r4,2
 1202b80:	39c000cc 	andi	r7,r7,3
 1202b84:	21000044 	addi	r4,r4,1
 1202b88:	2109883a 	add	r4,r4,r4
 1202b8c:	2109883a 	add	r4,r4,r4
 1202b90:	1907883a 	add	r3,r3,r4
 1202b94:	38000426 	beq	r7,zero,1202ba8 <memset+0x114>
 1202b98:	19cf883a 	add	r7,r3,r7
 1202b9c:	19400005 	stb	r5,0(r3)
 1202ba0:	18c00044 	addi	r3,r3,1
 1202ba4:	19fffd1e 	bne	r3,r7,1202b9c <__alt_mem_instruction_tcm+0xff202b9c>
 1202ba8:	f800283a 	ret
 1202bac:	2007883a 	mov	r3,r4
 1202bb0:	300f883a 	mov	r7,r6
 1202bb4:	003fc806 	br	1202ad8 <__alt_mem_instruction_tcm+0xff202ad8>

01202bb8 <__sread>:
 1202bb8:	defffe04 	addi	sp,sp,-8
 1202bbc:	dc000015 	stw	r16,0(sp)
 1202bc0:	2821883a 	mov	r16,r5
 1202bc4:	2940038f 	ldh	r5,14(r5)
 1202bc8:	dfc00115 	stw	ra,4(sp)
 1202bcc:	1202fc00 	call	1202fc0 <_read_r>
 1202bd0:	10000716 	blt	r2,zero,1202bf0 <__sread+0x38>
 1202bd4:	80c01417 	ldw	r3,80(r16)
 1202bd8:	1887883a 	add	r3,r3,r2
 1202bdc:	80c01415 	stw	r3,80(r16)
 1202be0:	dfc00117 	ldw	ra,4(sp)
 1202be4:	dc000017 	ldw	r16,0(sp)
 1202be8:	dec00204 	addi	sp,sp,8
 1202bec:	f800283a 	ret
 1202bf0:	80c0030b 	ldhu	r3,12(r16)
 1202bf4:	18fbffcc 	andi	r3,r3,61439
 1202bf8:	80c0030d 	sth	r3,12(r16)
 1202bfc:	dfc00117 	ldw	ra,4(sp)
 1202c00:	dc000017 	ldw	r16,0(sp)
 1202c04:	dec00204 	addi	sp,sp,8
 1202c08:	f800283a 	ret

01202c0c <__seofread>:
 1202c0c:	0005883a 	mov	r2,zero
 1202c10:	f800283a 	ret

01202c14 <__swrite>:
 1202c14:	2880030b 	ldhu	r2,12(r5)
 1202c18:	defffb04 	addi	sp,sp,-20
 1202c1c:	dcc00315 	stw	r19,12(sp)
 1202c20:	dc800215 	stw	r18,8(sp)
 1202c24:	dc400115 	stw	r17,4(sp)
 1202c28:	dc000015 	stw	r16,0(sp)
 1202c2c:	dfc00415 	stw	ra,16(sp)
 1202c30:	10c0400c 	andi	r3,r2,256
 1202c34:	2821883a 	mov	r16,r5
 1202c38:	2027883a 	mov	r19,r4
 1202c3c:	3025883a 	mov	r18,r6
 1202c40:	3823883a 	mov	r17,r7
 1202c44:	18000526 	beq	r3,zero,1202c5c <__swrite+0x48>
 1202c48:	2940038f 	ldh	r5,14(r5)
 1202c4c:	000d883a 	mov	r6,zero
 1202c50:	01c00084 	movi	r7,2
 1202c54:	1202f640 	call	1202f64 <_lseek_r>
 1202c58:	8080030b 	ldhu	r2,12(r16)
 1202c5c:	8140038f 	ldh	r5,14(r16)
 1202c60:	10bbffcc 	andi	r2,r2,61439
 1202c64:	9809883a 	mov	r4,r19
 1202c68:	900d883a 	mov	r6,r18
 1202c6c:	880f883a 	mov	r7,r17
 1202c70:	8080030d 	sth	r2,12(r16)
 1202c74:	dfc00417 	ldw	ra,16(sp)
 1202c78:	dcc00317 	ldw	r19,12(sp)
 1202c7c:	dc800217 	ldw	r18,8(sp)
 1202c80:	dc400117 	ldw	r17,4(sp)
 1202c84:	dc000017 	ldw	r16,0(sp)
 1202c88:	dec00504 	addi	sp,sp,20
 1202c8c:	1202cf41 	jmpi	1202cf4 <_write_r>

01202c90 <__sseek>:
 1202c90:	defffe04 	addi	sp,sp,-8
 1202c94:	dc000015 	stw	r16,0(sp)
 1202c98:	2821883a 	mov	r16,r5
 1202c9c:	2940038f 	ldh	r5,14(r5)
 1202ca0:	dfc00115 	stw	ra,4(sp)
 1202ca4:	1202f640 	call	1202f64 <_lseek_r>
 1202ca8:	00ffffc4 	movi	r3,-1
 1202cac:	10c00826 	beq	r2,r3,1202cd0 <__sseek+0x40>
 1202cb0:	80c0030b 	ldhu	r3,12(r16)
 1202cb4:	80801415 	stw	r2,80(r16)
 1202cb8:	18c40014 	ori	r3,r3,4096
 1202cbc:	80c0030d 	sth	r3,12(r16)
 1202cc0:	dfc00117 	ldw	ra,4(sp)
 1202cc4:	dc000017 	ldw	r16,0(sp)
 1202cc8:	dec00204 	addi	sp,sp,8
 1202ccc:	f800283a 	ret
 1202cd0:	80c0030b 	ldhu	r3,12(r16)
 1202cd4:	18fbffcc 	andi	r3,r3,61439
 1202cd8:	80c0030d 	sth	r3,12(r16)
 1202cdc:	dfc00117 	ldw	ra,4(sp)
 1202ce0:	dc000017 	ldw	r16,0(sp)
 1202ce4:	dec00204 	addi	sp,sp,8
 1202ce8:	f800283a 	ret

01202cec <__sclose>:
 1202cec:	2940038f 	ldh	r5,14(r5)
 1202cf0:	1202d501 	jmpi	1202d50 <_close_r>

01202cf4 <_write_r>:
 1202cf4:	defffd04 	addi	sp,sp,-12
 1202cf8:	dc000015 	stw	r16,0(sp)
 1202cfc:	04004874 	movhi	r16,289
 1202d00:	dc400115 	stw	r17,4(sp)
 1202d04:	8426ff04 	addi	r16,r16,-25604
 1202d08:	2023883a 	mov	r17,r4
 1202d0c:	2809883a 	mov	r4,r5
 1202d10:	300b883a 	mov	r5,r6
 1202d14:	380d883a 	mov	r6,r7
 1202d18:	dfc00215 	stw	ra,8(sp)
 1202d1c:	80000015 	stw	zero,0(r16)
 1202d20:	1203ae40 	call	1203ae4 <write>
 1202d24:	00ffffc4 	movi	r3,-1
 1202d28:	10c00526 	beq	r2,r3,1202d40 <_write_r+0x4c>
 1202d2c:	dfc00217 	ldw	ra,8(sp)
 1202d30:	dc400117 	ldw	r17,4(sp)
 1202d34:	dc000017 	ldw	r16,0(sp)
 1202d38:	dec00304 	addi	sp,sp,12
 1202d3c:	f800283a 	ret
 1202d40:	80c00017 	ldw	r3,0(r16)
 1202d44:	183ff926 	beq	r3,zero,1202d2c <__alt_mem_instruction_tcm+0xff202d2c>
 1202d48:	88c00015 	stw	r3,0(r17)
 1202d4c:	003ff706 	br	1202d2c <__alt_mem_instruction_tcm+0xff202d2c>

01202d50 <_close_r>:
 1202d50:	defffd04 	addi	sp,sp,-12
 1202d54:	dc000015 	stw	r16,0(sp)
 1202d58:	04004874 	movhi	r16,289
 1202d5c:	dc400115 	stw	r17,4(sp)
 1202d60:	8426ff04 	addi	r16,r16,-25604
 1202d64:	2023883a 	mov	r17,r4
 1202d68:	2809883a 	mov	r4,r5
 1202d6c:	dfc00215 	stw	ra,8(sp)
 1202d70:	80000015 	stw	zero,0(r16)
 1202d74:	120306c0 	call	120306c <close>
 1202d78:	00ffffc4 	movi	r3,-1
 1202d7c:	10c00526 	beq	r2,r3,1202d94 <_close_r+0x44>
 1202d80:	dfc00217 	ldw	ra,8(sp)
 1202d84:	dc400117 	ldw	r17,4(sp)
 1202d88:	dc000017 	ldw	r16,0(sp)
 1202d8c:	dec00304 	addi	sp,sp,12
 1202d90:	f800283a 	ret
 1202d94:	80c00017 	ldw	r3,0(r16)
 1202d98:	183ff926 	beq	r3,zero,1202d80 <__alt_mem_instruction_tcm+0xff202d80>
 1202d9c:	88c00015 	stw	r3,0(r17)
 1202da0:	003ff706 	br	1202d80 <__alt_mem_instruction_tcm+0xff202d80>

01202da4 <_fclose_r>:
 1202da4:	28003226 	beq	r5,zero,1202e70 <_fclose_r+0xcc>
 1202da8:	defffc04 	addi	sp,sp,-16
 1202dac:	dc400115 	stw	r17,4(sp)
 1202db0:	2023883a 	mov	r17,r4
 1202db4:	dc000015 	stw	r16,0(sp)
 1202db8:	dfc00315 	stw	ra,12(sp)
 1202dbc:	dc800215 	stw	r18,8(sp)
 1202dc0:	2821883a 	mov	r16,r5
 1202dc4:	12023180 	call	1202318 <__sfp_lock_acquire>
 1202dc8:	88000226 	beq	r17,zero,1202dd4 <_fclose_r+0x30>
 1202dcc:	88800e17 	ldw	r2,56(r17)
 1202dd0:	10002926 	beq	r2,zero,1202e78 <_fclose_r+0xd4>
 1202dd4:	8080030f 	ldh	r2,12(r16)
 1202dd8:	10002226 	beq	r2,zero,1202e64 <_fclose_r+0xc0>
 1202ddc:	8809883a 	mov	r4,r17
 1202de0:	800b883a 	mov	r5,r16
 1202de4:	1201d600 	call	1201d60 <_fflush_r>
 1202de8:	1025883a 	mov	r18,r2
 1202dec:	80800b17 	ldw	r2,44(r16)
 1202df0:	10000426 	beq	r2,zero,1202e04 <_fclose_r+0x60>
 1202df4:	81400717 	ldw	r5,28(r16)
 1202df8:	8809883a 	mov	r4,r17
 1202dfc:	103ee83a 	callr	r2
 1202e00:	10002616 	blt	r2,zero,1202e9c <_fclose_r+0xf8>
 1202e04:	8080030b 	ldhu	r2,12(r16)
 1202e08:	1080200c 	andi	r2,r2,128
 1202e0c:	10001f1e 	bne	r2,zero,1202e8c <_fclose_r+0xe8>
 1202e10:	81400c17 	ldw	r5,48(r16)
 1202e14:	28000526 	beq	r5,zero,1202e2c <_fclose_r+0x88>
 1202e18:	80801004 	addi	r2,r16,64
 1202e1c:	28800226 	beq	r5,r2,1202e28 <_fclose_r+0x84>
 1202e20:	8809883a 	mov	r4,r17
 1202e24:	120247c0 	call	120247c <_free_r>
 1202e28:	80000c15 	stw	zero,48(r16)
 1202e2c:	81401117 	ldw	r5,68(r16)
 1202e30:	28000326 	beq	r5,zero,1202e40 <_fclose_r+0x9c>
 1202e34:	8809883a 	mov	r4,r17
 1202e38:	120247c0 	call	120247c <_free_r>
 1202e3c:	80001115 	stw	zero,68(r16)
 1202e40:	8000030d 	sth	zero,12(r16)
 1202e44:	120231c0 	call	120231c <__sfp_lock_release>
 1202e48:	9005883a 	mov	r2,r18
 1202e4c:	dfc00317 	ldw	ra,12(sp)
 1202e50:	dc800217 	ldw	r18,8(sp)
 1202e54:	dc400117 	ldw	r17,4(sp)
 1202e58:	dc000017 	ldw	r16,0(sp)
 1202e5c:	dec00404 	addi	sp,sp,16
 1202e60:	f800283a 	ret
 1202e64:	120231c0 	call	120231c <__sfp_lock_release>
 1202e68:	0005883a 	mov	r2,zero
 1202e6c:	003ff706 	br	1202e4c <__alt_mem_instruction_tcm+0xff202e4c>
 1202e70:	0005883a 	mov	r2,zero
 1202e74:	f800283a 	ret
 1202e78:	8809883a 	mov	r4,r17
 1202e7c:	12023080 	call	1202308 <__sinit>
 1202e80:	8080030f 	ldh	r2,12(r16)
 1202e84:	103fd51e 	bne	r2,zero,1202ddc <__alt_mem_instruction_tcm+0xff202ddc>
 1202e88:	003ff606 	br	1202e64 <__alt_mem_instruction_tcm+0xff202e64>
 1202e8c:	81400417 	ldw	r5,16(r16)
 1202e90:	8809883a 	mov	r4,r17
 1202e94:	120247c0 	call	120247c <_free_r>
 1202e98:	003fdd06 	br	1202e10 <__alt_mem_instruction_tcm+0xff202e10>
 1202e9c:	04bfffc4 	movi	r18,-1
 1202ea0:	003fd806 	br	1202e04 <__alt_mem_instruction_tcm+0xff202e04>

01202ea4 <fclose>:
 1202ea4:	00804874 	movhi	r2,289
 1202ea8:	10a6ec04 	addi	r2,r2,-25680
 1202eac:	200b883a 	mov	r5,r4
 1202eb0:	11000017 	ldw	r4,0(r2)
 1202eb4:	1202da41 	jmpi	1202da4 <_fclose_r>

01202eb8 <_fstat_r>:
 1202eb8:	defffd04 	addi	sp,sp,-12
 1202ebc:	dc000015 	stw	r16,0(sp)
 1202ec0:	04004874 	movhi	r16,289
 1202ec4:	dc400115 	stw	r17,4(sp)
 1202ec8:	8426ff04 	addi	r16,r16,-25604
 1202ecc:	2023883a 	mov	r17,r4
 1202ed0:	2809883a 	mov	r4,r5
 1202ed4:	300b883a 	mov	r5,r6
 1202ed8:	dfc00215 	stw	ra,8(sp)
 1202edc:	80000015 	stw	zero,0(r16)
 1202ee0:	12031b80 	call	12031b8 <fstat>
 1202ee4:	00ffffc4 	movi	r3,-1
 1202ee8:	10c00526 	beq	r2,r3,1202f00 <_fstat_r+0x48>
 1202eec:	dfc00217 	ldw	ra,8(sp)
 1202ef0:	dc400117 	ldw	r17,4(sp)
 1202ef4:	dc000017 	ldw	r16,0(sp)
 1202ef8:	dec00304 	addi	sp,sp,12
 1202efc:	f800283a 	ret
 1202f00:	80c00017 	ldw	r3,0(r16)
 1202f04:	183ff926 	beq	r3,zero,1202eec <__alt_mem_instruction_tcm+0xff202eec>
 1202f08:	88c00015 	stw	r3,0(r17)
 1202f0c:	003ff706 	br	1202eec <__alt_mem_instruction_tcm+0xff202eec>

01202f10 <_isatty_r>:
 1202f10:	defffd04 	addi	sp,sp,-12
 1202f14:	dc000015 	stw	r16,0(sp)
 1202f18:	04004874 	movhi	r16,289
 1202f1c:	dc400115 	stw	r17,4(sp)
 1202f20:	8426ff04 	addi	r16,r16,-25604
 1202f24:	2023883a 	mov	r17,r4
 1202f28:	2809883a 	mov	r4,r5
 1202f2c:	dfc00215 	stw	ra,8(sp)
 1202f30:	80000015 	stw	zero,0(r16)
 1202f34:	12035880 	call	1203588 <isatty>
 1202f38:	00ffffc4 	movi	r3,-1
 1202f3c:	10c00526 	beq	r2,r3,1202f54 <_isatty_r+0x44>
 1202f40:	dfc00217 	ldw	ra,8(sp)
 1202f44:	dc400117 	ldw	r17,4(sp)
 1202f48:	dc000017 	ldw	r16,0(sp)
 1202f4c:	dec00304 	addi	sp,sp,12
 1202f50:	f800283a 	ret
 1202f54:	80c00017 	ldw	r3,0(r16)
 1202f58:	183ff926 	beq	r3,zero,1202f40 <__alt_mem_instruction_tcm+0xff202f40>
 1202f5c:	88c00015 	stw	r3,0(r17)
 1202f60:	003ff706 	br	1202f40 <__alt_mem_instruction_tcm+0xff202f40>

01202f64 <_lseek_r>:
 1202f64:	defffd04 	addi	sp,sp,-12
 1202f68:	dc000015 	stw	r16,0(sp)
 1202f6c:	04004874 	movhi	r16,289
 1202f70:	dc400115 	stw	r17,4(sp)
 1202f74:	8426ff04 	addi	r16,r16,-25604
 1202f78:	2023883a 	mov	r17,r4
 1202f7c:	2809883a 	mov	r4,r5
 1202f80:	300b883a 	mov	r5,r6
 1202f84:	380d883a 	mov	r6,r7
 1202f88:	dfc00215 	stw	ra,8(sp)
 1202f8c:	80000015 	stw	zero,0(r16)
 1202f90:	120367c0 	call	120367c <lseek>
 1202f94:	00ffffc4 	movi	r3,-1
 1202f98:	10c00526 	beq	r2,r3,1202fb0 <_lseek_r+0x4c>
 1202f9c:	dfc00217 	ldw	ra,8(sp)
 1202fa0:	dc400117 	ldw	r17,4(sp)
 1202fa4:	dc000017 	ldw	r16,0(sp)
 1202fa8:	dec00304 	addi	sp,sp,12
 1202fac:	f800283a 	ret
 1202fb0:	80c00017 	ldw	r3,0(r16)
 1202fb4:	183ff926 	beq	r3,zero,1202f9c <__alt_mem_instruction_tcm+0xff202f9c>
 1202fb8:	88c00015 	stw	r3,0(r17)
 1202fbc:	003ff706 	br	1202f9c <__alt_mem_instruction_tcm+0xff202f9c>

01202fc0 <_read_r>:
 1202fc0:	defffd04 	addi	sp,sp,-12
 1202fc4:	dc000015 	stw	r16,0(sp)
 1202fc8:	04004874 	movhi	r16,289
 1202fcc:	dc400115 	stw	r17,4(sp)
 1202fd0:	8426ff04 	addi	r16,r16,-25604
 1202fd4:	2023883a 	mov	r17,r4
 1202fd8:	2809883a 	mov	r4,r5
 1202fdc:	300b883a 	mov	r5,r6
 1202fe0:	380d883a 	mov	r6,r7
 1202fe4:	dfc00215 	stw	ra,8(sp)
 1202fe8:	80000015 	stw	zero,0(r16)
 1202fec:	12038580 	call	1203858 <read>
 1202ff0:	00ffffc4 	movi	r3,-1
 1202ff4:	10c00526 	beq	r2,r3,120300c <_read_r+0x4c>
 1202ff8:	dfc00217 	ldw	ra,8(sp)
 1202ffc:	dc400117 	ldw	r17,4(sp)
 1203000:	dc000017 	ldw	r16,0(sp)
 1203004:	dec00304 	addi	sp,sp,12
 1203008:	f800283a 	ret
 120300c:	80c00017 	ldw	r3,0(r16)
 1203010:	183ff926 	beq	r3,zero,1202ff8 <__alt_mem_instruction_tcm+0xff202ff8>
 1203014:	88c00015 	stw	r3,0(r17)
 1203018:	003ff706 	br	1202ff8 <__alt_mem_instruction_tcm+0xff202ff8>

0120301c <alt_get_errno>:
 120301c:	defffe04 	addi	sp,sp,-8
 1203020:	dfc00115 	stw	ra,4(sp)
 1203024:	df000015 	stw	fp,0(sp)
 1203028:	d839883a 	mov	fp,sp
 120302c:	00804874 	movhi	r2,289
 1203030:	10a6f404 	addi	r2,r2,-25648
 1203034:	10800017 	ldw	r2,0(r2)
 1203038:	10000526 	beq	r2,zero,1203050 <alt_get_errno+0x34>
 120303c:	00804874 	movhi	r2,289
 1203040:	10a6f404 	addi	r2,r2,-25648
 1203044:	10800017 	ldw	r2,0(r2)
 1203048:	103ee83a 	callr	r2
 120304c:	00000206 	br	1203058 <alt_get_errno+0x3c>
 1203050:	00804874 	movhi	r2,289
 1203054:	10a6ff04 	addi	r2,r2,-25604
 1203058:	e037883a 	mov	sp,fp
 120305c:	dfc00117 	ldw	ra,4(sp)
 1203060:	df000017 	ldw	fp,0(sp)
 1203064:	dec00204 	addi	sp,sp,8
 1203068:	f800283a 	ret

0120306c <close>:
 120306c:	defffb04 	addi	sp,sp,-20
 1203070:	dfc00415 	stw	ra,16(sp)
 1203074:	df000315 	stw	fp,12(sp)
 1203078:	df000304 	addi	fp,sp,12
 120307c:	e13fff15 	stw	r4,-4(fp)
 1203080:	e0bfff17 	ldw	r2,-4(fp)
 1203084:	10000616 	blt	r2,zero,12030a0 <close+0x34>
 1203088:	e0bfff17 	ldw	r2,-4(fp)
 120308c:	10c00324 	muli	r3,r2,12
 1203090:	00804874 	movhi	r2,289
 1203094:	10a23c04 	addi	r2,r2,-30480
 1203098:	1885883a 	add	r2,r3,r2
 120309c:	00000106 	br	12030a4 <close+0x38>
 12030a0:	0005883a 	mov	r2,zero
 12030a4:	e0bffd15 	stw	r2,-12(fp)
 12030a8:	e0bffd17 	ldw	r2,-12(fp)
 12030ac:	10001926 	beq	r2,zero,1203114 <close+0xa8>
 12030b0:	e0bffd17 	ldw	r2,-12(fp)
 12030b4:	10800017 	ldw	r2,0(r2)
 12030b8:	10800417 	ldw	r2,16(r2)
 12030bc:	10000626 	beq	r2,zero,12030d8 <close+0x6c>
 12030c0:	e0bffd17 	ldw	r2,-12(fp)
 12030c4:	10800017 	ldw	r2,0(r2)
 12030c8:	10800417 	ldw	r2,16(r2)
 12030cc:	e13ffd17 	ldw	r4,-12(fp)
 12030d0:	103ee83a 	callr	r2
 12030d4:	00000106 	br	12030dc <close+0x70>
 12030d8:	0005883a 	mov	r2,zero
 12030dc:	e0bffe15 	stw	r2,-8(fp)
 12030e0:	e13fff17 	ldw	r4,-4(fp)
 12030e4:	12039540 	call	1203954 <alt_release_fd>
 12030e8:	e0bffe17 	ldw	r2,-8(fp)
 12030ec:	1000070e 	bge	r2,zero,120310c <close+0xa0>
 12030f0:	120301c0 	call	120301c <alt_get_errno>
 12030f4:	1007883a 	mov	r3,r2
 12030f8:	e0bffe17 	ldw	r2,-8(fp)
 12030fc:	0085c83a 	sub	r2,zero,r2
 1203100:	18800015 	stw	r2,0(r3)
 1203104:	00bfffc4 	movi	r2,-1
 1203108:	00000706 	br	1203128 <close+0xbc>
 120310c:	0005883a 	mov	r2,zero
 1203110:	00000506 	br	1203128 <close+0xbc>
 1203114:	120301c0 	call	120301c <alt_get_errno>
 1203118:	1007883a 	mov	r3,r2
 120311c:	00801444 	movi	r2,81
 1203120:	18800015 	stw	r2,0(r3)
 1203124:	00bfffc4 	movi	r2,-1
 1203128:	e037883a 	mov	sp,fp
 120312c:	dfc00117 	ldw	ra,4(sp)
 1203130:	df000017 	ldw	fp,0(sp)
 1203134:	dec00204 	addi	sp,sp,8
 1203138:	f800283a 	ret

0120313c <alt_dev_null_write>:
 120313c:	defffc04 	addi	sp,sp,-16
 1203140:	df000315 	stw	fp,12(sp)
 1203144:	df000304 	addi	fp,sp,12
 1203148:	e13ffd15 	stw	r4,-12(fp)
 120314c:	e17ffe15 	stw	r5,-8(fp)
 1203150:	e1bfff15 	stw	r6,-4(fp)
 1203154:	e0bfff17 	ldw	r2,-4(fp)
 1203158:	e037883a 	mov	sp,fp
 120315c:	df000017 	ldw	fp,0(sp)
 1203160:	dec00104 	addi	sp,sp,4
 1203164:	f800283a 	ret

01203168 <alt_get_errno>:
 1203168:	defffe04 	addi	sp,sp,-8
 120316c:	dfc00115 	stw	ra,4(sp)
 1203170:	df000015 	stw	fp,0(sp)
 1203174:	d839883a 	mov	fp,sp
 1203178:	00804874 	movhi	r2,289
 120317c:	10a6f404 	addi	r2,r2,-25648
 1203180:	10800017 	ldw	r2,0(r2)
 1203184:	10000526 	beq	r2,zero,120319c <alt_get_errno+0x34>
 1203188:	00804874 	movhi	r2,289
 120318c:	10a6f404 	addi	r2,r2,-25648
 1203190:	10800017 	ldw	r2,0(r2)
 1203194:	103ee83a 	callr	r2
 1203198:	00000206 	br	12031a4 <alt_get_errno+0x3c>
 120319c:	00804874 	movhi	r2,289
 12031a0:	10a6ff04 	addi	r2,r2,-25604
 12031a4:	e037883a 	mov	sp,fp
 12031a8:	dfc00117 	ldw	ra,4(sp)
 12031ac:	df000017 	ldw	fp,0(sp)
 12031b0:	dec00204 	addi	sp,sp,8
 12031b4:	f800283a 	ret

012031b8 <fstat>:
 12031b8:	defffb04 	addi	sp,sp,-20
 12031bc:	dfc00415 	stw	ra,16(sp)
 12031c0:	df000315 	stw	fp,12(sp)
 12031c4:	df000304 	addi	fp,sp,12
 12031c8:	e13ffe15 	stw	r4,-8(fp)
 12031cc:	e17fff15 	stw	r5,-4(fp)
 12031d0:	e0bffe17 	ldw	r2,-8(fp)
 12031d4:	10000616 	blt	r2,zero,12031f0 <fstat+0x38>
 12031d8:	e0bffe17 	ldw	r2,-8(fp)
 12031dc:	10c00324 	muli	r3,r2,12
 12031e0:	00804874 	movhi	r2,289
 12031e4:	10a23c04 	addi	r2,r2,-30480
 12031e8:	1885883a 	add	r2,r3,r2
 12031ec:	00000106 	br	12031f4 <fstat+0x3c>
 12031f0:	0005883a 	mov	r2,zero
 12031f4:	e0bffd15 	stw	r2,-12(fp)
 12031f8:	e0bffd17 	ldw	r2,-12(fp)
 12031fc:	10001026 	beq	r2,zero,1203240 <fstat+0x88>
 1203200:	e0bffd17 	ldw	r2,-12(fp)
 1203204:	10800017 	ldw	r2,0(r2)
 1203208:	10800817 	ldw	r2,32(r2)
 120320c:	10000726 	beq	r2,zero,120322c <fstat+0x74>
 1203210:	e0bffd17 	ldw	r2,-12(fp)
 1203214:	10800017 	ldw	r2,0(r2)
 1203218:	10800817 	ldw	r2,32(r2)
 120321c:	e13ffd17 	ldw	r4,-12(fp)
 1203220:	e17fff17 	ldw	r5,-4(fp)
 1203224:	103ee83a 	callr	r2
 1203228:	00000a06 	br	1203254 <fstat+0x9c>
 120322c:	e0bfff17 	ldw	r2,-4(fp)
 1203230:	00c80004 	movi	r3,8192
 1203234:	10c00115 	stw	r3,4(r2)
 1203238:	0005883a 	mov	r2,zero
 120323c:	00000506 	br	1203254 <fstat+0x9c>
 1203240:	12031680 	call	1203168 <alt_get_errno>
 1203244:	1007883a 	mov	r3,r2
 1203248:	00801444 	movi	r2,81
 120324c:	18800015 	stw	r2,0(r3)
 1203250:	00bfffc4 	movi	r2,-1
 1203254:	e037883a 	mov	sp,fp
 1203258:	dfc00117 	ldw	ra,4(sp)
 120325c:	df000017 	ldw	fp,0(sp)
 1203260:	dec00204 	addi	sp,sp,8
 1203264:	f800283a 	ret

01203268 <alt_ic_isr_register>:
 1203268:	defff904 	addi	sp,sp,-28
 120326c:	dfc00615 	stw	ra,24(sp)
 1203270:	df000515 	stw	fp,20(sp)
 1203274:	df000504 	addi	fp,sp,20
 1203278:	e13ffc15 	stw	r4,-16(fp)
 120327c:	e17ffd15 	stw	r5,-12(fp)
 1203280:	e1bffe15 	stw	r6,-8(fp)
 1203284:	e1ffff15 	stw	r7,-4(fp)
 1203288:	e0800217 	ldw	r2,8(fp)
 120328c:	d8800015 	stw	r2,0(sp)
 1203290:	e13ffc17 	ldw	r4,-16(fp)
 1203294:	e17ffd17 	ldw	r5,-12(fp)
 1203298:	e1bffe17 	ldw	r6,-8(fp)
 120329c:	e1ffff17 	ldw	r7,-4(fp)
 12032a0:	12034480 	call	1203448 <alt_iic_isr_register>
 12032a4:	e037883a 	mov	sp,fp
 12032a8:	dfc00117 	ldw	ra,4(sp)
 12032ac:	df000017 	ldw	fp,0(sp)
 12032b0:	dec00204 	addi	sp,sp,8
 12032b4:	f800283a 	ret

012032b8 <alt_ic_irq_enable>:
 12032b8:	defff904 	addi	sp,sp,-28
 12032bc:	df000615 	stw	fp,24(sp)
 12032c0:	df000604 	addi	fp,sp,24
 12032c4:	e13ffe15 	stw	r4,-8(fp)
 12032c8:	e17fff15 	stw	r5,-4(fp)
 12032cc:	e0bfff17 	ldw	r2,-4(fp)
 12032d0:	e0bffa15 	stw	r2,-24(fp)
 12032d4:	0005303a 	rdctl	r2,status
 12032d8:	e0bffb15 	stw	r2,-20(fp)
 12032dc:	e0fffb17 	ldw	r3,-20(fp)
 12032e0:	00bfff84 	movi	r2,-2
 12032e4:	1884703a 	and	r2,r3,r2
 12032e8:	1001703a 	wrctl	status,r2
 12032ec:	e0bffb17 	ldw	r2,-20(fp)
 12032f0:	e0bffc15 	stw	r2,-16(fp)
 12032f4:	e0bffa17 	ldw	r2,-24(fp)
 12032f8:	00c00044 	movi	r3,1
 12032fc:	1884983a 	sll	r2,r3,r2
 1203300:	1007883a 	mov	r3,r2
 1203304:	00804874 	movhi	r2,289
 1203308:	10a70004 	addi	r2,r2,-25600
 120330c:	10800017 	ldw	r2,0(r2)
 1203310:	1886b03a 	or	r3,r3,r2
 1203314:	00804874 	movhi	r2,289
 1203318:	10a70004 	addi	r2,r2,-25600
 120331c:	10c00015 	stw	r3,0(r2)
 1203320:	00804874 	movhi	r2,289
 1203324:	10a70004 	addi	r2,r2,-25600
 1203328:	10800017 	ldw	r2,0(r2)
 120332c:	100170fa 	wrctl	ienable,r2
 1203330:	e0bffc17 	ldw	r2,-16(fp)
 1203334:	e0bffd15 	stw	r2,-12(fp)
 1203338:	e0bffd17 	ldw	r2,-12(fp)
 120333c:	1001703a 	wrctl	status,r2
 1203340:	0005883a 	mov	r2,zero
 1203344:	0001883a 	nop
 1203348:	e037883a 	mov	sp,fp
 120334c:	df000017 	ldw	fp,0(sp)
 1203350:	dec00104 	addi	sp,sp,4
 1203354:	f800283a 	ret

01203358 <alt_ic_irq_disable>:
 1203358:	defff904 	addi	sp,sp,-28
 120335c:	df000615 	stw	fp,24(sp)
 1203360:	df000604 	addi	fp,sp,24
 1203364:	e13ffe15 	stw	r4,-8(fp)
 1203368:	e17fff15 	stw	r5,-4(fp)
 120336c:	e0bfff17 	ldw	r2,-4(fp)
 1203370:	e0bffa15 	stw	r2,-24(fp)
 1203374:	0005303a 	rdctl	r2,status
 1203378:	e0bffb15 	stw	r2,-20(fp)
 120337c:	e0fffb17 	ldw	r3,-20(fp)
 1203380:	00bfff84 	movi	r2,-2
 1203384:	1884703a 	and	r2,r3,r2
 1203388:	1001703a 	wrctl	status,r2
 120338c:	e0bffb17 	ldw	r2,-20(fp)
 1203390:	e0bffc15 	stw	r2,-16(fp)
 1203394:	e0bffa17 	ldw	r2,-24(fp)
 1203398:	00c00044 	movi	r3,1
 120339c:	1884983a 	sll	r2,r3,r2
 12033a0:	0084303a 	nor	r2,zero,r2
 12033a4:	1007883a 	mov	r3,r2
 12033a8:	00804874 	movhi	r2,289
 12033ac:	10a70004 	addi	r2,r2,-25600
 12033b0:	10800017 	ldw	r2,0(r2)
 12033b4:	1886703a 	and	r3,r3,r2
 12033b8:	00804874 	movhi	r2,289
 12033bc:	10a70004 	addi	r2,r2,-25600
 12033c0:	10c00015 	stw	r3,0(r2)
 12033c4:	00804874 	movhi	r2,289
 12033c8:	10a70004 	addi	r2,r2,-25600
 12033cc:	10800017 	ldw	r2,0(r2)
 12033d0:	100170fa 	wrctl	ienable,r2
 12033d4:	e0bffc17 	ldw	r2,-16(fp)
 12033d8:	e0bffd15 	stw	r2,-12(fp)
 12033dc:	e0bffd17 	ldw	r2,-12(fp)
 12033e0:	1001703a 	wrctl	status,r2
 12033e4:	0005883a 	mov	r2,zero
 12033e8:	0001883a 	nop
 12033ec:	e037883a 	mov	sp,fp
 12033f0:	df000017 	ldw	fp,0(sp)
 12033f4:	dec00104 	addi	sp,sp,4
 12033f8:	f800283a 	ret

012033fc <alt_ic_irq_enabled>:
 12033fc:	defffc04 	addi	sp,sp,-16
 1203400:	df000315 	stw	fp,12(sp)
 1203404:	df000304 	addi	fp,sp,12
 1203408:	e13ffe15 	stw	r4,-8(fp)
 120340c:	e17fff15 	stw	r5,-4(fp)
 1203410:	000530fa 	rdctl	r2,ienable
 1203414:	e0bffd15 	stw	r2,-12(fp)
 1203418:	e0bfff17 	ldw	r2,-4(fp)
 120341c:	00c00044 	movi	r3,1
 1203420:	1884983a 	sll	r2,r3,r2
 1203424:	1007883a 	mov	r3,r2
 1203428:	e0bffd17 	ldw	r2,-12(fp)
 120342c:	1884703a 	and	r2,r3,r2
 1203430:	1004c03a 	cmpne	r2,r2,zero
 1203434:	10803fcc 	andi	r2,r2,255
 1203438:	e037883a 	mov	sp,fp
 120343c:	df000017 	ldw	fp,0(sp)
 1203440:	dec00104 	addi	sp,sp,4
 1203444:	f800283a 	ret

01203448 <alt_iic_isr_register>:
 1203448:	defff504 	addi	sp,sp,-44
 120344c:	dfc00a15 	stw	ra,40(sp)
 1203450:	df000915 	stw	fp,36(sp)
 1203454:	df000904 	addi	fp,sp,36
 1203458:	e13ffc15 	stw	r4,-16(fp)
 120345c:	e17ffd15 	stw	r5,-12(fp)
 1203460:	e1bffe15 	stw	r6,-8(fp)
 1203464:	e1ffff15 	stw	r7,-4(fp)
 1203468:	00bffa84 	movi	r2,-22
 120346c:	e0bff715 	stw	r2,-36(fp)
 1203470:	e0bffd17 	ldw	r2,-12(fp)
 1203474:	e0bff815 	stw	r2,-32(fp)
 1203478:	e0bff817 	ldw	r2,-32(fp)
 120347c:	10800808 	cmpgei	r2,r2,32
 1203480:	1000271e 	bne	r2,zero,1203520 <alt_iic_isr_register+0xd8>
 1203484:	0005303a 	rdctl	r2,status
 1203488:	e0bffa15 	stw	r2,-24(fp)
 120348c:	e0fffa17 	ldw	r3,-24(fp)
 1203490:	00bfff84 	movi	r2,-2
 1203494:	1884703a 	and	r2,r3,r2
 1203498:	1001703a 	wrctl	status,r2
 120349c:	e0bffa17 	ldw	r2,-24(fp)
 12034a0:	e0bff915 	stw	r2,-28(fp)
 12034a4:	00804874 	movhi	r2,289
 12034a8:	10a71104 	addi	r2,r2,-25532
 12034ac:	e0fff817 	ldw	r3,-32(fp)
 12034b0:	180690fa 	slli	r3,r3,3
 12034b4:	10c5883a 	add	r2,r2,r3
 12034b8:	e0fffe17 	ldw	r3,-8(fp)
 12034bc:	10c00015 	stw	r3,0(r2)
 12034c0:	00804874 	movhi	r2,289
 12034c4:	10a71104 	addi	r2,r2,-25532
 12034c8:	e0fff817 	ldw	r3,-32(fp)
 12034cc:	180690fa 	slli	r3,r3,3
 12034d0:	10c5883a 	add	r2,r2,r3
 12034d4:	10800104 	addi	r2,r2,4
 12034d8:	e0ffff17 	ldw	r3,-4(fp)
 12034dc:	10c00015 	stw	r3,0(r2)
 12034e0:	e0bffe17 	ldw	r2,-8(fp)
 12034e4:	10000526 	beq	r2,zero,12034fc <alt_iic_isr_register+0xb4>
 12034e8:	e0bff817 	ldw	r2,-32(fp)
 12034ec:	e13ffc17 	ldw	r4,-16(fp)
 12034f0:	100b883a 	mov	r5,r2
 12034f4:	12032b80 	call	12032b8 <alt_ic_irq_enable>
 12034f8:	00000406 	br	120350c <alt_iic_isr_register+0xc4>
 12034fc:	e0bff817 	ldw	r2,-32(fp)
 1203500:	e13ffc17 	ldw	r4,-16(fp)
 1203504:	100b883a 	mov	r5,r2
 1203508:	12033580 	call	1203358 <alt_ic_irq_disable>
 120350c:	e0bff715 	stw	r2,-36(fp)
 1203510:	e0bff917 	ldw	r2,-28(fp)
 1203514:	e0bffb15 	stw	r2,-20(fp)
 1203518:	e0bffb17 	ldw	r2,-20(fp)
 120351c:	1001703a 	wrctl	status,r2
 1203520:	e0bff717 	ldw	r2,-36(fp)
 1203524:	e037883a 	mov	sp,fp
 1203528:	dfc00117 	ldw	ra,4(sp)
 120352c:	df000017 	ldw	fp,0(sp)
 1203530:	dec00204 	addi	sp,sp,8
 1203534:	f800283a 	ret

01203538 <alt_get_errno>:
 1203538:	defffe04 	addi	sp,sp,-8
 120353c:	dfc00115 	stw	ra,4(sp)
 1203540:	df000015 	stw	fp,0(sp)
 1203544:	d839883a 	mov	fp,sp
 1203548:	00804874 	movhi	r2,289
 120354c:	10a6f404 	addi	r2,r2,-25648
 1203550:	10800017 	ldw	r2,0(r2)
 1203554:	10000526 	beq	r2,zero,120356c <alt_get_errno+0x34>
 1203558:	00804874 	movhi	r2,289
 120355c:	10a6f404 	addi	r2,r2,-25648
 1203560:	10800017 	ldw	r2,0(r2)
 1203564:	103ee83a 	callr	r2
 1203568:	00000206 	br	1203574 <alt_get_errno+0x3c>
 120356c:	00804874 	movhi	r2,289
 1203570:	10a6ff04 	addi	r2,r2,-25604
 1203574:	e037883a 	mov	sp,fp
 1203578:	dfc00117 	ldw	ra,4(sp)
 120357c:	df000017 	ldw	fp,0(sp)
 1203580:	dec00204 	addi	sp,sp,8
 1203584:	f800283a 	ret

01203588 <isatty>:
 1203588:	deffed04 	addi	sp,sp,-76
 120358c:	dfc01215 	stw	ra,72(sp)
 1203590:	df001115 	stw	fp,68(sp)
 1203594:	df001104 	addi	fp,sp,68
 1203598:	e13fff15 	stw	r4,-4(fp)
 120359c:	e0bfff17 	ldw	r2,-4(fp)
 12035a0:	10000616 	blt	r2,zero,12035bc <isatty+0x34>
 12035a4:	e0bfff17 	ldw	r2,-4(fp)
 12035a8:	10c00324 	muli	r3,r2,12
 12035ac:	00804874 	movhi	r2,289
 12035b0:	10a23c04 	addi	r2,r2,-30480
 12035b4:	1885883a 	add	r2,r3,r2
 12035b8:	00000106 	br	12035c0 <isatty+0x38>
 12035bc:	0005883a 	mov	r2,zero
 12035c0:	e0bfef15 	stw	r2,-68(fp)
 12035c4:	e0bfef17 	ldw	r2,-68(fp)
 12035c8:	10000e26 	beq	r2,zero,1203604 <isatty+0x7c>
 12035cc:	e0bfef17 	ldw	r2,-68(fp)
 12035d0:	10800017 	ldw	r2,0(r2)
 12035d4:	10800817 	ldw	r2,32(r2)
 12035d8:	1000021e 	bne	r2,zero,12035e4 <isatty+0x5c>
 12035dc:	00800044 	movi	r2,1
 12035e0:	00000d06 	br	1203618 <isatty+0x90>
 12035e4:	e0bff004 	addi	r2,fp,-64
 12035e8:	e13fff17 	ldw	r4,-4(fp)
 12035ec:	100b883a 	mov	r5,r2
 12035f0:	12031b80 	call	12031b8 <fstat>
 12035f4:	e0bff117 	ldw	r2,-60(fp)
 12035f8:	10880020 	cmpeqi	r2,r2,8192
 12035fc:	10803fcc 	andi	r2,r2,255
 1203600:	00000506 	br	1203618 <isatty+0x90>
 1203604:	12035380 	call	1203538 <alt_get_errno>
 1203608:	1007883a 	mov	r3,r2
 120360c:	00801444 	movi	r2,81
 1203610:	18800015 	stw	r2,0(r3)
 1203614:	0005883a 	mov	r2,zero
 1203618:	e037883a 	mov	sp,fp
 120361c:	dfc00117 	ldw	ra,4(sp)
 1203620:	df000017 	ldw	fp,0(sp)
 1203624:	dec00204 	addi	sp,sp,8
 1203628:	f800283a 	ret

0120362c <alt_get_errno>:
 120362c:	defffe04 	addi	sp,sp,-8
 1203630:	dfc00115 	stw	ra,4(sp)
 1203634:	df000015 	stw	fp,0(sp)
 1203638:	d839883a 	mov	fp,sp
 120363c:	00804874 	movhi	r2,289
 1203640:	10a6f404 	addi	r2,r2,-25648
 1203644:	10800017 	ldw	r2,0(r2)
 1203648:	10000526 	beq	r2,zero,1203660 <alt_get_errno+0x34>
 120364c:	00804874 	movhi	r2,289
 1203650:	10a6f404 	addi	r2,r2,-25648
 1203654:	10800017 	ldw	r2,0(r2)
 1203658:	103ee83a 	callr	r2
 120365c:	00000206 	br	1203668 <alt_get_errno+0x3c>
 1203660:	00804874 	movhi	r2,289
 1203664:	10a6ff04 	addi	r2,r2,-25604
 1203668:	e037883a 	mov	sp,fp
 120366c:	dfc00117 	ldw	ra,4(sp)
 1203670:	df000017 	ldw	fp,0(sp)
 1203674:	dec00204 	addi	sp,sp,8
 1203678:	f800283a 	ret

0120367c <lseek>:
 120367c:	defff904 	addi	sp,sp,-28
 1203680:	dfc00615 	stw	ra,24(sp)
 1203684:	df000515 	stw	fp,20(sp)
 1203688:	df000504 	addi	fp,sp,20
 120368c:	e13ffd15 	stw	r4,-12(fp)
 1203690:	e17ffe15 	stw	r5,-8(fp)
 1203694:	e1bfff15 	stw	r6,-4(fp)
 1203698:	e03ffb15 	stw	zero,-20(fp)
 120369c:	e0bffd17 	ldw	r2,-12(fp)
 12036a0:	10000616 	blt	r2,zero,12036bc <lseek+0x40>
 12036a4:	e0bffd17 	ldw	r2,-12(fp)
 12036a8:	10c00324 	muli	r3,r2,12
 12036ac:	00804874 	movhi	r2,289
 12036b0:	10a23c04 	addi	r2,r2,-30480
 12036b4:	1885883a 	add	r2,r3,r2
 12036b8:	00000106 	br	12036c0 <lseek+0x44>
 12036bc:	0005883a 	mov	r2,zero
 12036c0:	e0bffc15 	stw	r2,-16(fp)
 12036c4:	e0bffc17 	ldw	r2,-16(fp)
 12036c8:	10001026 	beq	r2,zero,120370c <lseek+0x90>
 12036cc:	e0bffc17 	ldw	r2,-16(fp)
 12036d0:	10800017 	ldw	r2,0(r2)
 12036d4:	10800717 	ldw	r2,28(r2)
 12036d8:	10000926 	beq	r2,zero,1203700 <lseek+0x84>
 12036dc:	e0bffc17 	ldw	r2,-16(fp)
 12036e0:	10800017 	ldw	r2,0(r2)
 12036e4:	10800717 	ldw	r2,28(r2)
 12036e8:	e13ffc17 	ldw	r4,-16(fp)
 12036ec:	e17ffe17 	ldw	r5,-8(fp)
 12036f0:	e1bfff17 	ldw	r6,-4(fp)
 12036f4:	103ee83a 	callr	r2
 12036f8:	e0bffb15 	stw	r2,-20(fp)
 12036fc:	00000506 	br	1203714 <lseek+0x98>
 1203700:	00bfde84 	movi	r2,-134
 1203704:	e0bffb15 	stw	r2,-20(fp)
 1203708:	00000206 	br	1203714 <lseek+0x98>
 120370c:	00bfebc4 	movi	r2,-81
 1203710:	e0bffb15 	stw	r2,-20(fp)
 1203714:	e0bffb17 	ldw	r2,-20(fp)
 1203718:	1000070e 	bge	r2,zero,1203738 <lseek+0xbc>
 120371c:	120362c0 	call	120362c <alt_get_errno>
 1203720:	1007883a 	mov	r3,r2
 1203724:	e0bffb17 	ldw	r2,-20(fp)
 1203728:	0085c83a 	sub	r2,zero,r2
 120372c:	18800015 	stw	r2,0(r3)
 1203730:	00bfffc4 	movi	r2,-1
 1203734:	e0bffb15 	stw	r2,-20(fp)
 1203738:	e0bffb17 	ldw	r2,-20(fp)
 120373c:	e037883a 	mov	sp,fp
 1203740:	dfc00117 	ldw	ra,4(sp)
 1203744:	df000017 	ldw	fp,0(sp)
 1203748:	dec00204 	addi	sp,sp,8
 120374c:	f800283a 	ret

01203750 <alt_main>:
 1203750:	defffd04 	addi	sp,sp,-12
 1203754:	dfc00215 	stw	ra,8(sp)
 1203758:	df000115 	stw	fp,4(sp)
 120375c:	df000104 	addi	fp,sp,4
 1203760:	0009883a 	mov	r4,zero
 1203764:	1203c140 	call	1203c14 <alt_irq_init>
 1203768:	0001883a 	nop
 120376c:	1203c480 	call	1203c48 <alt_sys_init>
 1203770:	01004874 	movhi	r4,289
 1203774:	21201a04 	addi	r4,r4,-32664
 1203778:	01404874 	movhi	r5,289
 120377c:	29601a04 	addi	r5,r5,-32664
 1203780:	01804874 	movhi	r6,289
 1203784:	31a01a04 	addi	r6,r6,-32664
 1203788:	1206ba80 	call	1206ba8 <alt_io_redirect>
 120378c:	12068dc0 	call	12068dc <_do_ctors>
 1203790:	01004834 	movhi	r4,288
 1203794:	211a4e04 	addi	r4,r4,26936
 1203798:	1207b5c0 	call	1207b5c <atexit>
 120379c:	d1201617 	ldw	r4,-32680(gp)
 12037a0:	d0e01717 	ldw	r3,-32676(gp)
 12037a4:	d0a01817 	ldw	r2,-32672(gp)
 12037a8:	180b883a 	mov	r5,r3
 12037ac:	100d883a 	mov	r6,r2
 12037b0:	12003680 	call	1200368 <main>
 12037b4:	e0bfff15 	stw	r2,-4(fp)
 12037b8:	01000044 	movi	r4,1
 12037bc:	120306c0 	call	120306c <close>
 12037c0:	e13fff17 	ldw	r4,-4(fp)
 12037c4:	1207b700 	call	1207b70 <exit>

012037c8 <__malloc_lock>:
 12037c8:	defffe04 	addi	sp,sp,-8
 12037cc:	df000115 	stw	fp,4(sp)
 12037d0:	df000104 	addi	fp,sp,4
 12037d4:	e13fff15 	stw	r4,-4(fp)
 12037d8:	e037883a 	mov	sp,fp
 12037dc:	df000017 	ldw	fp,0(sp)
 12037e0:	dec00104 	addi	sp,sp,4
 12037e4:	f800283a 	ret

012037e8 <__malloc_unlock>:
 12037e8:	defffe04 	addi	sp,sp,-8
 12037ec:	df000115 	stw	fp,4(sp)
 12037f0:	df000104 	addi	fp,sp,4
 12037f4:	e13fff15 	stw	r4,-4(fp)
 12037f8:	e037883a 	mov	sp,fp
 12037fc:	df000017 	ldw	fp,0(sp)
 1203800:	dec00104 	addi	sp,sp,4
 1203804:	f800283a 	ret

01203808 <alt_get_errno>:
 1203808:	defffe04 	addi	sp,sp,-8
 120380c:	dfc00115 	stw	ra,4(sp)
 1203810:	df000015 	stw	fp,0(sp)
 1203814:	d839883a 	mov	fp,sp
 1203818:	00804874 	movhi	r2,289
 120381c:	10a6f404 	addi	r2,r2,-25648
 1203820:	10800017 	ldw	r2,0(r2)
 1203824:	10000526 	beq	r2,zero,120383c <alt_get_errno+0x34>
 1203828:	00804874 	movhi	r2,289
 120382c:	10a6f404 	addi	r2,r2,-25648
 1203830:	10800017 	ldw	r2,0(r2)
 1203834:	103ee83a 	callr	r2
 1203838:	00000206 	br	1203844 <alt_get_errno+0x3c>
 120383c:	00804874 	movhi	r2,289
 1203840:	10a6ff04 	addi	r2,r2,-25604
 1203844:	e037883a 	mov	sp,fp
 1203848:	dfc00117 	ldw	ra,4(sp)
 120384c:	df000017 	ldw	fp,0(sp)
 1203850:	dec00204 	addi	sp,sp,8
 1203854:	f800283a 	ret

01203858 <read>:
 1203858:	defff904 	addi	sp,sp,-28
 120385c:	dfc00615 	stw	ra,24(sp)
 1203860:	df000515 	stw	fp,20(sp)
 1203864:	df000504 	addi	fp,sp,20
 1203868:	e13ffd15 	stw	r4,-12(fp)
 120386c:	e17ffe15 	stw	r5,-8(fp)
 1203870:	e1bfff15 	stw	r6,-4(fp)
 1203874:	e0bffd17 	ldw	r2,-12(fp)
 1203878:	10000616 	blt	r2,zero,1203894 <read+0x3c>
 120387c:	e0bffd17 	ldw	r2,-12(fp)
 1203880:	10c00324 	muli	r3,r2,12
 1203884:	00804874 	movhi	r2,289
 1203888:	10a23c04 	addi	r2,r2,-30480
 120388c:	1885883a 	add	r2,r3,r2
 1203890:	00000106 	br	1203898 <read+0x40>
 1203894:	0005883a 	mov	r2,zero
 1203898:	e0bffb15 	stw	r2,-20(fp)
 120389c:	e0bffb17 	ldw	r2,-20(fp)
 12038a0:	10002226 	beq	r2,zero,120392c <read+0xd4>
 12038a4:	e0bffb17 	ldw	r2,-20(fp)
 12038a8:	10800217 	ldw	r2,8(r2)
 12038ac:	108000cc 	andi	r2,r2,3
 12038b0:	10800060 	cmpeqi	r2,r2,1
 12038b4:	1000181e 	bne	r2,zero,1203918 <read+0xc0>
 12038b8:	e0bffb17 	ldw	r2,-20(fp)
 12038bc:	10800017 	ldw	r2,0(r2)
 12038c0:	10800517 	ldw	r2,20(r2)
 12038c4:	10001426 	beq	r2,zero,1203918 <read+0xc0>
 12038c8:	e0bffb17 	ldw	r2,-20(fp)
 12038cc:	10800017 	ldw	r2,0(r2)
 12038d0:	10800517 	ldw	r2,20(r2)
 12038d4:	e0ffff17 	ldw	r3,-4(fp)
 12038d8:	e13ffb17 	ldw	r4,-20(fp)
 12038dc:	e17ffe17 	ldw	r5,-8(fp)
 12038e0:	180d883a 	mov	r6,r3
 12038e4:	103ee83a 	callr	r2
 12038e8:	e0bffc15 	stw	r2,-16(fp)
 12038ec:	e0bffc17 	ldw	r2,-16(fp)
 12038f0:	1000070e 	bge	r2,zero,1203910 <read+0xb8>
 12038f4:	12038080 	call	1203808 <alt_get_errno>
 12038f8:	1007883a 	mov	r3,r2
 12038fc:	e0bffc17 	ldw	r2,-16(fp)
 1203900:	0085c83a 	sub	r2,zero,r2
 1203904:	18800015 	stw	r2,0(r3)
 1203908:	00bfffc4 	movi	r2,-1
 120390c:	00000c06 	br	1203940 <read+0xe8>
 1203910:	e0bffc17 	ldw	r2,-16(fp)
 1203914:	00000a06 	br	1203940 <read+0xe8>
 1203918:	12038080 	call	1203808 <alt_get_errno>
 120391c:	1007883a 	mov	r3,r2
 1203920:	00800344 	movi	r2,13
 1203924:	18800015 	stw	r2,0(r3)
 1203928:	00000406 	br	120393c <read+0xe4>
 120392c:	12038080 	call	1203808 <alt_get_errno>
 1203930:	1007883a 	mov	r3,r2
 1203934:	00801444 	movi	r2,81
 1203938:	18800015 	stw	r2,0(r3)
 120393c:	00bfffc4 	movi	r2,-1
 1203940:	e037883a 	mov	sp,fp
 1203944:	dfc00117 	ldw	ra,4(sp)
 1203948:	df000017 	ldw	fp,0(sp)
 120394c:	dec00204 	addi	sp,sp,8
 1203950:	f800283a 	ret

01203954 <alt_release_fd>:
 1203954:	defffe04 	addi	sp,sp,-8
 1203958:	df000115 	stw	fp,4(sp)
 120395c:	df000104 	addi	fp,sp,4
 1203960:	e13fff15 	stw	r4,-4(fp)
 1203964:	e0bfff17 	ldw	r2,-4(fp)
 1203968:	108000d0 	cmplti	r2,r2,3
 120396c:	10000d1e 	bne	r2,zero,12039a4 <alt_release_fd+0x50>
 1203970:	00804874 	movhi	r2,289
 1203974:	10a23c04 	addi	r2,r2,-30480
 1203978:	e0ffff17 	ldw	r3,-4(fp)
 120397c:	18c00324 	muli	r3,r3,12
 1203980:	10c5883a 	add	r2,r2,r3
 1203984:	10800204 	addi	r2,r2,8
 1203988:	10000015 	stw	zero,0(r2)
 120398c:	00804874 	movhi	r2,289
 1203990:	10a23c04 	addi	r2,r2,-30480
 1203994:	e0ffff17 	ldw	r3,-4(fp)
 1203998:	18c00324 	muli	r3,r3,12
 120399c:	10c5883a 	add	r2,r2,r3
 12039a0:	10000015 	stw	zero,0(r2)
 12039a4:	e037883a 	mov	sp,fp
 12039a8:	df000017 	ldw	fp,0(sp)
 12039ac:	dec00104 	addi	sp,sp,4
 12039b0:	f800283a 	ret

012039b4 <sbrk>:
 12039b4:	defff904 	addi	sp,sp,-28
 12039b8:	df000615 	stw	fp,24(sp)
 12039bc:	df000604 	addi	fp,sp,24
 12039c0:	e13fff15 	stw	r4,-4(fp)
 12039c4:	0005303a 	rdctl	r2,status
 12039c8:	e0bffc15 	stw	r2,-16(fp)
 12039cc:	e0fffc17 	ldw	r3,-16(fp)
 12039d0:	00bfff84 	movi	r2,-2
 12039d4:	1884703a 	and	r2,r3,r2
 12039d8:	1001703a 	wrctl	status,r2
 12039dc:	e0bffc17 	ldw	r2,-16(fp)
 12039e0:	e0bffa15 	stw	r2,-24(fp)
 12039e4:	d0a00b17 	ldw	r2,-32724(gp)
 12039e8:	10c000c4 	addi	r3,r2,3
 12039ec:	00bfff04 	movi	r2,-4
 12039f0:	1884703a 	and	r2,r3,r2
 12039f4:	d0a00b15 	stw	r2,-32724(gp)
 12039f8:	d0e00b17 	ldw	r3,-32724(gp)
 12039fc:	e0bfff17 	ldw	r2,-4(fp)
 1203a00:	1887883a 	add	r3,r3,r2
 1203a04:	00805034 	movhi	r2,320
 1203a08:	10800004 	addi	r2,r2,0
 1203a0c:	10c0062e 	bgeu	r2,r3,1203a28 <sbrk+0x74>
 1203a10:	e0bffa17 	ldw	r2,-24(fp)
 1203a14:	e0bffd15 	stw	r2,-12(fp)
 1203a18:	e0bffd17 	ldw	r2,-12(fp)
 1203a1c:	1001703a 	wrctl	status,r2
 1203a20:	00bfffc4 	movi	r2,-1
 1203a24:	00000b06 	br	1203a54 <sbrk+0xa0>
 1203a28:	d0a00b17 	ldw	r2,-32724(gp)
 1203a2c:	e0bffb15 	stw	r2,-20(fp)
 1203a30:	d0e00b17 	ldw	r3,-32724(gp)
 1203a34:	e0bfff17 	ldw	r2,-4(fp)
 1203a38:	1885883a 	add	r2,r3,r2
 1203a3c:	d0a00b15 	stw	r2,-32724(gp)
 1203a40:	e0bffa17 	ldw	r2,-24(fp)
 1203a44:	e0bffe15 	stw	r2,-8(fp)
 1203a48:	e0bffe17 	ldw	r2,-8(fp)
 1203a4c:	1001703a 	wrctl	status,r2
 1203a50:	e0bffb17 	ldw	r2,-20(fp)
 1203a54:	e037883a 	mov	sp,fp
 1203a58:	df000017 	ldw	fp,0(sp)
 1203a5c:	dec00104 	addi	sp,sp,4
 1203a60:	f800283a 	ret

01203a64 <usleep>:
 1203a64:	defffd04 	addi	sp,sp,-12
 1203a68:	dfc00215 	stw	ra,8(sp)
 1203a6c:	df000115 	stw	fp,4(sp)
 1203a70:	df000104 	addi	fp,sp,4
 1203a74:	e13fff15 	stw	r4,-4(fp)
 1203a78:	e13fff17 	ldw	r4,-4(fp)
 1203a7c:	120661c0 	call	120661c <alt_busy_sleep>
 1203a80:	e037883a 	mov	sp,fp
 1203a84:	dfc00117 	ldw	ra,4(sp)
 1203a88:	df000017 	ldw	fp,0(sp)
 1203a8c:	dec00204 	addi	sp,sp,8
 1203a90:	f800283a 	ret

01203a94 <alt_get_errno>:
 1203a94:	defffe04 	addi	sp,sp,-8
 1203a98:	dfc00115 	stw	ra,4(sp)
 1203a9c:	df000015 	stw	fp,0(sp)
 1203aa0:	d839883a 	mov	fp,sp
 1203aa4:	00804874 	movhi	r2,289
 1203aa8:	10a6f404 	addi	r2,r2,-25648
 1203aac:	10800017 	ldw	r2,0(r2)
 1203ab0:	10000526 	beq	r2,zero,1203ac8 <alt_get_errno+0x34>
 1203ab4:	00804874 	movhi	r2,289
 1203ab8:	10a6f404 	addi	r2,r2,-25648
 1203abc:	10800017 	ldw	r2,0(r2)
 1203ac0:	103ee83a 	callr	r2
 1203ac4:	00000206 	br	1203ad0 <alt_get_errno+0x3c>
 1203ac8:	00804874 	movhi	r2,289
 1203acc:	10a6ff04 	addi	r2,r2,-25604
 1203ad0:	e037883a 	mov	sp,fp
 1203ad4:	dfc00117 	ldw	ra,4(sp)
 1203ad8:	df000017 	ldw	fp,0(sp)
 1203adc:	dec00204 	addi	sp,sp,8
 1203ae0:	f800283a 	ret

01203ae4 <write>:
 1203ae4:	defff904 	addi	sp,sp,-28
 1203ae8:	dfc00615 	stw	ra,24(sp)
 1203aec:	df000515 	stw	fp,20(sp)
 1203af0:	df000504 	addi	fp,sp,20
 1203af4:	e13ffd15 	stw	r4,-12(fp)
 1203af8:	e17ffe15 	stw	r5,-8(fp)
 1203afc:	e1bfff15 	stw	r6,-4(fp)
 1203b00:	e0bffd17 	ldw	r2,-12(fp)
 1203b04:	10000616 	blt	r2,zero,1203b20 <write+0x3c>
 1203b08:	e0bffd17 	ldw	r2,-12(fp)
 1203b0c:	10c00324 	muli	r3,r2,12
 1203b10:	00804874 	movhi	r2,289
 1203b14:	10a23c04 	addi	r2,r2,-30480
 1203b18:	1885883a 	add	r2,r3,r2
 1203b1c:	00000106 	br	1203b24 <write+0x40>
 1203b20:	0005883a 	mov	r2,zero
 1203b24:	e0bffb15 	stw	r2,-20(fp)
 1203b28:	e0bffb17 	ldw	r2,-20(fp)
 1203b2c:	10002126 	beq	r2,zero,1203bb4 <write+0xd0>
 1203b30:	e0bffb17 	ldw	r2,-20(fp)
 1203b34:	10800217 	ldw	r2,8(r2)
 1203b38:	108000cc 	andi	r2,r2,3
 1203b3c:	10001826 	beq	r2,zero,1203ba0 <write+0xbc>
 1203b40:	e0bffb17 	ldw	r2,-20(fp)
 1203b44:	10800017 	ldw	r2,0(r2)
 1203b48:	10800617 	ldw	r2,24(r2)
 1203b4c:	10001426 	beq	r2,zero,1203ba0 <write+0xbc>
 1203b50:	e0bffb17 	ldw	r2,-20(fp)
 1203b54:	10800017 	ldw	r2,0(r2)
 1203b58:	10800617 	ldw	r2,24(r2)
 1203b5c:	e0ffff17 	ldw	r3,-4(fp)
 1203b60:	e13ffb17 	ldw	r4,-20(fp)
 1203b64:	e17ffe17 	ldw	r5,-8(fp)
 1203b68:	180d883a 	mov	r6,r3
 1203b6c:	103ee83a 	callr	r2
 1203b70:	e0bffc15 	stw	r2,-16(fp)
 1203b74:	e0bffc17 	ldw	r2,-16(fp)
 1203b78:	1000070e 	bge	r2,zero,1203b98 <write+0xb4>
 1203b7c:	1203a940 	call	1203a94 <alt_get_errno>
 1203b80:	1007883a 	mov	r3,r2
 1203b84:	e0bffc17 	ldw	r2,-16(fp)
 1203b88:	0085c83a 	sub	r2,zero,r2
 1203b8c:	18800015 	stw	r2,0(r3)
 1203b90:	00bfffc4 	movi	r2,-1
 1203b94:	00000c06 	br	1203bc8 <write+0xe4>
 1203b98:	e0bffc17 	ldw	r2,-16(fp)
 1203b9c:	00000a06 	br	1203bc8 <write+0xe4>
 1203ba0:	1203a940 	call	1203a94 <alt_get_errno>
 1203ba4:	1007883a 	mov	r3,r2
 1203ba8:	00800344 	movi	r2,13
 1203bac:	18800015 	stw	r2,0(r3)
 1203bb0:	00000406 	br	1203bc4 <write+0xe0>
 1203bb4:	1203a940 	call	1203a94 <alt_get_errno>
 1203bb8:	1007883a 	mov	r3,r2
 1203bbc:	00801444 	movi	r2,81
 1203bc0:	18800015 	stw	r2,0(r3)
 1203bc4:	00bfffc4 	movi	r2,-1
 1203bc8:	e037883a 	mov	sp,fp
 1203bcc:	dfc00117 	ldw	ra,4(sp)
 1203bd0:	df000017 	ldw	fp,0(sp)
 1203bd4:	dec00204 	addi	sp,sp,8
 1203bd8:	f800283a 	ret

01203bdc <alt_dev_reg>:
 1203bdc:	defffd04 	addi	sp,sp,-12
 1203be0:	dfc00215 	stw	ra,8(sp)
 1203be4:	df000115 	stw	fp,4(sp)
 1203be8:	df000104 	addi	fp,sp,4
 1203bec:	e13fff15 	stw	r4,-4(fp)
 1203bf0:	e13fff17 	ldw	r4,-4(fp)
 1203bf4:	01404874 	movhi	r5,289
 1203bf8:	2966f104 	addi	r5,r5,-25660
 1203bfc:	12068380 	call	1206838 <alt_dev_llist_insert>
 1203c00:	e037883a 	mov	sp,fp
 1203c04:	dfc00117 	ldw	ra,4(sp)
 1203c08:	df000017 	ldw	fp,0(sp)
 1203c0c:	dec00204 	addi	sp,sp,8
 1203c10:	f800283a 	ret

01203c14 <alt_irq_init>:
 1203c14:	defffd04 	addi	sp,sp,-12
 1203c18:	dfc00215 	stw	ra,8(sp)
 1203c1c:	df000115 	stw	fp,4(sp)
 1203c20:	df000104 	addi	fp,sp,4
 1203c24:	e13fff15 	stw	r4,-4(fp)
 1203c28:	12070300 	call	1207030 <altera_nios2_gen2_irq_init>
 1203c2c:	00800044 	movi	r2,1
 1203c30:	1001703a 	wrctl	status,r2
 1203c34:	e037883a 	mov	sp,fp
 1203c38:	dfc00117 	ldw	ra,4(sp)
 1203c3c:	df000017 	ldw	fp,0(sp)
 1203c40:	dec00204 	addi	sp,sp,8
 1203c44:	f800283a 	ret

01203c48 <alt_sys_init>:
 1203c48:	defffe04 	addi	sp,sp,-8
 1203c4c:	dfc00115 	stw	ra,4(sp)
 1203c50:	df000015 	stw	fp,0(sp)
 1203c54:	d839883a 	mov	fp,sp
 1203c58:	01005034 	movhi	r4,320
 1203c5c:	21040804 	addi	r4,r4,4128
 1203c60:	000b883a 	mov	r5,zero
 1203c64:	000d883a 	mov	r6,zero
 1203c68:	01c0fa04 	movi	r7,1000
 1203c6c:	12064540 	call	1206454 <alt_avalon_timer_sc_init>
 1203c70:	01004874 	movhi	r4,289
 1203c74:	21229c04 	addi	r4,r4,-30096
 1203c78:	1203cec0 	call	1203cec <alt_flash_cfi_init>
 1203c7c:	01004874 	movhi	r4,289
 1203c80:	2122dd04 	addi	r4,r4,-29836
 1203c84:	000b883a 	mov	r5,zero
 1203c88:	01800044 	movi	r6,1
 1203c8c:	1205af80 	call	1205af8 <altera_avalon_jtag_uart_init>
 1203c90:	01004874 	movhi	r4,289
 1203c94:	2122d304 	addi	r4,r4,-29876
 1203c98:	1203bdc0 	call	1203bdc <alt_dev_reg>
 1203c9c:	0001883a 	nop
 1203ca0:	e037883a 	mov	sp,fp
 1203ca4:	dfc00117 	ldw	ra,4(sp)
 1203ca8:	df000017 	ldw	fp,0(sp)
 1203cac:	dec00204 	addi	sp,sp,8
 1203cb0:	f800283a 	ret

01203cb4 <alt_flash_device_register>:
 1203cb4:	defffd04 	addi	sp,sp,-12
 1203cb8:	dfc00215 	stw	ra,8(sp)
 1203cbc:	df000115 	stw	fp,4(sp)
 1203cc0:	df000104 	addi	fp,sp,4
 1203cc4:	e13fff15 	stw	r4,-4(fp)
 1203cc8:	e13fff17 	ldw	r4,-4(fp)
 1203ccc:	01404874 	movhi	r5,289
 1203cd0:	2966f704 	addi	r5,r5,-25636
 1203cd4:	12068380 	call	1206838 <alt_dev_llist_insert>
 1203cd8:	e037883a 	mov	sp,fp
 1203cdc:	dfc00117 	ldw	ra,4(sp)
 1203ce0:	df000017 	ldw	fp,0(sp)
 1203ce4:	dec00204 	addi	sp,sp,8
 1203ce8:	f800283a 	ret

01203cec <alt_flash_cfi_init>:
 1203cec:	defffc04 	addi	sp,sp,-16
 1203cf0:	dfc00315 	stw	ra,12(sp)
 1203cf4:	df000215 	stw	fp,8(sp)
 1203cf8:	df000204 	addi	fp,sp,8
 1203cfc:	e13fff15 	stw	r4,-4(fp)
 1203d00:	e03ffe15 	stw	zero,-8(fp)
 1203d04:	e13fff17 	ldw	r4,-4(fp)
 1203d08:	12051380 	call	1205138 <alt_read_cfi_width>
 1203d0c:	e0bffe15 	stw	r2,-8(fp)
 1203d10:	e0bffe17 	ldw	r2,-8(fp)
 1203d14:	1000031e 	bne	r2,zero,1203d24 <alt_flash_cfi_init+0x38>
 1203d18:	e13fff17 	ldw	r4,-4(fp)
 1203d1c:	12048980 	call	1204898 <alt_set_flash_width_func>
 1203d20:	e0bffe15 	stw	r2,-8(fp)
 1203d24:	e0bffe17 	ldw	r2,-8(fp)
 1203d28:	1000031e 	bne	r2,zero,1203d38 <alt_flash_cfi_init+0x4c>
 1203d2c:	e13fff17 	ldw	r4,-4(fp)
 1203d30:	1204b700 	call	1204b70 <alt_read_cfi_table>
 1203d34:	e0bffe15 	stw	r2,-8(fp)
 1203d38:	e0bffe17 	ldw	r2,-8(fp)
 1203d3c:	1000031e 	bne	r2,zero,1203d4c <alt_flash_cfi_init+0x60>
 1203d40:	e13fff17 	ldw	r4,-4(fp)
 1203d44:	1204a540 	call	1204a54 <alt_set_flash_algorithm_func>
 1203d48:	e0bffe15 	stw	r2,-8(fp)
 1203d4c:	e0bffe17 	ldw	r2,-8(fp)
 1203d50:	1000041e 	bne	r2,zero,1203d64 <alt_flash_cfi_init+0x78>
 1203d54:	e0bfff17 	ldw	r2,-4(fp)
 1203d58:	1009883a 	mov	r4,r2
 1203d5c:	1203cb40 	call	1203cb4 <alt_flash_device_register>
 1203d60:	e0bffe15 	stw	r2,-8(fp)
 1203d64:	e0bffe17 	ldw	r2,-8(fp)
 1203d68:	e037883a 	mov	sp,fp
 1203d6c:	dfc00117 	ldw	ra,4(sp)
 1203d70:	df000017 	ldw	fp,0(sp)
 1203d74:	dec00204 	addi	sp,sp,8
 1203d78:	f800283a 	ret

01203d7c <alt_flash_cfi_write>:
 1203d7c:	defff104 	addi	sp,sp,-60
 1203d80:	dfc00e15 	stw	ra,56(sp)
 1203d84:	df000d15 	stw	fp,52(sp)
 1203d88:	df000d04 	addi	fp,sp,52
 1203d8c:	e13ffc15 	stw	r4,-16(fp)
 1203d90:	e17ffd15 	stw	r5,-12(fp)
 1203d94:	e1bffe15 	stw	r6,-8(fp)
 1203d98:	e1ffff15 	stw	r7,-4(fp)
 1203d9c:	e03ff415 	stw	zero,-48(fp)
 1203da0:	e0bfff17 	ldw	r2,-4(fp)
 1203da4:	e0bff815 	stw	r2,-32(fp)
 1203da8:	e0bffd17 	ldw	r2,-12(fp)
 1203dac:	e0bff915 	stw	r2,-28(fp)
 1203db0:	e0bffc17 	ldw	r2,-16(fp)
 1203db4:	e0bffa15 	stw	r2,-24(fp)
 1203db8:	e03ff515 	stw	zero,-44(fp)
 1203dbc:	00008706 	br	1203fdc <alt_flash_cfi_write+0x260>
 1203dc0:	e0fffa17 	ldw	r3,-24(fp)
 1203dc4:	e0bff517 	ldw	r2,-44(fp)
 1203dc8:	1004913a 	slli	r2,r2,4
 1203dcc:	1885883a 	add	r2,r3,r2
 1203dd0:	10800d04 	addi	r2,r2,52
 1203dd4:	10800017 	ldw	r2,0(r2)
 1203dd8:	e0fffd17 	ldw	r3,-12(fp)
 1203ddc:	18807c16 	blt	r3,r2,1203fd0 <alt_flash_cfi_write+0x254>
 1203de0:	e0fffa17 	ldw	r3,-24(fp)
 1203de4:	e0bff517 	ldw	r2,-44(fp)
 1203de8:	1004913a 	slli	r2,r2,4
 1203dec:	1885883a 	add	r2,r3,r2
 1203df0:	10800d04 	addi	r2,r2,52
 1203df4:	10c00017 	ldw	r3,0(r2)
 1203df8:	e13ffa17 	ldw	r4,-24(fp)
 1203dfc:	e0bff517 	ldw	r2,-44(fp)
 1203e00:	1004913a 	slli	r2,r2,4
 1203e04:	2085883a 	add	r2,r4,r2
 1203e08:	10800e04 	addi	r2,r2,56
 1203e0c:	10800017 	ldw	r2,0(r2)
 1203e10:	1885883a 	add	r2,r3,r2
 1203e14:	e0fffd17 	ldw	r3,-12(fp)
 1203e18:	18806d0e 	bge	r3,r2,1203fd0 <alt_flash_cfi_write+0x254>
 1203e1c:	e0fffa17 	ldw	r3,-24(fp)
 1203e20:	e0bff517 	ldw	r2,-44(fp)
 1203e24:	1004913a 	slli	r2,r2,4
 1203e28:	1885883a 	add	r2,r3,r2
 1203e2c:	10800d04 	addi	r2,r2,52
 1203e30:	10800017 	ldw	r2,0(r2)
 1203e34:	e0bff715 	stw	r2,-36(fp)
 1203e38:	e03ff615 	stw	zero,-40(fp)
 1203e3c:	00005c06 	br	1203fb0 <alt_flash_cfi_write+0x234>
 1203e40:	e0fffd17 	ldw	r3,-12(fp)
 1203e44:	e0bff717 	ldw	r2,-36(fp)
 1203e48:	18804d16 	blt	r3,r2,1203f80 <alt_flash_cfi_write+0x204>
 1203e4c:	e0fffa17 	ldw	r3,-24(fp)
 1203e50:	e0bff517 	ldw	r2,-44(fp)
 1203e54:	10800104 	addi	r2,r2,4
 1203e58:	1004913a 	slli	r2,r2,4
 1203e5c:	1885883a 	add	r2,r3,r2
 1203e60:	10c00017 	ldw	r3,0(r2)
 1203e64:	e0bff717 	ldw	r2,-36(fp)
 1203e68:	1885883a 	add	r2,r3,r2
 1203e6c:	e0fffd17 	ldw	r3,-12(fp)
 1203e70:	1880430e 	bge	r3,r2,1203f80 <alt_flash_cfi_write+0x204>
 1203e74:	e0fffa17 	ldw	r3,-24(fp)
 1203e78:	e0bff517 	ldw	r2,-44(fp)
 1203e7c:	10800104 	addi	r2,r2,4
 1203e80:	1004913a 	slli	r2,r2,4
 1203e84:	1885883a 	add	r2,r3,r2
 1203e88:	10c00017 	ldw	r3,0(r2)
 1203e8c:	e0bff717 	ldw	r2,-36(fp)
 1203e90:	1887883a 	add	r3,r3,r2
 1203e94:	e0bffd17 	ldw	r2,-12(fp)
 1203e98:	1885c83a 	sub	r2,r3,r2
 1203e9c:	e0bffb15 	stw	r2,-20(fp)
 1203ea0:	e0fffb17 	ldw	r3,-20(fp)
 1203ea4:	e0bfff17 	ldw	r2,-4(fp)
 1203ea8:	1880010e 	bge	r3,r2,1203eb0 <alt_flash_cfi_write+0x134>
 1203eac:	1805883a 	mov	r2,r3
 1203eb0:	e0bffb15 	stw	r2,-20(fp)
 1203eb4:	e0bffa17 	ldw	r2,-24(fp)
 1203eb8:	10c00a17 	ldw	r3,40(r2)
 1203ebc:	e0bffd17 	ldw	r2,-12(fp)
 1203ec0:	1887883a 	add	r3,r3,r2
 1203ec4:	e0bffb17 	ldw	r2,-20(fp)
 1203ec8:	e13ffe17 	ldw	r4,-8(fp)
 1203ecc:	180b883a 	mov	r5,r3
 1203ed0:	100d883a 	mov	r6,r2
 1203ed4:	1207ba80 	call	1207ba8 <memcmp>
 1203ed8:	10001326 	beq	r2,zero,1203f28 <alt_flash_cfi_write+0x1ac>
 1203edc:	e0bffa17 	ldw	r2,-24(fp)
 1203ee0:	10800817 	ldw	r2,32(r2)
 1203ee4:	e0fffa17 	ldw	r3,-24(fp)
 1203ee8:	1809883a 	mov	r4,r3
 1203eec:	e17ff717 	ldw	r5,-36(fp)
 1203ef0:	103ee83a 	callr	r2
 1203ef4:	e0bff415 	stw	r2,-48(fp)
 1203ef8:	e0bff417 	ldw	r2,-48(fp)
 1203efc:	10000a1e 	bne	r2,zero,1203f28 <alt_flash_cfi_write+0x1ac>
 1203f00:	e0bffa17 	ldw	r2,-24(fp)
 1203f04:	10800917 	ldw	r2,36(r2)
 1203f08:	e13ffa17 	ldw	r4,-24(fp)
 1203f0c:	e0fffb17 	ldw	r3,-20(fp)
 1203f10:	d8c00015 	stw	r3,0(sp)
 1203f14:	e17ff717 	ldw	r5,-36(fp)
 1203f18:	e1bffd17 	ldw	r6,-12(fp)
 1203f1c:	e1fffe17 	ldw	r7,-8(fp)
 1203f20:	103ee83a 	callr	r2
 1203f24:	e0bff415 	stw	r2,-48(fp)
 1203f28:	e0ffff17 	ldw	r3,-4(fp)
 1203f2c:	e0bffb17 	ldw	r2,-20(fp)
 1203f30:	18802e26 	beq	r3,r2,1203fec <alt_flash_cfi_write+0x270>
 1203f34:	e0bff417 	ldw	r2,-48(fp)
 1203f38:	10002c1e 	bne	r2,zero,1203fec <alt_flash_cfi_write+0x270>
 1203f3c:	e0ffff17 	ldw	r3,-4(fp)
 1203f40:	e0bffb17 	ldw	r2,-20(fp)
 1203f44:	1885c83a 	sub	r2,r3,r2
 1203f48:	e0bfff15 	stw	r2,-4(fp)
 1203f4c:	e0fffa17 	ldw	r3,-24(fp)
 1203f50:	e0bff517 	ldw	r2,-44(fp)
 1203f54:	10800104 	addi	r2,r2,4
 1203f58:	1004913a 	slli	r2,r2,4
 1203f5c:	1885883a 	add	r2,r3,r2
 1203f60:	10c00017 	ldw	r3,0(r2)
 1203f64:	e0bff717 	ldw	r2,-36(fp)
 1203f68:	1885883a 	add	r2,r3,r2
 1203f6c:	e0bffd15 	stw	r2,-12(fp)
 1203f70:	e0bffb17 	ldw	r2,-20(fp)
 1203f74:	e0fffe17 	ldw	r3,-8(fp)
 1203f78:	1885883a 	add	r2,r3,r2
 1203f7c:	e0bffe15 	stw	r2,-8(fp)
 1203f80:	e0fffa17 	ldw	r3,-24(fp)
 1203f84:	e0bff517 	ldw	r2,-44(fp)
 1203f88:	10800104 	addi	r2,r2,4
 1203f8c:	1004913a 	slli	r2,r2,4
 1203f90:	1885883a 	add	r2,r3,r2
 1203f94:	10800017 	ldw	r2,0(r2)
 1203f98:	e0fff717 	ldw	r3,-36(fp)
 1203f9c:	1885883a 	add	r2,r3,r2
 1203fa0:	e0bff715 	stw	r2,-36(fp)
 1203fa4:	e0bff617 	ldw	r2,-40(fp)
 1203fa8:	10800044 	addi	r2,r2,1
 1203fac:	e0bff615 	stw	r2,-40(fp)
 1203fb0:	e0fffa17 	ldw	r3,-24(fp)
 1203fb4:	e0bff517 	ldw	r2,-44(fp)
 1203fb8:	1004913a 	slli	r2,r2,4
 1203fbc:	1885883a 	add	r2,r3,r2
 1203fc0:	10800f04 	addi	r2,r2,60
 1203fc4:	10800017 	ldw	r2,0(r2)
 1203fc8:	e0fff617 	ldw	r3,-40(fp)
 1203fcc:	18bf9c16 	blt	r3,r2,1203e40 <__alt_mem_instruction_tcm+0xff203e40>
 1203fd0:	e0bff517 	ldw	r2,-44(fp)
 1203fd4:	10800044 	addi	r2,r2,1
 1203fd8:	e0bff515 	stw	r2,-44(fp)
 1203fdc:	e0bffa17 	ldw	r2,-24(fp)
 1203fe0:	10800c17 	ldw	r2,48(r2)
 1203fe4:	e0fff517 	ldw	r3,-44(fp)
 1203fe8:	18bf7516 	blt	r3,r2,1203dc0 <__alt_mem_instruction_tcm+0xff203dc0>
 1203fec:	e0bffa17 	ldw	r2,-24(fp)
 1203ff0:	10c00a17 	ldw	r3,40(r2)
 1203ff4:	e0bff917 	ldw	r2,-28(fp)
 1203ff8:	1887883a 	add	r3,r3,r2
 1203ffc:	e0bff817 	ldw	r2,-32(fp)
 1204000:	1809883a 	mov	r4,r3
 1204004:	100b883a 	mov	r5,r2
 1204008:	12067740 	call	1206774 <alt_dcache_flush>
 120400c:	e0bff417 	ldw	r2,-48(fp)
 1204010:	e037883a 	mov	sp,fp
 1204014:	dfc00117 	ldw	ra,4(sp)
 1204018:	df000017 	ldw	fp,0(sp)
 120401c:	dec00204 	addi	sp,sp,8
 1204020:	f800283a 	ret

01204024 <alt_flash_cfi_get_info>:
 1204024:	defffa04 	addi	sp,sp,-24
 1204028:	df000515 	stw	fp,20(sp)
 120402c:	df000504 	addi	fp,sp,20
 1204030:	e13ffd15 	stw	r4,-12(fp)
 1204034:	e17ffe15 	stw	r5,-8(fp)
 1204038:	e1bfff15 	stw	r6,-4(fp)
 120403c:	e03ffb15 	stw	zero,-20(fp)
 1204040:	e0bffd17 	ldw	r2,-12(fp)
 1204044:	e0bffc15 	stw	r2,-16(fp)
 1204048:	e0bffc17 	ldw	r2,-16(fp)
 120404c:	10c00c17 	ldw	r3,48(r2)
 1204050:	e0bfff17 	ldw	r2,-4(fp)
 1204054:	10c00015 	stw	r3,0(r2)
 1204058:	e0bffc17 	ldw	r2,-16(fp)
 120405c:	10800c17 	ldw	r2,48(r2)
 1204060:	1000031e 	bne	r2,zero,1204070 <alt_flash_cfi_get_info+0x4c>
 1204064:	00bffec4 	movi	r2,-5
 1204068:	e0bffb15 	stw	r2,-20(fp)
 120406c:	00000b06 	br	120409c <alt_flash_cfi_get_info+0x78>
 1204070:	e0bffc17 	ldw	r2,-16(fp)
 1204074:	10800c17 	ldw	r2,48(r2)
 1204078:	10800250 	cmplti	r2,r2,9
 120407c:	1000031e 	bne	r2,zero,120408c <alt_flash_cfi_get_info+0x68>
 1204080:	00bffd04 	movi	r2,-12
 1204084:	e0bffb15 	stw	r2,-20(fp)
 1204088:	00000406 	br	120409c <alt_flash_cfi_get_info+0x78>
 120408c:	e0bffc17 	ldw	r2,-16(fp)
 1204090:	10c00d04 	addi	r3,r2,52
 1204094:	e0bffe17 	ldw	r2,-8(fp)
 1204098:	10c00015 	stw	r3,0(r2)
 120409c:	e0bffb17 	ldw	r2,-20(fp)
 12040a0:	e037883a 	mov	sp,fp
 12040a4:	df000017 	ldw	fp,0(sp)
 12040a8:	dec00104 	addi	sp,sp,4
 12040ac:	f800283a 	ret

012040b0 <alt_flash_cfi_read>:
 12040b0:	defff904 	addi	sp,sp,-28
 12040b4:	dfc00615 	stw	ra,24(sp)
 12040b8:	df000515 	stw	fp,20(sp)
 12040bc:	df000504 	addi	fp,sp,20
 12040c0:	e13ffc15 	stw	r4,-16(fp)
 12040c4:	e17ffd15 	stw	r5,-12(fp)
 12040c8:	e1bffe15 	stw	r6,-8(fp)
 12040cc:	e1ffff15 	stw	r7,-4(fp)
 12040d0:	e0bffc17 	ldw	r2,-16(fp)
 12040d4:	e0bffb15 	stw	r2,-20(fp)
 12040d8:	e0bffb17 	ldw	r2,-20(fp)
 12040dc:	10c00a17 	ldw	r3,40(r2)
 12040e0:	e0bffd17 	ldw	r2,-12(fp)
 12040e4:	1887883a 	add	r3,r3,r2
 12040e8:	e0bfff17 	ldw	r2,-4(fp)
 12040ec:	e13ffe17 	ldw	r4,-8(fp)
 12040f0:	180b883a 	mov	r5,r3
 12040f4:	100d883a 	mov	r6,r2
 12040f8:	12013a80 	call	12013a8 <memcpy>
 12040fc:	0005883a 	mov	r2,zero
 1204100:	e037883a 	mov	sp,fp
 1204104:	dfc00117 	ldw	ra,4(sp)
 1204108:	df000017 	ldw	fp,0(sp)
 120410c:	dec00204 	addi	sp,sp,8
 1204110:	f800283a 	ret

01204114 <alt_write_value_to_flash>:
 1204114:	defffa04 	addi	sp,sp,-24
 1204118:	df000515 	stw	fp,20(sp)
 120411c:	df000504 	addi	fp,sp,20
 1204120:	e13ffd15 	stw	r4,-12(fp)
 1204124:	e17ffe15 	stw	r5,-8(fp)
 1204128:	e1bfff15 	stw	r6,-4(fp)
 120412c:	e0bffd17 	ldw	r2,-12(fp)
 1204130:	10802f17 	ldw	r2,188(r2)
 1204134:	10800058 	cmpnei	r2,r2,1
 1204138:	1000091e 	bne	r2,zero,1204160 <alt_write_value_to_flash+0x4c>
 120413c:	e0bffd17 	ldw	r2,-12(fp)
 1204140:	10c00a17 	ldw	r3,40(r2)
 1204144:	e0bffe17 	ldw	r2,-8(fp)
 1204148:	1885883a 	add	r2,r3,r2
 120414c:	e0ffff17 	ldw	r3,-4(fp)
 1204150:	18c00003 	ldbu	r3,0(r3)
 1204154:	18c03fcc 	andi	r3,r3,255
 1204158:	10c00025 	stbio	r3,0(r2)
 120415c:	00003e06 	br	1204258 <alt_write_value_to_flash+0x144>
 1204160:	e0bffd17 	ldw	r2,-12(fp)
 1204164:	10802f17 	ldw	r2,188(r2)
 1204168:	10800098 	cmpnei	r2,r2,2
 120416c:	1000141e 	bne	r2,zero,12041c0 <alt_write_value_to_flash+0xac>
 1204170:	e0bfff17 	ldw	r2,-4(fp)
 1204174:	10800003 	ldbu	r2,0(r2)
 1204178:	10803fcc 	andi	r2,r2,255
 120417c:	e0bffb0d 	sth	r2,-20(fp)
 1204180:	e0bfff17 	ldw	r2,-4(fp)
 1204184:	10800044 	addi	r2,r2,1
 1204188:	10800003 	ldbu	r2,0(r2)
 120418c:	10803fcc 	andi	r2,r2,255
 1204190:	1004923a 	slli	r2,r2,8
 1204194:	1007883a 	mov	r3,r2
 1204198:	e0bffb0b 	ldhu	r2,-20(fp)
 120419c:	1884b03a 	or	r2,r3,r2
 12041a0:	e0bffb0d 	sth	r2,-20(fp)
 12041a4:	e0bffd17 	ldw	r2,-12(fp)
 12041a8:	10c00a17 	ldw	r3,40(r2)
 12041ac:	e0bffe17 	ldw	r2,-8(fp)
 12041b0:	1885883a 	add	r2,r3,r2
 12041b4:	e0fffb0b 	ldhu	r3,-20(fp)
 12041b8:	10c0002d 	sthio	r3,0(r2)
 12041bc:	00002606 	br	1204258 <alt_write_value_to_flash+0x144>
 12041c0:	e0bffd17 	ldw	r2,-12(fp)
 12041c4:	10802f17 	ldw	r2,188(r2)
 12041c8:	10800118 	cmpnei	r2,r2,4
 12041cc:	1000221e 	bne	r2,zero,1204258 <alt_write_value_to_flash+0x144>
 12041d0:	e0bfff17 	ldw	r2,-4(fp)
 12041d4:	10800003 	ldbu	r2,0(r2)
 12041d8:	10803fcc 	andi	r2,r2,255
 12041dc:	e0bffc15 	stw	r2,-16(fp)
 12041e0:	e0bfff17 	ldw	r2,-4(fp)
 12041e4:	10800044 	addi	r2,r2,1
 12041e8:	10800003 	ldbu	r2,0(r2)
 12041ec:	10803fcc 	andi	r2,r2,255
 12041f0:	1004923a 	slli	r2,r2,8
 12041f4:	e0fffc17 	ldw	r3,-16(fp)
 12041f8:	1884b03a 	or	r2,r3,r2
 12041fc:	e0bffc15 	stw	r2,-16(fp)
 1204200:	e0bfff17 	ldw	r2,-4(fp)
 1204204:	10800084 	addi	r2,r2,2
 1204208:	10800003 	ldbu	r2,0(r2)
 120420c:	10803fcc 	andi	r2,r2,255
 1204210:	1004943a 	slli	r2,r2,16
 1204214:	e0fffc17 	ldw	r3,-16(fp)
 1204218:	1884b03a 	or	r2,r3,r2
 120421c:	e0bffc15 	stw	r2,-16(fp)
 1204220:	e0bfff17 	ldw	r2,-4(fp)
 1204224:	108000c4 	addi	r2,r2,3
 1204228:	10800003 	ldbu	r2,0(r2)
 120422c:	10803fcc 	andi	r2,r2,255
 1204230:	1004963a 	slli	r2,r2,24
 1204234:	e0fffc17 	ldw	r3,-16(fp)
 1204238:	1884b03a 	or	r2,r3,r2
 120423c:	e0bffc15 	stw	r2,-16(fp)
 1204240:	e0bffd17 	ldw	r2,-12(fp)
 1204244:	10c00a17 	ldw	r3,40(r2)
 1204248:	e0bffe17 	ldw	r2,-8(fp)
 120424c:	1885883a 	add	r2,r3,r2
 1204250:	e0fffc17 	ldw	r3,-16(fp)
 1204254:	10c00035 	stwio	r3,0(r2)
 1204258:	0001883a 	nop
 120425c:	e037883a 	mov	sp,fp
 1204260:	df000017 	ldw	fp,0(sp)
 1204264:	dec00104 	addi	sp,sp,4
 1204268:	f800283a 	ret

0120426c <alt_flash_program_block>:
 120426c:	defff304 	addi	sp,sp,-52
 1204270:	dfc00c15 	stw	ra,48(sp)
 1204274:	df000b15 	stw	fp,44(sp)
 1204278:	df000b04 	addi	fp,sp,44
 120427c:	e13ffc15 	stw	r4,-16(fp)
 1204280:	e17ffd15 	stw	r5,-12(fp)
 1204284:	e1bffe15 	stw	r6,-8(fp)
 1204288:	e1ffff15 	stw	r7,-4(fp)
 120428c:	e03ff515 	stw	zero,-44(fp)
 1204290:	e0bffc17 	ldw	r2,-16(fp)
 1204294:	10c00a17 	ldw	r3,40(r2)
 1204298:	e0bffd17 	ldw	r2,-12(fp)
 120429c:	1885883a 	add	r2,r3,r2
 12042a0:	1007883a 	mov	r3,r2
 12042a4:	e0bffc17 	ldw	r2,-16(fp)
 12042a8:	10802f17 	ldw	r2,188(r2)
 12042ac:	1809883a 	mov	r4,r3
 12042b0:	100b883a 	mov	r5,r2
 12042b4:	1207f8c0 	call	1207f8c <__modsi3>
 12042b8:	e0bff815 	stw	r2,-32(fp)
 12042bc:	e0bff817 	ldw	r2,-32(fp)
 12042c0:	10003a26 	beq	r2,zero,12043ac <alt_flash_program_block+0x140>
 12042c4:	e0bffc17 	ldw	r2,-16(fp)
 12042c8:	10c02f17 	ldw	r3,188(r2)
 12042cc:	e0bff817 	ldw	r2,-32(fp)
 12042d0:	1885c83a 	sub	r2,r3,r2
 12042d4:	e0bff915 	stw	r2,-28(fp)
 12042d8:	e03ff615 	stw	zero,-40(fp)
 12042dc:	00001206 	br	1204328 <alt_flash_program_block+0xbc>
 12042e0:	e0bffc17 	ldw	r2,-16(fp)
 12042e4:	10800a17 	ldw	r2,40(r2)
 12042e8:	e13ffd17 	ldw	r4,-12(fp)
 12042ec:	e0fff817 	ldw	r3,-32(fp)
 12042f0:	20c9c83a 	sub	r4,r4,r3
 12042f4:	e0fff617 	ldw	r3,-40(fp)
 12042f8:	20c7883a 	add	r3,r4,r3
 12042fc:	10c5883a 	add	r2,r2,r3
 1204300:	10800023 	ldbuio	r2,0(r2)
 1204304:	10803fcc 	andi	r2,r2,255
 1204308:	1009883a 	mov	r4,r2
 120430c:	e0fffb04 	addi	r3,fp,-20
 1204310:	e0bff617 	ldw	r2,-40(fp)
 1204314:	1885883a 	add	r2,r3,r2
 1204318:	11000005 	stb	r4,0(r2)
 120431c:	e0bff617 	ldw	r2,-40(fp)
 1204320:	10800044 	addi	r2,r2,1
 1204324:	e0bff615 	stw	r2,-40(fp)
 1204328:	e0fff617 	ldw	r3,-40(fp)
 120432c:	e0bff817 	ldw	r2,-32(fp)
 1204330:	18bfeb16 	blt	r3,r2,12042e0 <__alt_mem_instruction_tcm+0xff2042e0>
 1204334:	e03ff615 	stw	zero,-40(fp)
 1204338:	00000d06 	br	1204370 <alt_flash_program_block+0x104>
 120433c:	e0fff817 	ldw	r3,-32(fp)
 1204340:	e0bff617 	ldw	r2,-40(fp)
 1204344:	1885883a 	add	r2,r3,r2
 1204348:	e0fff617 	ldw	r3,-40(fp)
 120434c:	e13ffe17 	ldw	r4,-8(fp)
 1204350:	20c7883a 	add	r3,r4,r3
 1204354:	18c00003 	ldbu	r3,0(r3)
 1204358:	e13ffb04 	addi	r4,fp,-20
 120435c:	2085883a 	add	r2,r4,r2
 1204360:	10c00005 	stb	r3,0(r2)
 1204364:	e0bff617 	ldw	r2,-40(fp)
 1204368:	10800044 	addi	r2,r2,1
 120436c:	e0bff615 	stw	r2,-40(fp)
 1204370:	e0fff617 	ldw	r3,-40(fp)
 1204374:	e0bff917 	ldw	r2,-28(fp)
 1204378:	18bff016 	blt	r3,r2,120433c <__alt_mem_instruction_tcm+0xff20433c>
 120437c:	e0fffd17 	ldw	r3,-12(fp)
 1204380:	e0bff817 	ldw	r2,-32(fp)
 1204384:	188bc83a 	sub	r5,r3,r2
 1204388:	e0fffb04 	addi	r3,fp,-20
 120438c:	e0800217 	ldw	r2,8(fp)
 1204390:	e13ffc17 	ldw	r4,-16(fp)
 1204394:	180d883a 	mov	r6,r3
 1204398:	103ee83a 	callr	r2
 120439c:	e0bff515 	stw	r2,-44(fp)
 12043a0:	e0bff917 	ldw	r2,-28(fp)
 12043a4:	e0bff615 	stw	r2,-40(fp)
 12043a8:	00000106 	br	12043b0 <alt_flash_program_block+0x144>
 12043ac:	e03ff615 	stw	zero,-40(fp)
 12043b0:	e0fffd17 	ldw	r3,-12(fp)
 12043b4:	e0bfff17 	ldw	r2,-4(fp)
 12043b8:	1887883a 	add	r3,r3,r2
 12043bc:	e0bffc17 	ldw	r2,-16(fp)
 12043c0:	10802f17 	ldw	r2,188(r2)
 12043c4:	1809883a 	mov	r4,r3
 12043c8:	100b883a 	mov	r5,r2
 12043cc:	1207f8c0 	call	1207f8c <__modsi3>
 12043d0:	e0bffa15 	stw	r2,-24(fp)
 12043d4:	00001006 	br	1204418 <alt_flash_program_block+0x1ac>
 12043d8:	e0fffd17 	ldw	r3,-12(fp)
 12043dc:	e0bff617 	ldw	r2,-40(fp)
 12043e0:	188b883a 	add	r5,r3,r2
 12043e4:	e0bff617 	ldw	r2,-40(fp)
 12043e8:	e0fffe17 	ldw	r3,-8(fp)
 12043ec:	1887883a 	add	r3,r3,r2
 12043f0:	e0800217 	ldw	r2,8(fp)
 12043f4:	e13ffc17 	ldw	r4,-16(fp)
 12043f8:	180d883a 	mov	r6,r3
 12043fc:	103ee83a 	callr	r2
 1204400:	e0bff515 	stw	r2,-44(fp)
 1204404:	e0bffc17 	ldw	r2,-16(fp)
 1204408:	10802f17 	ldw	r2,188(r2)
 120440c:	e0fff617 	ldw	r3,-40(fp)
 1204410:	1885883a 	add	r2,r3,r2
 1204414:	e0bff615 	stw	r2,-40(fp)
 1204418:	e0bff517 	ldw	r2,-44(fp)
 120441c:	1000051e 	bne	r2,zero,1204434 <alt_flash_program_block+0x1c8>
 1204420:	e0ffff17 	ldw	r3,-4(fp)
 1204424:	e0bffa17 	ldw	r2,-24(fp)
 1204428:	1885c83a 	sub	r2,r3,r2
 120442c:	e0fff617 	ldw	r3,-40(fp)
 1204430:	18bfe916 	blt	r3,r2,12043d8 <__alt_mem_instruction_tcm+0xff2043d8>
 1204434:	e0bffa17 	ldw	r2,-24(fp)
 1204438:	10003b26 	beq	r2,zero,1204528 <alt_flash_program_block+0x2bc>
 120443c:	e0bff517 	ldw	r2,-44(fp)
 1204440:	1000391e 	bne	r2,zero,1204528 <alt_flash_program_block+0x2bc>
 1204444:	e0bffc17 	ldw	r2,-16(fp)
 1204448:	10c02f17 	ldw	r3,188(r2)
 120444c:	e0bffa17 	ldw	r2,-24(fp)
 1204450:	1885c83a 	sub	r2,r3,r2
 1204454:	e0bff815 	stw	r2,-32(fp)
 1204458:	e03ff715 	stw	zero,-36(fp)
 120445c:	00000d06 	br	1204494 <alt_flash_program_block+0x228>
 1204460:	e0fff617 	ldw	r3,-40(fp)
 1204464:	e0bff717 	ldw	r2,-36(fp)
 1204468:	1885883a 	add	r2,r3,r2
 120446c:	e0fffe17 	ldw	r3,-8(fp)
 1204470:	1885883a 	add	r2,r3,r2
 1204474:	10c00003 	ldbu	r3,0(r2)
 1204478:	e13ffb04 	addi	r4,fp,-20
 120447c:	e0bff717 	ldw	r2,-36(fp)
 1204480:	2085883a 	add	r2,r4,r2
 1204484:	10c00005 	stb	r3,0(r2)
 1204488:	e0bff717 	ldw	r2,-36(fp)
 120448c:	10800044 	addi	r2,r2,1
 1204490:	e0bff715 	stw	r2,-36(fp)
 1204494:	e0fff717 	ldw	r3,-36(fp)
 1204498:	e0bffa17 	ldw	r2,-24(fp)
 120449c:	18bff016 	blt	r3,r2,1204460 <__alt_mem_instruction_tcm+0xff204460>
 12044a0:	e03ff715 	stw	zero,-36(fp)
 12044a4:	00001406 	br	12044f8 <alt_flash_program_block+0x28c>
 12044a8:	e0fffa17 	ldw	r3,-24(fp)
 12044ac:	e0bff717 	ldw	r2,-36(fp)
 12044b0:	1885883a 	add	r2,r3,r2
 12044b4:	e0fffc17 	ldw	r3,-16(fp)
 12044b8:	18c00a17 	ldw	r3,40(r3)
 12044bc:	e17ffd17 	ldw	r5,-12(fp)
 12044c0:	e13fff17 	ldw	r4,-4(fp)
 12044c4:	290b883a 	add	r5,r5,r4
 12044c8:	e13ff717 	ldw	r4,-36(fp)
 12044cc:	2909883a 	add	r4,r5,r4
 12044d0:	1907883a 	add	r3,r3,r4
 12044d4:	18c00023 	ldbuio	r3,0(r3)
 12044d8:	18c03fcc 	andi	r3,r3,255
 12044dc:	1809883a 	mov	r4,r3
 12044e0:	e0fffb04 	addi	r3,fp,-20
 12044e4:	1885883a 	add	r2,r3,r2
 12044e8:	11000005 	stb	r4,0(r2)
 12044ec:	e0bff717 	ldw	r2,-36(fp)
 12044f0:	10800044 	addi	r2,r2,1
 12044f4:	e0bff715 	stw	r2,-36(fp)
 12044f8:	e0fff717 	ldw	r3,-36(fp)
 12044fc:	e0bff817 	ldw	r2,-32(fp)
 1204500:	18bfe916 	blt	r3,r2,12044a8 <__alt_mem_instruction_tcm+0xff2044a8>
 1204504:	e0fffd17 	ldw	r3,-12(fp)
 1204508:	e0bff617 	ldw	r2,-40(fp)
 120450c:	188b883a 	add	r5,r3,r2
 1204510:	e0fffb04 	addi	r3,fp,-20
 1204514:	e0800217 	ldw	r2,8(fp)
 1204518:	e13ffc17 	ldw	r4,-16(fp)
 120451c:	180d883a 	mov	r6,r3
 1204520:	103ee83a 	callr	r2
 1204524:	e0bff515 	stw	r2,-44(fp)
 1204528:	e0bff517 	ldw	r2,-44(fp)
 120452c:	e037883a 	mov	sp,fp
 1204530:	dfc00117 	ldw	ra,4(sp)
 1204534:	df000017 	ldw	fp,0(sp)
 1204538:	dec00204 	addi	sp,sp,8
 120453c:	f800283a 	ret

01204540 <alt_read_query_entry_8bit>:
 1204540:	defffd04 	addi	sp,sp,-12
 1204544:	df000215 	stw	fp,8(sp)
 1204548:	df000204 	addi	fp,sp,8
 120454c:	e13ffe15 	stw	r4,-8(fp)
 1204550:	e17fff15 	stw	r5,-4(fp)
 1204554:	e0bffe17 	ldw	r2,-8(fp)
 1204558:	10c00a17 	ldw	r3,40(r2)
 120455c:	e0bfff17 	ldw	r2,-4(fp)
 1204560:	1885883a 	add	r2,r3,r2
 1204564:	10800023 	ldbuio	r2,0(r2)
 1204568:	10803fcc 	andi	r2,r2,255
 120456c:	e037883a 	mov	sp,fp
 1204570:	df000017 	ldw	fp,0(sp)
 1204574:	dec00104 	addi	sp,sp,4
 1204578:	f800283a 	ret

0120457c <alt_read_query_entry_16bit>:
 120457c:	defffd04 	addi	sp,sp,-12
 1204580:	df000215 	stw	fp,8(sp)
 1204584:	df000204 	addi	fp,sp,8
 1204588:	e13ffe15 	stw	r4,-8(fp)
 120458c:	e17fff15 	stw	r5,-4(fp)
 1204590:	e0bffe17 	ldw	r2,-8(fp)
 1204594:	10c00a17 	ldw	r3,40(r2)
 1204598:	e0bfff17 	ldw	r2,-4(fp)
 120459c:	1085883a 	add	r2,r2,r2
 12045a0:	1885883a 	add	r2,r3,r2
 12045a4:	1080002b 	ldhuio	r2,0(r2)
 12045a8:	10bfffcc 	andi	r2,r2,65535
 12045ac:	e037883a 	mov	sp,fp
 12045b0:	df000017 	ldw	fp,0(sp)
 12045b4:	dec00104 	addi	sp,sp,4
 12045b8:	f800283a 	ret

012045bc <alt_read_query_entry_32bit>:
 12045bc:	defffd04 	addi	sp,sp,-12
 12045c0:	df000215 	stw	fp,8(sp)
 12045c4:	df000204 	addi	fp,sp,8
 12045c8:	e13ffe15 	stw	r4,-8(fp)
 12045cc:	e17fff15 	stw	r5,-4(fp)
 12045d0:	e0bffe17 	ldw	r2,-8(fp)
 12045d4:	10c00a17 	ldw	r3,40(r2)
 12045d8:	e0bfff17 	ldw	r2,-4(fp)
 12045dc:	1085883a 	add	r2,r2,r2
 12045e0:	1085883a 	add	r2,r2,r2
 12045e4:	1885883a 	add	r2,r3,r2
 12045e8:	10800037 	ldwio	r2,0(r2)
 12045ec:	e037883a 	mov	sp,fp
 12045f0:	df000017 	ldw	fp,0(sp)
 12045f4:	dec00104 	addi	sp,sp,4
 12045f8:	f800283a 	ret

012045fc <alt_write_flash_command_8bit_device_8bit_mode>:
 12045fc:	defffc04 	addi	sp,sp,-16
 1204600:	df000315 	stw	fp,12(sp)
 1204604:	df000304 	addi	fp,sp,12
 1204608:	e13ffd15 	stw	r4,-12(fp)
 120460c:	e17ffe15 	stw	r5,-8(fp)
 1204610:	3005883a 	mov	r2,r6
 1204614:	e0bfff05 	stb	r2,-4(fp)
 1204618:	e0bffe17 	ldw	r2,-8(fp)
 120461c:	e0fffd17 	ldw	r3,-12(fp)
 1204620:	1885883a 	add	r2,r3,r2
 1204624:	e0ffff03 	ldbu	r3,-4(fp)
 1204628:	10c00025 	stbio	r3,0(r2)
 120462c:	0001883a 	nop
 1204630:	e037883a 	mov	sp,fp
 1204634:	df000017 	ldw	fp,0(sp)
 1204638:	dec00104 	addi	sp,sp,4
 120463c:	f800283a 	ret

01204640 <alt_write_flash_command_16bit_device_8bit_mode>:
 1204640:	defffc04 	addi	sp,sp,-16
 1204644:	df000315 	stw	fp,12(sp)
 1204648:	df000304 	addi	fp,sp,12
 120464c:	e13ffd15 	stw	r4,-12(fp)
 1204650:	e17ffe15 	stw	r5,-8(fp)
 1204654:	3005883a 	mov	r2,r6
 1204658:	e0bfff05 	stb	r2,-4(fp)
 120465c:	e0bffe17 	ldw	r2,-8(fp)
 1204660:	1080004c 	andi	r2,r2,1
 1204664:	10000826 	beq	r2,zero,1204688 <alt_write_flash_command_16bit_device_8bit_mode+0x48>
 1204668:	e0bffe17 	ldw	r2,-8(fp)
 120466c:	1085883a 	add	r2,r2,r2
 1204670:	1007883a 	mov	r3,r2
 1204674:	e0bffd17 	ldw	r2,-12(fp)
 1204678:	10c5883a 	add	r2,r2,r3
 120467c:	e0ffff03 	ldbu	r3,-4(fp)
 1204680:	10c00025 	stbio	r3,0(r2)
 1204684:	00000706 	br	12046a4 <alt_write_flash_command_16bit_device_8bit_mode+0x64>
 1204688:	e0bffe17 	ldw	r2,-8(fp)
 120468c:	1085883a 	add	r2,r2,r2
 1204690:	10800044 	addi	r2,r2,1
 1204694:	e0fffd17 	ldw	r3,-12(fp)
 1204698:	1885883a 	add	r2,r3,r2
 120469c:	e0ffff03 	ldbu	r3,-4(fp)
 12046a0:	10c00025 	stbio	r3,0(r2)
 12046a4:	0001883a 	nop
 12046a8:	e037883a 	mov	sp,fp
 12046ac:	df000017 	ldw	fp,0(sp)
 12046b0:	dec00104 	addi	sp,sp,4
 12046b4:	f800283a 	ret

012046b8 <alt_write_flash_command_32bit_device_8bit_mode>:
 12046b8:	defffc04 	addi	sp,sp,-16
 12046bc:	df000315 	stw	fp,12(sp)
 12046c0:	df000304 	addi	fp,sp,12
 12046c4:	e13ffd15 	stw	r4,-12(fp)
 12046c8:	e17ffe15 	stw	r5,-8(fp)
 12046cc:	3005883a 	mov	r2,r6
 12046d0:	e0bfff05 	stb	r2,-4(fp)
 12046d4:	e0bffe17 	ldw	r2,-8(fp)
 12046d8:	1085883a 	add	r2,r2,r2
 12046dc:	1085883a 	add	r2,r2,r2
 12046e0:	1007883a 	mov	r3,r2
 12046e4:	e0bffd17 	ldw	r2,-12(fp)
 12046e8:	10c5883a 	add	r2,r2,r3
 12046ec:	e0ffff03 	ldbu	r3,-4(fp)
 12046f0:	10c00025 	stbio	r3,0(r2)
 12046f4:	0001883a 	nop
 12046f8:	e037883a 	mov	sp,fp
 12046fc:	df000017 	ldw	fp,0(sp)
 1204700:	dec00104 	addi	sp,sp,4
 1204704:	f800283a 	ret

01204708 <alt_write_flash_command_16bit_device_16bit_mode>:
 1204708:	defffc04 	addi	sp,sp,-16
 120470c:	df000315 	stw	fp,12(sp)
 1204710:	df000304 	addi	fp,sp,12
 1204714:	e13ffd15 	stw	r4,-12(fp)
 1204718:	e17ffe15 	stw	r5,-8(fp)
 120471c:	3005883a 	mov	r2,r6
 1204720:	e0bfff05 	stb	r2,-4(fp)
 1204724:	e0bffe17 	ldw	r2,-8(fp)
 1204728:	1085883a 	add	r2,r2,r2
 120472c:	1007883a 	mov	r3,r2
 1204730:	e0bffd17 	ldw	r2,-12(fp)
 1204734:	10c5883a 	add	r2,r2,r3
 1204738:	e0ffff03 	ldbu	r3,-4(fp)
 120473c:	10c0002d 	sthio	r3,0(r2)
 1204740:	0001883a 	nop
 1204744:	e037883a 	mov	sp,fp
 1204748:	df000017 	ldw	fp,0(sp)
 120474c:	dec00104 	addi	sp,sp,4
 1204750:	f800283a 	ret

01204754 <alt_write_flash_command_32bit_device_16bit_mode>:
 1204754:	defffc04 	addi	sp,sp,-16
 1204758:	df000315 	stw	fp,12(sp)
 120475c:	df000304 	addi	fp,sp,12
 1204760:	e13ffd15 	stw	r4,-12(fp)
 1204764:	e17ffe15 	stw	r5,-8(fp)
 1204768:	3005883a 	mov	r2,r6
 120476c:	e0bfff05 	stb	r2,-4(fp)
 1204770:	e0bffe17 	ldw	r2,-8(fp)
 1204774:	1085883a 	add	r2,r2,r2
 1204778:	1085883a 	add	r2,r2,r2
 120477c:	1007883a 	mov	r3,r2
 1204780:	e0bffd17 	ldw	r2,-12(fp)
 1204784:	10c5883a 	add	r2,r2,r3
 1204788:	e0ffff03 	ldbu	r3,-4(fp)
 120478c:	10c0002d 	sthio	r3,0(r2)
 1204790:	0001883a 	nop
 1204794:	e037883a 	mov	sp,fp
 1204798:	df000017 	ldw	fp,0(sp)
 120479c:	dec00104 	addi	sp,sp,4
 12047a0:	f800283a 	ret

012047a4 <alt_write_flash_command_32bit_device_32bit_mode>:
 12047a4:	defffc04 	addi	sp,sp,-16
 12047a8:	df000315 	stw	fp,12(sp)
 12047ac:	df000304 	addi	fp,sp,12
 12047b0:	e13ffd15 	stw	r4,-12(fp)
 12047b4:	e17ffe15 	stw	r5,-8(fp)
 12047b8:	3005883a 	mov	r2,r6
 12047bc:	e0bfff05 	stb	r2,-4(fp)
 12047c0:	e0bffe17 	ldw	r2,-8(fp)
 12047c4:	1085883a 	add	r2,r2,r2
 12047c8:	1085883a 	add	r2,r2,r2
 12047cc:	1007883a 	mov	r3,r2
 12047d0:	e0bffd17 	ldw	r2,-12(fp)
 12047d4:	10c5883a 	add	r2,r2,r3
 12047d8:	e0ffff03 	ldbu	r3,-4(fp)
 12047dc:	10c00035 	stwio	r3,0(r2)
 12047e0:	0001883a 	nop
 12047e4:	e037883a 	mov	sp,fp
 12047e8:	df000017 	ldw	fp,0(sp)
 12047ec:	dec00104 	addi	sp,sp,4
 12047f0:	f800283a 	ret

012047f4 <alt_write_native_8bit>:
 12047f4:	defffd04 	addi	sp,sp,-12
 12047f8:	df000215 	stw	fp,8(sp)
 12047fc:	df000204 	addi	fp,sp,8
 1204800:	e13ffe15 	stw	r4,-8(fp)
 1204804:	e17fff15 	stw	r5,-4(fp)
 1204808:	e0bfff17 	ldw	r2,-4(fp)
 120480c:	10c03fcc 	andi	r3,r2,255
 1204810:	e0bffe17 	ldw	r2,-8(fp)
 1204814:	10c00025 	stbio	r3,0(r2)
 1204818:	0001883a 	nop
 120481c:	e037883a 	mov	sp,fp
 1204820:	df000017 	ldw	fp,0(sp)
 1204824:	dec00104 	addi	sp,sp,4
 1204828:	f800283a 	ret

0120482c <alt_write_native_16bit>:
 120482c:	defffd04 	addi	sp,sp,-12
 1204830:	df000215 	stw	fp,8(sp)
 1204834:	df000204 	addi	fp,sp,8
 1204838:	e13ffe15 	stw	r4,-8(fp)
 120483c:	e17fff15 	stw	r5,-4(fp)
 1204840:	e0bfff17 	ldw	r2,-4(fp)
 1204844:	10ffffcc 	andi	r3,r2,65535
 1204848:	e0bffe17 	ldw	r2,-8(fp)
 120484c:	10c0002d 	sthio	r3,0(r2)
 1204850:	0001883a 	nop
 1204854:	e037883a 	mov	sp,fp
 1204858:	df000017 	ldw	fp,0(sp)
 120485c:	dec00104 	addi	sp,sp,4
 1204860:	f800283a 	ret

01204864 <alt_write_native_32bit>:
 1204864:	defffd04 	addi	sp,sp,-12
 1204868:	df000215 	stw	fp,8(sp)
 120486c:	df000204 	addi	fp,sp,8
 1204870:	e13ffe15 	stw	r4,-8(fp)
 1204874:	e17fff15 	stw	r5,-4(fp)
 1204878:	e0ffff17 	ldw	r3,-4(fp)
 120487c:	e0bffe17 	ldw	r2,-8(fp)
 1204880:	10c00035 	stwio	r3,0(r2)
 1204884:	0001883a 	nop
 1204888:	e037883a 	mov	sp,fp
 120488c:	df000017 	ldw	fp,0(sp)
 1204890:	dec00104 	addi	sp,sp,4
 1204894:	f800283a 	ret

01204898 <alt_set_flash_width_func>:
 1204898:	defffd04 	addi	sp,sp,-12
 120489c:	df000215 	stw	fp,8(sp)
 12048a0:	df000204 	addi	fp,sp,8
 12048a4:	e13fff15 	stw	r4,-4(fp)
 12048a8:	e03ffe15 	stw	zero,-8(fp)
 12048ac:	e0bfff17 	ldw	r2,-4(fp)
 12048b0:	10802f17 	ldw	r2,188(r2)
 12048b4:	10c000a0 	cmpeqi	r3,r2,2
 12048b8:	1800241e 	bne	r3,zero,120494c <alt_set_flash_width_func+0xb4>
 12048bc:	10c00120 	cmpeqi	r3,r2,4
 12048c0:	1800391e 	bne	r3,zero,12049a8 <alt_set_flash_width_func+0x110>
 12048c4:	10800060 	cmpeqi	r2,r2,1
 12048c8:	10004026 	beq	r2,zero,12049cc <alt_set_flash_width_func+0x134>
 12048cc:	e0ffff17 	ldw	r3,-4(fp)
 12048d0:	00804834 	movhi	r2,288
 12048d4:	1091fd04 	addi	r2,r2,18420
 12048d8:	18803615 	stw	r2,216(r3)
 12048dc:	e0bfff17 	ldw	r2,-4(fp)
 12048e0:	10803017 	ldw	r2,192(r2)
 12048e4:	10800058 	cmpnei	r2,r2,1
 12048e8:	1000051e 	bne	r2,zero,1204900 <alt_set_flash_width_func+0x68>
 12048ec:	e0ffff17 	ldw	r3,-4(fp)
 12048f0:	00804834 	movhi	r2,288
 12048f4:	10917f04 	addi	r2,r2,17916
 12048f8:	18803415 	stw	r2,208(r3)
 12048fc:	00001206 	br	1204948 <alt_set_flash_width_func+0xb0>
 1204900:	e0bfff17 	ldw	r2,-4(fp)
 1204904:	10803017 	ldw	r2,192(r2)
 1204908:	10800098 	cmpnei	r2,r2,2
 120490c:	1000051e 	bne	r2,zero,1204924 <alt_set_flash_width_func+0x8c>
 1204910:	e0ffff17 	ldw	r3,-4(fp)
 1204914:	00804834 	movhi	r2,288
 1204918:	10919004 	addi	r2,r2,17984
 120491c:	18803415 	stw	r2,208(r3)
 1204920:	00000906 	br	1204948 <alt_set_flash_width_func+0xb0>
 1204924:	e0bfff17 	ldw	r2,-4(fp)
 1204928:	10803017 	ldw	r2,192(r2)
 120492c:	10800118 	cmpnei	r2,r2,4
 1204930:	1000051e 	bne	r2,zero,1204948 <alt_set_flash_width_func+0xb0>
 1204934:	e0ffff17 	ldw	r3,-4(fp)
 1204938:	00804834 	movhi	r2,288
 120493c:	1091ae04 	addi	r2,r2,18104
 1204940:	18803415 	stw	r2,208(r3)
 1204944:	00002306 	br	12049d4 <alt_set_flash_width_func+0x13c>
 1204948:	00002206 	br	12049d4 <alt_set_flash_width_func+0x13c>
 120494c:	e0ffff17 	ldw	r3,-4(fp)
 1204950:	00804834 	movhi	r2,288
 1204954:	10920b04 	addi	r2,r2,18476
 1204958:	18803615 	stw	r2,216(r3)
 120495c:	e0bfff17 	ldw	r2,-4(fp)
 1204960:	10803017 	ldw	r2,192(r2)
 1204964:	10800098 	cmpnei	r2,r2,2
 1204968:	1000051e 	bne	r2,zero,1204980 <alt_set_flash_width_func+0xe8>
 120496c:	e0ffff17 	ldw	r3,-4(fp)
 1204970:	00804834 	movhi	r2,288
 1204974:	1091c204 	addi	r2,r2,18184
 1204978:	18803415 	stw	r2,208(r3)
 120497c:	00000906 	br	12049a4 <alt_set_flash_width_func+0x10c>
 1204980:	e0bfff17 	ldw	r2,-4(fp)
 1204984:	10803017 	ldw	r2,192(r2)
 1204988:	10800118 	cmpnei	r2,r2,4
 120498c:	1000051e 	bne	r2,zero,12049a4 <alt_set_flash_width_func+0x10c>
 1204990:	e0ffff17 	ldw	r3,-4(fp)
 1204994:	00804834 	movhi	r2,288
 1204998:	1091d504 	addi	r2,r2,18260
 120499c:	18803415 	stw	r2,208(r3)
 12049a0:	00000c06 	br	12049d4 <alt_set_flash_width_func+0x13c>
 12049a4:	00000b06 	br	12049d4 <alt_set_flash_width_func+0x13c>
 12049a8:	e0ffff17 	ldw	r3,-4(fp)
 12049ac:	00804834 	movhi	r2,288
 12049b0:	10921904 	addi	r2,r2,18532
 12049b4:	18803615 	stw	r2,216(r3)
 12049b8:	e0ffff17 	ldw	r3,-4(fp)
 12049bc:	00804834 	movhi	r2,288
 12049c0:	1091e904 	addi	r2,r2,18340
 12049c4:	18803415 	stw	r2,208(r3)
 12049c8:	00000206 	br	12049d4 <alt_set_flash_width_func+0x13c>
 12049cc:	00bffcc4 	movi	r2,-13
 12049d0:	e0bffe15 	stw	r2,-8(fp)
 12049d4:	e0bffe17 	ldw	r2,-8(fp)
 12049d8:	1000191e 	bne	r2,zero,1204a40 <alt_set_flash_width_func+0x1a8>
 12049dc:	e0bfff17 	ldw	r2,-4(fp)
 12049e0:	10803017 	ldw	r2,192(r2)
 12049e4:	10c000a0 	cmpeqi	r3,r2,2
 12049e8:	1800091e 	bne	r3,zero,1204a10 <alt_set_flash_width_func+0x178>
 12049ec:	10c00120 	cmpeqi	r3,r2,4
 12049f0:	18000c1e 	bne	r3,zero,1204a24 <alt_set_flash_width_func+0x18c>
 12049f4:	10800060 	cmpeqi	r2,r2,1
 12049f8:	10000f26 	beq	r2,zero,1204a38 <alt_set_flash_width_func+0x1a0>
 12049fc:	e0ffff17 	ldw	r3,-4(fp)
 1204a00:	00804834 	movhi	r2,288
 1204a04:	10915004 	addi	r2,r2,17728
 1204a08:	18803515 	stw	r2,212(r3)
 1204a0c:	00000c06 	br	1204a40 <alt_set_flash_width_func+0x1a8>
 1204a10:	e0ffff17 	ldw	r3,-4(fp)
 1204a14:	00804834 	movhi	r2,288
 1204a18:	10915f04 	addi	r2,r2,17788
 1204a1c:	18803515 	stw	r2,212(r3)
 1204a20:	00000706 	br	1204a40 <alt_set_flash_width_func+0x1a8>
 1204a24:	e0ffff17 	ldw	r3,-4(fp)
 1204a28:	00804834 	movhi	r2,288
 1204a2c:	10916f04 	addi	r2,r2,17852
 1204a30:	18803515 	stw	r2,212(r3)
 1204a34:	00000206 	br	1204a40 <alt_set_flash_width_func+0x1a8>
 1204a38:	00bffcc4 	movi	r2,-13
 1204a3c:	e0bffe15 	stw	r2,-8(fp)
 1204a40:	e0bffe17 	ldw	r2,-8(fp)
 1204a44:	e037883a 	mov	sp,fp
 1204a48:	df000017 	ldw	fp,0(sp)
 1204a4c:	dec00104 	addi	sp,sp,4
 1204a50:	f800283a 	ret

01204a54 <alt_set_flash_algorithm_func>:
 1204a54:	defffd04 	addi	sp,sp,-12
 1204a58:	df000215 	stw	fp,8(sp)
 1204a5c:	df000204 	addi	fp,sp,8
 1204a60:	e13fff15 	stw	r4,-4(fp)
 1204a64:	e03ffe15 	stw	zero,-8(fp)
 1204a68:	e0bfff17 	ldw	r2,-4(fp)
 1204a6c:	10802e17 	ldw	r2,184(r2)
 1204a70:	10c000a0 	cmpeqi	r3,r2,2
 1204a74:	1800051e 	bne	r3,zero,1204a8c <alt_set_flash_algorithm_func+0x38>
 1204a78:	10c000e0 	cmpeqi	r3,r2,3
 1204a7c:	18000c1e 	bne	r3,zero,1204ab0 <alt_set_flash_algorithm_func+0x5c>
 1204a80:	10800060 	cmpeqi	r2,r2,1
 1204a84:	10000a1e 	bne	r2,zero,1204ab0 <alt_set_flash_algorithm_func+0x5c>
 1204a88:	00001206 	br	1204ad4 <alt_set_flash_algorithm_func+0x80>
 1204a8c:	e0ffff17 	ldw	r3,-4(fp)
 1204a90:	00804834 	movhi	r2,288
 1204a94:	109c2e04 	addi	r2,r2,28856
 1204a98:	18800815 	stw	r2,32(r3)
 1204a9c:	e0ffff17 	ldw	r3,-4(fp)
 1204aa0:	00804834 	movhi	r2,288
 1204aa4:	109c1404 	addi	r2,r2,28752
 1204aa8:	18800915 	stw	r2,36(r3)
 1204aac:	00000b06 	br	1204adc <alt_set_flash_algorithm_func+0x88>
 1204ab0:	e0ffff17 	ldw	r3,-4(fp)
 1204ab4:	00804834 	movhi	r2,288
 1204ab8:	109d4c04 	addi	r2,r2,30000
 1204abc:	18800815 	stw	r2,32(r3)
 1204ac0:	e0ffff17 	ldw	r3,-4(fp)
 1204ac4:	00804834 	movhi	r2,288
 1204ac8:	109d2c04 	addi	r2,r2,29872
 1204acc:	18800915 	stw	r2,36(r3)
 1204ad0:	00000206 	br	1204adc <alt_set_flash_algorithm_func+0x88>
 1204ad4:	00bffec4 	movi	r2,-5
 1204ad8:	e0bffe15 	stw	r2,-8(fp)
 1204adc:	e0bffe17 	ldw	r2,-8(fp)
 1204ae0:	e037883a 	mov	sp,fp
 1204ae4:	df000017 	ldw	fp,0(sp)
 1204ae8:	dec00104 	addi	sp,sp,4
 1204aec:	f800283a 	ret

01204af0 <alt_read_16bit_query_entry>:
 1204af0:	defffb04 	addi	sp,sp,-20
 1204af4:	dfc00415 	stw	ra,16(sp)
 1204af8:	df000315 	stw	fp,12(sp)
 1204afc:	df000304 	addi	fp,sp,12
 1204b00:	e13ffe15 	stw	r4,-8(fp)
 1204b04:	e17fff15 	stw	r5,-4(fp)
 1204b08:	e0bffe17 	ldw	r2,-8(fp)
 1204b0c:	10803517 	ldw	r2,212(r2)
 1204b10:	e13ffe17 	ldw	r4,-8(fp)
 1204b14:	e17fff17 	ldw	r5,-4(fp)
 1204b18:	103ee83a 	callr	r2
 1204b1c:	10803fcc 	andi	r2,r2,255
 1204b20:	e0bffd0d 	sth	r2,-12(fp)
 1204b24:	e0bffe17 	ldw	r2,-8(fp)
 1204b28:	10803517 	ldw	r2,212(r2)
 1204b2c:	e0ffff17 	ldw	r3,-4(fp)
 1204b30:	18c00044 	addi	r3,r3,1
 1204b34:	e13ffe17 	ldw	r4,-8(fp)
 1204b38:	180b883a 	mov	r5,r3
 1204b3c:	103ee83a 	callr	r2
 1204b40:	10803fcc 	andi	r2,r2,255
 1204b44:	1004923a 	slli	r2,r2,8
 1204b48:	1007883a 	mov	r3,r2
 1204b4c:	e0bffd0b 	ldhu	r2,-12(fp)
 1204b50:	1884b03a 	or	r2,r3,r2
 1204b54:	e0bffd0d 	sth	r2,-12(fp)
 1204b58:	e0bffd0b 	ldhu	r2,-12(fp)
 1204b5c:	e037883a 	mov	sp,fp
 1204b60:	dfc00117 	ldw	ra,4(sp)
 1204b64:	df000017 	ldw	fp,0(sp)
 1204b68:	dec00204 	addi	sp,sp,8
 1204b6c:	f800283a 	ret

01204b70 <alt_read_cfi_table>:
 1204b70:	defff304 	addi	sp,sp,-52
 1204b74:	dfc00c15 	stw	ra,48(sp)
 1204b78:	df000b15 	stw	fp,44(sp)
 1204b7c:	df000b04 	addi	fp,sp,44
 1204b80:	e13fff15 	stw	r4,-4(fp)
 1204b84:	e03ff715 	stw	zero,-36(fp)
 1204b88:	e03ff815 	stw	zero,-32(fp)
 1204b8c:	e03ff915 	stw	zero,-28(fp)
 1204b90:	e13fff17 	ldw	r4,-4(fp)
 1204b94:	12058bc0 	call	12058bc <alt_check_primary_table>
 1204b98:	e0bff715 	stw	r2,-36(fp)
 1204b9c:	e0bff717 	ldw	r2,-36(fp)
 1204ba0:	10015f1e 	bne	r2,zero,1205120 <alt_read_cfi_table+0x5b0>
 1204ba4:	e0bfff17 	ldw	r2,-4(fp)
 1204ba8:	10803517 	ldw	r2,212(r2)
 1204bac:	e13fff17 	ldw	r4,-4(fp)
 1204bb0:	014004c4 	movi	r5,19
 1204bb4:	103ee83a 	callr	r2
 1204bb8:	10c03fcc 	andi	r3,r2,255
 1204bbc:	e0bfff17 	ldw	r2,-4(fp)
 1204bc0:	10c02e15 	stw	r3,184(r2)
 1204bc4:	e0bfff17 	ldw	r2,-4(fp)
 1204bc8:	10803517 	ldw	r2,212(r2)
 1204bcc:	e13fff17 	ldw	r4,-4(fp)
 1204bd0:	014007c4 	movi	r5,31
 1204bd4:	103ee83a 	callr	r2
 1204bd8:	10803fcc 	andi	r2,r2,255
 1204bdc:	e0bffa15 	stw	r2,-24(fp)
 1204be0:	e0bfff17 	ldw	r2,-4(fp)
 1204be4:	10803517 	ldw	r2,212(r2)
 1204be8:	e13fff17 	ldw	r4,-4(fp)
 1204bec:	014008c4 	movi	r5,35
 1204bf0:	103ee83a 	callr	r2
 1204bf4:	10803fcc 	andi	r2,r2,255
 1204bf8:	e0bffb15 	stw	r2,-20(fp)
 1204bfc:	e0bffa17 	ldw	r2,-24(fp)
 1204c00:	10000226 	beq	r2,zero,1204c0c <alt_read_cfi_table+0x9c>
 1204c04:	e0bffb17 	ldw	r2,-20(fp)
 1204c08:	1000041e 	bne	r2,zero,1204c1c <alt_read_cfi_table+0xac>
 1204c0c:	e0bfff17 	ldw	r2,-4(fp)
 1204c10:	00c0fa04 	movi	r3,1000
 1204c14:	10c03115 	stw	r3,196(r2)
 1204c18:	00000706 	br	1204c38 <alt_read_cfi_table+0xc8>
 1204c1c:	00c00044 	movi	r3,1
 1204c20:	e0bffa17 	ldw	r2,-24(fp)
 1204c24:	1886983a 	sll	r3,r3,r2
 1204c28:	e0bffb17 	ldw	r2,-20(fp)
 1204c2c:	1886983a 	sll	r3,r3,r2
 1204c30:	e0bfff17 	ldw	r2,-4(fp)
 1204c34:	10c03115 	stw	r3,196(r2)
 1204c38:	e0bfff17 	ldw	r2,-4(fp)
 1204c3c:	10803517 	ldw	r2,212(r2)
 1204c40:	e13fff17 	ldw	r4,-4(fp)
 1204c44:	01400844 	movi	r5,33
 1204c48:	103ee83a 	callr	r2
 1204c4c:	10803fcc 	andi	r2,r2,255
 1204c50:	e0bffa15 	stw	r2,-24(fp)
 1204c54:	e0bfff17 	ldw	r2,-4(fp)
 1204c58:	10803517 	ldw	r2,212(r2)
 1204c5c:	e13fff17 	ldw	r4,-4(fp)
 1204c60:	01400944 	movi	r5,37
 1204c64:	103ee83a 	callr	r2
 1204c68:	10803fcc 	andi	r2,r2,255
 1204c6c:	e0bffb15 	stw	r2,-20(fp)
 1204c70:	e0bffa17 	ldw	r2,-24(fp)
 1204c74:	10000226 	beq	r2,zero,1204c80 <alt_read_cfi_table+0x110>
 1204c78:	e0bffb17 	ldw	r2,-20(fp)
 1204c7c:	1000051e 	bne	r2,zero,1204c94 <alt_read_cfi_table+0x124>
 1204c80:	e0ffff17 	ldw	r3,-4(fp)
 1204c84:	00804c74 	movhi	r2,305
 1204c88:	108b4004 	addi	r2,r2,11520
 1204c8c:	18803215 	stw	r2,200(r3)
 1204c90:	00000806 	br	1204cb4 <alt_read_cfi_table+0x144>
 1204c94:	00c00044 	movi	r3,1
 1204c98:	e0bffa17 	ldw	r2,-24(fp)
 1204c9c:	1886983a 	sll	r3,r3,r2
 1204ca0:	e0bffb17 	ldw	r2,-20(fp)
 1204ca4:	1884983a 	sll	r2,r3,r2
 1204ca8:	10c0fa24 	muli	r3,r2,1000
 1204cac:	e0bfff17 	ldw	r2,-4(fp)
 1204cb0:	10c03215 	stw	r3,200(r2)
 1204cb4:	e0bfff17 	ldw	r2,-4(fp)
 1204cb8:	10803517 	ldw	r2,212(r2)
 1204cbc:	e13fff17 	ldw	r4,-4(fp)
 1204cc0:	014009c4 	movi	r5,39
 1204cc4:	103ee83a 	callr	r2
 1204cc8:	10803fcc 	andi	r2,r2,255
 1204ccc:	00c00044 	movi	r3,1
 1204cd0:	1884983a 	sll	r2,r3,r2
 1204cd4:	e0bffc15 	stw	r2,-16(fp)
 1204cd8:	e0bfff17 	ldw	r2,-4(fp)
 1204cdc:	10803517 	ldw	r2,212(r2)
 1204ce0:	e13fff17 	ldw	r4,-4(fp)
 1204ce4:	01400b04 	movi	r5,44
 1204ce8:	103ee83a 	callr	r2
 1204cec:	10c03fcc 	andi	r3,r2,255
 1204cf0:	e0bfff17 	ldw	r2,-4(fp)
 1204cf4:	10c00c15 	stw	r3,48(r2)
 1204cf8:	e0bfff17 	ldw	r2,-4(fp)
 1204cfc:	10800c17 	ldw	r2,48(r2)
 1204d00:	10800250 	cmplti	r2,r2,9
 1204d04:	1000031e 	bne	r2,zero,1204d14 <alt_read_cfi_table+0x1a4>
 1204d08:	00bffd04 	movi	r2,-12
 1204d0c:	e0bff715 	stw	r2,-36(fp)
 1204d10:	00006006 	br	1204e94 <alt_read_cfi_table+0x324>
 1204d14:	e03ff515 	stw	zero,-44(fp)
 1204d18:	00005506 	br	1204e70 <alt_read_cfi_table+0x300>
 1204d1c:	e0bff517 	ldw	r2,-44(fp)
 1204d20:	1085883a 	add	r2,r2,r2
 1204d24:	1085883a 	add	r2,r2,r2
 1204d28:	10800b44 	addi	r2,r2,45
 1204d2c:	e13fff17 	ldw	r4,-4(fp)
 1204d30:	100b883a 	mov	r5,r2
 1204d34:	1204af00 	call	1204af0 <alt_read_16bit_query_entry>
 1204d38:	10ffffcc 	andi	r3,r2,65535
 1204d3c:	e13fff17 	ldw	r4,-4(fp)
 1204d40:	e0bff517 	ldw	r2,-44(fp)
 1204d44:	1004913a 	slli	r2,r2,4
 1204d48:	2085883a 	add	r2,r4,r2
 1204d4c:	10800f04 	addi	r2,r2,60
 1204d50:	10c00015 	stw	r3,0(r2)
 1204d54:	e0ffff17 	ldw	r3,-4(fp)
 1204d58:	e0bff517 	ldw	r2,-44(fp)
 1204d5c:	1004913a 	slli	r2,r2,4
 1204d60:	1885883a 	add	r2,r3,r2
 1204d64:	10800f04 	addi	r2,r2,60
 1204d68:	10800017 	ldw	r2,0(r2)
 1204d6c:	10c00044 	addi	r3,r2,1
 1204d70:	e13fff17 	ldw	r4,-4(fp)
 1204d74:	e0bff517 	ldw	r2,-44(fp)
 1204d78:	1004913a 	slli	r2,r2,4
 1204d7c:	2085883a 	add	r2,r4,r2
 1204d80:	10800f04 	addi	r2,r2,60
 1204d84:	10c00015 	stw	r3,0(r2)
 1204d88:	e0bff517 	ldw	r2,-44(fp)
 1204d8c:	1085883a 	add	r2,r2,r2
 1204d90:	1085883a 	add	r2,r2,r2
 1204d94:	10800bc4 	addi	r2,r2,47
 1204d98:	e13fff17 	ldw	r4,-4(fp)
 1204d9c:	100b883a 	mov	r5,r2
 1204da0:	1204af00 	call	1204af0 <alt_read_16bit_query_entry>
 1204da4:	10ffffcc 	andi	r3,r2,65535
 1204da8:	e13fff17 	ldw	r4,-4(fp)
 1204dac:	e0bff517 	ldw	r2,-44(fp)
 1204db0:	10800104 	addi	r2,r2,4
 1204db4:	1004913a 	slli	r2,r2,4
 1204db8:	2085883a 	add	r2,r4,r2
 1204dbc:	10c00015 	stw	r3,0(r2)
 1204dc0:	e0ffff17 	ldw	r3,-4(fp)
 1204dc4:	e0bff517 	ldw	r2,-44(fp)
 1204dc8:	10800104 	addi	r2,r2,4
 1204dcc:	1004913a 	slli	r2,r2,4
 1204dd0:	1885883a 	add	r2,r3,r2
 1204dd4:	10800017 	ldw	r2,0(r2)
 1204dd8:	1006923a 	slli	r3,r2,8
 1204ddc:	e13fff17 	ldw	r4,-4(fp)
 1204de0:	e0bff517 	ldw	r2,-44(fp)
 1204de4:	10800104 	addi	r2,r2,4
 1204de8:	1004913a 	slli	r2,r2,4
 1204dec:	2085883a 	add	r2,r4,r2
 1204df0:	10c00015 	stw	r3,0(r2)
 1204df4:	e0ffff17 	ldw	r3,-4(fp)
 1204df8:	e0bff517 	ldw	r2,-44(fp)
 1204dfc:	1004913a 	slli	r2,r2,4
 1204e00:	1885883a 	add	r2,r3,r2
 1204e04:	10800f04 	addi	r2,r2,60
 1204e08:	10c00017 	ldw	r3,0(r2)
 1204e0c:	e13fff17 	ldw	r4,-4(fp)
 1204e10:	e0bff517 	ldw	r2,-44(fp)
 1204e14:	10800104 	addi	r2,r2,4
 1204e18:	1004913a 	slli	r2,r2,4
 1204e1c:	2085883a 	add	r2,r4,r2
 1204e20:	10800017 	ldw	r2,0(r2)
 1204e24:	1887383a 	mul	r3,r3,r2
 1204e28:	e13fff17 	ldw	r4,-4(fp)
 1204e2c:	e0bff517 	ldw	r2,-44(fp)
 1204e30:	1004913a 	slli	r2,r2,4
 1204e34:	2085883a 	add	r2,r4,r2
 1204e38:	10800e04 	addi	r2,r2,56
 1204e3c:	10c00015 	stw	r3,0(r2)
 1204e40:	e0ffff17 	ldw	r3,-4(fp)
 1204e44:	e0bff517 	ldw	r2,-44(fp)
 1204e48:	1004913a 	slli	r2,r2,4
 1204e4c:	1885883a 	add	r2,r3,r2
 1204e50:	10800e04 	addi	r2,r2,56
 1204e54:	10800017 	ldw	r2,0(r2)
 1204e58:	e0fff817 	ldw	r3,-32(fp)
 1204e5c:	1885883a 	add	r2,r3,r2
 1204e60:	e0bff815 	stw	r2,-32(fp)
 1204e64:	e0bff517 	ldw	r2,-44(fp)
 1204e68:	10800044 	addi	r2,r2,1
 1204e6c:	e0bff515 	stw	r2,-44(fp)
 1204e70:	e0bfff17 	ldw	r2,-4(fp)
 1204e74:	10800c17 	ldw	r2,48(r2)
 1204e78:	e0fff517 	ldw	r3,-44(fp)
 1204e7c:	18bfa716 	blt	r3,r2,1204d1c <__alt_mem_instruction_tcm+0xff204d1c>
 1204e80:	e0fff817 	ldw	r3,-32(fp)
 1204e84:	e0bffc17 	ldw	r2,-16(fp)
 1204e88:	18800226 	beq	r3,r2,1204e94 <alt_read_cfi_table+0x324>
 1204e8c:	00bffb44 	movi	r2,-19
 1204e90:	e0bff715 	stw	r2,-36(fp)
 1204e94:	e0bfff17 	ldw	r2,-4(fp)
 1204e98:	10803517 	ldw	r2,212(r2)
 1204e9c:	e0ffff17 	ldw	r3,-4(fp)
 1204ea0:	18c03317 	ldw	r3,204(r3)
 1204ea4:	18c003c4 	addi	r3,r3,15
 1204ea8:	e13fff17 	ldw	r4,-4(fp)
 1204eac:	180b883a 	mov	r5,r3
 1204eb0:	103ee83a 	callr	r2
 1204eb4:	e0bffd05 	stb	r2,-12(fp)
 1204eb8:	e0bfff17 	ldw	r2,-4(fp)
 1204ebc:	10802e17 	ldw	r2,184(r2)
 1204ec0:	10800098 	cmpnei	r2,r2,2
 1204ec4:	1000601e 	bne	r2,zero,1205048 <alt_read_cfi_table+0x4d8>
 1204ec8:	e0bffd03 	ldbu	r2,-12(fp)
 1204ecc:	108000d8 	cmpnei	r2,r2,3
 1204ed0:	10005d1e 	bne	r2,zero,1205048 <alt_read_cfi_table+0x4d8>
 1204ed4:	e0bfff17 	ldw	r2,-4(fp)
 1204ed8:	10800c17 	ldw	r2,48(r2)
 1204edc:	10bfffc4 	addi	r2,r2,-1
 1204ee0:	e0bff515 	stw	r2,-44(fp)
 1204ee4:	e03ff615 	stw	zero,-40(fp)
 1204ee8:	00005406 	br	120503c <alt_read_cfi_table+0x4cc>
 1204eec:	e0ffff17 	ldw	r3,-4(fp)
 1204ef0:	e0bff517 	ldw	r2,-44(fp)
 1204ef4:	1004913a 	slli	r2,r2,4
 1204ef8:	1885883a 	add	r2,r3,r2
 1204efc:	10800e04 	addi	r2,r2,56
 1204f00:	10800017 	ldw	r2,0(r2)
 1204f04:	e0bffe15 	stw	r2,-8(fp)
 1204f08:	e0ffff17 	ldw	r3,-4(fp)
 1204f0c:	e0bff617 	ldw	r2,-40(fp)
 1204f10:	1004913a 	slli	r2,r2,4
 1204f14:	1885883a 	add	r2,r3,r2
 1204f18:	10800e04 	addi	r2,r2,56
 1204f1c:	10c00017 	ldw	r3,0(r2)
 1204f20:	e13fff17 	ldw	r4,-4(fp)
 1204f24:	e0bff517 	ldw	r2,-44(fp)
 1204f28:	1004913a 	slli	r2,r2,4
 1204f2c:	2085883a 	add	r2,r4,r2
 1204f30:	10800e04 	addi	r2,r2,56
 1204f34:	10c00015 	stw	r3,0(r2)
 1204f38:	e0ffff17 	ldw	r3,-4(fp)
 1204f3c:	e0bff617 	ldw	r2,-40(fp)
 1204f40:	1004913a 	slli	r2,r2,4
 1204f44:	1885883a 	add	r2,r3,r2
 1204f48:	10800e04 	addi	r2,r2,56
 1204f4c:	e0fffe17 	ldw	r3,-8(fp)
 1204f50:	10c00015 	stw	r3,0(r2)
 1204f54:	e0ffff17 	ldw	r3,-4(fp)
 1204f58:	e0bff517 	ldw	r2,-44(fp)
 1204f5c:	10800104 	addi	r2,r2,4
 1204f60:	1004913a 	slli	r2,r2,4
 1204f64:	1885883a 	add	r2,r3,r2
 1204f68:	10800017 	ldw	r2,0(r2)
 1204f6c:	e0bffe15 	stw	r2,-8(fp)
 1204f70:	e0ffff17 	ldw	r3,-4(fp)
 1204f74:	e0bff617 	ldw	r2,-40(fp)
 1204f78:	10800104 	addi	r2,r2,4
 1204f7c:	1004913a 	slli	r2,r2,4
 1204f80:	1885883a 	add	r2,r3,r2
 1204f84:	10c00017 	ldw	r3,0(r2)
 1204f88:	e13fff17 	ldw	r4,-4(fp)
 1204f8c:	e0bff517 	ldw	r2,-44(fp)
 1204f90:	10800104 	addi	r2,r2,4
 1204f94:	1004913a 	slli	r2,r2,4
 1204f98:	2085883a 	add	r2,r4,r2
 1204f9c:	10c00015 	stw	r3,0(r2)
 1204fa0:	e0ffff17 	ldw	r3,-4(fp)
 1204fa4:	e0bff617 	ldw	r2,-40(fp)
 1204fa8:	10800104 	addi	r2,r2,4
 1204fac:	1004913a 	slli	r2,r2,4
 1204fb0:	1885883a 	add	r2,r3,r2
 1204fb4:	e0fffe17 	ldw	r3,-8(fp)
 1204fb8:	10c00015 	stw	r3,0(r2)
 1204fbc:	e0ffff17 	ldw	r3,-4(fp)
 1204fc0:	e0bff517 	ldw	r2,-44(fp)
 1204fc4:	1004913a 	slli	r2,r2,4
 1204fc8:	1885883a 	add	r2,r3,r2
 1204fcc:	10800f04 	addi	r2,r2,60
 1204fd0:	10800017 	ldw	r2,0(r2)
 1204fd4:	e0bffe15 	stw	r2,-8(fp)
 1204fd8:	e0ffff17 	ldw	r3,-4(fp)
 1204fdc:	e0bff617 	ldw	r2,-40(fp)
 1204fe0:	1004913a 	slli	r2,r2,4
 1204fe4:	1885883a 	add	r2,r3,r2
 1204fe8:	10800f04 	addi	r2,r2,60
 1204fec:	10c00017 	ldw	r3,0(r2)
 1204ff0:	e13fff17 	ldw	r4,-4(fp)
 1204ff4:	e0bff517 	ldw	r2,-44(fp)
 1204ff8:	1004913a 	slli	r2,r2,4
 1204ffc:	2085883a 	add	r2,r4,r2
 1205000:	10800f04 	addi	r2,r2,60
 1205004:	10c00015 	stw	r3,0(r2)
 1205008:	e0ffff17 	ldw	r3,-4(fp)
 120500c:	e0bff617 	ldw	r2,-40(fp)
 1205010:	1004913a 	slli	r2,r2,4
 1205014:	1885883a 	add	r2,r3,r2
 1205018:	10800f04 	addi	r2,r2,60
 120501c:	e0fffe17 	ldw	r3,-8(fp)
 1205020:	10c00015 	stw	r3,0(r2)
 1205024:	e0bff517 	ldw	r2,-44(fp)
 1205028:	10bfffc4 	addi	r2,r2,-1
 120502c:	e0bff515 	stw	r2,-44(fp)
 1205030:	e0bff617 	ldw	r2,-40(fp)
 1205034:	10800044 	addi	r2,r2,1
 1205038:	e0bff615 	stw	r2,-40(fp)
 120503c:	e0bff617 	ldw	r2,-40(fp)
 1205040:	e0fff517 	ldw	r3,-44(fp)
 1205044:	18bfa90e 	bge	r3,r2,1204eec <__alt_mem_instruction_tcm+0xff204eec>
 1205048:	e03ff515 	stw	zero,-44(fp)
 120504c:	00001306 	br	120509c <alt_read_cfi_table+0x52c>
 1205050:	e0ffff17 	ldw	r3,-4(fp)
 1205054:	e0bff517 	ldw	r2,-44(fp)
 1205058:	1004913a 	slli	r2,r2,4
 120505c:	1885883a 	add	r2,r3,r2
 1205060:	10800d04 	addi	r2,r2,52
 1205064:	e0fff917 	ldw	r3,-28(fp)
 1205068:	10c00015 	stw	r3,0(r2)
 120506c:	e0ffff17 	ldw	r3,-4(fp)
 1205070:	e0bff517 	ldw	r2,-44(fp)
 1205074:	1004913a 	slli	r2,r2,4
 1205078:	1885883a 	add	r2,r3,r2
 120507c:	10800e04 	addi	r2,r2,56
 1205080:	10800017 	ldw	r2,0(r2)
 1205084:	e0fff917 	ldw	r3,-28(fp)
 1205088:	1885883a 	add	r2,r3,r2
 120508c:	e0bff915 	stw	r2,-28(fp)
 1205090:	e0bff517 	ldw	r2,-44(fp)
 1205094:	10800044 	addi	r2,r2,1
 1205098:	e0bff515 	stw	r2,-44(fp)
 120509c:	e0bfff17 	ldw	r2,-4(fp)
 12050a0:	10800c17 	ldw	r2,48(r2)
 12050a4:	e0fff517 	ldw	r3,-44(fp)
 12050a8:	18bfe916 	blt	r3,r2,1205050 <__alt_mem_instruction_tcm+0xff205050>
 12050ac:	e0bfff17 	ldw	r2,-4(fp)
 12050b0:	10802e17 	ldw	r2,184(r2)
 12050b4:	10c000a0 	cmpeqi	r3,r2,2
 12050b8:	1800051e 	bne	r3,zero,12050d0 <alt_read_cfi_table+0x560>
 12050bc:	10c000e0 	cmpeqi	r3,r2,3
 12050c0:	18000c1e 	bne	r3,zero,12050f4 <alt_read_cfi_table+0x584>
 12050c4:	10800060 	cmpeqi	r2,r2,1
 12050c8:	10000a1e 	bne	r2,zero,12050f4 <alt_read_cfi_table+0x584>
 12050cc:	00001206 	br	1205118 <alt_read_cfi_table+0x5a8>
 12050d0:	e0bfff17 	ldw	r2,-4(fp)
 12050d4:	10803417 	ldw	r2,208(r2)
 12050d8:	e0ffff17 	ldw	r3,-4(fp)
 12050dc:	18c00a17 	ldw	r3,40(r3)
 12050e0:	1809883a 	mov	r4,r3
 12050e4:	01401544 	movi	r5,85
 12050e8:	01803c04 	movi	r6,240
 12050ec:	103ee83a 	callr	r2
 12050f0:	00000b06 	br	1205120 <alt_read_cfi_table+0x5b0>
 12050f4:	e0bfff17 	ldw	r2,-4(fp)
 12050f8:	10803417 	ldw	r2,208(r2)
 12050fc:	e0ffff17 	ldw	r3,-4(fp)
 1205100:	18c00a17 	ldw	r3,40(r3)
 1205104:	1809883a 	mov	r4,r3
 1205108:	01401544 	movi	r5,85
 120510c:	01803fc4 	movi	r6,255
 1205110:	103ee83a 	callr	r2
 1205114:	00000206 	br	1205120 <alt_read_cfi_table+0x5b0>
 1205118:	00bffec4 	movi	r2,-5
 120511c:	e0bff715 	stw	r2,-36(fp)
 1205120:	e0bff717 	ldw	r2,-36(fp)
 1205124:	e037883a 	mov	sp,fp
 1205128:	dfc00117 	ldw	ra,4(sp)
 120512c:	df000017 	ldw	fp,0(sp)
 1205130:	dec00204 	addi	sp,sp,8
 1205134:	f800283a 	ret

01205138 <alt_read_cfi_width>:
 1205138:	defff704 	addi	sp,sp,-36
 120513c:	dfc00815 	stw	ra,32(sp)
 1205140:	df000715 	stw	fp,28(sp)
 1205144:	df000704 	addi	fp,sp,28
 1205148:	e13fff15 	stw	r4,-4(fp)
 120514c:	e03ffa15 	stw	zero,-24(fp)
 1205150:	e0bfff17 	ldw	r2,-4(fp)
 1205154:	10800a17 	ldw	r2,40(r2)
 1205158:	1009883a 	mov	r4,r2
 120515c:	01401544 	movi	r5,85
 1205160:	01802604 	movi	r6,152
 1205164:	12045fc0 	call	12045fc <alt_write_flash_command_8bit_device_8bit_mode>
 1205168:	e03ff915 	stw	zero,-28(fp)
 120516c:	00000f06 	br	12051ac <alt_read_cfi_width+0x74>
 1205170:	e0bfff17 	ldw	r2,-4(fp)
 1205174:	10800a17 	ldw	r2,40(r2)
 1205178:	e0fff917 	ldw	r3,-28(fp)
 120517c:	18c00404 	addi	r3,r3,16
 1205180:	10c5883a 	add	r2,r2,r3
 1205184:	10800023 	ldbuio	r2,0(r2)
 1205188:	10803fcc 	andi	r2,r2,255
 120518c:	1009883a 	mov	r4,r2
 1205190:	e0fffb84 	addi	r3,fp,-18
 1205194:	e0bff917 	ldw	r2,-28(fp)
 1205198:	1885883a 	add	r2,r3,r2
 120519c:	11000005 	stb	r4,0(r2)
 12051a0:	e0bff917 	ldw	r2,-28(fp)
 12051a4:	10800044 	addi	r2,r2,1
 12051a8:	e0bff915 	stw	r2,-28(fp)
 12051ac:	e0bff917 	ldw	r2,-28(fp)
 12051b0:	108000d0 	cmplti	r2,r2,3
 12051b4:	103fee1e 	bne	r2,zero,1205170 <__alt_mem_instruction_tcm+0xff205170>
 12051b8:	e0bffb83 	ldbu	r2,-18(fp)
 12051bc:	10803fcc 	andi	r2,r2,255
 12051c0:	10801458 	cmpnei	r2,r2,81
 12051c4:	10001e1e 	bne	r2,zero,1205240 <alt_read_cfi_width+0x108>
 12051c8:	e0bffbc3 	ldbu	r2,-17(fp)
 12051cc:	10803fcc 	andi	r2,r2,255
 12051d0:	10801498 	cmpnei	r2,r2,82
 12051d4:	10001a1e 	bne	r2,zero,1205240 <alt_read_cfi_width+0x108>
 12051d8:	e0bffc03 	ldbu	r2,-16(fp)
 12051dc:	10803fcc 	andi	r2,r2,255
 12051e0:	10801658 	cmpnei	r2,r2,89
 12051e4:	1000161e 	bne	r2,zero,1205240 <alt_read_cfi_width+0x108>
 12051e8:	e0bfff17 	ldw	r2,-4(fp)
 12051ec:	00c00044 	movi	r3,1
 12051f0:	10c02f15 	stw	r3,188(r2)
 12051f4:	e0bfff17 	ldw	r2,-4(fp)
 12051f8:	00c00044 	movi	r3,1
 12051fc:	10c03015 	stw	r3,192(r2)
 1205200:	e0bfff17 	ldw	r2,-4(fp)
 1205204:	10800a17 	ldw	r2,40(r2)
 1205208:	10800a04 	addi	r2,r2,40
 120520c:	1080002b 	ldhuio	r2,0(r2)
 1205210:	10bfffcc 	andi	r2,r2,65535
 1205214:	e0bffb0d 	sth	r2,-20(fp)
 1205218:	e0bffb0b 	ldhu	r2,-20(fp)
 120521c:	10800044 	addi	r2,r2,1
 1205220:	e0bffb0d 	sth	r2,-20(fp)
 1205224:	e0bffb0b 	ldhu	r2,-20(fp)
 1205228:	1080004c 	andi	r2,r2,1
 120522c:	1000031e 	bne	r2,zero,120523c <alt_read_cfi_width+0x104>
 1205230:	00bffb44 	movi	r2,-19
 1205234:	e0bffa15 	stw	r2,-24(fp)
 1205238:	00019a06 	br	12058a4 <alt_read_cfi_width+0x76c>
 120523c:	00019906 	br	12058a4 <alt_read_cfi_width+0x76c>
 1205240:	e0bfff17 	ldw	r2,-4(fp)
 1205244:	10800a17 	ldw	r2,40(r2)
 1205248:	1009883a 	mov	r4,r2
 120524c:	01401544 	movi	r5,85
 1205250:	01802604 	movi	r6,152
 1205254:	12046400 	call	1204640 <alt_write_flash_command_16bit_device_8bit_mode>
 1205258:	e03ff915 	stw	zero,-28(fp)
 120525c:	00000f06 	br	120529c <alt_read_cfi_width+0x164>
 1205260:	e0bfff17 	ldw	r2,-4(fp)
 1205264:	10800a17 	ldw	r2,40(r2)
 1205268:	e0fff917 	ldw	r3,-28(fp)
 120526c:	18c00804 	addi	r3,r3,32
 1205270:	10c5883a 	add	r2,r2,r3
 1205274:	10800023 	ldbuio	r2,0(r2)
 1205278:	10803fcc 	andi	r2,r2,255
 120527c:	1009883a 	mov	r4,r2
 1205280:	e0fffb84 	addi	r3,fp,-18
 1205284:	e0bff917 	ldw	r2,-28(fp)
 1205288:	1885883a 	add	r2,r3,r2
 120528c:	11000005 	stb	r4,0(r2)
 1205290:	e0bff917 	ldw	r2,-28(fp)
 1205294:	10800044 	addi	r2,r2,1
 1205298:	e0bff915 	stw	r2,-28(fp)
 120529c:	e0bff917 	ldw	r2,-28(fp)
 12052a0:	10800190 	cmplti	r2,r2,6
 12052a4:	103fee1e 	bne	r2,zero,1205260 <__alt_mem_instruction_tcm+0xff205260>
 12052a8:	e0bffb83 	ldbu	r2,-18(fp)
 12052ac:	10803fcc 	andi	r2,r2,255
 12052b0:	10801458 	cmpnei	r2,r2,81
 12052b4:	10002a1e 	bne	r2,zero,1205360 <alt_read_cfi_width+0x228>
 12052b8:	e0bffbc3 	ldbu	r2,-17(fp)
 12052bc:	10803fcc 	andi	r2,r2,255
 12052c0:	10801458 	cmpnei	r2,r2,81
 12052c4:	1000261e 	bne	r2,zero,1205360 <alt_read_cfi_width+0x228>
 12052c8:	e0bffc03 	ldbu	r2,-16(fp)
 12052cc:	10803fcc 	andi	r2,r2,255
 12052d0:	10801498 	cmpnei	r2,r2,82
 12052d4:	1000221e 	bne	r2,zero,1205360 <alt_read_cfi_width+0x228>
 12052d8:	e0bffc43 	ldbu	r2,-15(fp)
 12052dc:	10803fcc 	andi	r2,r2,255
 12052e0:	10801498 	cmpnei	r2,r2,82
 12052e4:	10001e1e 	bne	r2,zero,1205360 <alt_read_cfi_width+0x228>
 12052e8:	e0bffc83 	ldbu	r2,-14(fp)
 12052ec:	10803fcc 	andi	r2,r2,255
 12052f0:	10801658 	cmpnei	r2,r2,89
 12052f4:	10001a1e 	bne	r2,zero,1205360 <alt_read_cfi_width+0x228>
 12052f8:	e0bffcc3 	ldbu	r2,-13(fp)
 12052fc:	10803fcc 	andi	r2,r2,255
 1205300:	10801658 	cmpnei	r2,r2,89
 1205304:	1000161e 	bne	r2,zero,1205360 <alt_read_cfi_width+0x228>
 1205308:	e0bfff17 	ldw	r2,-4(fp)
 120530c:	00c00044 	movi	r3,1
 1205310:	10c02f15 	stw	r3,188(r2)
 1205314:	e0bfff17 	ldw	r2,-4(fp)
 1205318:	00c00084 	movi	r3,2
 120531c:	10c03015 	stw	r3,192(r2)
 1205320:	e0bfff17 	ldw	r2,-4(fp)
 1205324:	10800a17 	ldw	r2,40(r2)
 1205328:	10801404 	addi	r2,r2,80
 120532c:	1080002b 	ldhuio	r2,0(r2)
 1205330:	10bfffcc 	andi	r2,r2,65535
 1205334:	e0bffb0d 	sth	r2,-20(fp)
 1205338:	e0bffb0b 	ldhu	r2,-20(fp)
 120533c:	10800044 	addi	r2,r2,1
 1205340:	e0bffb0d 	sth	r2,-20(fp)
 1205344:	e0bffb0b 	ldhu	r2,-20(fp)
 1205348:	1080004c 	andi	r2,r2,1
 120534c:	1000031e 	bne	r2,zero,120535c <alt_read_cfi_width+0x224>
 1205350:	00bffb44 	movi	r2,-19
 1205354:	e0bffa15 	stw	r2,-24(fp)
 1205358:	00015206 	br	12058a4 <alt_read_cfi_width+0x76c>
 120535c:	00015106 	br	12058a4 <alt_read_cfi_width+0x76c>
 1205360:	e0bfff17 	ldw	r2,-4(fp)
 1205364:	10800a17 	ldw	r2,40(r2)
 1205368:	1009883a 	mov	r4,r2
 120536c:	01401544 	movi	r5,85
 1205370:	01802604 	movi	r6,152
 1205374:	12047080 	call	1204708 <alt_write_flash_command_16bit_device_16bit_mode>
 1205378:	e03ff915 	stw	zero,-28(fp)
 120537c:	00000f06 	br	12053bc <alt_read_cfi_width+0x284>
 1205380:	e0bfff17 	ldw	r2,-4(fp)
 1205384:	10800a17 	ldw	r2,40(r2)
 1205388:	e0fff917 	ldw	r3,-28(fp)
 120538c:	18c00804 	addi	r3,r3,32
 1205390:	10c5883a 	add	r2,r2,r3
 1205394:	10800023 	ldbuio	r2,0(r2)
 1205398:	10803fcc 	andi	r2,r2,255
 120539c:	1009883a 	mov	r4,r2
 12053a0:	e0fffb84 	addi	r3,fp,-18
 12053a4:	e0bff917 	ldw	r2,-28(fp)
 12053a8:	1885883a 	add	r2,r3,r2
 12053ac:	11000005 	stb	r4,0(r2)
 12053b0:	e0bff917 	ldw	r2,-28(fp)
 12053b4:	10800044 	addi	r2,r2,1
 12053b8:	e0bff915 	stw	r2,-28(fp)
 12053bc:	e0bff917 	ldw	r2,-28(fp)
 12053c0:	10800190 	cmplti	r2,r2,6
 12053c4:	103fee1e 	bne	r2,zero,1205380 <__alt_mem_instruction_tcm+0xff205380>
 12053c8:	e0bffb83 	ldbu	r2,-18(fp)
 12053cc:	10803fcc 	andi	r2,r2,255
 12053d0:	10801458 	cmpnei	r2,r2,81
 12053d4:	1000271e 	bne	r2,zero,1205474 <alt_read_cfi_width+0x33c>
 12053d8:	e0bffbc3 	ldbu	r2,-17(fp)
 12053dc:	10803fcc 	andi	r2,r2,255
 12053e0:	1000241e 	bne	r2,zero,1205474 <alt_read_cfi_width+0x33c>
 12053e4:	e0bffc03 	ldbu	r2,-16(fp)
 12053e8:	10803fcc 	andi	r2,r2,255
 12053ec:	10801498 	cmpnei	r2,r2,82
 12053f0:	1000201e 	bne	r2,zero,1205474 <alt_read_cfi_width+0x33c>
 12053f4:	e0bffc43 	ldbu	r2,-15(fp)
 12053f8:	10803fcc 	andi	r2,r2,255
 12053fc:	10001d1e 	bne	r2,zero,1205474 <alt_read_cfi_width+0x33c>
 1205400:	e0bffc83 	ldbu	r2,-14(fp)
 1205404:	10803fcc 	andi	r2,r2,255
 1205408:	10801658 	cmpnei	r2,r2,89
 120540c:	1000191e 	bne	r2,zero,1205474 <alt_read_cfi_width+0x33c>
 1205410:	e0bffcc3 	ldbu	r2,-13(fp)
 1205414:	10803fcc 	andi	r2,r2,255
 1205418:	1000161e 	bne	r2,zero,1205474 <alt_read_cfi_width+0x33c>
 120541c:	e0bfff17 	ldw	r2,-4(fp)
 1205420:	00c00084 	movi	r3,2
 1205424:	10c02f15 	stw	r3,188(r2)
 1205428:	e0bfff17 	ldw	r2,-4(fp)
 120542c:	00c00084 	movi	r3,2
 1205430:	10c03015 	stw	r3,192(r2)
 1205434:	e0bfff17 	ldw	r2,-4(fp)
 1205438:	10800a17 	ldw	r2,40(r2)
 120543c:	10801404 	addi	r2,r2,80
 1205440:	1080002b 	ldhuio	r2,0(r2)
 1205444:	10bfffcc 	andi	r2,r2,65535
 1205448:	e0bffb0d 	sth	r2,-20(fp)
 120544c:	e0bffb0b 	ldhu	r2,-20(fp)
 1205450:	10800044 	addi	r2,r2,1
 1205454:	e0bffb0d 	sth	r2,-20(fp)
 1205458:	e0bffb0b 	ldhu	r2,-20(fp)
 120545c:	1080008c 	andi	r2,r2,2
 1205460:	1000031e 	bne	r2,zero,1205470 <alt_read_cfi_width+0x338>
 1205464:	00bffb44 	movi	r2,-19
 1205468:	e0bffa15 	stw	r2,-24(fp)
 120546c:	00010d06 	br	12058a4 <alt_read_cfi_width+0x76c>
 1205470:	00010c06 	br	12058a4 <alt_read_cfi_width+0x76c>
 1205474:	e0bfff17 	ldw	r2,-4(fp)
 1205478:	10800a17 	ldw	r2,40(r2)
 120547c:	1009883a 	mov	r4,r2
 1205480:	01401544 	movi	r5,85
 1205484:	01802604 	movi	r6,152
 1205488:	12047a40 	call	12047a4 <alt_write_flash_command_32bit_device_32bit_mode>
 120548c:	e03ff915 	stw	zero,-28(fp)
 1205490:	00000f06 	br	12054d0 <alt_read_cfi_width+0x398>
 1205494:	e0bfff17 	ldw	r2,-4(fp)
 1205498:	10800a17 	ldw	r2,40(r2)
 120549c:	e0fff917 	ldw	r3,-28(fp)
 12054a0:	18c01004 	addi	r3,r3,64
 12054a4:	10c5883a 	add	r2,r2,r3
 12054a8:	10800023 	ldbuio	r2,0(r2)
 12054ac:	10803fcc 	andi	r2,r2,255
 12054b0:	1009883a 	mov	r4,r2
 12054b4:	e0fffb84 	addi	r3,fp,-18
 12054b8:	e0bff917 	ldw	r2,-28(fp)
 12054bc:	1885883a 	add	r2,r3,r2
 12054c0:	11000005 	stb	r4,0(r2)
 12054c4:	e0bff917 	ldw	r2,-28(fp)
 12054c8:	10800044 	addi	r2,r2,1
 12054cc:	e0bff915 	stw	r2,-28(fp)
 12054d0:	e0bff917 	ldw	r2,-28(fp)
 12054d4:	10800310 	cmplti	r2,r2,12
 12054d8:	103fee1e 	bne	r2,zero,1205494 <__alt_mem_instruction_tcm+0xff205494>
 12054dc:	e0bffb83 	ldbu	r2,-18(fp)
 12054e0:	10803fcc 	andi	r2,r2,255
 12054e4:	10801458 	cmpnei	r2,r2,81
 12054e8:	1000381e 	bne	r2,zero,12055cc <alt_read_cfi_width+0x494>
 12054ec:	e0bffbc3 	ldbu	r2,-17(fp)
 12054f0:	10803fcc 	andi	r2,r2,255
 12054f4:	1000351e 	bne	r2,zero,12055cc <alt_read_cfi_width+0x494>
 12054f8:	e0bffc03 	ldbu	r2,-16(fp)
 12054fc:	10803fcc 	andi	r2,r2,255
 1205500:	1000321e 	bne	r2,zero,12055cc <alt_read_cfi_width+0x494>
 1205504:	e0bffc43 	ldbu	r2,-15(fp)
 1205508:	10803fcc 	andi	r2,r2,255
 120550c:	10002f1e 	bne	r2,zero,12055cc <alt_read_cfi_width+0x494>
 1205510:	e0bffc83 	ldbu	r2,-14(fp)
 1205514:	10803fcc 	andi	r2,r2,255
 1205518:	10801498 	cmpnei	r2,r2,82
 120551c:	10002b1e 	bne	r2,zero,12055cc <alt_read_cfi_width+0x494>
 1205520:	e0bffcc3 	ldbu	r2,-13(fp)
 1205524:	10803fcc 	andi	r2,r2,255
 1205528:	1000281e 	bne	r2,zero,12055cc <alt_read_cfi_width+0x494>
 120552c:	e0bffd03 	ldbu	r2,-12(fp)
 1205530:	10803fcc 	andi	r2,r2,255
 1205534:	1000251e 	bne	r2,zero,12055cc <alt_read_cfi_width+0x494>
 1205538:	e0bffd43 	ldbu	r2,-11(fp)
 120553c:	10803fcc 	andi	r2,r2,255
 1205540:	1000221e 	bne	r2,zero,12055cc <alt_read_cfi_width+0x494>
 1205544:	e0bffd83 	ldbu	r2,-10(fp)
 1205548:	10803fcc 	andi	r2,r2,255
 120554c:	10801658 	cmpnei	r2,r2,89
 1205550:	10001e1e 	bne	r2,zero,12055cc <alt_read_cfi_width+0x494>
 1205554:	e0bffdc3 	ldbu	r2,-9(fp)
 1205558:	10803fcc 	andi	r2,r2,255
 120555c:	10001b1e 	bne	r2,zero,12055cc <alt_read_cfi_width+0x494>
 1205560:	e0bffe03 	ldbu	r2,-8(fp)
 1205564:	10803fcc 	andi	r2,r2,255
 1205568:	1000181e 	bne	r2,zero,12055cc <alt_read_cfi_width+0x494>
 120556c:	e0bffe43 	ldbu	r2,-7(fp)
 1205570:	10803fcc 	andi	r2,r2,255
 1205574:	1000151e 	bne	r2,zero,12055cc <alt_read_cfi_width+0x494>
 1205578:	e0bfff17 	ldw	r2,-4(fp)
 120557c:	00c00104 	movi	r3,4
 1205580:	10c02f15 	stw	r3,188(r2)
 1205584:	e0bfff17 	ldw	r2,-4(fp)
 1205588:	00c00104 	movi	r3,4
 120558c:	10c03015 	stw	r3,192(r2)
 1205590:	e0bfff17 	ldw	r2,-4(fp)
 1205594:	10800a17 	ldw	r2,40(r2)
 1205598:	10802804 	addi	r2,r2,160
 120559c:	10800037 	ldwio	r2,0(r2)
 12055a0:	e0bffb0d 	sth	r2,-20(fp)
 12055a4:	e0bffb0b 	ldhu	r2,-20(fp)
 12055a8:	10800044 	addi	r2,r2,1
 12055ac:	e0bffb0d 	sth	r2,-20(fp)
 12055b0:	e0bffb0b 	ldhu	r2,-20(fp)
 12055b4:	1080010c 	andi	r2,r2,4
 12055b8:	1000031e 	bne	r2,zero,12055c8 <alt_read_cfi_width+0x490>
 12055bc:	00bffb44 	movi	r2,-19
 12055c0:	e0bffa15 	stw	r2,-24(fp)
 12055c4:	0000b706 	br	12058a4 <alt_read_cfi_width+0x76c>
 12055c8:	0000b606 	br	12058a4 <alt_read_cfi_width+0x76c>
 12055cc:	e0bfff17 	ldw	r2,-4(fp)
 12055d0:	10800a17 	ldw	r2,40(r2)
 12055d4:	1009883a 	mov	r4,r2
 12055d8:	01401544 	movi	r5,85
 12055dc:	01802604 	movi	r6,152
 12055e0:	12047540 	call	1204754 <alt_write_flash_command_32bit_device_16bit_mode>
 12055e4:	e03ff915 	stw	zero,-28(fp)
 12055e8:	00000f06 	br	1205628 <alt_read_cfi_width+0x4f0>
 12055ec:	e0bfff17 	ldw	r2,-4(fp)
 12055f0:	10800a17 	ldw	r2,40(r2)
 12055f4:	e0fff917 	ldw	r3,-28(fp)
 12055f8:	18c01004 	addi	r3,r3,64
 12055fc:	10c5883a 	add	r2,r2,r3
 1205600:	10800023 	ldbuio	r2,0(r2)
 1205604:	10803fcc 	andi	r2,r2,255
 1205608:	1009883a 	mov	r4,r2
 120560c:	e0fffb84 	addi	r3,fp,-18
 1205610:	e0bff917 	ldw	r2,-28(fp)
 1205614:	1885883a 	add	r2,r3,r2
 1205618:	11000005 	stb	r4,0(r2)
 120561c:	e0bff917 	ldw	r2,-28(fp)
 1205620:	10800044 	addi	r2,r2,1
 1205624:	e0bff915 	stw	r2,-28(fp)
 1205628:	e0bff917 	ldw	r2,-28(fp)
 120562c:	10800310 	cmplti	r2,r2,12
 1205630:	103fee1e 	bne	r2,zero,12055ec <__alt_mem_instruction_tcm+0xff2055ec>
 1205634:	e0bffb83 	ldbu	r2,-18(fp)
 1205638:	10803fcc 	andi	r2,r2,255
 120563c:	10801458 	cmpnei	r2,r2,81
 1205640:	10003b1e 	bne	r2,zero,1205730 <alt_read_cfi_width+0x5f8>
 1205644:	e0bffbc3 	ldbu	r2,-17(fp)
 1205648:	10803fcc 	andi	r2,r2,255
 120564c:	1000381e 	bne	r2,zero,1205730 <alt_read_cfi_width+0x5f8>
 1205650:	e0bffc03 	ldbu	r2,-16(fp)
 1205654:	10803fcc 	andi	r2,r2,255
 1205658:	10801458 	cmpnei	r2,r2,81
 120565c:	1000341e 	bne	r2,zero,1205730 <alt_read_cfi_width+0x5f8>
 1205660:	e0bffc43 	ldbu	r2,-15(fp)
 1205664:	10803fcc 	andi	r2,r2,255
 1205668:	1000311e 	bne	r2,zero,1205730 <alt_read_cfi_width+0x5f8>
 120566c:	e0bffc83 	ldbu	r2,-14(fp)
 1205670:	10803fcc 	andi	r2,r2,255
 1205674:	10801498 	cmpnei	r2,r2,82
 1205678:	10002d1e 	bne	r2,zero,1205730 <alt_read_cfi_width+0x5f8>
 120567c:	e0bffcc3 	ldbu	r2,-13(fp)
 1205680:	10803fcc 	andi	r2,r2,255
 1205684:	10002a1e 	bne	r2,zero,1205730 <alt_read_cfi_width+0x5f8>
 1205688:	e0bffd03 	ldbu	r2,-12(fp)
 120568c:	10803fcc 	andi	r2,r2,255
 1205690:	10801498 	cmpnei	r2,r2,82
 1205694:	1000261e 	bne	r2,zero,1205730 <alt_read_cfi_width+0x5f8>
 1205698:	e0bffd43 	ldbu	r2,-11(fp)
 120569c:	10803fcc 	andi	r2,r2,255
 12056a0:	1000231e 	bne	r2,zero,1205730 <alt_read_cfi_width+0x5f8>
 12056a4:	e0bffd83 	ldbu	r2,-10(fp)
 12056a8:	10803fcc 	andi	r2,r2,255
 12056ac:	10801658 	cmpnei	r2,r2,89
 12056b0:	10001f1e 	bne	r2,zero,1205730 <alt_read_cfi_width+0x5f8>
 12056b4:	e0bffdc3 	ldbu	r2,-9(fp)
 12056b8:	10803fcc 	andi	r2,r2,255
 12056bc:	10001c1e 	bne	r2,zero,1205730 <alt_read_cfi_width+0x5f8>
 12056c0:	e0bffe03 	ldbu	r2,-8(fp)
 12056c4:	10803fcc 	andi	r2,r2,255
 12056c8:	10801658 	cmpnei	r2,r2,89
 12056cc:	1000181e 	bne	r2,zero,1205730 <alt_read_cfi_width+0x5f8>
 12056d0:	e0bffe43 	ldbu	r2,-7(fp)
 12056d4:	10803fcc 	andi	r2,r2,255
 12056d8:	1000151e 	bne	r2,zero,1205730 <alt_read_cfi_width+0x5f8>
 12056dc:	e0bfff17 	ldw	r2,-4(fp)
 12056e0:	00c00084 	movi	r3,2
 12056e4:	10c02f15 	stw	r3,188(r2)
 12056e8:	e0bfff17 	ldw	r2,-4(fp)
 12056ec:	00c00104 	movi	r3,4
 12056f0:	10c03015 	stw	r3,192(r2)
 12056f4:	e0bfff17 	ldw	r2,-4(fp)
 12056f8:	10800a17 	ldw	r2,40(r2)
 12056fc:	10802804 	addi	r2,r2,160
 1205700:	10800037 	ldwio	r2,0(r2)
 1205704:	e0bffb0d 	sth	r2,-20(fp)
 1205708:	e0bffb0b 	ldhu	r2,-20(fp)
 120570c:	10800044 	addi	r2,r2,1
 1205710:	e0bffb0d 	sth	r2,-20(fp)
 1205714:	e0bffb0b 	ldhu	r2,-20(fp)
 1205718:	1080010c 	andi	r2,r2,4
 120571c:	1000031e 	bne	r2,zero,120572c <alt_read_cfi_width+0x5f4>
 1205720:	00bffb44 	movi	r2,-19
 1205724:	e0bffa15 	stw	r2,-24(fp)
 1205728:	00005e06 	br	12058a4 <alt_read_cfi_width+0x76c>
 120572c:	00005d06 	br	12058a4 <alt_read_cfi_width+0x76c>
 1205730:	e0bfff17 	ldw	r2,-4(fp)
 1205734:	10800a17 	ldw	r2,40(r2)
 1205738:	1009883a 	mov	r4,r2
 120573c:	01401544 	movi	r5,85
 1205740:	01802604 	movi	r6,152
 1205744:	12046b80 	call	12046b8 <alt_write_flash_command_32bit_device_8bit_mode>
 1205748:	e03ff915 	stw	zero,-28(fp)
 120574c:	00000f06 	br	120578c <alt_read_cfi_width+0x654>
 1205750:	e0bfff17 	ldw	r2,-4(fp)
 1205754:	10800a17 	ldw	r2,40(r2)
 1205758:	e0fff917 	ldw	r3,-28(fp)
 120575c:	18c01004 	addi	r3,r3,64
 1205760:	10c5883a 	add	r2,r2,r3
 1205764:	10800023 	ldbuio	r2,0(r2)
 1205768:	10803fcc 	andi	r2,r2,255
 120576c:	1009883a 	mov	r4,r2
 1205770:	e0fffb84 	addi	r3,fp,-18
 1205774:	e0bff917 	ldw	r2,-28(fp)
 1205778:	1885883a 	add	r2,r3,r2
 120577c:	11000005 	stb	r4,0(r2)
 1205780:	e0bff917 	ldw	r2,-28(fp)
 1205784:	10800044 	addi	r2,r2,1
 1205788:	e0bff915 	stw	r2,-28(fp)
 120578c:	e0bff917 	ldw	r2,-28(fp)
 1205790:	10800310 	cmplti	r2,r2,12
 1205794:	103fee1e 	bne	r2,zero,1205750 <__alt_mem_instruction_tcm+0xff205750>
 1205798:	e0bffb83 	ldbu	r2,-18(fp)
 120579c:	10803fcc 	andi	r2,r2,255
 12057a0:	10801458 	cmpnei	r2,r2,81
 12057a4:	10003f1e 	bne	r2,zero,12058a4 <alt_read_cfi_width+0x76c>
 12057a8:	e0bffbc3 	ldbu	r2,-17(fp)
 12057ac:	10803fcc 	andi	r2,r2,255
 12057b0:	10801458 	cmpnei	r2,r2,81
 12057b4:	10003b1e 	bne	r2,zero,12058a4 <alt_read_cfi_width+0x76c>
 12057b8:	e0bffc03 	ldbu	r2,-16(fp)
 12057bc:	10803fcc 	andi	r2,r2,255
 12057c0:	10801458 	cmpnei	r2,r2,81
 12057c4:	1000371e 	bne	r2,zero,12058a4 <alt_read_cfi_width+0x76c>
 12057c8:	e0bffc43 	ldbu	r2,-15(fp)
 12057cc:	10803fcc 	andi	r2,r2,255
 12057d0:	10801458 	cmpnei	r2,r2,81
 12057d4:	1000331e 	bne	r2,zero,12058a4 <alt_read_cfi_width+0x76c>
 12057d8:	e0bffc83 	ldbu	r2,-14(fp)
 12057dc:	10803fcc 	andi	r2,r2,255
 12057e0:	10801498 	cmpnei	r2,r2,82
 12057e4:	10002f1e 	bne	r2,zero,12058a4 <alt_read_cfi_width+0x76c>
 12057e8:	e0bffcc3 	ldbu	r2,-13(fp)
 12057ec:	10803fcc 	andi	r2,r2,255
 12057f0:	10801498 	cmpnei	r2,r2,82
 12057f4:	10002b1e 	bne	r2,zero,12058a4 <alt_read_cfi_width+0x76c>
 12057f8:	e0bffd03 	ldbu	r2,-12(fp)
 12057fc:	10803fcc 	andi	r2,r2,255
 1205800:	10801498 	cmpnei	r2,r2,82
 1205804:	1000271e 	bne	r2,zero,12058a4 <alt_read_cfi_width+0x76c>
 1205808:	e0bffd43 	ldbu	r2,-11(fp)
 120580c:	10803fcc 	andi	r2,r2,255
 1205810:	10801498 	cmpnei	r2,r2,82
 1205814:	1000231e 	bne	r2,zero,12058a4 <alt_read_cfi_width+0x76c>
 1205818:	e0bffd83 	ldbu	r2,-10(fp)
 120581c:	10803fcc 	andi	r2,r2,255
 1205820:	10801658 	cmpnei	r2,r2,89
 1205824:	10001f1e 	bne	r2,zero,12058a4 <alt_read_cfi_width+0x76c>
 1205828:	e0bffdc3 	ldbu	r2,-9(fp)
 120582c:	10803fcc 	andi	r2,r2,255
 1205830:	10801658 	cmpnei	r2,r2,89
 1205834:	10001b1e 	bne	r2,zero,12058a4 <alt_read_cfi_width+0x76c>
 1205838:	e0bffe03 	ldbu	r2,-8(fp)
 120583c:	10803fcc 	andi	r2,r2,255
 1205840:	10801658 	cmpnei	r2,r2,89
 1205844:	1000171e 	bne	r2,zero,12058a4 <alt_read_cfi_width+0x76c>
 1205848:	e0bffe43 	ldbu	r2,-7(fp)
 120584c:	10803fcc 	andi	r2,r2,255
 1205850:	10801658 	cmpnei	r2,r2,89
 1205854:	1000131e 	bne	r2,zero,12058a4 <alt_read_cfi_width+0x76c>
 1205858:	e0bfff17 	ldw	r2,-4(fp)
 120585c:	00c00044 	movi	r3,1
 1205860:	10c02f15 	stw	r3,188(r2)
 1205864:	e0bfff17 	ldw	r2,-4(fp)
 1205868:	00c00104 	movi	r3,4
 120586c:	10c03015 	stw	r3,192(r2)
 1205870:	e0bfff17 	ldw	r2,-4(fp)
 1205874:	10800a17 	ldw	r2,40(r2)
 1205878:	10802804 	addi	r2,r2,160
 120587c:	10800037 	ldwio	r2,0(r2)
 1205880:	e0bffb0d 	sth	r2,-20(fp)
 1205884:	e0bffb0b 	ldhu	r2,-20(fp)
 1205888:	10800044 	addi	r2,r2,1
 120588c:	e0bffb0d 	sth	r2,-20(fp)
 1205890:	e0bffb0b 	ldhu	r2,-20(fp)
 1205894:	1080010c 	andi	r2,r2,4
 1205898:	1000021e 	bne	r2,zero,12058a4 <alt_read_cfi_width+0x76c>
 120589c:	00bffb44 	movi	r2,-19
 12058a0:	e0bffa15 	stw	r2,-24(fp)
 12058a4:	e0bffa17 	ldw	r2,-24(fp)
 12058a8:	e037883a 	mov	sp,fp
 12058ac:	dfc00117 	ldw	ra,4(sp)
 12058b0:	df000017 	ldw	fp,0(sp)
 12058b4:	dec00204 	addi	sp,sp,8
 12058b8:	f800283a 	ret

012058bc <alt_check_primary_table>:
 12058bc:	defffa04 	addi	sp,sp,-24
 12058c0:	dfc00515 	stw	ra,20(sp)
 12058c4:	df000415 	stw	fp,16(sp)
 12058c8:	df000404 	addi	fp,sp,16
 12058cc:	e13fff15 	stw	r4,-4(fp)
 12058d0:	e03ffd15 	stw	zero,-12(fp)
 12058d4:	e13fff17 	ldw	r4,-4(fp)
 12058d8:	01400544 	movi	r5,21
 12058dc:	1204af00 	call	1204af0 <alt_read_16bit_query_entry>
 12058e0:	10ffffcc 	andi	r3,r2,65535
 12058e4:	e0bfff17 	ldw	r2,-4(fp)
 12058e8:	10c03315 	stw	r3,204(r2)
 12058ec:	e03ffc15 	stw	zero,-16(fp)
 12058f0:	00001106 	br	1205938 <alt_check_primary_table+0x7c>
 12058f4:	e0bfff17 	ldw	r2,-4(fp)
 12058f8:	10803517 	ldw	r2,212(r2)
 12058fc:	e0ffff17 	ldw	r3,-4(fp)
 1205900:	19003317 	ldw	r4,204(r3)
 1205904:	e0fffc17 	ldw	r3,-16(fp)
 1205908:	20c7883a 	add	r3,r4,r3
 120590c:	e13fff17 	ldw	r4,-4(fp)
 1205910:	180b883a 	mov	r5,r3
 1205914:	103ee83a 	callr	r2
 1205918:	1009883a 	mov	r4,r2
 120591c:	e0fffe04 	addi	r3,fp,-8
 1205920:	e0bffc17 	ldw	r2,-16(fp)
 1205924:	1885883a 	add	r2,r3,r2
 1205928:	11000005 	stb	r4,0(r2)
 120592c:	e0bffc17 	ldw	r2,-16(fp)
 1205930:	10800044 	addi	r2,r2,1
 1205934:	e0bffc15 	stw	r2,-16(fp)
 1205938:	e0bffc17 	ldw	r2,-16(fp)
 120593c:	108000d0 	cmplti	r2,r2,3
 1205940:	103fec1e 	bne	r2,zero,12058f4 <__alt_mem_instruction_tcm+0xff2058f4>
 1205944:	e0bffe03 	ldbu	r2,-8(fp)
 1205948:	10803fcc 	andi	r2,r2,255
 120594c:	10801418 	cmpnei	r2,r2,80
 1205950:	1000081e 	bne	r2,zero,1205974 <alt_check_primary_table+0xb8>
 1205954:	e0bffe43 	ldbu	r2,-7(fp)
 1205958:	10803fcc 	andi	r2,r2,255
 120595c:	10801498 	cmpnei	r2,r2,82
 1205960:	1000041e 	bne	r2,zero,1205974 <alt_check_primary_table+0xb8>
 1205964:	e0bffe83 	ldbu	r2,-6(fp)
 1205968:	10803fcc 	andi	r2,r2,255
 120596c:	10801260 	cmpeqi	r2,r2,73
 1205970:	1000021e 	bne	r2,zero,120597c <alt_check_primary_table+0xc0>
 1205974:	00bffb44 	movi	r2,-19
 1205978:	e0bffd15 	stw	r2,-12(fp)
 120597c:	e0bffd17 	ldw	r2,-12(fp)
 1205980:	e037883a 	mov	sp,fp
 1205984:	dfc00117 	ldw	ra,4(sp)
 1205988:	df000017 	ldw	fp,0(sp)
 120598c:	dec00204 	addi	sp,sp,8
 1205990:	f800283a 	ret

01205994 <altera_avalon_jtag_uart_read_fd>:
 1205994:	defffa04 	addi	sp,sp,-24
 1205998:	dfc00515 	stw	ra,20(sp)
 120599c:	df000415 	stw	fp,16(sp)
 12059a0:	df000404 	addi	fp,sp,16
 12059a4:	e13ffd15 	stw	r4,-12(fp)
 12059a8:	e17ffe15 	stw	r5,-8(fp)
 12059ac:	e1bfff15 	stw	r6,-4(fp)
 12059b0:	e0bffd17 	ldw	r2,-12(fp)
 12059b4:	10800017 	ldw	r2,0(r2)
 12059b8:	e0bffc15 	stw	r2,-16(fp)
 12059bc:	e0bffc17 	ldw	r2,-16(fp)
 12059c0:	10c00a04 	addi	r3,r2,40
 12059c4:	e0bffd17 	ldw	r2,-12(fp)
 12059c8:	10800217 	ldw	r2,8(r2)
 12059cc:	1809883a 	mov	r4,r3
 12059d0:	e17ffe17 	ldw	r5,-8(fp)
 12059d4:	e1bfff17 	ldw	r6,-4(fp)
 12059d8:	100f883a 	mov	r7,r2
 12059dc:	1205fbc0 	call	1205fbc <altera_avalon_jtag_uart_read>
 12059e0:	e037883a 	mov	sp,fp
 12059e4:	dfc00117 	ldw	ra,4(sp)
 12059e8:	df000017 	ldw	fp,0(sp)
 12059ec:	dec00204 	addi	sp,sp,8
 12059f0:	f800283a 	ret

012059f4 <altera_avalon_jtag_uart_write_fd>:
 12059f4:	defffa04 	addi	sp,sp,-24
 12059f8:	dfc00515 	stw	ra,20(sp)
 12059fc:	df000415 	stw	fp,16(sp)
 1205a00:	df000404 	addi	fp,sp,16
 1205a04:	e13ffd15 	stw	r4,-12(fp)
 1205a08:	e17ffe15 	stw	r5,-8(fp)
 1205a0c:	e1bfff15 	stw	r6,-4(fp)
 1205a10:	e0bffd17 	ldw	r2,-12(fp)
 1205a14:	10800017 	ldw	r2,0(r2)
 1205a18:	e0bffc15 	stw	r2,-16(fp)
 1205a1c:	e0bffc17 	ldw	r2,-16(fp)
 1205a20:	10c00a04 	addi	r3,r2,40
 1205a24:	e0bffd17 	ldw	r2,-12(fp)
 1205a28:	10800217 	ldw	r2,8(r2)
 1205a2c:	1809883a 	mov	r4,r3
 1205a30:	e17ffe17 	ldw	r5,-8(fp)
 1205a34:	e1bfff17 	ldw	r6,-4(fp)
 1205a38:	100f883a 	mov	r7,r2
 1205a3c:	12061c80 	call	12061c8 <altera_avalon_jtag_uart_write>
 1205a40:	e037883a 	mov	sp,fp
 1205a44:	dfc00117 	ldw	ra,4(sp)
 1205a48:	df000017 	ldw	fp,0(sp)
 1205a4c:	dec00204 	addi	sp,sp,8
 1205a50:	f800283a 	ret

01205a54 <altera_avalon_jtag_uart_close_fd>:
 1205a54:	defffc04 	addi	sp,sp,-16
 1205a58:	dfc00315 	stw	ra,12(sp)
 1205a5c:	df000215 	stw	fp,8(sp)
 1205a60:	df000204 	addi	fp,sp,8
 1205a64:	e13fff15 	stw	r4,-4(fp)
 1205a68:	e0bfff17 	ldw	r2,-4(fp)
 1205a6c:	10800017 	ldw	r2,0(r2)
 1205a70:	e0bffe15 	stw	r2,-8(fp)
 1205a74:	e0bffe17 	ldw	r2,-8(fp)
 1205a78:	10c00a04 	addi	r3,r2,40
 1205a7c:	e0bfff17 	ldw	r2,-4(fp)
 1205a80:	10800217 	ldw	r2,8(r2)
 1205a84:	1809883a 	mov	r4,r3
 1205a88:	100b883a 	mov	r5,r2
 1205a8c:	1205e680 	call	1205e68 <altera_avalon_jtag_uart_close>
 1205a90:	e037883a 	mov	sp,fp
 1205a94:	dfc00117 	ldw	ra,4(sp)
 1205a98:	df000017 	ldw	fp,0(sp)
 1205a9c:	dec00204 	addi	sp,sp,8
 1205aa0:	f800283a 	ret

01205aa4 <altera_avalon_jtag_uart_ioctl_fd>:
 1205aa4:	defffa04 	addi	sp,sp,-24
 1205aa8:	dfc00515 	stw	ra,20(sp)
 1205aac:	df000415 	stw	fp,16(sp)
 1205ab0:	df000404 	addi	fp,sp,16
 1205ab4:	e13ffd15 	stw	r4,-12(fp)
 1205ab8:	e17ffe15 	stw	r5,-8(fp)
 1205abc:	e1bfff15 	stw	r6,-4(fp)
 1205ac0:	e0bffd17 	ldw	r2,-12(fp)
 1205ac4:	10800017 	ldw	r2,0(r2)
 1205ac8:	e0bffc15 	stw	r2,-16(fp)
 1205acc:	e0bffc17 	ldw	r2,-16(fp)
 1205ad0:	10800a04 	addi	r2,r2,40
 1205ad4:	1009883a 	mov	r4,r2
 1205ad8:	e17ffe17 	ldw	r5,-8(fp)
 1205adc:	e1bfff17 	ldw	r6,-4(fp)
 1205ae0:	1205ed00 	call	1205ed0 <altera_avalon_jtag_uart_ioctl>
 1205ae4:	e037883a 	mov	sp,fp
 1205ae8:	dfc00117 	ldw	ra,4(sp)
 1205aec:	df000017 	ldw	fp,0(sp)
 1205af0:	dec00204 	addi	sp,sp,8
 1205af4:	f800283a 	ret

01205af8 <altera_avalon_jtag_uart_init>:
 1205af8:	defffa04 	addi	sp,sp,-24
 1205afc:	dfc00515 	stw	ra,20(sp)
 1205b00:	df000415 	stw	fp,16(sp)
 1205b04:	df000404 	addi	fp,sp,16
 1205b08:	e13ffd15 	stw	r4,-12(fp)
 1205b0c:	e17ffe15 	stw	r5,-8(fp)
 1205b10:	e1bfff15 	stw	r6,-4(fp)
 1205b14:	e0bffd17 	ldw	r2,-12(fp)
 1205b18:	00c00044 	movi	r3,1
 1205b1c:	10c00815 	stw	r3,32(r2)
 1205b20:	e0bffd17 	ldw	r2,-12(fp)
 1205b24:	10800017 	ldw	r2,0(r2)
 1205b28:	10800104 	addi	r2,r2,4
 1205b2c:	1007883a 	mov	r3,r2
 1205b30:	e0bffd17 	ldw	r2,-12(fp)
 1205b34:	10800817 	ldw	r2,32(r2)
 1205b38:	18800035 	stwio	r2,0(r3)
 1205b3c:	e0fffe17 	ldw	r3,-8(fp)
 1205b40:	e0bfff17 	ldw	r2,-4(fp)
 1205b44:	d8000015 	stw	zero,0(sp)
 1205b48:	1809883a 	mov	r4,r3
 1205b4c:	100b883a 	mov	r5,r2
 1205b50:	01804834 	movhi	r6,288
 1205b54:	3196ef04 	addi	r6,r6,23484
 1205b58:	e1fffd17 	ldw	r7,-12(fp)
 1205b5c:	12032680 	call	1203268 <alt_ic_isr_register>
 1205b60:	e0bffd17 	ldw	r2,-12(fp)
 1205b64:	10000915 	stw	zero,36(r2)
 1205b68:	e0bffd17 	ldw	r2,-12(fp)
 1205b6c:	10c00204 	addi	r3,r2,8
 1205b70:	00804874 	movhi	r2,289
 1205b74:	10a70504 	addi	r2,r2,-25580
 1205b78:	10800017 	ldw	r2,0(r2)
 1205b7c:	1809883a 	mov	r4,r3
 1205b80:	100b883a 	mov	r5,r2
 1205b84:	01804834 	movhi	r6,288
 1205b88:	31977004 	addi	r6,r6,24000
 1205b8c:	e1fffd17 	ldw	r7,-12(fp)
 1205b90:	12064dc0 	call	12064dc <alt_alarm_start>
 1205b94:	1000040e 	bge	r2,zero,1205ba8 <altera_avalon_jtag_uart_init+0xb0>
 1205b98:	e0fffd17 	ldw	r3,-12(fp)
 1205b9c:	00a00034 	movhi	r2,32768
 1205ba0:	10bfffc4 	addi	r2,r2,-1
 1205ba4:	18800115 	stw	r2,4(r3)
 1205ba8:	e037883a 	mov	sp,fp
 1205bac:	dfc00117 	ldw	ra,4(sp)
 1205bb0:	df000017 	ldw	fp,0(sp)
 1205bb4:	dec00204 	addi	sp,sp,8
 1205bb8:	f800283a 	ret

01205bbc <altera_avalon_jtag_uart_irq>:
 1205bbc:	defff804 	addi	sp,sp,-32
 1205bc0:	df000715 	stw	fp,28(sp)
 1205bc4:	df000704 	addi	fp,sp,28
 1205bc8:	e13fff15 	stw	r4,-4(fp)
 1205bcc:	e0bfff17 	ldw	r2,-4(fp)
 1205bd0:	e0bffb15 	stw	r2,-20(fp)
 1205bd4:	e0bffb17 	ldw	r2,-20(fp)
 1205bd8:	10800017 	ldw	r2,0(r2)
 1205bdc:	e0bffc15 	stw	r2,-16(fp)
 1205be0:	e0bffc17 	ldw	r2,-16(fp)
 1205be4:	10800104 	addi	r2,r2,4
 1205be8:	10800037 	ldwio	r2,0(r2)
 1205bec:	e0bffd15 	stw	r2,-12(fp)
 1205bf0:	e0bffd17 	ldw	r2,-12(fp)
 1205bf4:	1080c00c 	andi	r2,r2,768
 1205bf8:	1000011e 	bne	r2,zero,1205c00 <altera_avalon_jtag_uart_irq+0x44>
 1205bfc:	00006c06 	br	1205db0 <altera_avalon_jtag_uart_irq+0x1f4>
 1205c00:	e0bffd17 	ldw	r2,-12(fp)
 1205c04:	1080400c 	andi	r2,r2,256
 1205c08:	10003426 	beq	r2,zero,1205cdc <altera_avalon_jtag_uart_irq+0x120>
 1205c0c:	00800074 	movhi	r2,1
 1205c10:	e0bff915 	stw	r2,-28(fp)
 1205c14:	e0bffb17 	ldw	r2,-20(fp)
 1205c18:	10800a17 	ldw	r2,40(r2)
 1205c1c:	10800044 	addi	r2,r2,1
 1205c20:	1081ffcc 	andi	r2,r2,2047
 1205c24:	e0bffe15 	stw	r2,-8(fp)
 1205c28:	e0bffb17 	ldw	r2,-20(fp)
 1205c2c:	10c00b17 	ldw	r3,44(r2)
 1205c30:	e0bffe17 	ldw	r2,-8(fp)
 1205c34:	1880011e 	bne	r3,r2,1205c3c <altera_avalon_jtag_uart_irq+0x80>
 1205c38:	00001606 	br	1205c94 <altera_avalon_jtag_uart_irq+0xd8>
 1205c3c:	e0bffc17 	ldw	r2,-16(fp)
 1205c40:	10800037 	ldwio	r2,0(r2)
 1205c44:	e0bff915 	stw	r2,-28(fp)
 1205c48:	e0bff917 	ldw	r2,-28(fp)
 1205c4c:	10a0000c 	andi	r2,r2,32768
 1205c50:	1000011e 	bne	r2,zero,1205c58 <altera_avalon_jtag_uart_irq+0x9c>
 1205c54:	00000f06 	br	1205c94 <altera_avalon_jtag_uart_irq+0xd8>
 1205c58:	e0bffb17 	ldw	r2,-20(fp)
 1205c5c:	10800a17 	ldw	r2,40(r2)
 1205c60:	e0fff917 	ldw	r3,-28(fp)
 1205c64:	1809883a 	mov	r4,r3
 1205c68:	e0fffb17 	ldw	r3,-20(fp)
 1205c6c:	1885883a 	add	r2,r3,r2
 1205c70:	10800e04 	addi	r2,r2,56
 1205c74:	11000005 	stb	r4,0(r2)
 1205c78:	e0bffb17 	ldw	r2,-20(fp)
 1205c7c:	10800a17 	ldw	r2,40(r2)
 1205c80:	10800044 	addi	r2,r2,1
 1205c84:	10c1ffcc 	andi	r3,r2,2047
 1205c88:	e0bffb17 	ldw	r2,-20(fp)
 1205c8c:	10c00a15 	stw	r3,40(r2)
 1205c90:	003fe006 	br	1205c14 <__alt_mem_instruction_tcm+0xff205c14>
 1205c94:	e0bff917 	ldw	r2,-28(fp)
 1205c98:	10bfffec 	andhi	r2,r2,65535
 1205c9c:	10000f26 	beq	r2,zero,1205cdc <altera_avalon_jtag_uart_irq+0x120>
 1205ca0:	e0bffb17 	ldw	r2,-20(fp)
 1205ca4:	10c00817 	ldw	r3,32(r2)
 1205ca8:	00bfff84 	movi	r2,-2
 1205cac:	1886703a 	and	r3,r3,r2
 1205cb0:	e0bffb17 	ldw	r2,-20(fp)
 1205cb4:	10c00815 	stw	r3,32(r2)
 1205cb8:	e0bffc17 	ldw	r2,-16(fp)
 1205cbc:	10800104 	addi	r2,r2,4
 1205cc0:	1007883a 	mov	r3,r2
 1205cc4:	e0bffb17 	ldw	r2,-20(fp)
 1205cc8:	10800817 	ldw	r2,32(r2)
 1205ccc:	18800035 	stwio	r2,0(r3)
 1205cd0:	e0bffc17 	ldw	r2,-16(fp)
 1205cd4:	10800104 	addi	r2,r2,4
 1205cd8:	10800037 	ldwio	r2,0(r2)
 1205cdc:	e0bffd17 	ldw	r2,-12(fp)
 1205ce0:	1080800c 	andi	r2,r2,512
 1205ce4:	10003126 	beq	r2,zero,1205dac <altera_avalon_jtag_uart_irq+0x1f0>
 1205ce8:	e0bffd17 	ldw	r2,-12(fp)
 1205cec:	1004d43a 	srli	r2,r2,16
 1205cf0:	e0bffa15 	stw	r2,-24(fp)
 1205cf4:	00001406 	br	1205d48 <altera_avalon_jtag_uart_irq+0x18c>
 1205cf8:	e0bffc17 	ldw	r2,-16(fp)
 1205cfc:	e0fffb17 	ldw	r3,-20(fp)
 1205d00:	18c00d17 	ldw	r3,52(r3)
 1205d04:	e13ffb17 	ldw	r4,-20(fp)
 1205d08:	20c7883a 	add	r3,r4,r3
 1205d0c:	18c20e04 	addi	r3,r3,2104
 1205d10:	18c00003 	ldbu	r3,0(r3)
 1205d14:	18c03fcc 	andi	r3,r3,255
 1205d18:	18c0201c 	xori	r3,r3,128
 1205d1c:	18ffe004 	addi	r3,r3,-128
 1205d20:	10c00035 	stwio	r3,0(r2)
 1205d24:	e0bffb17 	ldw	r2,-20(fp)
 1205d28:	10800d17 	ldw	r2,52(r2)
 1205d2c:	10800044 	addi	r2,r2,1
 1205d30:	10c1ffcc 	andi	r3,r2,2047
 1205d34:	e0bffb17 	ldw	r2,-20(fp)
 1205d38:	10c00d15 	stw	r3,52(r2)
 1205d3c:	e0bffa17 	ldw	r2,-24(fp)
 1205d40:	10bfffc4 	addi	r2,r2,-1
 1205d44:	e0bffa15 	stw	r2,-24(fp)
 1205d48:	e0bffa17 	ldw	r2,-24(fp)
 1205d4c:	10000526 	beq	r2,zero,1205d64 <altera_avalon_jtag_uart_irq+0x1a8>
 1205d50:	e0bffb17 	ldw	r2,-20(fp)
 1205d54:	10c00d17 	ldw	r3,52(r2)
 1205d58:	e0bffb17 	ldw	r2,-20(fp)
 1205d5c:	10800c17 	ldw	r2,48(r2)
 1205d60:	18bfe51e 	bne	r3,r2,1205cf8 <__alt_mem_instruction_tcm+0xff205cf8>
 1205d64:	e0bffa17 	ldw	r2,-24(fp)
 1205d68:	10001026 	beq	r2,zero,1205dac <altera_avalon_jtag_uart_irq+0x1f0>
 1205d6c:	e0bffb17 	ldw	r2,-20(fp)
 1205d70:	10c00817 	ldw	r3,32(r2)
 1205d74:	00bfff44 	movi	r2,-3
 1205d78:	1886703a 	and	r3,r3,r2
 1205d7c:	e0bffb17 	ldw	r2,-20(fp)
 1205d80:	10c00815 	stw	r3,32(r2)
 1205d84:	e0bffb17 	ldw	r2,-20(fp)
 1205d88:	10800017 	ldw	r2,0(r2)
 1205d8c:	10800104 	addi	r2,r2,4
 1205d90:	1007883a 	mov	r3,r2
 1205d94:	e0bffb17 	ldw	r2,-20(fp)
 1205d98:	10800817 	ldw	r2,32(r2)
 1205d9c:	18800035 	stwio	r2,0(r3)
 1205da0:	e0bffc17 	ldw	r2,-16(fp)
 1205da4:	10800104 	addi	r2,r2,4
 1205da8:	10800037 	ldwio	r2,0(r2)
 1205dac:	003f8c06 	br	1205be0 <__alt_mem_instruction_tcm+0xff205be0>
 1205db0:	e037883a 	mov	sp,fp
 1205db4:	df000017 	ldw	fp,0(sp)
 1205db8:	dec00104 	addi	sp,sp,4
 1205dbc:	f800283a 	ret

01205dc0 <altera_avalon_jtag_uart_timeout>:
 1205dc0:	defff804 	addi	sp,sp,-32
 1205dc4:	df000715 	stw	fp,28(sp)
 1205dc8:	df000704 	addi	fp,sp,28
 1205dcc:	e13ffb15 	stw	r4,-20(fp)
 1205dd0:	e0bffb17 	ldw	r2,-20(fp)
 1205dd4:	e0bff915 	stw	r2,-28(fp)
 1205dd8:	e0bff917 	ldw	r2,-28(fp)
 1205ddc:	10800017 	ldw	r2,0(r2)
 1205de0:	10800104 	addi	r2,r2,4
 1205de4:	10800037 	ldwio	r2,0(r2)
 1205de8:	e0bffa15 	stw	r2,-24(fp)
 1205dec:	e0bffa17 	ldw	r2,-24(fp)
 1205df0:	1081000c 	andi	r2,r2,1024
 1205df4:	10000b26 	beq	r2,zero,1205e24 <altera_avalon_jtag_uart_timeout+0x64>
 1205df8:	e0bff917 	ldw	r2,-28(fp)
 1205dfc:	10800017 	ldw	r2,0(r2)
 1205e00:	10800104 	addi	r2,r2,4
 1205e04:	1007883a 	mov	r3,r2
 1205e08:	e0bff917 	ldw	r2,-28(fp)
 1205e0c:	10800817 	ldw	r2,32(r2)
 1205e10:	10810014 	ori	r2,r2,1024
 1205e14:	18800035 	stwio	r2,0(r3)
 1205e18:	e0bff917 	ldw	r2,-28(fp)
 1205e1c:	10000915 	stw	zero,36(r2)
 1205e20:	00000a06 	br	1205e4c <altera_avalon_jtag_uart_timeout+0x8c>
 1205e24:	e0bff917 	ldw	r2,-28(fp)
 1205e28:	10c00917 	ldw	r3,36(r2)
 1205e2c:	00a00034 	movhi	r2,32768
 1205e30:	10bfff04 	addi	r2,r2,-4
 1205e34:	10c00536 	bltu	r2,r3,1205e4c <altera_avalon_jtag_uart_timeout+0x8c>
 1205e38:	e0bff917 	ldw	r2,-28(fp)
 1205e3c:	10800917 	ldw	r2,36(r2)
 1205e40:	10c00044 	addi	r3,r2,1
 1205e44:	e0bff917 	ldw	r2,-28(fp)
 1205e48:	10c00915 	stw	r3,36(r2)
 1205e4c:	00804874 	movhi	r2,289
 1205e50:	10a70504 	addi	r2,r2,-25580
 1205e54:	10800017 	ldw	r2,0(r2)
 1205e58:	e037883a 	mov	sp,fp
 1205e5c:	df000017 	ldw	fp,0(sp)
 1205e60:	dec00104 	addi	sp,sp,4
 1205e64:	f800283a 	ret

01205e68 <altera_avalon_jtag_uart_close>:
 1205e68:	defffd04 	addi	sp,sp,-12
 1205e6c:	df000215 	stw	fp,8(sp)
 1205e70:	df000204 	addi	fp,sp,8
 1205e74:	e13ffe15 	stw	r4,-8(fp)
 1205e78:	e17fff15 	stw	r5,-4(fp)
 1205e7c:	00000506 	br	1205e94 <altera_avalon_jtag_uart_close+0x2c>
 1205e80:	e0bfff17 	ldw	r2,-4(fp)
 1205e84:	1090000c 	andi	r2,r2,16384
 1205e88:	10000226 	beq	r2,zero,1205e94 <altera_avalon_jtag_uart_close+0x2c>
 1205e8c:	00bffd44 	movi	r2,-11
 1205e90:	00000b06 	br	1205ec0 <altera_avalon_jtag_uart_close+0x58>
 1205e94:	e0bffe17 	ldw	r2,-8(fp)
 1205e98:	10c00d17 	ldw	r3,52(r2)
 1205e9c:	e0bffe17 	ldw	r2,-8(fp)
 1205ea0:	10800c17 	ldw	r2,48(r2)
 1205ea4:	18800526 	beq	r3,r2,1205ebc <altera_avalon_jtag_uart_close+0x54>
 1205ea8:	e0bffe17 	ldw	r2,-8(fp)
 1205eac:	10c00917 	ldw	r3,36(r2)
 1205eb0:	e0bffe17 	ldw	r2,-8(fp)
 1205eb4:	10800117 	ldw	r2,4(r2)
 1205eb8:	18bff136 	bltu	r3,r2,1205e80 <__alt_mem_instruction_tcm+0xff205e80>
 1205ebc:	0005883a 	mov	r2,zero
 1205ec0:	e037883a 	mov	sp,fp
 1205ec4:	df000017 	ldw	fp,0(sp)
 1205ec8:	dec00104 	addi	sp,sp,4
 1205ecc:	f800283a 	ret

01205ed0 <altera_avalon_jtag_uart_ioctl>:
 1205ed0:	defffa04 	addi	sp,sp,-24
 1205ed4:	df000515 	stw	fp,20(sp)
 1205ed8:	df000504 	addi	fp,sp,20
 1205edc:	e13ffd15 	stw	r4,-12(fp)
 1205ee0:	e17ffe15 	stw	r5,-8(fp)
 1205ee4:	e1bfff15 	stw	r6,-4(fp)
 1205ee8:	00bff9c4 	movi	r2,-25
 1205eec:	e0bffb15 	stw	r2,-20(fp)
 1205ef0:	e0bffe17 	ldw	r2,-8(fp)
 1205ef4:	10da8060 	cmpeqi	r3,r2,27137
 1205ef8:	1800031e 	bne	r3,zero,1205f08 <altera_avalon_jtag_uart_ioctl+0x38>
 1205efc:	109a80a0 	cmpeqi	r2,r2,27138
 1205f00:	1000191e 	bne	r2,zero,1205f68 <altera_avalon_jtag_uart_ioctl+0x98>
 1205f04:	00002806 	br	1205fa8 <altera_avalon_jtag_uart_ioctl+0xd8>
 1205f08:	e0bffd17 	ldw	r2,-12(fp)
 1205f0c:	10c00117 	ldw	r3,4(r2)
 1205f10:	00a00034 	movhi	r2,32768
 1205f14:	10bfffc4 	addi	r2,r2,-1
 1205f18:	18801226 	beq	r3,r2,1205f64 <altera_avalon_jtag_uart_ioctl+0x94>
 1205f1c:	e0bfff17 	ldw	r2,-4(fp)
 1205f20:	10800017 	ldw	r2,0(r2)
 1205f24:	e0bffc15 	stw	r2,-16(fp)
 1205f28:	e0bffc17 	ldw	r2,-16(fp)
 1205f2c:	10800090 	cmplti	r2,r2,2
 1205f30:	1000061e 	bne	r2,zero,1205f4c <altera_avalon_jtag_uart_ioctl+0x7c>
 1205f34:	e0fffc17 	ldw	r3,-16(fp)
 1205f38:	00a00034 	movhi	r2,32768
 1205f3c:	10bfffc4 	addi	r2,r2,-1
 1205f40:	18800226 	beq	r3,r2,1205f4c <altera_avalon_jtag_uart_ioctl+0x7c>
 1205f44:	e0bffc17 	ldw	r2,-16(fp)
 1205f48:	00000206 	br	1205f54 <altera_avalon_jtag_uart_ioctl+0x84>
 1205f4c:	00a00034 	movhi	r2,32768
 1205f50:	10bfff84 	addi	r2,r2,-2
 1205f54:	e0fffd17 	ldw	r3,-12(fp)
 1205f58:	18800115 	stw	r2,4(r3)
 1205f5c:	e03ffb15 	stw	zero,-20(fp)
 1205f60:	00001106 	br	1205fa8 <altera_avalon_jtag_uart_ioctl+0xd8>
 1205f64:	00001006 	br	1205fa8 <altera_avalon_jtag_uart_ioctl+0xd8>
 1205f68:	e0bffd17 	ldw	r2,-12(fp)
 1205f6c:	10c00117 	ldw	r3,4(r2)
 1205f70:	00a00034 	movhi	r2,32768
 1205f74:	10bfffc4 	addi	r2,r2,-1
 1205f78:	18800a26 	beq	r3,r2,1205fa4 <altera_avalon_jtag_uart_ioctl+0xd4>
 1205f7c:	e0bffd17 	ldw	r2,-12(fp)
 1205f80:	10c00917 	ldw	r3,36(r2)
 1205f84:	e0bffd17 	ldw	r2,-12(fp)
 1205f88:	10800117 	ldw	r2,4(r2)
 1205f8c:	1885803a 	cmpltu	r2,r3,r2
 1205f90:	10c03fcc 	andi	r3,r2,255
 1205f94:	e0bfff17 	ldw	r2,-4(fp)
 1205f98:	10c00015 	stw	r3,0(r2)
 1205f9c:	e03ffb15 	stw	zero,-20(fp)
 1205fa0:	00000006 	br	1205fa4 <altera_avalon_jtag_uart_ioctl+0xd4>
 1205fa4:	0001883a 	nop
 1205fa8:	e0bffb17 	ldw	r2,-20(fp)
 1205fac:	e037883a 	mov	sp,fp
 1205fb0:	df000017 	ldw	fp,0(sp)
 1205fb4:	dec00104 	addi	sp,sp,4
 1205fb8:	f800283a 	ret

01205fbc <altera_avalon_jtag_uart_read>:
 1205fbc:	defff304 	addi	sp,sp,-52
 1205fc0:	dfc00c15 	stw	ra,48(sp)
 1205fc4:	df000b15 	stw	fp,44(sp)
 1205fc8:	df000b04 	addi	fp,sp,44
 1205fcc:	e13ffc15 	stw	r4,-16(fp)
 1205fd0:	e17ffd15 	stw	r5,-12(fp)
 1205fd4:	e1bffe15 	stw	r6,-8(fp)
 1205fd8:	e1ffff15 	stw	r7,-4(fp)
 1205fdc:	e0bffd17 	ldw	r2,-12(fp)
 1205fe0:	e0bff515 	stw	r2,-44(fp)
 1205fe4:	00004906 	br	120610c <altera_avalon_jtag_uart_read+0x150>
 1205fe8:	e0bffc17 	ldw	r2,-16(fp)
 1205fec:	10800a17 	ldw	r2,40(r2)
 1205ff0:	e0bff715 	stw	r2,-36(fp)
 1205ff4:	e0bffc17 	ldw	r2,-16(fp)
 1205ff8:	10800b17 	ldw	r2,44(r2)
 1205ffc:	e0bff815 	stw	r2,-32(fp)
 1206000:	e0fff717 	ldw	r3,-36(fp)
 1206004:	e0bff817 	ldw	r2,-32(fp)
 1206008:	18800536 	bltu	r3,r2,1206020 <altera_avalon_jtag_uart_read+0x64>
 120600c:	e0fff717 	ldw	r3,-36(fp)
 1206010:	e0bff817 	ldw	r2,-32(fp)
 1206014:	1885c83a 	sub	r2,r3,r2
 1206018:	e0bff615 	stw	r2,-40(fp)
 120601c:	00000406 	br	1206030 <altera_avalon_jtag_uart_read+0x74>
 1206020:	00c20004 	movi	r3,2048
 1206024:	e0bff817 	ldw	r2,-32(fp)
 1206028:	1885c83a 	sub	r2,r3,r2
 120602c:	e0bff615 	stw	r2,-40(fp)
 1206030:	e0bff617 	ldw	r2,-40(fp)
 1206034:	1000011e 	bne	r2,zero,120603c <altera_avalon_jtag_uart_read+0x80>
 1206038:	00001d06 	br	12060b0 <altera_avalon_jtag_uart_read+0xf4>
 120603c:	e0fffe17 	ldw	r3,-8(fp)
 1206040:	e0bff617 	ldw	r2,-40(fp)
 1206044:	1880022e 	bgeu	r3,r2,1206050 <altera_avalon_jtag_uart_read+0x94>
 1206048:	e0bffe17 	ldw	r2,-8(fp)
 120604c:	e0bff615 	stw	r2,-40(fp)
 1206050:	e0bff817 	ldw	r2,-32(fp)
 1206054:	10800e04 	addi	r2,r2,56
 1206058:	e0fffc17 	ldw	r3,-16(fp)
 120605c:	1885883a 	add	r2,r3,r2
 1206060:	e13ff517 	ldw	r4,-44(fp)
 1206064:	100b883a 	mov	r5,r2
 1206068:	e1bff617 	ldw	r6,-40(fp)
 120606c:	12013a80 	call	12013a8 <memcpy>
 1206070:	e0fff517 	ldw	r3,-44(fp)
 1206074:	e0bff617 	ldw	r2,-40(fp)
 1206078:	1885883a 	add	r2,r3,r2
 120607c:	e0bff515 	stw	r2,-44(fp)
 1206080:	e0fffe17 	ldw	r3,-8(fp)
 1206084:	e0bff617 	ldw	r2,-40(fp)
 1206088:	1885c83a 	sub	r2,r3,r2
 120608c:	e0bffe15 	stw	r2,-8(fp)
 1206090:	e0fff817 	ldw	r3,-32(fp)
 1206094:	e0bff617 	ldw	r2,-40(fp)
 1206098:	1885883a 	add	r2,r3,r2
 120609c:	10c1ffcc 	andi	r3,r2,2047
 12060a0:	e0bffc17 	ldw	r2,-16(fp)
 12060a4:	10c00b15 	stw	r3,44(r2)
 12060a8:	e0bffe17 	ldw	r2,-8(fp)
 12060ac:	00bfce16 	blt	zero,r2,1205fe8 <__alt_mem_instruction_tcm+0xff205fe8>
 12060b0:	e0fff517 	ldw	r3,-44(fp)
 12060b4:	e0bffd17 	ldw	r2,-12(fp)
 12060b8:	18800126 	beq	r3,r2,12060c0 <altera_avalon_jtag_uart_read+0x104>
 12060bc:	00001506 	br	1206114 <altera_avalon_jtag_uart_read+0x158>
 12060c0:	e0bfff17 	ldw	r2,-4(fp)
 12060c4:	1090000c 	andi	r2,r2,16384
 12060c8:	10000126 	beq	r2,zero,12060d0 <altera_avalon_jtag_uart_read+0x114>
 12060cc:	00001106 	br	1206114 <altera_avalon_jtag_uart_read+0x158>
 12060d0:	0001883a 	nop
 12060d4:	e0bffc17 	ldw	r2,-16(fp)
 12060d8:	10c00a17 	ldw	r3,40(r2)
 12060dc:	e0bff717 	ldw	r2,-36(fp)
 12060e0:	1880051e 	bne	r3,r2,12060f8 <altera_avalon_jtag_uart_read+0x13c>
 12060e4:	e0bffc17 	ldw	r2,-16(fp)
 12060e8:	10c00917 	ldw	r3,36(r2)
 12060ec:	e0bffc17 	ldw	r2,-16(fp)
 12060f0:	10800117 	ldw	r2,4(r2)
 12060f4:	18bff736 	bltu	r3,r2,12060d4 <__alt_mem_instruction_tcm+0xff2060d4>
 12060f8:	e0bffc17 	ldw	r2,-16(fp)
 12060fc:	10c00a17 	ldw	r3,40(r2)
 1206100:	e0bff717 	ldw	r2,-36(fp)
 1206104:	1880011e 	bne	r3,r2,120610c <altera_avalon_jtag_uart_read+0x150>
 1206108:	00000206 	br	1206114 <altera_avalon_jtag_uart_read+0x158>
 120610c:	e0bffe17 	ldw	r2,-8(fp)
 1206110:	00bfb516 	blt	zero,r2,1205fe8 <__alt_mem_instruction_tcm+0xff205fe8>
 1206114:	e0fff517 	ldw	r3,-44(fp)
 1206118:	e0bffd17 	ldw	r2,-12(fp)
 120611c:	18801826 	beq	r3,r2,1206180 <altera_avalon_jtag_uart_read+0x1c4>
 1206120:	0005303a 	rdctl	r2,status
 1206124:	e0bffa15 	stw	r2,-24(fp)
 1206128:	e0fffa17 	ldw	r3,-24(fp)
 120612c:	00bfff84 	movi	r2,-2
 1206130:	1884703a 	and	r2,r3,r2
 1206134:	1001703a 	wrctl	status,r2
 1206138:	e0bffa17 	ldw	r2,-24(fp)
 120613c:	e0bff915 	stw	r2,-28(fp)
 1206140:	e0bffc17 	ldw	r2,-16(fp)
 1206144:	10800817 	ldw	r2,32(r2)
 1206148:	10c00054 	ori	r3,r2,1
 120614c:	e0bffc17 	ldw	r2,-16(fp)
 1206150:	10c00815 	stw	r3,32(r2)
 1206154:	e0bffc17 	ldw	r2,-16(fp)
 1206158:	10800017 	ldw	r2,0(r2)
 120615c:	10800104 	addi	r2,r2,4
 1206160:	1007883a 	mov	r3,r2
 1206164:	e0bffc17 	ldw	r2,-16(fp)
 1206168:	10800817 	ldw	r2,32(r2)
 120616c:	18800035 	stwio	r2,0(r3)
 1206170:	e0bff917 	ldw	r2,-28(fp)
 1206174:	e0bffb15 	stw	r2,-20(fp)
 1206178:	e0bffb17 	ldw	r2,-20(fp)
 120617c:	1001703a 	wrctl	status,r2
 1206180:	e0fff517 	ldw	r3,-44(fp)
 1206184:	e0bffd17 	ldw	r2,-12(fp)
 1206188:	18800426 	beq	r3,r2,120619c <altera_avalon_jtag_uart_read+0x1e0>
 120618c:	e0fff517 	ldw	r3,-44(fp)
 1206190:	e0bffd17 	ldw	r2,-12(fp)
 1206194:	1885c83a 	sub	r2,r3,r2
 1206198:	00000606 	br	12061b4 <altera_avalon_jtag_uart_read+0x1f8>
 120619c:	e0bfff17 	ldw	r2,-4(fp)
 12061a0:	1090000c 	andi	r2,r2,16384
 12061a4:	10000226 	beq	r2,zero,12061b0 <altera_avalon_jtag_uart_read+0x1f4>
 12061a8:	00bffd44 	movi	r2,-11
 12061ac:	00000106 	br	12061b4 <altera_avalon_jtag_uart_read+0x1f8>
 12061b0:	00bffec4 	movi	r2,-5
 12061b4:	e037883a 	mov	sp,fp
 12061b8:	dfc00117 	ldw	ra,4(sp)
 12061bc:	df000017 	ldw	fp,0(sp)
 12061c0:	dec00204 	addi	sp,sp,8
 12061c4:	f800283a 	ret

012061c8 <altera_avalon_jtag_uart_write>:
 12061c8:	defff304 	addi	sp,sp,-52
 12061cc:	dfc00c15 	stw	ra,48(sp)
 12061d0:	df000b15 	stw	fp,44(sp)
 12061d4:	df000b04 	addi	fp,sp,44
 12061d8:	e13ffc15 	stw	r4,-16(fp)
 12061dc:	e17ffd15 	stw	r5,-12(fp)
 12061e0:	e1bffe15 	stw	r6,-8(fp)
 12061e4:	e1ffff15 	stw	r7,-4(fp)
 12061e8:	e03ff515 	stw	zero,-44(fp)
 12061ec:	e0bffd17 	ldw	r2,-12(fp)
 12061f0:	e0bff715 	stw	r2,-36(fp)
 12061f4:	00003806 	br	12062d8 <altera_avalon_jtag_uart_write+0x110>
 12061f8:	e0bffc17 	ldw	r2,-16(fp)
 12061fc:	10800c17 	ldw	r2,48(r2)
 1206200:	e0bff815 	stw	r2,-32(fp)
 1206204:	e0bffc17 	ldw	r2,-16(fp)
 1206208:	10800d17 	ldw	r2,52(r2)
 120620c:	e0bff515 	stw	r2,-44(fp)
 1206210:	e0fff817 	ldw	r3,-32(fp)
 1206214:	e0bff517 	ldw	r2,-44(fp)
 1206218:	1880062e 	bgeu	r3,r2,1206234 <altera_avalon_jtag_uart_write+0x6c>
 120621c:	e0fff517 	ldw	r3,-44(fp)
 1206220:	e0bff817 	ldw	r2,-32(fp)
 1206224:	1885c83a 	sub	r2,r3,r2
 1206228:	10bfffc4 	addi	r2,r2,-1
 120622c:	e0bff615 	stw	r2,-40(fp)
 1206230:	00000b06 	br	1206260 <altera_avalon_jtag_uart_write+0x98>
 1206234:	e0bff517 	ldw	r2,-44(fp)
 1206238:	10000526 	beq	r2,zero,1206250 <altera_avalon_jtag_uart_write+0x88>
 120623c:	00c20004 	movi	r3,2048
 1206240:	e0bff817 	ldw	r2,-32(fp)
 1206244:	1885c83a 	sub	r2,r3,r2
 1206248:	e0bff615 	stw	r2,-40(fp)
 120624c:	00000406 	br	1206260 <altera_avalon_jtag_uart_write+0x98>
 1206250:	00c1ffc4 	movi	r3,2047
 1206254:	e0bff817 	ldw	r2,-32(fp)
 1206258:	1885c83a 	sub	r2,r3,r2
 120625c:	e0bff615 	stw	r2,-40(fp)
 1206260:	e0bff617 	ldw	r2,-40(fp)
 1206264:	1000011e 	bne	r2,zero,120626c <altera_avalon_jtag_uart_write+0xa4>
 1206268:	00001d06 	br	12062e0 <altera_avalon_jtag_uart_write+0x118>
 120626c:	e0fffe17 	ldw	r3,-8(fp)
 1206270:	e0bff617 	ldw	r2,-40(fp)
 1206274:	1880022e 	bgeu	r3,r2,1206280 <altera_avalon_jtag_uart_write+0xb8>
 1206278:	e0bffe17 	ldw	r2,-8(fp)
 120627c:	e0bff615 	stw	r2,-40(fp)
 1206280:	e0bff817 	ldw	r2,-32(fp)
 1206284:	10820e04 	addi	r2,r2,2104
 1206288:	e0fffc17 	ldw	r3,-16(fp)
 120628c:	1885883a 	add	r2,r3,r2
 1206290:	1009883a 	mov	r4,r2
 1206294:	e17ffd17 	ldw	r5,-12(fp)
 1206298:	e1bff617 	ldw	r6,-40(fp)
 120629c:	12013a80 	call	12013a8 <memcpy>
 12062a0:	e0fffd17 	ldw	r3,-12(fp)
 12062a4:	e0bff617 	ldw	r2,-40(fp)
 12062a8:	1885883a 	add	r2,r3,r2
 12062ac:	e0bffd15 	stw	r2,-12(fp)
 12062b0:	e0fffe17 	ldw	r3,-8(fp)
 12062b4:	e0bff617 	ldw	r2,-40(fp)
 12062b8:	1885c83a 	sub	r2,r3,r2
 12062bc:	e0bffe15 	stw	r2,-8(fp)
 12062c0:	e0fff817 	ldw	r3,-32(fp)
 12062c4:	e0bff617 	ldw	r2,-40(fp)
 12062c8:	1885883a 	add	r2,r3,r2
 12062cc:	10c1ffcc 	andi	r3,r2,2047
 12062d0:	e0bffc17 	ldw	r2,-16(fp)
 12062d4:	10c00c15 	stw	r3,48(r2)
 12062d8:	e0bffe17 	ldw	r2,-8(fp)
 12062dc:	00bfc616 	blt	zero,r2,12061f8 <__alt_mem_instruction_tcm+0xff2061f8>
 12062e0:	0005303a 	rdctl	r2,status
 12062e4:	e0bffa15 	stw	r2,-24(fp)
 12062e8:	e0fffa17 	ldw	r3,-24(fp)
 12062ec:	00bfff84 	movi	r2,-2
 12062f0:	1884703a 	and	r2,r3,r2
 12062f4:	1001703a 	wrctl	status,r2
 12062f8:	e0bffa17 	ldw	r2,-24(fp)
 12062fc:	e0bff915 	stw	r2,-28(fp)
 1206300:	e0bffc17 	ldw	r2,-16(fp)
 1206304:	10800817 	ldw	r2,32(r2)
 1206308:	10c00094 	ori	r3,r2,2
 120630c:	e0bffc17 	ldw	r2,-16(fp)
 1206310:	10c00815 	stw	r3,32(r2)
 1206314:	e0bffc17 	ldw	r2,-16(fp)
 1206318:	10800017 	ldw	r2,0(r2)
 120631c:	10800104 	addi	r2,r2,4
 1206320:	1007883a 	mov	r3,r2
 1206324:	e0bffc17 	ldw	r2,-16(fp)
 1206328:	10800817 	ldw	r2,32(r2)
 120632c:	18800035 	stwio	r2,0(r3)
 1206330:	e0bff917 	ldw	r2,-28(fp)
 1206334:	e0bffb15 	stw	r2,-20(fp)
 1206338:	e0bffb17 	ldw	r2,-20(fp)
 120633c:	1001703a 	wrctl	status,r2
 1206340:	e0bffe17 	ldw	r2,-8(fp)
 1206344:	0080120e 	bge	zero,r2,1206390 <altera_avalon_jtag_uart_write+0x1c8>
 1206348:	e0bfff17 	ldw	r2,-4(fp)
 120634c:	1090000c 	andi	r2,r2,16384
 1206350:	10000126 	beq	r2,zero,1206358 <altera_avalon_jtag_uart_write+0x190>
 1206354:	00001006 	br	1206398 <altera_avalon_jtag_uart_write+0x1d0>
 1206358:	0001883a 	nop
 120635c:	e0bffc17 	ldw	r2,-16(fp)
 1206360:	10c00d17 	ldw	r3,52(r2)
 1206364:	e0bff517 	ldw	r2,-44(fp)
 1206368:	1880051e 	bne	r3,r2,1206380 <altera_avalon_jtag_uart_write+0x1b8>
 120636c:	e0bffc17 	ldw	r2,-16(fp)
 1206370:	10c00917 	ldw	r3,36(r2)
 1206374:	e0bffc17 	ldw	r2,-16(fp)
 1206378:	10800117 	ldw	r2,4(r2)
 120637c:	18bff736 	bltu	r3,r2,120635c <__alt_mem_instruction_tcm+0xff20635c>
 1206380:	e0bffc17 	ldw	r2,-16(fp)
 1206384:	10800917 	ldw	r2,36(r2)
 1206388:	10000126 	beq	r2,zero,1206390 <altera_avalon_jtag_uart_write+0x1c8>
 120638c:	00000206 	br	1206398 <altera_avalon_jtag_uart_write+0x1d0>
 1206390:	e0bffe17 	ldw	r2,-8(fp)
 1206394:	00bf9716 	blt	zero,r2,12061f4 <__alt_mem_instruction_tcm+0xff2061f4>
 1206398:	e0fffd17 	ldw	r3,-12(fp)
 120639c:	e0bff717 	ldw	r2,-36(fp)
 12063a0:	18800426 	beq	r3,r2,12063b4 <altera_avalon_jtag_uart_write+0x1ec>
 12063a4:	e0fffd17 	ldw	r3,-12(fp)
 12063a8:	e0bff717 	ldw	r2,-36(fp)
 12063ac:	1885c83a 	sub	r2,r3,r2
 12063b0:	00000606 	br	12063cc <altera_avalon_jtag_uart_write+0x204>
 12063b4:	e0bfff17 	ldw	r2,-4(fp)
 12063b8:	1090000c 	andi	r2,r2,16384
 12063bc:	10000226 	beq	r2,zero,12063c8 <altera_avalon_jtag_uart_write+0x200>
 12063c0:	00bffd44 	movi	r2,-11
 12063c4:	00000106 	br	12063cc <altera_avalon_jtag_uart_write+0x204>
 12063c8:	00bffec4 	movi	r2,-5
 12063cc:	e037883a 	mov	sp,fp
 12063d0:	dfc00117 	ldw	ra,4(sp)
 12063d4:	df000017 	ldw	fp,0(sp)
 12063d8:	dec00204 	addi	sp,sp,8
 12063dc:	f800283a 	ret

012063e0 <alt_avalon_timer_sc_irq>:
 12063e0:	defffa04 	addi	sp,sp,-24
 12063e4:	dfc00515 	stw	ra,20(sp)
 12063e8:	df000415 	stw	fp,16(sp)
 12063ec:	df000404 	addi	fp,sp,16
 12063f0:	e13fff15 	stw	r4,-4(fp)
 12063f4:	0007883a 	mov	r3,zero
 12063f8:	e0bfff17 	ldw	r2,-4(fp)
 12063fc:	10c00035 	stwio	r3,0(r2)
 1206400:	e0bfff17 	ldw	r2,-4(fp)
 1206404:	10800104 	addi	r2,r2,4
 1206408:	10800037 	ldwio	r2,0(r2)
 120640c:	0005303a 	rdctl	r2,status
 1206410:	e0bffd15 	stw	r2,-12(fp)
 1206414:	e0fffd17 	ldw	r3,-12(fp)
 1206418:	00bfff84 	movi	r2,-2
 120641c:	1884703a 	and	r2,r3,r2
 1206420:	1001703a 	wrctl	status,r2
 1206424:	e0bffd17 	ldw	r2,-12(fp)
 1206428:	e0bffc15 	stw	r2,-16(fp)
 120642c:	1206f2c0 	call	1206f2c <alt_tick>
 1206430:	e0bffc17 	ldw	r2,-16(fp)
 1206434:	e0bffe15 	stw	r2,-8(fp)
 1206438:	e0bffe17 	ldw	r2,-8(fp)
 120643c:	1001703a 	wrctl	status,r2
 1206440:	e037883a 	mov	sp,fp
 1206444:	dfc00117 	ldw	ra,4(sp)
 1206448:	df000017 	ldw	fp,0(sp)
 120644c:	dec00204 	addi	sp,sp,8
 1206450:	f800283a 	ret

01206454 <alt_avalon_timer_sc_init>:
 1206454:	defff804 	addi	sp,sp,-32
 1206458:	dfc00715 	stw	ra,28(sp)
 120645c:	df000615 	stw	fp,24(sp)
 1206460:	df000604 	addi	fp,sp,24
 1206464:	e13ffc15 	stw	r4,-16(fp)
 1206468:	e17ffd15 	stw	r5,-12(fp)
 120646c:	e1bffe15 	stw	r6,-8(fp)
 1206470:	e1ffff15 	stw	r7,-4(fp)
 1206474:	e0bfff17 	ldw	r2,-4(fp)
 1206478:	e0bffb15 	stw	r2,-20(fp)
 120647c:	00804874 	movhi	r2,289
 1206480:	10a70504 	addi	r2,r2,-25580
 1206484:	10800017 	ldw	r2,0(r2)
 1206488:	1000041e 	bne	r2,zero,120649c <alt_avalon_timer_sc_init+0x48>
 120648c:	00804874 	movhi	r2,289
 1206490:	10a70504 	addi	r2,r2,-25580
 1206494:	e0fffb17 	ldw	r3,-20(fp)
 1206498:	10c00015 	stw	r3,0(r2)
 120649c:	e0bffc17 	ldw	r2,-16(fp)
 12064a0:	10800104 	addi	r2,r2,4
 12064a4:	00c001c4 	movi	r3,7
 12064a8:	10c00035 	stwio	r3,0(r2)
 12064ac:	d8000015 	stw	zero,0(sp)
 12064b0:	e13ffd17 	ldw	r4,-12(fp)
 12064b4:	e17ffe17 	ldw	r5,-8(fp)
 12064b8:	01804834 	movhi	r6,288
 12064bc:	3198f804 	addi	r6,r6,25568
 12064c0:	e1fffc17 	ldw	r7,-16(fp)
 12064c4:	12032680 	call	1203268 <alt_ic_isr_register>
 12064c8:	e037883a 	mov	sp,fp
 12064cc:	dfc00117 	ldw	ra,4(sp)
 12064d0:	df000017 	ldw	fp,0(sp)
 12064d4:	dec00204 	addi	sp,sp,8
 12064d8:	f800283a 	ret

012064dc <alt_alarm_start>:
 12064dc:	defff504 	addi	sp,sp,-44
 12064e0:	df000a15 	stw	fp,40(sp)
 12064e4:	df000a04 	addi	fp,sp,40
 12064e8:	e13ffc15 	stw	r4,-16(fp)
 12064ec:	e17ffd15 	stw	r5,-12(fp)
 12064f0:	e1bffe15 	stw	r6,-8(fp)
 12064f4:	e1ffff15 	stw	r7,-4(fp)
 12064f8:	e03ff615 	stw	zero,-40(fp)
 12064fc:	00804874 	movhi	r2,289
 1206500:	10a70504 	addi	r2,r2,-25580
 1206504:	10800017 	ldw	r2,0(r2)
 1206508:	10003f26 	beq	r2,zero,1206608 <alt_alarm_start+0x12c>
 120650c:	e0bffc17 	ldw	r2,-16(fp)
 1206510:	10003b26 	beq	r2,zero,1206600 <alt_alarm_start+0x124>
 1206514:	e0bffc17 	ldw	r2,-16(fp)
 1206518:	e0fffe17 	ldw	r3,-8(fp)
 120651c:	10c00315 	stw	r3,12(r2)
 1206520:	e0bffc17 	ldw	r2,-16(fp)
 1206524:	e0ffff17 	ldw	r3,-4(fp)
 1206528:	10c00515 	stw	r3,20(r2)
 120652c:	0005303a 	rdctl	r2,status
 1206530:	e0bff815 	stw	r2,-32(fp)
 1206534:	e0fff817 	ldw	r3,-32(fp)
 1206538:	00bfff84 	movi	r2,-2
 120653c:	1884703a 	and	r2,r3,r2
 1206540:	1001703a 	wrctl	status,r2
 1206544:	e0bff817 	ldw	r2,-32(fp)
 1206548:	e0bff715 	stw	r2,-36(fp)
 120654c:	00804874 	movhi	r2,289
 1206550:	10a70604 	addi	r2,r2,-25576
 1206554:	10800017 	ldw	r2,0(r2)
 1206558:	e0bff615 	stw	r2,-40(fp)
 120655c:	e0fffd17 	ldw	r3,-12(fp)
 1206560:	e0bff617 	ldw	r2,-40(fp)
 1206564:	1885883a 	add	r2,r3,r2
 1206568:	10c00044 	addi	r3,r2,1
 120656c:	e0bffc17 	ldw	r2,-16(fp)
 1206570:	10c00215 	stw	r3,8(r2)
 1206574:	e0bffc17 	ldw	r2,-16(fp)
 1206578:	10c00217 	ldw	r3,8(r2)
 120657c:	e0bff617 	ldw	r2,-40(fp)
 1206580:	1880042e 	bgeu	r3,r2,1206594 <alt_alarm_start+0xb8>
 1206584:	e0bffc17 	ldw	r2,-16(fp)
 1206588:	00c00044 	movi	r3,1
 120658c:	10c00405 	stb	r3,16(r2)
 1206590:	00000206 	br	120659c <alt_alarm_start+0xc0>
 1206594:	e0bffc17 	ldw	r2,-16(fp)
 1206598:	10000405 	stb	zero,16(r2)
 120659c:	e0fffc17 	ldw	r3,-16(fp)
 12065a0:	00804874 	movhi	r2,289
 12065a4:	10a6f904 	addi	r2,r2,-25628
 12065a8:	e0bff915 	stw	r2,-28(fp)
 12065ac:	e0fffa15 	stw	r3,-24(fp)
 12065b0:	e0bffa17 	ldw	r2,-24(fp)
 12065b4:	e0fff917 	ldw	r3,-28(fp)
 12065b8:	10c00115 	stw	r3,4(r2)
 12065bc:	e0bff917 	ldw	r2,-28(fp)
 12065c0:	10c00017 	ldw	r3,0(r2)
 12065c4:	e0bffa17 	ldw	r2,-24(fp)
 12065c8:	10c00015 	stw	r3,0(r2)
 12065cc:	e0bff917 	ldw	r2,-28(fp)
 12065d0:	10800017 	ldw	r2,0(r2)
 12065d4:	e0fffa17 	ldw	r3,-24(fp)
 12065d8:	10c00115 	stw	r3,4(r2)
 12065dc:	e0bff917 	ldw	r2,-28(fp)
 12065e0:	e0fffa17 	ldw	r3,-24(fp)
 12065e4:	10c00015 	stw	r3,0(r2)
 12065e8:	e0bff717 	ldw	r2,-36(fp)
 12065ec:	e0bffb15 	stw	r2,-20(fp)
 12065f0:	e0bffb17 	ldw	r2,-20(fp)
 12065f4:	1001703a 	wrctl	status,r2
 12065f8:	0005883a 	mov	r2,zero
 12065fc:	00000306 	br	120660c <alt_alarm_start+0x130>
 1206600:	00bffa84 	movi	r2,-22
 1206604:	00000106 	br	120660c <alt_alarm_start+0x130>
 1206608:	00bfde84 	movi	r2,-134
 120660c:	e037883a 	mov	sp,fp
 1206610:	df000017 	ldw	fp,0(sp)
 1206614:	dec00104 	addi	sp,sp,4
 1206618:	f800283a 	ret

0120661c <alt_busy_sleep>:
 120661c:	defffa04 	addi	sp,sp,-24
 1206620:	dfc00515 	stw	ra,20(sp)
 1206624:	df000415 	stw	fp,16(sp)
 1206628:	df000404 	addi	fp,sp,16
 120662c:	e13fff15 	stw	r4,-4(fp)
 1206630:	008000c4 	movi	r2,3
 1206634:	e0bffd15 	stw	r2,-12(fp)
 1206638:	e0fffd17 	ldw	r3,-12(fp)
 120663c:	008003f4 	movhi	r2,15
 1206640:	10909004 	addi	r2,r2,16960
 1206644:	1885383a 	mul	r2,r3,r2
 1206648:	0100bef4 	movhi	r4,763
 120664c:	213c2004 	addi	r4,r4,-3968
 1206650:	100b883a 	mov	r5,r2
 1206654:	1207fe80 	call	1207fe8 <__udivsi3>
 1206658:	01200034 	movhi	r4,32768
 120665c:	213fffc4 	addi	r4,r4,-1
 1206660:	100b883a 	mov	r5,r2
 1206664:	1207fe80 	call	1207fe8 <__udivsi3>
 1206668:	e13fff17 	ldw	r4,-4(fp)
 120666c:	100b883a 	mov	r5,r2
 1206670:	1207fe80 	call	1207fe8 <__udivsi3>
 1206674:	e0bffe15 	stw	r2,-8(fp)
 1206678:	e0bffe17 	ldw	r2,-8(fp)
 120667c:	10002a26 	beq	r2,zero,1206728 <alt_busy_sleep+0x10c>
 1206680:	e03ffc15 	stw	zero,-16(fp)
 1206684:	00001706 	br	12066e4 <alt_busy_sleep+0xc8>
 1206688:	00a00034 	movhi	r2,32768
 120668c:	10bfffc4 	addi	r2,r2,-1
 1206690:	10bfffc4 	addi	r2,r2,-1
 1206694:	103ffe1e 	bne	r2,zero,1206690 <__alt_mem_instruction_tcm+0xff206690>
 1206698:	e0fffd17 	ldw	r3,-12(fp)
 120669c:	008003f4 	movhi	r2,15
 12066a0:	10909004 	addi	r2,r2,16960
 12066a4:	1885383a 	mul	r2,r3,r2
 12066a8:	0100bef4 	movhi	r4,763
 12066ac:	213c2004 	addi	r4,r4,-3968
 12066b0:	100b883a 	mov	r5,r2
 12066b4:	1207fe80 	call	1207fe8 <__udivsi3>
 12066b8:	01200034 	movhi	r4,32768
 12066bc:	213fffc4 	addi	r4,r4,-1
 12066c0:	100b883a 	mov	r5,r2
 12066c4:	1207fe80 	call	1207fe8 <__udivsi3>
 12066c8:	1007883a 	mov	r3,r2
 12066cc:	e0bfff17 	ldw	r2,-4(fp)
 12066d0:	10c5c83a 	sub	r2,r2,r3
 12066d4:	e0bfff15 	stw	r2,-4(fp)
 12066d8:	e0bffc17 	ldw	r2,-16(fp)
 12066dc:	10800044 	addi	r2,r2,1
 12066e0:	e0bffc15 	stw	r2,-16(fp)
 12066e4:	e0fffc17 	ldw	r3,-16(fp)
 12066e8:	e0bffe17 	ldw	r2,-8(fp)
 12066ec:	18bfe616 	blt	r3,r2,1206688 <__alt_mem_instruction_tcm+0xff206688>
 12066f0:	e0fffd17 	ldw	r3,-12(fp)
 12066f4:	008003f4 	movhi	r2,15
 12066f8:	10909004 	addi	r2,r2,16960
 12066fc:	1885383a 	mul	r2,r3,r2
 1206700:	0100bef4 	movhi	r4,763
 1206704:	213c2004 	addi	r4,r4,-3968
 1206708:	100b883a 	mov	r5,r2
 120670c:	1207fe80 	call	1207fe8 <__udivsi3>
 1206710:	1007883a 	mov	r3,r2
 1206714:	e0bfff17 	ldw	r2,-4(fp)
 1206718:	1885383a 	mul	r2,r3,r2
 120671c:	10bfffc4 	addi	r2,r2,-1
 1206720:	103ffe1e 	bne	r2,zero,120671c <__alt_mem_instruction_tcm+0xff20671c>
 1206724:	00000d06 	br	120675c <alt_busy_sleep+0x140>
 1206728:	e0fffd17 	ldw	r3,-12(fp)
 120672c:	008003f4 	movhi	r2,15
 1206730:	10909004 	addi	r2,r2,16960
 1206734:	1885383a 	mul	r2,r3,r2
 1206738:	0100bef4 	movhi	r4,763
 120673c:	213c2004 	addi	r4,r4,-3968
 1206740:	100b883a 	mov	r5,r2
 1206744:	1207fe80 	call	1207fe8 <__udivsi3>
 1206748:	1007883a 	mov	r3,r2
 120674c:	e0bfff17 	ldw	r2,-4(fp)
 1206750:	1885383a 	mul	r2,r3,r2
 1206754:	10bfffc4 	addi	r2,r2,-1
 1206758:	00bffe16 	blt	zero,r2,1206754 <__alt_mem_instruction_tcm+0xff206754>
 120675c:	0005883a 	mov	r2,zero
 1206760:	e037883a 	mov	sp,fp
 1206764:	dfc00117 	ldw	ra,4(sp)
 1206768:	df000017 	ldw	fp,0(sp)
 120676c:	dec00204 	addi	sp,sp,8
 1206770:	f800283a 	ret

01206774 <alt_dcache_flush>:
 1206774:	defffb04 	addi	sp,sp,-20
 1206778:	df000415 	stw	fp,16(sp)
 120677c:	df000404 	addi	fp,sp,16
 1206780:	e13ffe15 	stw	r4,-8(fp)
 1206784:	e17fff15 	stw	r5,-4(fp)
 1206788:	e0fffe17 	ldw	r3,-8(fp)
 120678c:	e0bfff17 	ldw	r2,-4(fp)
 1206790:	1885883a 	add	r2,r3,r2
 1206794:	e0bffd15 	stw	r2,-12(fp)
 1206798:	e0bffe17 	ldw	r2,-8(fp)
 120679c:	e0bffc15 	stw	r2,-16(fp)
 12067a0:	00000506 	br	12067b8 <alt_dcache_flush+0x44>
 12067a4:	e0bffc17 	ldw	r2,-16(fp)
 12067a8:	1000001b 	flushda	0(r2)
 12067ac:	e0bffc17 	ldw	r2,-16(fp)
 12067b0:	10800804 	addi	r2,r2,32
 12067b4:	e0bffc15 	stw	r2,-16(fp)
 12067b8:	e0fffc17 	ldw	r3,-16(fp)
 12067bc:	e0bffd17 	ldw	r2,-12(fp)
 12067c0:	18bff836 	bltu	r3,r2,12067a4 <__alt_mem_instruction_tcm+0xff2067a4>
 12067c4:	e0bffe17 	ldw	r2,-8(fp)
 12067c8:	108007cc 	andi	r2,r2,31
 12067cc:	10000226 	beq	r2,zero,12067d8 <alt_dcache_flush+0x64>
 12067d0:	e0bffc17 	ldw	r2,-16(fp)
 12067d4:	1000001b 	flushda	0(r2)
 12067d8:	e037883a 	mov	sp,fp
 12067dc:	df000017 	ldw	fp,0(sp)
 12067e0:	dec00104 	addi	sp,sp,4
 12067e4:	f800283a 	ret

012067e8 <alt_get_errno>:
 12067e8:	defffe04 	addi	sp,sp,-8
 12067ec:	dfc00115 	stw	ra,4(sp)
 12067f0:	df000015 	stw	fp,0(sp)
 12067f4:	d839883a 	mov	fp,sp
 12067f8:	00804874 	movhi	r2,289
 12067fc:	10a6f404 	addi	r2,r2,-25648
 1206800:	10800017 	ldw	r2,0(r2)
 1206804:	10000526 	beq	r2,zero,120681c <alt_get_errno+0x34>
 1206808:	00804874 	movhi	r2,289
 120680c:	10a6f404 	addi	r2,r2,-25648
 1206810:	10800017 	ldw	r2,0(r2)
 1206814:	103ee83a 	callr	r2
 1206818:	00000206 	br	1206824 <alt_get_errno+0x3c>
 120681c:	00804874 	movhi	r2,289
 1206820:	10a6ff04 	addi	r2,r2,-25604
 1206824:	e037883a 	mov	sp,fp
 1206828:	dfc00117 	ldw	ra,4(sp)
 120682c:	df000017 	ldw	fp,0(sp)
 1206830:	dec00204 	addi	sp,sp,8
 1206834:	f800283a 	ret

01206838 <alt_dev_llist_insert>:
 1206838:	defffa04 	addi	sp,sp,-24
 120683c:	dfc00515 	stw	ra,20(sp)
 1206840:	df000415 	stw	fp,16(sp)
 1206844:	df000404 	addi	fp,sp,16
 1206848:	e13ffe15 	stw	r4,-8(fp)
 120684c:	e17fff15 	stw	r5,-4(fp)
 1206850:	e0bffe17 	ldw	r2,-8(fp)
 1206854:	10000326 	beq	r2,zero,1206864 <alt_dev_llist_insert+0x2c>
 1206858:	e0bffe17 	ldw	r2,-8(fp)
 120685c:	10800217 	ldw	r2,8(r2)
 1206860:	1000061e 	bne	r2,zero,120687c <alt_dev_llist_insert+0x44>
 1206864:	12067e80 	call	12067e8 <alt_get_errno>
 1206868:	1007883a 	mov	r3,r2
 120686c:	00800584 	movi	r2,22
 1206870:	18800015 	stw	r2,0(r3)
 1206874:	00bffa84 	movi	r2,-22
 1206878:	00001306 	br	12068c8 <alt_dev_llist_insert+0x90>
 120687c:	e0bffe17 	ldw	r2,-8(fp)
 1206880:	e0ffff17 	ldw	r3,-4(fp)
 1206884:	e0fffc15 	stw	r3,-16(fp)
 1206888:	e0bffd15 	stw	r2,-12(fp)
 120688c:	e0bffd17 	ldw	r2,-12(fp)
 1206890:	e0fffc17 	ldw	r3,-16(fp)
 1206894:	10c00115 	stw	r3,4(r2)
 1206898:	e0bffc17 	ldw	r2,-16(fp)
 120689c:	10c00017 	ldw	r3,0(r2)
 12068a0:	e0bffd17 	ldw	r2,-12(fp)
 12068a4:	10c00015 	stw	r3,0(r2)
 12068a8:	e0bffc17 	ldw	r2,-16(fp)
 12068ac:	10800017 	ldw	r2,0(r2)
 12068b0:	e0fffd17 	ldw	r3,-12(fp)
 12068b4:	10c00115 	stw	r3,4(r2)
 12068b8:	e0bffc17 	ldw	r2,-16(fp)
 12068bc:	e0fffd17 	ldw	r3,-12(fp)
 12068c0:	10c00015 	stw	r3,0(r2)
 12068c4:	0005883a 	mov	r2,zero
 12068c8:	e037883a 	mov	sp,fp
 12068cc:	dfc00117 	ldw	ra,4(sp)
 12068d0:	df000017 	ldw	fp,0(sp)
 12068d4:	dec00204 	addi	sp,sp,8
 12068d8:	f800283a 	ret

012068dc <_do_ctors>:
 12068dc:	defffd04 	addi	sp,sp,-12
 12068e0:	dfc00215 	stw	ra,8(sp)
 12068e4:	df000115 	stw	fp,4(sp)
 12068e8:	df000104 	addi	fp,sp,4
 12068ec:	00804874 	movhi	r2,289
 12068f0:	10a00a04 	addi	r2,r2,-32728
 12068f4:	e0bfff15 	stw	r2,-4(fp)
 12068f8:	00000606 	br	1206914 <_do_ctors+0x38>
 12068fc:	e0bfff17 	ldw	r2,-4(fp)
 1206900:	10800017 	ldw	r2,0(r2)
 1206904:	103ee83a 	callr	r2
 1206908:	e0bfff17 	ldw	r2,-4(fp)
 120690c:	10bfff04 	addi	r2,r2,-4
 1206910:	e0bfff15 	stw	r2,-4(fp)
 1206914:	e0ffff17 	ldw	r3,-4(fp)
 1206918:	00804874 	movhi	r2,289
 120691c:	10a00b04 	addi	r2,r2,-32724
 1206920:	18bff62e 	bgeu	r3,r2,12068fc <__alt_mem_instruction_tcm+0xff2068fc>
 1206924:	e037883a 	mov	sp,fp
 1206928:	dfc00117 	ldw	ra,4(sp)
 120692c:	df000017 	ldw	fp,0(sp)
 1206930:	dec00204 	addi	sp,sp,8
 1206934:	f800283a 	ret

01206938 <_do_dtors>:
 1206938:	defffd04 	addi	sp,sp,-12
 120693c:	dfc00215 	stw	ra,8(sp)
 1206940:	df000115 	stw	fp,4(sp)
 1206944:	df000104 	addi	fp,sp,4
 1206948:	00804874 	movhi	r2,289
 120694c:	10a00a04 	addi	r2,r2,-32728
 1206950:	e0bfff15 	stw	r2,-4(fp)
 1206954:	00000606 	br	1206970 <_do_dtors+0x38>
 1206958:	e0bfff17 	ldw	r2,-4(fp)
 120695c:	10800017 	ldw	r2,0(r2)
 1206960:	103ee83a 	callr	r2
 1206964:	e0bfff17 	ldw	r2,-4(fp)
 1206968:	10bfff04 	addi	r2,r2,-4
 120696c:	e0bfff15 	stw	r2,-4(fp)
 1206970:	e0ffff17 	ldw	r3,-4(fp)
 1206974:	00804874 	movhi	r2,289
 1206978:	10a00b04 	addi	r2,r2,-32724
 120697c:	18bff62e 	bgeu	r3,r2,1206958 <__alt_mem_instruction_tcm+0xff206958>
 1206980:	e037883a 	mov	sp,fp
 1206984:	dfc00117 	ldw	ra,4(sp)
 1206988:	df000017 	ldw	fp,0(sp)
 120698c:	dec00204 	addi	sp,sp,8
 1206990:	f800283a 	ret

01206994 <alt_flash_open_dev>:
 1206994:	defffc04 	addi	sp,sp,-16
 1206998:	dfc00315 	stw	ra,12(sp)
 120699c:	df000215 	stw	fp,8(sp)
 12069a0:	df000204 	addi	fp,sp,8
 12069a4:	e13fff15 	stw	r4,-4(fp)
 12069a8:	e13fff17 	ldw	r4,-4(fp)
 12069ac:	d1600c04 	addi	r5,gp,-32720
 12069b0:	12079040 	call	1207904 <alt_find_dev>
 12069b4:	e0bffe15 	stw	r2,-8(fp)
 12069b8:	e0bffe17 	ldw	r2,-8(fp)
 12069bc:	10000926 	beq	r2,zero,12069e4 <alt_flash_open_dev+0x50>
 12069c0:	e0bffe17 	ldw	r2,-8(fp)
 12069c4:	10800317 	ldw	r2,12(r2)
 12069c8:	10000626 	beq	r2,zero,12069e4 <alt_flash_open_dev+0x50>
 12069cc:	e0bffe17 	ldw	r2,-8(fp)
 12069d0:	10800317 	ldw	r2,12(r2)
 12069d4:	e13ffe17 	ldw	r4,-8(fp)
 12069d8:	e17fff17 	ldw	r5,-4(fp)
 12069dc:	103ee83a 	callr	r2
 12069e0:	00000106 	br	12069e8 <alt_flash_open_dev+0x54>
 12069e4:	e0bffe17 	ldw	r2,-8(fp)
 12069e8:	e037883a 	mov	sp,fp
 12069ec:	dfc00117 	ldw	ra,4(sp)
 12069f0:	df000017 	ldw	fp,0(sp)
 12069f4:	dec00204 	addi	sp,sp,8
 12069f8:	f800283a 	ret

012069fc <alt_flash_close_dev>:
 12069fc:	defffd04 	addi	sp,sp,-12
 1206a00:	dfc00215 	stw	ra,8(sp)
 1206a04:	df000115 	stw	fp,4(sp)
 1206a08:	df000104 	addi	fp,sp,4
 1206a0c:	e13fff15 	stw	r4,-4(fp)
 1206a10:	e0bfff17 	ldw	r2,-4(fp)
 1206a14:	10000726 	beq	r2,zero,1206a34 <alt_flash_close_dev+0x38>
 1206a18:	e0bfff17 	ldw	r2,-4(fp)
 1206a1c:	10800417 	ldw	r2,16(r2)
 1206a20:	10000426 	beq	r2,zero,1206a34 <alt_flash_close_dev+0x38>
 1206a24:	e0bfff17 	ldw	r2,-4(fp)
 1206a28:	10800417 	ldw	r2,16(r2)
 1206a2c:	e13fff17 	ldw	r4,-4(fp)
 1206a30:	103ee83a 	callr	r2
 1206a34:	0001883a 	nop
 1206a38:	e037883a 	mov	sp,fp
 1206a3c:	dfc00117 	ldw	ra,4(sp)
 1206a40:	df000017 	ldw	fp,0(sp)
 1206a44:	dec00204 	addi	sp,sp,8
 1206a48:	f800283a 	ret

01206a4c <alt_exception_cause_generated_bad_addr>:
 1206a4c:	defffe04 	addi	sp,sp,-8
 1206a50:	df000115 	stw	fp,4(sp)
 1206a54:	df000104 	addi	fp,sp,4
 1206a58:	e13fff15 	stw	r4,-4(fp)
 1206a5c:	e0bfff17 	ldw	r2,-4(fp)
 1206a60:	10bffe84 	addi	r2,r2,-6
 1206a64:	10c00428 	cmpgeui	r3,r2,16
 1206a68:	18001a1e 	bne	r3,zero,1206ad4 <alt_exception_cause_generated_bad_addr+0x88>
 1206a6c:	100690ba 	slli	r3,r2,2
 1206a70:	00804834 	movhi	r2,288
 1206a74:	109aa104 	addi	r2,r2,27268
 1206a78:	1885883a 	add	r2,r3,r2
 1206a7c:	10800017 	ldw	r2,0(r2)
 1206a80:	1000683a 	jmp	r2
 1206a84:	01206ac4 	movi	r4,-32341
 1206a88:	01206ac4 	movi	r4,-32341
 1206a8c:	01206ad4 	movui	r4,33195
 1206a90:	01206ad4 	movui	r4,33195
 1206a94:	01206ad4 	movui	r4,33195
 1206a98:	01206ac4 	movi	r4,-32341
 1206a9c:	01206acc 	andi	r4,zero,33195
 1206aa0:	01206ad4 	movui	r4,33195
 1206aa4:	01206ac4 	movi	r4,-32341
 1206aa8:	01206ac4 	movi	r4,-32341
 1206aac:	01206ad4 	movui	r4,33195
 1206ab0:	01206ac4 	movi	r4,-32341
 1206ab4:	01206acc 	andi	r4,zero,33195
 1206ab8:	01206ad4 	movui	r4,33195
 1206abc:	01206ad4 	movui	r4,33195
 1206ac0:	01206ac4 	movi	r4,-32341
 1206ac4:	00800044 	movi	r2,1
 1206ac8:	00000306 	br	1206ad8 <alt_exception_cause_generated_bad_addr+0x8c>
 1206acc:	0005883a 	mov	r2,zero
 1206ad0:	00000106 	br	1206ad8 <alt_exception_cause_generated_bad_addr+0x8c>
 1206ad4:	0005883a 	mov	r2,zero
 1206ad8:	e037883a 	mov	sp,fp
 1206adc:	df000017 	ldw	fp,0(sp)
 1206ae0:	dec00104 	addi	sp,sp,4
 1206ae4:	f800283a 	ret

01206ae8 <alt_open_fd>:
 1206ae8:	defff904 	addi	sp,sp,-28
 1206aec:	dfc00615 	stw	ra,24(sp)
 1206af0:	df000515 	stw	fp,20(sp)
 1206af4:	df000504 	addi	fp,sp,20
 1206af8:	e13ffc15 	stw	r4,-16(fp)
 1206afc:	e17ffd15 	stw	r5,-12(fp)
 1206b00:	e1bffe15 	stw	r6,-8(fp)
 1206b04:	e1ffff15 	stw	r7,-4(fp)
 1206b08:	e13ffd17 	ldw	r4,-12(fp)
 1206b0c:	e17ffe17 	ldw	r5,-8(fp)
 1206b10:	e1bfff17 	ldw	r6,-4(fp)
 1206b14:	1206d3c0 	call	1206d3c <open>
 1206b18:	e0bffb15 	stw	r2,-20(fp)
 1206b1c:	e0bffb17 	ldw	r2,-20(fp)
 1206b20:	10001c16 	blt	r2,zero,1206b94 <alt_open_fd+0xac>
 1206b24:	00804874 	movhi	r2,289
 1206b28:	10a23c04 	addi	r2,r2,-30480
 1206b2c:	e0fffb17 	ldw	r3,-20(fp)
 1206b30:	18c00324 	muli	r3,r3,12
 1206b34:	10c5883a 	add	r2,r2,r3
 1206b38:	10c00017 	ldw	r3,0(r2)
 1206b3c:	e0bffc17 	ldw	r2,-16(fp)
 1206b40:	10c00015 	stw	r3,0(r2)
 1206b44:	00804874 	movhi	r2,289
 1206b48:	10a23c04 	addi	r2,r2,-30480
 1206b4c:	e0fffb17 	ldw	r3,-20(fp)
 1206b50:	18c00324 	muli	r3,r3,12
 1206b54:	10c5883a 	add	r2,r2,r3
 1206b58:	10800104 	addi	r2,r2,4
 1206b5c:	10c00017 	ldw	r3,0(r2)
 1206b60:	e0bffc17 	ldw	r2,-16(fp)
 1206b64:	10c00115 	stw	r3,4(r2)
 1206b68:	00804874 	movhi	r2,289
 1206b6c:	10a23c04 	addi	r2,r2,-30480
 1206b70:	e0fffb17 	ldw	r3,-20(fp)
 1206b74:	18c00324 	muli	r3,r3,12
 1206b78:	10c5883a 	add	r2,r2,r3
 1206b7c:	10800204 	addi	r2,r2,8
 1206b80:	10c00017 	ldw	r3,0(r2)
 1206b84:	e0bffc17 	ldw	r2,-16(fp)
 1206b88:	10c00215 	stw	r3,8(r2)
 1206b8c:	e13ffb17 	ldw	r4,-20(fp)
 1206b90:	12039540 	call	1203954 <alt_release_fd>
 1206b94:	e037883a 	mov	sp,fp
 1206b98:	dfc00117 	ldw	ra,4(sp)
 1206b9c:	df000017 	ldw	fp,0(sp)
 1206ba0:	dec00204 	addi	sp,sp,8
 1206ba4:	f800283a 	ret

01206ba8 <alt_io_redirect>:
 1206ba8:	defffb04 	addi	sp,sp,-20
 1206bac:	dfc00415 	stw	ra,16(sp)
 1206bb0:	df000315 	stw	fp,12(sp)
 1206bb4:	df000304 	addi	fp,sp,12
 1206bb8:	e13ffd15 	stw	r4,-12(fp)
 1206bbc:	e17ffe15 	stw	r5,-8(fp)
 1206bc0:	e1bfff15 	stw	r6,-4(fp)
 1206bc4:	01004874 	movhi	r4,289
 1206bc8:	21223f04 	addi	r4,r4,-30468
 1206bcc:	e17ffd17 	ldw	r5,-12(fp)
 1206bd0:	01800044 	movi	r6,1
 1206bd4:	01c07fc4 	movi	r7,511
 1206bd8:	1206ae80 	call	1206ae8 <alt_open_fd>
 1206bdc:	01004874 	movhi	r4,289
 1206be0:	21223c04 	addi	r4,r4,-30480
 1206be4:	e17ffe17 	ldw	r5,-8(fp)
 1206be8:	000d883a 	mov	r6,zero
 1206bec:	01c07fc4 	movi	r7,511
 1206bf0:	1206ae80 	call	1206ae8 <alt_open_fd>
 1206bf4:	01004874 	movhi	r4,289
 1206bf8:	21224204 	addi	r4,r4,-30456
 1206bfc:	e17fff17 	ldw	r5,-4(fp)
 1206c00:	01800044 	movi	r6,1
 1206c04:	01c07fc4 	movi	r7,511
 1206c08:	1206ae80 	call	1206ae8 <alt_open_fd>
 1206c0c:	e037883a 	mov	sp,fp
 1206c10:	dfc00117 	ldw	ra,4(sp)
 1206c14:	df000017 	ldw	fp,0(sp)
 1206c18:	dec00204 	addi	sp,sp,8
 1206c1c:	f800283a 	ret

01206c20 <alt_get_errno>:
 1206c20:	defffe04 	addi	sp,sp,-8
 1206c24:	dfc00115 	stw	ra,4(sp)
 1206c28:	df000015 	stw	fp,0(sp)
 1206c2c:	d839883a 	mov	fp,sp
 1206c30:	00804874 	movhi	r2,289
 1206c34:	10a6f404 	addi	r2,r2,-25648
 1206c38:	10800017 	ldw	r2,0(r2)
 1206c3c:	10000526 	beq	r2,zero,1206c54 <alt_get_errno+0x34>
 1206c40:	00804874 	movhi	r2,289
 1206c44:	10a6f404 	addi	r2,r2,-25648
 1206c48:	10800017 	ldw	r2,0(r2)
 1206c4c:	103ee83a 	callr	r2
 1206c50:	00000206 	br	1206c5c <alt_get_errno+0x3c>
 1206c54:	00804874 	movhi	r2,289
 1206c58:	10a6ff04 	addi	r2,r2,-25604
 1206c5c:	e037883a 	mov	sp,fp
 1206c60:	dfc00117 	ldw	ra,4(sp)
 1206c64:	df000017 	ldw	fp,0(sp)
 1206c68:	dec00204 	addi	sp,sp,8
 1206c6c:	f800283a 	ret

01206c70 <alt_file_locked>:
 1206c70:	defffd04 	addi	sp,sp,-12
 1206c74:	df000215 	stw	fp,8(sp)
 1206c78:	df000204 	addi	fp,sp,8
 1206c7c:	e13fff15 	stw	r4,-4(fp)
 1206c80:	e0bfff17 	ldw	r2,-4(fp)
 1206c84:	10800217 	ldw	r2,8(r2)
 1206c88:	10d00034 	orhi	r3,r2,16384
 1206c8c:	e0bfff17 	ldw	r2,-4(fp)
 1206c90:	10c00215 	stw	r3,8(r2)
 1206c94:	e03ffe15 	stw	zero,-8(fp)
 1206c98:	00001d06 	br	1206d10 <alt_file_locked+0xa0>
 1206c9c:	00804874 	movhi	r2,289
 1206ca0:	10a23c04 	addi	r2,r2,-30480
 1206ca4:	e0fffe17 	ldw	r3,-8(fp)
 1206ca8:	18c00324 	muli	r3,r3,12
 1206cac:	10c5883a 	add	r2,r2,r3
 1206cb0:	10c00017 	ldw	r3,0(r2)
 1206cb4:	e0bfff17 	ldw	r2,-4(fp)
 1206cb8:	10800017 	ldw	r2,0(r2)
 1206cbc:	1880111e 	bne	r3,r2,1206d04 <alt_file_locked+0x94>
 1206cc0:	00804874 	movhi	r2,289
 1206cc4:	10a23c04 	addi	r2,r2,-30480
 1206cc8:	e0fffe17 	ldw	r3,-8(fp)
 1206ccc:	18c00324 	muli	r3,r3,12
 1206cd0:	10c5883a 	add	r2,r2,r3
 1206cd4:	10800204 	addi	r2,r2,8
 1206cd8:	10800017 	ldw	r2,0(r2)
 1206cdc:	1000090e 	bge	r2,zero,1206d04 <alt_file_locked+0x94>
 1206ce0:	e0bffe17 	ldw	r2,-8(fp)
 1206ce4:	10c00324 	muli	r3,r2,12
 1206ce8:	00804874 	movhi	r2,289
 1206cec:	10a23c04 	addi	r2,r2,-30480
 1206cf0:	1887883a 	add	r3,r3,r2
 1206cf4:	e0bfff17 	ldw	r2,-4(fp)
 1206cf8:	18800226 	beq	r3,r2,1206d04 <alt_file_locked+0x94>
 1206cfc:	00bffcc4 	movi	r2,-13
 1206d00:	00000a06 	br	1206d2c <alt_file_locked+0xbc>
 1206d04:	e0bffe17 	ldw	r2,-8(fp)
 1206d08:	10800044 	addi	r2,r2,1
 1206d0c:	e0bffe15 	stw	r2,-8(fp)
 1206d10:	00804874 	movhi	r2,289
 1206d14:	10a6f304 	addi	r2,r2,-25652
 1206d18:	10800017 	ldw	r2,0(r2)
 1206d1c:	1007883a 	mov	r3,r2
 1206d20:	e0bffe17 	ldw	r2,-8(fp)
 1206d24:	18bfdd2e 	bgeu	r3,r2,1206c9c <__alt_mem_instruction_tcm+0xff206c9c>
 1206d28:	0005883a 	mov	r2,zero
 1206d2c:	e037883a 	mov	sp,fp
 1206d30:	df000017 	ldw	fp,0(sp)
 1206d34:	dec00104 	addi	sp,sp,4
 1206d38:	f800283a 	ret

01206d3c <open>:
 1206d3c:	defff604 	addi	sp,sp,-40
 1206d40:	dfc00915 	stw	ra,36(sp)
 1206d44:	df000815 	stw	fp,32(sp)
 1206d48:	df000804 	addi	fp,sp,32
 1206d4c:	e13ffd15 	stw	r4,-12(fp)
 1206d50:	e17ffe15 	stw	r5,-8(fp)
 1206d54:	e1bfff15 	stw	r6,-4(fp)
 1206d58:	00bfffc4 	movi	r2,-1
 1206d5c:	e0bff915 	stw	r2,-28(fp)
 1206d60:	00bffb44 	movi	r2,-19
 1206d64:	e0bffa15 	stw	r2,-24(fp)
 1206d68:	e03ffb15 	stw	zero,-20(fp)
 1206d6c:	e13ffd17 	ldw	r4,-12(fp)
 1206d70:	01404874 	movhi	r5,289
 1206d74:	2966f104 	addi	r5,r5,-25660
 1206d78:	12079040 	call	1207904 <alt_find_dev>
 1206d7c:	e0bff815 	stw	r2,-32(fp)
 1206d80:	e0bff817 	ldw	r2,-32(fp)
 1206d84:	1000051e 	bne	r2,zero,1206d9c <open+0x60>
 1206d88:	e13ffd17 	ldw	r4,-12(fp)
 1206d8c:	12079940 	call	1207994 <alt_find_file>
 1206d90:	e0bff815 	stw	r2,-32(fp)
 1206d94:	00800044 	movi	r2,1
 1206d98:	e0bffb15 	stw	r2,-20(fp)
 1206d9c:	e0bff817 	ldw	r2,-32(fp)
 1206da0:	10002926 	beq	r2,zero,1206e48 <open+0x10c>
 1206da4:	e13ff817 	ldw	r4,-32(fp)
 1206da8:	1207aa80 	call	1207aa8 <alt_get_fd>
 1206dac:	e0bff915 	stw	r2,-28(fp)
 1206db0:	e0bff917 	ldw	r2,-28(fp)
 1206db4:	1000030e 	bge	r2,zero,1206dc4 <open+0x88>
 1206db8:	e0bff917 	ldw	r2,-28(fp)
 1206dbc:	e0bffa15 	stw	r2,-24(fp)
 1206dc0:	00002306 	br	1206e50 <open+0x114>
 1206dc4:	e0bff917 	ldw	r2,-28(fp)
 1206dc8:	10c00324 	muli	r3,r2,12
 1206dcc:	00804874 	movhi	r2,289
 1206dd0:	10a23c04 	addi	r2,r2,-30480
 1206dd4:	1885883a 	add	r2,r3,r2
 1206dd8:	e0bffc15 	stw	r2,-16(fp)
 1206ddc:	e0fffe17 	ldw	r3,-8(fp)
 1206de0:	00900034 	movhi	r2,16384
 1206de4:	10bfffc4 	addi	r2,r2,-1
 1206de8:	1886703a 	and	r3,r3,r2
 1206dec:	e0bffc17 	ldw	r2,-16(fp)
 1206df0:	10c00215 	stw	r3,8(r2)
 1206df4:	e0bffb17 	ldw	r2,-20(fp)
 1206df8:	1000051e 	bne	r2,zero,1206e10 <open+0xd4>
 1206dfc:	e13ffc17 	ldw	r4,-16(fp)
 1206e00:	1206c700 	call	1206c70 <alt_file_locked>
 1206e04:	e0bffa15 	stw	r2,-24(fp)
 1206e08:	e0bffa17 	ldw	r2,-24(fp)
 1206e0c:	10001016 	blt	r2,zero,1206e50 <open+0x114>
 1206e10:	e0bff817 	ldw	r2,-32(fp)
 1206e14:	10800317 	ldw	r2,12(r2)
 1206e18:	10000826 	beq	r2,zero,1206e3c <open+0x100>
 1206e1c:	e0bff817 	ldw	r2,-32(fp)
 1206e20:	10800317 	ldw	r2,12(r2)
 1206e24:	e13ffc17 	ldw	r4,-16(fp)
 1206e28:	e17ffd17 	ldw	r5,-12(fp)
 1206e2c:	e1bffe17 	ldw	r6,-8(fp)
 1206e30:	e1ffff17 	ldw	r7,-4(fp)
 1206e34:	103ee83a 	callr	r2
 1206e38:	00000106 	br	1206e40 <open+0x104>
 1206e3c:	0005883a 	mov	r2,zero
 1206e40:	e0bffa15 	stw	r2,-24(fp)
 1206e44:	00000206 	br	1206e50 <open+0x114>
 1206e48:	00bffb44 	movi	r2,-19
 1206e4c:	e0bffa15 	stw	r2,-24(fp)
 1206e50:	e0bffa17 	ldw	r2,-24(fp)
 1206e54:	1000090e 	bge	r2,zero,1206e7c <open+0x140>
 1206e58:	e13ff917 	ldw	r4,-28(fp)
 1206e5c:	12039540 	call	1203954 <alt_release_fd>
 1206e60:	1206c200 	call	1206c20 <alt_get_errno>
 1206e64:	1007883a 	mov	r3,r2
 1206e68:	e0bffa17 	ldw	r2,-24(fp)
 1206e6c:	0085c83a 	sub	r2,zero,r2
 1206e70:	18800015 	stw	r2,0(r3)
 1206e74:	00bfffc4 	movi	r2,-1
 1206e78:	00000106 	br	1206e80 <open+0x144>
 1206e7c:	e0bff917 	ldw	r2,-28(fp)
 1206e80:	e037883a 	mov	sp,fp
 1206e84:	dfc00117 	ldw	ra,4(sp)
 1206e88:	df000017 	ldw	fp,0(sp)
 1206e8c:	dec00204 	addi	sp,sp,8
 1206e90:	f800283a 	ret

01206e94 <alt_alarm_stop>:
 1206e94:	defffa04 	addi	sp,sp,-24
 1206e98:	df000515 	stw	fp,20(sp)
 1206e9c:	df000504 	addi	fp,sp,20
 1206ea0:	e13fff15 	stw	r4,-4(fp)
 1206ea4:	0005303a 	rdctl	r2,status
 1206ea8:	e0bffc15 	stw	r2,-16(fp)
 1206eac:	e0fffc17 	ldw	r3,-16(fp)
 1206eb0:	00bfff84 	movi	r2,-2
 1206eb4:	1884703a 	and	r2,r3,r2
 1206eb8:	1001703a 	wrctl	status,r2
 1206ebc:	e0bffc17 	ldw	r2,-16(fp)
 1206ec0:	e0bffb15 	stw	r2,-20(fp)
 1206ec4:	e0bfff17 	ldw	r2,-4(fp)
 1206ec8:	e0bffd15 	stw	r2,-12(fp)
 1206ecc:	e0bffd17 	ldw	r2,-12(fp)
 1206ed0:	10800017 	ldw	r2,0(r2)
 1206ed4:	e0fffd17 	ldw	r3,-12(fp)
 1206ed8:	18c00117 	ldw	r3,4(r3)
 1206edc:	10c00115 	stw	r3,4(r2)
 1206ee0:	e0bffd17 	ldw	r2,-12(fp)
 1206ee4:	10800117 	ldw	r2,4(r2)
 1206ee8:	e0fffd17 	ldw	r3,-12(fp)
 1206eec:	18c00017 	ldw	r3,0(r3)
 1206ef0:	10c00015 	stw	r3,0(r2)
 1206ef4:	e0bffd17 	ldw	r2,-12(fp)
 1206ef8:	e0fffd17 	ldw	r3,-12(fp)
 1206efc:	10c00115 	stw	r3,4(r2)
 1206f00:	e0bffd17 	ldw	r2,-12(fp)
 1206f04:	e0fffd17 	ldw	r3,-12(fp)
 1206f08:	10c00015 	stw	r3,0(r2)
 1206f0c:	e0bffb17 	ldw	r2,-20(fp)
 1206f10:	e0bffe15 	stw	r2,-8(fp)
 1206f14:	e0bffe17 	ldw	r2,-8(fp)
 1206f18:	1001703a 	wrctl	status,r2
 1206f1c:	e037883a 	mov	sp,fp
 1206f20:	df000017 	ldw	fp,0(sp)
 1206f24:	dec00104 	addi	sp,sp,4
 1206f28:	f800283a 	ret

01206f2c <alt_tick>:
 1206f2c:	defffb04 	addi	sp,sp,-20
 1206f30:	dfc00415 	stw	ra,16(sp)
 1206f34:	df000315 	stw	fp,12(sp)
 1206f38:	df000304 	addi	fp,sp,12
 1206f3c:	d0a00e17 	ldw	r2,-32712(gp)
 1206f40:	e0bffd15 	stw	r2,-12(fp)
 1206f44:	d0a01b17 	ldw	r2,-32660(gp)
 1206f48:	10800044 	addi	r2,r2,1
 1206f4c:	d0a01b15 	stw	r2,-32660(gp)
 1206f50:	00002e06 	br	120700c <alt_tick+0xe0>
 1206f54:	e0bffd17 	ldw	r2,-12(fp)
 1206f58:	10800017 	ldw	r2,0(r2)
 1206f5c:	e0bffe15 	stw	r2,-8(fp)
 1206f60:	e0bffd17 	ldw	r2,-12(fp)
 1206f64:	10800403 	ldbu	r2,16(r2)
 1206f68:	10803fcc 	andi	r2,r2,255
 1206f6c:	10000426 	beq	r2,zero,1206f80 <alt_tick+0x54>
 1206f70:	d0a01b17 	ldw	r2,-32660(gp)
 1206f74:	1000021e 	bne	r2,zero,1206f80 <alt_tick+0x54>
 1206f78:	e0bffd17 	ldw	r2,-12(fp)
 1206f7c:	10000405 	stb	zero,16(r2)
 1206f80:	e0bffd17 	ldw	r2,-12(fp)
 1206f84:	10800217 	ldw	r2,8(r2)
 1206f88:	d0e01b17 	ldw	r3,-32660(gp)
 1206f8c:	18801d36 	bltu	r3,r2,1207004 <alt_tick+0xd8>
 1206f90:	e0bffd17 	ldw	r2,-12(fp)
 1206f94:	10800403 	ldbu	r2,16(r2)
 1206f98:	10803fcc 	andi	r2,r2,255
 1206f9c:	1000191e 	bne	r2,zero,1207004 <alt_tick+0xd8>
 1206fa0:	e0bffd17 	ldw	r2,-12(fp)
 1206fa4:	10800317 	ldw	r2,12(r2)
 1206fa8:	e0fffd17 	ldw	r3,-12(fp)
 1206fac:	18c00517 	ldw	r3,20(r3)
 1206fb0:	1809883a 	mov	r4,r3
 1206fb4:	103ee83a 	callr	r2
 1206fb8:	e0bfff15 	stw	r2,-4(fp)
 1206fbc:	e0bfff17 	ldw	r2,-4(fp)
 1206fc0:	1000031e 	bne	r2,zero,1206fd0 <alt_tick+0xa4>
 1206fc4:	e13ffd17 	ldw	r4,-12(fp)
 1206fc8:	1206e940 	call	1206e94 <alt_alarm_stop>
 1206fcc:	00000d06 	br	1207004 <alt_tick+0xd8>
 1206fd0:	e0bffd17 	ldw	r2,-12(fp)
 1206fd4:	10c00217 	ldw	r3,8(r2)
 1206fd8:	e0bfff17 	ldw	r2,-4(fp)
 1206fdc:	1887883a 	add	r3,r3,r2
 1206fe0:	e0bffd17 	ldw	r2,-12(fp)
 1206fe4:	10c00215 	stw	r3,8(r2)
 1206fe8:	e0bffd17 	ldw	r2,-12(fp)
 1206fec:	10c00217 	ldw	r3,8(r2)
 1206ff0:	d0a01b17 	ldw	r2,-32660(gp)
 1206ff4:	1880032e 	bgeu	r3,r2,1207004 <alt_tick+0xd8>
 1206ff8:	e0bffd17 	ldw	r2,-12(fp)
 1206ffc:	00c00044 	movi	r3,1
 1207000:	10c00405 	stb	r3,16(r2)
 1207004:	e0bffe17 	ldw	r2,-8(fp)
 1207008:	e0bffd15 	stw	r2,-12(fp)
 120700c:	e0fffd17 	ldw	r3,-12(fp)
 1207010:	d0a00e04 	addi	r2,gp,-32712
 1207014:	18bfcf1e 	bne	r3,r2,1206f54 <__alt_mem_instruction_tcm+0xff206f54>
 1207018:	0001883a 	nop
 120701c:	e037883a 	mov	sp,fp
 1207020:	dfc00117 	ldw	ra,4(sp)
 1207024:	df000017 	ldw	fp,0(sp)
 1207028:	dec00204 	addi	sp,sp,8
 120702c:	f800283a 	ret

01207030 <altera_nios2_gen2_irq_init>:
 1207030:	deffff04 	addi	sp,sp,-4
 1207034:	df000015 	stw	fp,0(sp)
 1207038:	d839883a 	mov	fp,sp
 120703c:	000170fa 	wrctl	ienable,zero
 1207040:	e037883a 	mov	sp,fp
 1207044:	df000017 	ldw	fp,0(sp)
 1207048:	dec00104 	addi	sp,sp,4
 120704c:	f800283a 	ret

01207050 <alt_program_amd>:
 1207050:	defff704 	addi	sp,sp,-36
 1207054:	dfc00815 	stw	ra,32(sp)
 1207058:	df000715 	stw	fp,28(sp)
 120705c:	df000704 	addi	fp,sp,28
 1207060:	e13ffc15 	stw	r4,-16(fp)
 1207064:	e17ffd15 	stw	r5,-12(fp)
 1207068:	e1bffe15 	stw	r6,-8(fp)
 120706c:	e1ffff15 	stw	r7,-4(fp)
 1207070:	e03ffa15 	stw	zero,-24(fp)
 1207074:	e0bffc17 	ldw	r2,-16(fp)
 1207078:	e0bffb15 	stw	r2,-20(fp)
 120707c:	00804834 	movhi	r2,288
 1207080:	109cf904 	addi	r2,r2,29668
 1207084:	d8800015 	stw	r2,0(sp)
 1207088:	e13ffb17 	ldw	r4,-20(fp)
 120708c:	e17ffe17 	ldw	r5,-8(fp)
 1207090:	e1bfff17 	ldw	r6,-4(fp)
 1207094:	e1c00217 	ldw	r7,8(fp)
 1207098:	120426c0 	call	120426c <alt_flash_program_block>
 120709c:	e0bffa15 	stw	r2,-24(fp)
 12070a0:	e0bffa17 	ldw	r2,-24(fp)
 12070a4:	e037883a 	mov	sp,fp
 12070a8:	dfc00117 	ldw	ra,4(sp)
 12070ac:	df000017 	ldw	fp,0(sp)
 12070b0:	dec00204 	addi	sp,sp,8
 12070b4:	f800283a 	ret

012070b8 <alt_erase_block_amd>:
 12070b8:	defff804 	addi	sp,sp,-32
 12070bc:	dfc00715 	stw	ra,28(sp)
 12070c0:	df000615 	stw	fp,24(sp)
 12070c4:	df000604 	addi	fp,sp,24
 12070c8:	e13ffe15 	stw	r4,-8(fp)
 12070cc:	e17fff15 	stw	r5,-4(fp)
 12070d0:	e03ffa15 	stw	zero,-24(fp)
 12070d4:	e0bffe17 	ldw	r2,-8(fp)
 12070d8:	e0bffc15 	stw	r2,-16(fp)
 12070dc:	e0bffc17 	ldw	r2,-16(fp)
 12070e0:	10803417 	ldw	r2,208(r2)
 12070e4:	e0fffc17 	ldw	r3,-16(fp)
 12070e8:	18c00a17 	ldw	r3,40(r3)
 12070ec:	1809883a 	mov	r4,r3
 12070f0:	01415544 	movi	r5,1365
 12070f4:	01802a84 	movi	r6,170
 12070f8:	103ee83a 	callr	r2
 12070fc:	e0bffc17 	ldw	r2,-16(fp)
 1207100:	10803417 	ldw	r2,208(r2)
 1207104:	e0fffc17 	ldw	r3,-16(fp)
 1207108:	18c00a17 	ldw	r3,40(r3)
 120710c:	1809883a 	mov	r4,r3
 1207110:	0140aa84 	movi	r5,682
 1207114:	01801544 	movi	r6,85
 1207118:	103ee83a 	callr	r2
 120711c:	e0bffc17 	ldw	r2,-16(fp)
 1207120:	10803417 	ldw	r2,208(r2)
 1207124:	e0fffc17 	ldw	r3,-16(fp)
 1207128:	18c00a17 	ldw	r3,40(r3)
 120712c:	1809883a 	mov	r4,r3
 1207130:	01415544 	movi	r5,1365
 1207134:	01802004 	movi	r6,128
 1207138:	103ee83a 	callr	r2
 120713c:	e0bffc17 	ldw	r2,-16(fp)
 1207140:	10803417 	ldw	r2,208(r2)
 1207144:	e0fffc17 	ldw	r3,-16(fp)
 1207148:	18c00a17 	ldw	r3,40(r3)
 120714c:	1809883a 	mov	r4,r3
 1207150:	01415544 	movi	r5,1365
 1207154:	01802a84 	movi	r6,170
 1207158:	103ee83a 	callr	r2
 120715c:	e0bffc17 	ldw	r2,-16(fp)
 1207160:	10803417 	ldw	r2,208(r2)
 1207164:	e0fffc17 	ldw	r3,-16(fp)
 1207168:	18c00a17 	ldw	r3,40(r3)
 120716c:	1809883a 	mov	r4,r3
 1207170:	0140aa84 	movi	r5,682
 1207174:	01801544 	movi	r6,85
 1207178:	103ee83a 	callr	r2
 120717c:	e0bffc17 	ldw	r2,-16(fp)
 1207180:	10803617 	ldw	r2,216(r2)
 1207184:	e0fffc17 	ldw	r3,-16(fp)
 1207188:	19000a17 	ldw	r4,40(r3)
 120718c:	e0ffff17 	ldw	r3,-4(fp)
 1207190:	20c7883a 	add	r3,r4,r3
 1207194:	1809883a 	mov	r4,r3
 1207198:	01400c04 	movi	r5,48
 120719c:	103ee83a 	callr	r2
 12071a0:	0109c404 	movi	r4,10000
 12071a4:	1203a640 	call	1203a64 <usleep>
 12071a8:	00800c84 	movi	r2,50
 12071ac:	e0bffb15 	stw	r2,-20(fp)
 12071b0:	e0bffc17 	ldw	r2,-16(fp)
 12071b4:	10c00a17 	ldw	r3,40(r2)
 12071b8:	e0bfff17 	ldw	r2,-4(fp)
 12071bc:	1885883a 	add	r2,r3,r2
 12071c0:	10800023 	ldbuio	r2,0(r2)
 12071c4:	10803fcc 	andi	r2,r2,255
 12071c8:	e0bffd05 	stb	r2,-12(fp)
 12071cc:	0100fa04 	movi	r4,1000
 12071d0:	1203a640 	call	1203a64 <usleep>
 12071d4:	e0bffb17 	ldw	r2,-20(fp)
 12071d8:	10bfffc4 	addi	r2,r2,-1
 12071dc:	e0bffb15 	stw	r2,-20(fp)
 12071e0:	e0bffd03 	ldbu	r2,-12(fp)
 12071e4:	10803fcc 	andi	r2,r2,255
 12071e8:	1080020c 	andi	r2,r2,8
 12071ec:	1000021e 	bne	r2,zero,12071f8 <alt_erase_block_amd+0x140>
 12071f0:	e0bffb17 	ldw	r2,-20(fp)
 12071f4:	00bfee16 	blt	zero,r2,12071b0 <__alt_mem_instruction_tcm+0xff2071b0>
 12071f8:	e0bffc17 	ldw	r2,-16(fp)
 12071fc:	10803217 	ldw	r2,200(r2)
 1207200:	e0bffb15 	stw	r2,-20(fp)
 1207204:	00001506 	br	120725c <alt_erase_block_amd+0x1a4>
 1207208:	e0bffc17 	ldw	r2,-16(fp)
 120720c:	10c00a17 	ldw	r3,40(r2)
 1207210:	e0bfff17 	ldw	r2,-4(fp)
 1207214:	1885883a 	add	r2,r3,r2
 1207218:	10800023 	ldbuio	r2,0(r2)
 120721c:	10803fcc 	andi	r2,r2,255
 1207220:	e0bffd05 	stb	r2,-12(fp)
 1207224:	e0bffd03 	ldbu	r2,-12(fp)
 1207228:	10803fcc 	andi	r2,r2,255
 120722c:	1080201c 	xori	r2,r2,128
 1207230:	10bfe004 	addi	r2,r2,-128
 1207234:	10000b16 	blt	r2,zero,1207264 <alt_erase_block_amd+0x1ac>
 1207238:	e0bffd03 	ldbu	r2,-12(fp)
 120723c:	10803fcc 	andi	r2,r2,255
 1207240:	1080080c 	andi	r2,r2,32
 1207244:	1000071e 	bne	r2,zero,1207264 <alt_erase_block_amd+0x1ac>
 1207248:	0100fa04 	movi	r4,1000
 120724c:	1203a640 	call	1203a64 <usleep>
 1207250:	e0bffb17 	ldw	r2,-20(fp)
 1207254:	10bf0604 	addi	r2,r2,-1000
 1207258:	e0bffb15 	stw	r2,-20(fp)
 120725c:	e0bffb17 	ldw	r2,-20(fp)
 1207260:	00bfe916 	blt	zero,r2,1207208 <__alt_mem_instruction_tcm+0xff207208>
 1207264:	e0bffb17 	ldw	r2,-20(fp)
 1207268:	00800316 	blt	zero,r2,1207278 <alt_erase_block_amd+0x1c0>
 120726c:	00bfe304 	movi	r2,-116
 1207270:	e0bffa15 	stw	r2,-24(fp)
 1207274:	00000e06 	br	12072b0 <alt_erase_block_amd+0x1f8>
 1207278:	e0bffc17 	ldw	r2,-16(fp)
 120727c:	10c00a17 	ldw	r3,40(r2)
 1207280:	e0bfff17 	ldw	r2,-4(fp)
 1207284:	1885883a 	add	r2,r3,r2
 1207288:	10800023 	ldbuio	r2,0(r2)
 120728c:	10803fcc 	andi	r2,r2,255
 1207290:	e0bffd05 	stb	r2,-12(fp)
 1207294:	e0bffd03 	ldbu	r2,-12(fp)
 1207298:	10803fcc 	andi	r2,r2,255
 120729c:	1080201c 	xori	r2,r2,128
 12072a0:	10bfe004 	addi	r2,r2,-128
 12072a4:	10000216 	blt	r2,zero,12072b0 <alt_erase_block_amd+0x1f8>
 12072a8:	00bffec4 	movi	r2,-5
 12072ac:	e0bffa15 	stw	r2,-24(fp)
 12072b0:	e0bffa17 	ldw	r2,-24(fp)
 12072b4:	e037883a 	mov	sp,fp
 12072b8:	dfc00117 	ldw	ra,4(sp)
 12072bc:	df000017 	ldw	fp,0(sp)
 12072c0:	dec00204 	addi	sp,sp,8
 12072c4:	f800283a 	ret

012072c8 <alt_wait_for_command_to_complete_amd>:
 12072c8:	defff804 	addi	sp,sp,-32
 12072cc:	dfc00715 	stw	ra,28(sp)
 12072d0:	df000615 	stw	fp,24(sp)
 12072d4:	df000604 	addi	fp,sp,24
 12072d8:	e13ffd15 	stw	r4,-12(fp)
 12072dc:	e17ffe15 	stw	r5,-8(fp)
 12072e0:	3005883a 	mov	r2,r6
 12072e4:	e0bfff05 	stb	r2,-4(fp)
 12072e8:	e0bffd17 	ldw	r2,-12(fp)
 12072ec:	10803117 	ldw	r2,196(r2)
 12072f0:	10801924 	muli	r2,r2,100
 12072f4:	e0bffa15 	stw	r2,-24(fp)
 12072f8:	e03ffb15 	stw	zero,-20(fp)
 12072fc:	e0bffd17 	ldw	r2,-12(fp)
 1207300:	10c00a17 	ldw	r3,40(r2)
 1207304:	e0bffe17 	ldw	r2,-8(fp)
 1207308:	1885883a 	add	r2,r3,r2
 120730c:	10800023 	ldbuio	r2,0(r2)
 1207310:	10803fcc 	andi	r2,r2,255
 1207314:	e0bffc05 	stb	r2,-16(fp)
 1207318:	00001606 	br	1207374 <alt_wait_for_command_to_complete_amd+0xac>
 120731c:	e0bffc03 	ldbu	r2,-16(fp)
 1207320:	10c03fcc 	andi	r3,r2,255
 1207324:	e0bfff03 	ldbu	r2,-4(fp)
 1207328:	1884f03a 	xor	r2,r3,r2
 120732c:	1080200c 	andi	r2,r2,128
 1207330:	10001226 	beq	r2,zero,120737c <alt_wait_for_command_to_complete_amd+0xb4>
 1207334:	e0bffc03 	ldbu	r2,-16(fp)
 1207338:	10803fcc 	andi	r2,r2,255
 120733c:	1080080c 	andi	r2,r2,32
 1207340:	10000e1e 	bne	r2,zero,120737c <alt_wait_for_command_to_complete_amd+0xb4>
 1207344:	01000044 	movi	r4,1
 1207348:	1203a640 	call	1203a64 <usleep>
 120734c:	e0bffa17 	ldw	r2,-24(fp)
 1207350:	10bfffc4 	addi	r2,r2,-1
 1207354:	e0bffa15 	stw	r2,-24(fp)
 1207358:	e0bffd17 	ldw	r2,-12(fp)
 120735c:	10c00a17 	ldw	r3,40(r2)
 1207360:	e0bffe17 	ldw	r2,-8(fp)
 1207364:	1885883a 	add	r2,r3,r2
 1207368:	10800023 	ldbuio	r2,0(r2)
 120736c:	10803fcc 	andi	r2,r2,255
 1207370:	e0bffc05 	stb	r2,-16(fp)
 1207374:	e0bffa17 	ldw	r2,-24(fp)
 1207378:	00bfe816 	blt	zero,r2,120731c <__alt_mem_instruction_tcm+0xff20731c>
 120737c:	e0bffa17 	ldw	r2,-24(fp)
 1207380:	1000031e 	bne	r2,zero,1207390 <alt_wait_for_command_to_complete_amd+0xc8>
 1207384:	00bfe304 	movi	r2,-116
 1207388:	e0bffb15 	stw	r2,-20(fp)
 120738c:	00000f06 	br	12073cc <alt_wait_for_command_to_complete_amd+0x104>
 1207390:	e0bffd17 	ldw	r2,-12(fp)
 1207394:	10c00a17 	ldw	r3,40(r2)
 1207398:	e0bffe17 	ldw	r2,-8(fp)
 120739c:	1885883a 	add	r2,r3,r2
 12073a0:	10800023 	ldbuio	r2,0(r2)
 12073a4:	10803fcc 	andi	r2,r2,255
 12073a8:	e0bffc05 	stb	r2,-16(fp)
 12073ac:	e0bffc03 	ldbu	r2,-16(fp)
 12073b0:	10c03fcc 	andi	r3,r2,255
 12073b4:	e0bfff03 	ldbu	r2,-4(fp)
 12073b8:	1884f03a 	xor	r2,r3,r2
 12073bc:	1080200c 	andi	r2,r2,128
 12073c0:	10000226 	beq	r2,zero,12073cc <alt_wait_for_command_to_complete_amd+0x104>
 12073c4:	00bffec4 	movi	r2,-5
 12073c8:	e0bffb15 	stw	r2,-20(fp)
 12073cc:	e0bffb17 	ldw	r2,-20(fp)
 12073d0:	e037883a 	mov	sp,fp
 12073d4:	dfc00117 	ldw	ra,4(sp)
 12073d8:	df000017 	ldw	fp,0(sp)
 12073dc:	dec00204 	addi	sp,sp,8
 12073e0:	f800283a 	ret

012073e4 <alt_write_word_amd>:
 12073e4:	defff904 	addi	sp,sp,-28
 12073e8:	dfc00615 	stw	ra,24(sp)
 12073ec:	df000515 	stw	fp,20(sp)
 12073f0:	df000504 	addi	fp,sp,20
 12073f4:	e13ffd15 	stw	r4,-12(fp)
 12073f8:	e17ffe15 	stw	r5,-8(fp)
 12073fc:	e1bfff15 	stw	r6,-4(fp)
 1207400:	e03ffb15 	stw	zero,-20(fp)
 1207404:	e0bffd17 	ldw	r2,-12(fp)
 1207408:	10803417 	ldw	r2,208(r2)
 120740c:	e0fffd17 	ldw	r3,-12(fp)
 1207410:	18c00a17 	ldw	r3,40(r3)
 1207414:	1809883a 	mov	r4,r3
 1207418:	01415544 	movi	r5,1365
 120741c:	01802a84 	movi	r6,170
 1207420:	103ee83a 	callr	r2
 1207424:	e0bffd17 	ldw	r2,-12(fp)
 1207428:	10803417 	ldw	r2,208(r2)
 120742c:	e0fffd17 	ldw	r3,-12(fp)
 1207430:	18c00a17 	ldw	r3,40(r3)
 1207434:	1809883a 	mov	r4,r3
 1207438:	0140aa84 	movi	r5,682
 120743c:	01801544 	movi	r6,85
 1207440:	103ee83a 	callr	r2
 1207444:	e0bffd17 	ldw	r2,-12(fp)
 1207448:	10803417 	ldw	r2,208(r2)
 120744c:	e0fffd17 	ldw	r3,-12(fp)
 1207450:	18c00a17 	ldw	r3,40(r3)
 1207454:	1809883a 	mov	r4,r3
 1207458:	01415544 	movi	r5,1365
 120745c:	01802804 	movi	r6,160
 1207460:	103ee83a 	callr	r2
 1207464:	e0bfff17 	ldw	r2,-4(fp)
 1207468:	10800003 	ldbu	r2,0(r2)
 120746c:	e0bffc05 	stb	r2,-16(fp)
 1207470:	e13ffd17 	ldw	r4,-12(fp)
 1207474:	e17ffe17 	ldw	r5,-8(fp)
 1207478:	e1bfff17 	ldw	r6,-4(fp)
 120747c:	12041140 	call	1204114 <alt_write_value_to_flash>
 1207480:	e0bffc03 	ldbu	r2,-16(fp)
 1207484:	e13ffd17 	ldw	r4,-12(fp)
 1207488:	e17ffe17 	ldw	r5,-8(fp)
 120748c:	100d883a 	mov	r6,r2
 1207490:	12072c80 	call	12072c8 <alt_wait_for_command_to_complete_amd>
 1207494:	e0bffb15 	stw	r2,-20(fp)
 1207498:	e0bffb17 	ldw	r2,-20(fp)
 120749c:	e037883a 	mov	sp,fp
 12074a0:	dfc00117 	ldw	ra,4(sp)
 12074a4:	df000017 	ldw	fp,0(sp)
 12074a8:	dec00204 	addi	sp,sp,8
 12074ac:	f800283a 	ret

012074b0 <alt_program_intel>:
 12074b0:	defff704 	addi	sp,sp,-36
 12074b4:	dfc00815 	stw	ra,32(sp)
 12074b8:	df000715 	stw	fp,28(sp)
 12074bc:	df000704 	addi	fp,sp,28
 12074c0:	e13ffc15 	stw	r4,-16(fp)
 12074c4:	e17ffd15 	stw	r5,-12(fp)
 12074c8:	e1bffe15 	stw	r6,-8(fp)
 12074cc:	e1ffff15 	stw	r7,-4(fp)
 12074d0:	e03ffa15 	stw	zero,-24(fp)
 12074d4:	e0bffc17 	ldw	r2,-16(fp)
 12074d8:	e0bffb15 	stw	r2,-20(fp)
 12074dc:	e13ffb17 	ldw	r4,-20(fp)
 12074e0:	e17ffd17 	ldw	r5,-12(fp)
 12074e4:	12076b80 	call	12076b8 <alt_unlock_block_intel>
 12074e8:	e0bffa15 	stw	r2,-24(fp)
 12074ec:	e0bffa17 	ldw	r2,-24(fp)
 12074f0:	1000091e 	bne	r2,zero,1207518 <alt_program_intel+0x68>
 12074f4:	00804834 	movhi	r2,288
 12074f8:	109e0c04 	addi	r2,r2,30768
 12074fc:	d8800015 	stw	r2,0(sp)
 1207500:	e13ffb17 	ldw	r4,-20(fp)
 1207504:	e17ffe17 	ldw	r5,-8(fp)
 1207508:	e1bfff17 	ldw	r6,-4(fp)
 120750c:	e1c00217 	ldw	r7,8(fp)
 1207510:	120426c0 	call	120426c <alt_flash_program_block>
 1207514:	e0bffa15 	stw	r2,-24(fp)
 1207518:	e0bffa17 	ldw	r2,-24(fp)
 120751c:	e037883a 	mov	sp,fp
 1207520:	dfc00117 	ldw	ra,4(sp)
 1207524:	df000017 	ldw	fp,0(sp)
 1207528:	dec00204 	addi	sp,sp,8
 120752c:	f800283a 	ret

01207530 <alt_erase_block_intel>:
 1207530:	defff804 	addi	sp,sp,-32
 1207534:	dfc00715 	stw	ra,28(sp)
 1207538:	df000615 	stw	fp,24(sp)
 120753c:	df000604 	addi	fp,sp,24
 1207540:	e13ffe15 	stw	r4,-8(fp)
 1207544:	e17fff15 	stw	r5,-4(fp)
 1207548:	e03ffa15 	stw	zero,-24(fp)
 120754c:	e0bffe17 	ldw	r2,-8(fp)
 1207550:	e0bffc15 	stw	r2,-16(fp)
 1207554:	e0bffc17 	ldw	r2,-16(fp)
 1207558:	10803217 	ldw	r2,200(r2)
 120755c:	e0bffb15 	stw	r2,-20(fp)
 1207560:	e13ffc17 	ldw	r4,-16(fp)
 1207564:	e17fff17 	ldw	r5,-4(fp)
 1207568:	12076b80 	call	12076b8 <alt_unlock_block_intel>
 120756c:	e0bffa15 	stw	r2,-24(fp)
 1207570:	e0bffa17 	ldw	r2,-24(fp)
 1207574:	10004a1e 	bne	r2,zero,12076a0 <alt_erase_block_intel+0x170>
 1207578:	e0bffc17 	ldw	r2,-16(fp)
 120757c:	10803617 	ldw	r2,216(r2)
 1207580:	e0fffc17 	ldw	r3,-16(fp)
 1207584:	19000a17 	ldw	r4,40(r3)
 1207588:	e0ffff17 	ldw	r3,-4(fp)
 120758c:	20c7883a 	add	r3,r4,r3
 1207590:	1809883a 	mov	r4,r3
 1207594:	01401404 	movi	r5,80
 1207598:	103ee83a 	callr	r2
 120759c:	e0bffc17 	ldw	r2,-16(fp)
 12075a0:	10803617 	ldw	r2,216(r2)
 12075a4:	e0fffc17 	ldw	r3,-16(fp)
 12075a8:	19000a17 	ldw	r4,40(r3)
 12075ac:	e0ffff17 	ldw	r3,-4(fp)
 12075b0:	20c7883a 	add	r3,r4,r3
 12075b4:	1809883a 	mov	r4,r3
 12075b8:	01400804 	movi	r5,32
 12075bc:	103ee83a 	callr	r2
 12075c0:	e0bffc17 	ldw	r2,-16(fp)
 12075c4:	10803617 	ldw	r2,216(r2)
 12075c8:	e0fffc17 	ldw	r3,-16(fp)
 12075cc:	19000a17 	ldw	r4,40(r3)
 12075d0:	e0ffff17 	ldw	r3,-4(fp)
 12075d4:	20c7883a 	add	r3,r4,r3
 12075d8:	1809883a 	mov	r4,r3
 12075dc:	01403404 	movi	r5,208
 12075e0:	103ee83a 	callr	r2
 12075e4:	e0bffc17 	ldw	r2,-16(fp)
 12075e8:	10c00a17 	ldw	r3,40(r2)
 12075ec:	e0bfff17 	ldw	r2,-4(fp)
 12075f0:	1885883a 	add	r2,r3,r2
 12075f4:	10800023 	ldbuio	r2,0(r2)
 12075f8:	10803fcc 	andi	r2,r2,255
 12075fc:	e0bffd05 	stb	r2,-12(fp)
 1207600:	e0bffd03 	ldbu	r2,-12(fp)
 1207604:	10803fcc 	andi	r2,r2,255
 1207608:	1080201c 	xori	r2,r2,128
 120760c:	10bfe004 	addi	r2,r2,-128
 1207610:	1000010e 	bge	r2,zero,1207618 <alt_erase_block_intel+0xe8>
 1207614:	00000706 	br	1207634 <alt_erase_block_intel+0x104>
 1207618:	0100fa04 	movi	r4,1000
 120761c:	1203a640 	call	1203a64 <usleep>
 1207620:	e0bffb17 	ldw	r2,-20(fp)
 1207624:	10bf0604 	addi	r2,r2,-1000
 1207628:	e0bffb15 	stw	r2,-20(fp)
 120762c:	e0bffb17 	ldw	r2,-20(fp)
 1207630:	00bfec16 	blt	zero,r2,12075e4 <__alt_mem_instruction_tcm+0xff2075e4>
 1207634:	e0bffb17 	ldw	r2,-20(fp)
 1207638:	00800316 	blt	zero,r2,1207648 <alt_erase_block_intel+0x118>
 120763c:	00bfe304 	movi	r2,-116
 1207640:	e0bffa15 	stw	r2,-24(fp)
 1207644:	00000d06 	br	120767c <alt_erase_block_intel+0x14c>
 1207648:	e0bffd03 	ldbu	r2,-12(fp)
 120764c:	10803fcc 	andi	r2,r2,255
 1207650:	10801fcc 	andi	r2,r2,127
 1207654:	10000926 	beq	r2,zero,120767c <alt_erase_block_intel+0x14c>
 1207658:	00bffec4 	movi	r2,-5
 120765c:	e0bffa15 	stw	r2,-24(fp)
 1207660:	e0bffc17 	ldw	r2,-16(fp)
 1207664:	10c00a17 	ldw	r3,40(r2)
 1207668:	e0bfff17 	ldw	r2,-4(fp)
 120766c:	1885883a 	add	r2,r3,r2
 1207670:	10800023 	ldbuio	r2,0(r2)
 1207674:	10803fcc 	andi	r2,r2,255
 1207678:	e0bffd05 	stb	r2,-12(fp)
 120767c:	e0bffc17 	ldw	r2,-16(fp)
 1207680:	10803617 	ldw	r2,216(r2)
 1207684:	e0fffc17 	ldw	r3,-16(fp)
 1207688:	19000a17 	ldw	r4,40(r3)
 120768c:	e0ffff17 	ldw	r3,-4(fp)
 1207690:	20c7883a 	add	r3,r4,r3
 1207694:	1809883a 	mov	r4,r3
 1207698:	01403fc4 	movi	r5,255
 120769c:	103ee83a 	callr	r2
 12076a0:	e0bffa17 	ldw	r2,-24(fp)
 12076a4:	e037883a 	mov	sp,fp
 12076a8:	dfc00117 	ldw	ra,4(sp)
 12076ac:	df000017 	ldw	fp,0(sp)
 12076b0:	dec00204 	addi	sp,sp,8
 12076b4:	f800283a 	ret

012076b8 <alt_unlock_block_intel>:
 12076b8:	defff904 	addi	sp,sp,-28
 12076bc:	dfc00615 	stw	ra,24(sp)
 12076c0:	df000515 	stw	fp,20(sp)
 12076c4:	df000504 	addi	fp,sp,20
 12076c8:	e13ffe15 	stw	r4,-8(fp)
 12076cc:	e17fff15 	stw	r5,-4(fp)
 12076d0:	e03ffb15 	stw	zero,-20(fp)
 12076d4:	e0bffe17 	ldw	r2,-8(fp)
 12076d8:	10803117 	ldw	r2,196(r2)
 12076dc:	10801924 	muli	r2,r2,100
 12076e0:	e0bffc15 	stw	r2,-16(fp)
 12076e4:	e0bffe17 	ldw	r2,-8(fp)
 12076e8:	10803617 	ldw	r2,216(r2)
 12076ec:	e0fffe17 	ldw	r3,-8(fp)
 12076f0:	19000a17 	ldw	r4,40(r3)
 12076f4:	e0ffff17 	ldw	r3,-4(fp)
 12076f8:	20c7883a 	add	r3,r4,r3
 12076fc:	1809883a 	mov	r4,r3
 1207700:	01402404 	movi	r5,144
 1207704:	103ee83a 	callr	r2
 1207708:	e0bffe17 	ldw	r2,-8(fp)
 120770c:	10c00a17 	ldw	r3,40(r2)
 1207710:	e0bfff17 	ldw	r2,-4(fp)
 1207714:	10800104 	addi	r2,r2,4
 1207718:	1885883a 	add	r2,r3,r2
 120771c:	10800023 	ldbuio	r2,0(r2)
 1207720:	10803fcc 	andi	r2,r2,255
 1207724:	e0bffd05 	stb	r2,-12(fp)
 1207728:	e0bffd03 	ldbu	r2,-12(fp)
 120772c:	1080004c 	andi	r2,r2,1
 1207730:	10003026 	beq	r2,zero,12077f4 <alt_unlock_block_intel+0x13c>
 1207734:	e0bffe17 	ldw	r2,-8(fp)
 1207738:	10803617 	ldw	r2,216(r2)
 120773c:	e0fffe17 	ldw	r3,-8(fp)
 1207740:	19000a17 	ldw	r4,40(r3)
 1207744:	e0ffff17 	ldw	r3,-4(fp)
 1207748:	20c7883a 	add	r3,r4,r3
 120774c:	1809883a 	mov	r4,r3
 1207750:	01401804 	movi	r5,96
 1207754:	103ee83a 	callr	r2
 1207758:	e0bffe17 	ldw	r2,-8(fp)
 120775c:	10803617 	ldw	r2,216(r2)
 1207760:	e0fffe17 	ldw	r3,-8(fp)
 1207764:	19000a17 	ldw	r4,40(r3)
 1207768:	e0ffff17 	ldw	r3,-4(fp)
 120776c:	20c7883a 	add	r3,r4,r3
 1207770:	1809883a 	mov	r4,r3
 1207774:	01403404 	movi	r5,208
 1207778:	103ee83a 	callr	r2
 120777c:	e0bffe17 	ldw	r2,-8(fp)
 1207780:	10c00a17 	ldw	r3,40(r2)
 1207784:	e0bfff17 	ldw	r2,-4(fp)
 1207788:	1885883a 	add	r2,r3,r2
 120778c:	10800023 	ldbuio	r2,0(r2)
 1207790:	10803fcc 	andi	r2,r2,255
 1207794:	e0bffd45 	stb	r2,-11(fp)
 1207798:	e0bffd43 	ldbu	r2,-11(fp)
 120779c:	10803fcc 	andi	r2,r2,255
 12077a0:	1080201c 	xori	r2,r2,128
 12077a4:	10bfe004 	addi	r2,r2,-128
 12077a8:	1000010e 	bge	r2,zero,12077b0 <alt_unlock_block_intel+0xf8>
 12077ac:	00000706 	br	12077cc <alt_unlock_block_intel+0x114>
 12077b0:	e0bffc17 	ldw	r2,-16(fp)
 12077b4:	10bfffc4 	addi	r2,r2,-1
 12077b8:	e0bffc15 	stw	r2,-16(fp)
 12077bc:	01000044 	movi	r4,1
 12077c0:	1203a640 	call	1203a64 <usleep>
 12077c4:	e0bffc17 	ldw	r2,-16(fp)
 12077c8:	00bfec16 	blt	zero,r2,120777c <__alt_mem_instruction_tcm+0xff20777c>
 12077cc:	e0bffc17 	ldw	r2,-16(fp)
 12077d0:	1000031e 	bne	r2,zero,12077e0 <alt_unlock_block_intel+0x128>
 12077d4:	00bfe304 	movi	r2,-116
 12077d8:	e0bffb15 	stw	r2,-20(fp)
 12077dc:	00000506 	br	12077f4 <alt_unlock_block_intel+0x13c>
 12077e0:	e0bffd43 	ldbu	r2,-11(fp)
 12077e4:	10801fcc 	andi	r2,r2,127
 12077e8:	10000226 	beq	r2,zero,12077f4 <alt_unlock_block_intel+0x13c>
 12077ec:	00bffec4 	movi	r2,-5
 12077f0:	e0bffb15 	stw	r2,-20(fp)
 12077f4:	e0bffe17 	ldw	r2,-8(fp)
 12077f8:	10803617 	ldw	r2,216(r2)
 12077fc:	e0fffe17 	ldw	r3,-8(fp)
 1207800:	19000a17 	ldw	r4,40(r3)
 1207804:	e0ffff17 	ldw	r3,-4(fp)
 1207808:	20c7883a 	add	r3,r4,r3
 120780c:	1809883a 	mov	r4,r3
 1207810:	01403fc4 	movi	r5,255
 1207814:	103ee83a 	callr	r2
 1207818:	e0bffb17 	ldw	r2,-20(fp)
 120781c:	e037883a 	mov	sp,fp
 1207820:	dfc00117 	ldw	ra,4(sp)
 1207824:	df000017 	ldw	fp,0(sp)
 1207828:	dec00204 	addi	sp,sp,8
 120782c:	f800283a 	ret

01207830 <alt_write_word_intel>:
 1207830:	defff904 	addi	sp,sp,-28
 1207834:	dfc00615 	stw	ra,24(sp)
 1207838:	df000515 	stw	fp,20(sp)
 120783c:	df000504 	addi	fp,sp,20
 1207840:	e13ffd15 	stw	r4,-12(fp)
 1207844:	e17ffe15 	stw	r5,-8(fp)
 1207848:	e1bfff15 	stw	r6,-4(fp)
 120784c:	e03ffb15 	stw	zero,-20(fp)
 1207850:	e0bffd17 	ldw	r2,-12(fp)
 1207854:	10803617 	ldw	r2,216(r2)
 1207858:	e0fffd17 	ldw	r3,-12(fp)
 120785c:	19000a17 	ldw	r4,40(r3)
 1207860:	e0fffe17 	ldw	r3,-8(fp)
 1207864:	20c7883a 	add	r3,r4,r3
 1207868:	1809883a 	mov	r4,r3
 120786c:	01401004 	movi	r5,64
 1207870:	103ee83a 	callr	r2
 1207874:	e13ffd17 	ldw	r4,-12(fp)
 1207878:	e17ffe17 	ldw	r5,-8(fp)
 120787c:	e1bfff17 	ldw	r6,-4(fp)
 1207880:	12041140 	call	1204114 <alt_write_value_to_flash>
 1207884:	e0bffd17 	ldw	r2,-12(fp)
 1207888:	10c00a17 	ldw	r3,40(r2)
 120788c:	e0bffe17 	ldw	r2,-8(fp)
 1207890:	1885883a 	add	r2,r3,r2
 1207894:	10800023 	ldbuio	r2,0(r2)
 1207898:	10803fcc 	andi	r2,r2,255
 120789c:	e0bffc05 	stb	r2,-16(fp)
 12078a0:	e0bffc03 	ldbu	r2,-16(fp)
 12078a4:	10803fcc 	andi	r2,r2,255
 12078a8:	1080201c 	xori	r2,r2,128
 12078ac:	10bfe004 	addi	r2,r2,-128
 12078b0:	103ff40e 	bge	r2,zero,1207884 <__alt_mem_instruction_tcm+0xff207884>
 12078b4:	e0bffc03 	ldbu	r2,-16(fp)
 12078b8:	10801fcc 	andi	r2,r2,127
 12078bc:	10000226 	beq	r2,zero,12078c8 <alt_write_word_intel+0x98>
 12078c0:	00bffec4 	movi	r2,-5
 12078c4:	e0bffb15 	stw	r2,-20(fp)
 12078c8:	e0bffd17 	ldw	r2,-12(fp)
 12078cc:	10803617 	ldw	r2,216(r2)
 12078d0:	e0fffd17 	ldw	r3,-12(fp)
 12078d4:	19000a17 	ldw	r4,40(r3)
 12078d8:	e0fffe17 	ldw	r3,-8(fp)
 12078dc:	20c7883a 	add	r3,r4,r3
 12078e0:	1809883a 	mov	r4,r3
 12078e4:	01403fc4 	movi	r5,255
 12078e8:	103ee83a 	callr	r2
 12078ec:	e0bffb17 	ldw	r2,-20(fp)
 12078f0:	e037883a 	mov	sp,fp
 12078f4:	dfc00117 	ldw	ra,4(sp)
 12078f8:	df000017 	ldw	fp,0(sp)
 12078fc:	dec00204 	addi	sp,sp,8
 1207900:	f800283a 	ret

01207904 <alt_find_dev>:
 1207904:	defffa04 	addi	sp,sp,-24
 1207908:	dfc00515 	stw	ra,20(sp)
 120790c:	df000415 	stw	fp,16(sp)
 1207910:	df000404 	addi	fp,sp,16
 1207914:	e13ffe15 	stw	r4,-8(fp)
 1207918:	e17fff15 	stw	r5,-4(fp)
 120791c:	e0bfff17 	ldw	r2,-4(fp)
 1207920:	10800017 	ldw	r2,0(r2)
 1207924:	e0bffc15 	stw	r2,-16(fp)
 1207928:	e13ffe17 	ldw	r4,-8(fp)
 120792c:	12005dc0 	call	12005dc <strlen>
 1207930:	10800044 	addi	r2,r2,1
 1207934:	e0bffd15 	stw	r2,-12(fp)
 1207938:	00000d06 	br	1207970 <alt_find_dev+0x6c>
 120793c:	e0bffc17 	ldw	r2,-16(fp)
 1207940:	10c00217 	ldw	r3,8(r2)
 1207944:	e0bffd17 	ldw	r2,-12(fp)
 1207948:	1809883a 	mov	r4,r3
 120794c:	e17ffe17 	ldw	r5,-8(fp)
 1207950:	100d883a 	mov	r6,r2
 1207954:	1207ba80 	call	1207ba8 <memcmp>
 1207958:	1000021e 	bne	r2,zero,1207964 <alt_find_dev+0x60>
 120795c:	e0bffc17 	ldw	r2,-16(fp)
 1207960:	00000706 	br	1207980 <alt_find_dev+0x7c>
 1207964:	e0bffc17 	ldw	r2,-16(fp)
 1207968:	10800017 	ldw	r2,0(r2)
 120796c:	e0bffc15 	stw	r2,-16(fp)
 1207970:	e0fffc17 	ldw	r3,-16(fp)
 1207974:	e0bfff17 	ldw	r2,-4(fp)
 1207978:	18bff01e 	bne	r3,r2,120793c <__alt_mem_instruction_tcm+0xff20793c>
 120797c:	0005883a 	mov	r2,zero
 1207980:	e037883a 	mov	sp,fp
 1207984:	dfc00117 	ldw	ra,4(sp)
 1207988:	df000017 	ldw	fp,0(sp)
 120798c:	dec00204 	addi	sp,sp,8
 1207990:	f800283a 	ret

01207994 <alt_find_file>:
 1207994:	defffb04 	addi	sp,sp,-20
 1207998:	dfc00415 	stw	ra,16(sp)
 120799c:	df000315 	stw	fp,12(sp)
 12079a0:	df000304 	addi	fp,sp,12
 12079a4:	e13fff15 	stw	r4,-4(fp)
 12079a8:	00804874 	movhi	r2,289
 12079ac:	10a6ef04 	addi	r2,r2,-25668
 12079b0:	10800017 	ldw	r2,0(r2)
 12079b4:	e0bffd15 	stw	r2,-12(fp)
 12079b8:	00003106 	br	1207a80 <alt_find_file+0xec>
 12079bc:	e0bffd17 	ldw	r2,-12(fp)
 12079c0:	10800217 	ldw	r2,8(r2)
 12079c4:	1009883a 	mov	r4,r2
 12079c8:	12005dc0 	call	12005dc <strlen>
 12079cc:	e0bffe15 	stw	r2,-8(fp)
 12079d0:	e0bffd17 	ldw	r2,-12(fp)
 12079d4:	10c00217 	ldw	r3,8(r2)
 12079d8:	e0bffe17 	ldw	r2,-8(fp)
 12079dc:	10bfffc4 	addi	r2,r2,-1
 12079e0:	1885883a 	add	r2,r3,r2
 12079e4:	10800003 	ldbu	r2,0(r2)
 12079e8:	10803fcc 	andi	r2,r2,255
 12079ec:	1080201c 	xori	r2,r2,128
 12079f0:	10bfe004 	addi	r2,r2,-128
 12079f4:	10800bd8 	cmpnei	r2,r2,47
 12079f8:	1000031e 	bne	r2,zero,1207a08 <alt_find_file+0x74>
 12079fc:	e0bffe17 	ldw	r2,-8(fp)
 1207a00:	10bfffc4 	addi	r2,r2,-1
 1207a04:	e0bffe15 	stw	r2,-8(fp)
 1207a08:	e0bffe17 	ldw	r2,-8(fp)
 1207a0c:	e0ffff17 	ldw	r3,-4(fp)
 1207a10:	1885883a 	add	r2,r3,r2
 1207a14:	10800003 	ldbu	r2,0(r2)
 1207a18:	10803fcc 	andi	r2,r2,255
 1207a1c:	1080201c 	xori	r2,r2,128
 1207a20:	10bfe004 	addi	r2,r2,-128
 1207a24:	10800be0 	cmpeqi	r2,r2,47
 1207a28:	1000081e 	bne	r2,zero,1207a4c <alt_find_file+0xb8>
 1207a2c:	e0bffe17 	ldw	r2,-8(fp)
 1207a30:	e0ffff17 	ldw	r3,-4(fp)
 1207a34:	1885883a 	add	r2,r3,r2
 1207a38:	10800003 	ldbu	r2,0(r2)
 1207a3c:	10803fcc 	andi	r2,r2,255
 1207a40:	1080201c 	xori	r2,r2,128
 1207a44:	10bfe004 	addi	r2,r2,-128
 1207a48:	10000a1e 	bne	r2,zero,1207a74 <alt_find_file+0xe0>
 1207a4c:	e0bffd17 	ldw	r2,-12(fp)
 1207a50:	10c00217 	ldw	r3,8(r2)
 1207a54:	e0bffe17 	ldw	r2,-8(fp)
 1207a58:	1809883a 	mov	r4,r3
 1207a5c:	e17fff17 	ldw	r5,-4(fp)
 1207a60:	100d883a 	mov	r6,r2
 1207a64:	1207ba80 	call	1207ba8 <memcmp>
 1207a68:	1000021e 	bne	r2,zero,1207a74 <alt_find_file+0xe0>
 1207a6c:	e0bffd17 	ldw	r2,-12(fp)
 1207a70:	00000806 	br	1207a94 <alt_find_file+0x100>
 1207a74:	e0bffd17 	ldw	r2,-12(fp)
 1207a78:	10800017 	ldw	r2,0(r2)
 1207a7c:	e0bffd15 	stw	r2,-12(fp)
 1207a80:	e0fffd17 	ldw	r3,-12(fp)
 1207a84:	00804874 	movhi	r2,289
 1207a88:	10a6ef04 	addi	r2,r2,-25668
 1207a8c:	18bfcb1e 	bne	r3,r2,12079bc <__alt_mem_instruction_tcm+0xff2079bc>
 1207a90:	0005883a 	mov	r2,zero
 1207a94:	e037883a 	mov	sp,fp
 1207a98:	dfc00117 	ldw	ra,4(sp)
 1207a9c:	df000017 	ldw	fp,0(sp)
 1207aa0:	dec00204 	addi	sp,sp,8
 1207aa4:	f800283a 	ret

01207aa8 <alt_get_fd>:
 1207aa8:	defffc04 	addi	sp,sp,-16
 1207aac:	df000315 	stw	fp,12(sp)
 1207ab0:	df000304 	addi	fp,sp,12
 1207ab4:	e13fff15 	stw	r4,-4(fp)
 1207ab8:	00bffa04 	movi	r2,-24
 1207abc:	e0bffe15 	stw	r2,-8(fp)
 1207ac0:	e03ffd15 	stw	zero,-12(fp)
 1207ac4:	00001d06 	br	1207b3c <alt_get_fd+0x94>
 1207ac8:	00804874 	movhi	r2,289
 1207acc:	10a23c04 	addi	r2,r2,-30480
 1207ad0:	e0fffd17 	ldw	r3,-12(fp)
 1207ad4:	18c00324 	muli	r3,r3,12
 1207ad8:	10c5883a 	add	r2,r2,r3
 1207adc:	10800017 	ldw	r2,0(r2)
 1207ae0:	1000131e 	bne	r2,zero,1207b30 <alt_get_fd+0x88>
 1207ae4:	00804874 	movhi	r2,289
 1207ae8:	10a23c04 	addi	r2,r2,-30480
 1207aec:	e0fffd17 	ldw	r3,-12(fp)
 1207af0:	18c00324 	muli	r3,r3,12
 1207af4:	10c5883a 	add	r2,r2,r3
 1207af8:	e0ffff17 	ldw	r3,-4(fp)
 1207afc:	10c00015 	stw	r3,0(r2)
 1207b00:	00804874 	movhi	r2,289
 1207b04:	10a6f304 	addi	r2,r2,-25652
 1207b08:	10c00017 	ldw	r3,0(r2)
 1207b0c:	e0bffd17 	ldw	r2,-12(fp)
 1207b10:	1880040e 	bge	r3,r2,1207b24 <alt_get_fd+0x7c>
 1207b14:	00804874 	movhi	r2,289
 1207b18:	10a6f304 	addi	r2,r2,-25652
 1207b1c:	e0fffd17 	ldw	r3,-12(fp)
 1207b20:	10c00015 	stw	r3,0(r2)
 1207b24:	e0bffd17 	ldw	r2,-12(fp)
 1207b28:	e0bffe15 	stw	r2,-8(fp)
 1207b2c:	00000606 	br	1207b48 <alt_get_fd+0xa0>
 1207b30:	e0bffd17 	ldw	r2,-12(fp)
 1207b34:	10800044 	addi	r2,r2,1
 1207b38:	e0bffd15 	stw	r2,-12(fp)
 1207b3c:	e0bffd17 	ldw	r2,-12(fp)
 1207b40:	10800810 	cmplti	r2,r2,32
 1207b44:	103fe01e 	bne	r2,zero,1207ac8 <__alt_mem_instruction_tcm+0xff207ac8>
 1207b48:	e0bffe17 	ldw	r2,-8(fp)
 1207b4c:	e037883a 	mov	sp,fp
 1207b50:	df000017 	ldw	fp,0(sp)
 1207b54:	dec00104 	addi	sp,sp,4
 1207b58:	f800283a 	ret

01207b5c <atexit>:
 1207b5c:	200b883a 	mov	r5,r4
 1207b60:	000d883a 	mov	r6,zero
 1207b64:	0009883a 	mov	r4,zero
 1207b68:	000f883a 	mov	r7,zero
 1207b6c:	1207c241 	jmpi	1207c24 <__register_exitproc>

01207b70 <exit>:
 1207b70:	defffe04 	addi	sp,sp,-8
 1207b74:	000b883a 	mov	r5,zero
 1207b78:	dc000015 	stw	r16,0(sp)
 1207b7c:	dfc00115 	stw	ra,4(sp)
 1207b80:	2021883a 	mov	r16,r4
 1207b84:	1207d380 	call	1207d38 <__call_exitprocs>
 1207b88:	00804874 	movhi	r2,289
 1207b8c:	10a6eb04 	addi	r2,r2,-25684
 1207b90:	11000017 	ldw	r4,0(r2)
 1207b94:	20800f17 	ldw	r2,60(r4)
 1207b98:	10000126 	beq	r2,zero,1207ba0 <exit+0x30>
 1207b9c:	103ee83a 	callr	r2
 1207ba0:	8009883a 	mov	r4,r16
 1207ba4:	1207ff80 	call	1207ff8 <_exit>

01207ba8 <memcmp>:
 1207ba8:	01c000c4 	movi	r7,3
 1207bac:	3980192e 	bgeu	r7,r6,1207c14 <memcmp+0x6c>
 1207bb0:	2144b03a 	or	r2,r4,r5
 1207bb4:	11c4703a 	and	r2,r2,r7
 1207bb8:	10000f26 	beq	r2,zero,1207bf8 <memcmp+0x50>
 1207bbc:	20800003 	ldbu	r2,0(r4)
 1207bc0:	28c00003 	ldbu	r3,0(r5)
 1207bc4:	10c0151e 	bne	r2,r3,1207c1c <memcmp+0x74>
 1207bc8:	31bfff84 	addi	r6,r6,-2
 1207bcc:	01ffffc4 	movi	r7,-1
 1207bd0:	00000406 	br	1207be4 <memcmp+0x3c>
 1207bd4:	20800003 	ldbu	r2,0(r4)
 1207bd8:	28c00003 	ldbu	r3,0(r5)
 1207bdc:	31bfffc4 	addi	r6,r6,-1
 1207be0:	10c00e1e 	bne	r2,r3,1207c1c <memcmp+0x74>
 1207be4:	21000044 	addi	r4,r4,1
 1207be8:	29400044 	addi	r5,r5,1
 1207bec:	31fff91e 	bne	r6,r7,1207bd4 <__alt_mem_instruction_tcm+0xff207bd4>
 1207bf0:	0005883a 	mov	r2,zero
 1207bf4:	f800283a 	ret
 1207bf8:	20c00017 	ldw	r3,0(r4)
 1207bfc:	28800017 	ldw	r2,0(r5)
 1207c00:	1880041e 	bne	r3,r2,1207c14 <memcmp+0x6c>
 1207c04:	31bfff04 	addi	r6,r6,-4
 1207c08:	21000104 	addi	r4,r4,4
 1207c0c:	29400104 	addi	r5,r5,4
 1207c10:	39bff936 	bltu	r7,r6,1207bf8 <__alt_mem_instruction_tcm+0xff207bf8>
 1207c14:	303fe91e 	bne	r6,zero,1207bbc <__alt_mem_instruction_tcm+0xff207bbc>
 1207c18:	003ff506 	br	1207bf0 <__alt_mem_instruction_tcm+0xff207bf0>
 1207c1c:	10c5c83a 	sub	r2,r2,r3
 1207c20:	f800283a 	ret

01207c24 <__register_exitproc>:
 1207c24:	00804874 	movhi	r2,289
 1207c28:	defffa04 	addi	sp,sp,-24
 1207c2c:	10a6eb04 	addi	r2,r2,-25684
 1207c30:	dc000315 	stw	r16,12(sp)
 1207c34:	14000017 	ldw	r16,0(r2)
 1207c38:	dc400415 	stw	r17,16(sp)
 1207c3c:	dfc00515 	stw	ra,20(sp)
 1207c40:	80805217 	ldw	r2,328(r16)
 1207c44:	2023883a 	mov	r17,r4
 1207c48:	10003626 	beq	r2,zero,1207d24 <__register_exitproc+0x100>
 1207c4c:	10c00117 	ldw	r3,4(r2)
 1207c50:	010007c4 	movi	r4,31
 1207c54:	20c00e16 	blt	r4,r3,1207c90 <__register_exitproc+0x6c>
 1207c58:	1a400044 	addi	r9,r3,1
 1207c5c:	8800211e 	bne	r17,zero,1207ce4 <__register_exitproc+0xc0>
 1207c60:	18c00084 	addi	r3,r3,2
 1207c64:	18c7883a 	add	r3,r3,r3
 1207c68:	18c7883a 	add	r3,r3,r3
 1207c6c:	12400115 	stw	r9,4(r2)
 1207c70:	10c7883a 	add	r3,r2,r3
 1207c74:	19400015 	stw	r5,0(r3)
 1207c78:	0005883a 	mov	r2,zero
 1207c7c:	dfc00517 	ldw	ra,20(sp)
 1207c80:	dc400417 	ldw	r17,16(sp)
 1207c84:	dc000317 	ldw	r16,12(sp)
 1207c88:	dec00604 	addi	sp,sp,24
 1207c8c:	f800283a 	ret
 1207c90:	00800034 	movhi	r2,0
 1207c94:	10800004 	addi	r2,r2,0
 1207c98:	10002526 	beq	r2,zero,1207d30 <__register_exitproc+0x10c>
 1207c9c:	01006404 	movi	r4,400
 1207ca0:	d9400015 	stw	r5,0(sp)
 1207ca4:	d9800115 	stw	r6,4(sp)
 1207ca8:	d9c00215 	stw	r7,8(sp)
 1207cac:	00000000 	call	0 <__alt_mem_ext_flash_ctl-0x800000>
 1207cb0:	d9400017 	ldw	r5,0(sp)
 1207cb4:	d9800117 	ldw	r6,4(sp)
 1207cb8:	d9c00217 	ldw	r7,8(sp)
 1207cbc:	10001c26 	beq	r2,zero,1207d30 <__register_exitproc+0x10c>
 1207cc0:	80c05217 	ldw	r3,328(r16)
 1207cc4:	10000115 	stw	zero,4(r2)
 1207cc8:	02400044 	movi	r9,1
 1207ccc:	10c00015 	stw	r3,0(r2)
 1207cd0:	80805215 	stw	r2,328(r16)
 1207cd4:	10006215 	stw	zero,392(r2)
 1207cd8:	10006315 	stw	zero,396(r2)
 1207cdc:	0007883a 	mov	r3,zero
 1207ce0:	883fdf26 	beq	r17,zero,1207c60 <__alt_mem_instruction_tcm+0xff207c60>
 1207ce4:	18d1883a 	add	r8,r3,r3
 1207ce8:	4211883a 	add	r8,r8,r8
 1207cec:	1211883a 	add	r8,r2,r8
 1207cf0:	41802215 	stw	r6,136(r8)
 1207cf4:	01000044 	movi	r4,1
 1207cf8:	11806217 	ldw	r6,392(r2)
 1207cfc:	20c8983a 	sll	r4,r4,r3
 1207d00:	310cb03a 	or	r6,r6,r4
 1207d04:	11806215 	stw	r6,392(r2)
 1207d08:	41c04215 	stw	r7,264(r8)
 1207d0c:	01800084 	movi	r6,2
 1207d10:	89bfd31e 	bne	r17,r6,1207c60 <__alt_mem_instruction_tcm+0xff207c60>
 1207d14:	11806317 	ldw	r6,396(r2)
 1207d18:	3108b03a 	or	r4,r6,r4
 1207d1c:	11006315 	stw	r4,396(r2)
 1207d20:	003fcf06 	br	1207c60 <__alt_mem_instruction_tcm+0xff207c60>
 1207d24:	80805304 	addi	r2,r16,332
 1207d28:	80805215 	stw	r2,328(r16)
 1207d2c:	003fc706 	br	1207c4c <__alt_mem_instruction_tcm+0xff207c4c>
 1207d30:	00bfffc4 	movi	r2,-1
 1207d34:	003fd106 	br	1207c7c <__alt_mem_instruction_tcm+0xff207c7c>

01207d38 <__call_exitprocs>:
 1207d38:	00804874 	movhi	r2,289
 1207d3c:	10a6eb04 	addi	r2,r2,-25684
 1207d40:	10800017 	ldw	r2,0(r2)
 1207d44:	defff404 	addi	sp,sp,-48
 1207d48:	dd800815 	stw	r22,32(sp)
 1207d4c:	d8800015 	stw	r2,0(sp)
 1207d50:	10805204 	addi	r2,r2,328
 1207d54:	dd000615 	stw	r20,24(sp)
 1207d58:	dc800415 	stw	r18,16(sp)
 1207d5c:	dfc00b15 	stw	ra,44(sp)
 1207d60:	df000a15 	stw	fp,40(sp)
 1207d64:	ddc00915 	stw	r23,36(sp)
 1207d68:	dd400715 	stw	r21,28(sp)
 1207d6c:	dcc00515 	stw	r19,20(sp)
 1207d70:	dc400315 	stw	r17,12(sp)
 1207d74:	dc000215 	stw	r16,8(sp)
 1207d78:	2025883a 	mov	r18,r4
 1207d7c:	2829883a 	mov	r20,r5
 1207d80:	d8800115 	stw	r2,4(sp)
 1207d84:	05bfffc4 	movi	r22,-1
 1207d88:	d8800017 	ldw	r2,0(sp)
 1207d8c:	14c05217 	ldw	r19,328(r2)
 1207d90:	98001d26 	beq	r19,zero,1207e08 <__call_exitprocs+0xd0>
 1207d94:	dd400117 	ldw	r21,4(sp)
 1207d98:	98800117 	ldw	r2,4(r19)
 1207d9c:	173fffc4 	addi	fp,r2,-1
 1207da0:	e0000d16 	blt	fp,zero,1207dd8 <__call_exitprocs+0xa0>
 1207da4:	14000044 	addi	r16,r2,1
 1207da8:	8421883a 	add	r16,r16,r16
 1207dac:	8421883a 	add	r16,r16,r16
 1207db0:	84402004 	addi	r17,r16,128
 1207db4:	9c63883a 	add	r17,r19,r17
 1207db8:	9c21883a 	add	r16,r19,r16
 1207dbc:	a0001e26 	beq	r20,zero,1207e38 <__call_exitprocs+0x100>
 1207dc0:	80804017 	ldw	r2,256(r16)
 1207dc4:	15001c26 	beq	r2,r20,1207e38 <__call_exitprocs+0x100>
 1207dc8:	e73fffc4 	addi	fp,fp,-1
 1207dcc:	843fff04 	addi	r16,r16,-4
 1207dd0:	8c7fff04 	addi	r17,r17,-4
 1207dd4:	e5bff91e 	bne	fp,r22,1207dbc <__alt_mem_instruction_tcm+0xff207dbc>
 1207dd8:	00800034 	movhi	r2,0
 1207ddc:	10800004 	addi	r2,r2,0
 1207de0:	10000926 	beq	r2,zero,1207e08 <__call_exitprocs+0xd0>
 1207de4:	98800117 	ldw	r2,4(r19)
 1207de8:	1000311e 	bne	r2,zero,1207eb0 <__call_exitprocs+0x178>
 1207dec:	98800017 	ldw	r2,0(r19)
 1207df0:	10003426 	beq	r2,zero,1207ec4 <__call_exitprocs+0x18c>
 1207df4:	9809883a 	mov	r4,r19
 1207df8:	a8800015 	stw	r2,0(r21)
 1207dfc:	00000000 	call	0 <__alt_mem_ext_flash_ctl-0x800000>
 1207e00:	acc00017 	ldw	r19,0(r21)
 1207e04:	983fe41e 	bne	r19,zero,1207d98 <__alt_mem_instruction_tcm+0xff207d98>
 1207e08:	dfc00b17 	ldw	ra,44(sp)
 1207e0c:	df000a17 	ldw	fp,40(sp)
 1207e10:	ddc00917 	ldw	r23,36(sp)
 1207e14:	dd800817 	ldw	r22,32(sp)
 1207e18:	dd400717 	ldw	r21,28(sp)
 1207e1c:	dd000617 	ldw	r20,24(sp)
 1207e20:	dcc00517 	ldw	r19,20(sp)
 1207e24:	dc800417 	ldw	r18,16(sp)
 1207e28:	dc400317 	ldw	r17,12(sp)
 1207e2c:	dc000217 	ldw	r16,8(sp)
 1207e30:	dec00c04 	addi	sp,sp,48
 1207e34:	f800283a 	ret
 1207e38:	98800117 	ldw	r2,4(r19)
 1207e3c:	80c00017 	ldw	r3,0(r16)
 1207e40:	10bfffc4 	addi	r2,r2,-1
 1207e44:	17001526 	beq	r2,fp,1207e9c <__call_exitprocs+0x164>
 1207e48:	80000015 	stw	zero,0(r16)
 1207e4c:	183fde26 	beq	r3,zero,1207dc8 <__alt_mem_instruction_tcm+0xff207dc8>
 1207e50:	00800044 	movi	r2,1
 1207e54:	1708983a 	sll	r4,r2,fp
 1207e58:	98806217 	ldw	r2,392(r19)
 1207e5c:	9dc00117 	ldw	r23,4(r19)
 1207e60:	2084703a 	and	r2,r4,r2
 1207e64:	1000061e 	bne	r2,zero,1207e80 <__call_exitprocs+0x148>
 1207e68:	183ee83a 	callr	r3
 1207e6c:	98800117 	ldw	r2,4(r19)
 1207e70:	15ffc51e 	bne	r2,r23,1207d88 <__alt_mem_instruction_tcm+0xff207d88>
 1207e74:	a8800017 	ldw	r2,0(r21)
 1207e78:	14ffd326 	beq	r2,r19,1207dc8 <__alt_mem_instruction_tcm+0xff207dc8>
 1207e7c:	003fc206 	br	1207d88 <__alt_mem_instruction_tcm+0xff207d88>
 1207e80:	98806317 	ldw	r2,396(r19)
 1207e84:	2084703a 	and	r2,r4,r2
 1207e88:	1000061e 	bne	r2,zero,1207ea4 <__call_exitprocs+0x16c>
 1207e8c:	89400017 	ldw	r5,0(r17)
 1207e90:	9009883a 	mov	r4,r18
 1207e94:	183ee83a 	callr	r3
 1207e98:	003ff406 	br	1207e6c <__alt_mem_instruction_tcm+0xff207e6c>
 1207e9c:	9f000115 	stw	fp,4(r19)
 1207ea0:	003fea06 	br	1207e4c <__alt_mem_instruction_tcm+0xff207e4c>
 1207ea4:	89000017 	ldw	r4,0(r17)
 1207ea8:	183ee83a 	callr	r3
 1207eac:	003fef06 	br	1207e6c <__alt_mem_instruction_tcm+0xff207e6c>
 1207eb0:	98800017 	ldw	r2,0(r19)
 1207eb4:	982b883a 	mov	r21,r19
 1207eb8:	1027883a 	mov	r19,r2
 1207ebc:	983fb61e 	bne	r19,zero,1207d98 <__alt_mem_instruction_tcm+0xff207d98>
 1207ec0:	003fd106 	br	1207e08 <__alt_mem_instruction_tcm+0xff207e08>
 1207ec4:	0005883a 	mov	r2,zero
 1207ec8:	003ffa06 	br	1207eb4 <__alt_mem_instruction_tcm+0xff207eb4>

01207ecc <udivmodsi4>:
 1207ecc:	2900182e 	bgeu	r5,r4,1207f30 <udivmodsi4+0x64>
 1207ed0:	28001716 	blt	r5,zero,1207f30 <udivmodsi4+0x64>
 1207ed4:	00800804 	movi	r2,32
 1207ed8:	00c00044 	movi	r3,1
 1207edc:	00000206 	br	1207ee8 <udivmodsi4+0x1c>
 1207ee0:	10001126 	beq	r2,zero,1207f28 <udivmodsi4+0x5c>
 1207ee4:	28000516 	blt	r5,zero,1207efc <udivmodsi4+0x30>
 1207ee8:	294b883a 	add	r5,r5,r5
 1207eec:	10bfffc4 	addi	r2,r2,-1
 1207ef0:	18c7883a 	add	r3,r3,r3
 1207ef4:	293ffa36 	bltu	r5,r4,1207ee0 <__alt_mem_instruction_tcm+0xff207ee0>
 1207ef8:	18000b26 	beq	r3,zero,1207f28 <udivmodsi4+0x5c>
 1207efc:	0005883a 	mov	r2,zero
 1207f00:	21400236 	bltu	r4,r5,1207f0c <udivmodsi4+0x40>
 1207f04:	2149c83a 	sub	r4,r4,r5
 1207f08:	10c4b03a 	or	r2,r2,r3
 1207f0c:	1806d07a 	srli	r3,r3,1
 1207f10:	280ad07a 	srli	r5,r5,1
 1207f14:	183ffa1e 	bne	r3,zero,1207f00 <__alt_mem_instruction_tcm+0xff207f00>
 1207f18:	3000011e 	bne	r6,zero,1207f20 <udivmodsi4+0x54>
 1207f1c:	f800283a 	ret
 1207f20:	2005883a 	mov	r2,r4
 1207f24:	f800283a 	ret
 1207f28:	0005883a 	mov	r2,zero
 1207f2c:	003ffa06 	br	1207f18 <__alt_mem_instruction_tcm+0xff207f18>
 1207f30:	00c00044 	movi	r3,1
 1207f34:	003ff106 	br	1207efc <__alt_mem_instruction_tcm+0xff207efc>

01207f38 <__divsi3>:
 1207f38:	defffe04 	addi	sp,sp,-8
 1207f3c:	dfc00115 	stw	ra,4(sp)
 1207f40:	dc000015 	stw	r16,0(sp)
 1207f44:	20000b16 	blt	r4,zero,1207f74 <__divsi3+0x3c>
 1207f48:	0021883a 	mov	r16,zero
 1207f4c:	28000c16 	blt	r5,zero,1207f80 <__divsi3+0x48>
 1207f50:	000d883a 	mov	r6,zero
 1207f54:	1207ecc0 	call	1207ecc <udivmodsi4>
 1207f58:	0407c83a 	sub	r3,zero,r16
 1207f5c:	1884f03a 	xor	r2,r3,r2
 1207f60:	1405883a 	add	r2,r2,r16
 1207f64:	dfc00117 	ldw	ra,4(sp)
 1207f68:	dc000017 	ldw	r16,0(sp)
 1207f6c:	dec00204 	addi	sp,sp,8
 1207f70:	f800283a 	ret
 1207f74:	0109c83a 	sub	r4,zero,r4
 1207f78:	04000044 	movi	r16,1
 1207f7c:	283ff40e 	bge	r5,zero,1207f50 <__alt_mem_instruction_tcm+0xff207f50>
 1207f80:	014bc83a 	sub	r5,zero,r5
 1207f84:	8400005c 	xori	r16,r16,1
 1207f88:	003ff106 	br	1207f50 <__alt_mem_instruction_tcm+0xff207f50>

01207f8c <__modsi3>:
 1207f8c:	defffd04 	addi	sp,sp,-12
 1207f90:	dfc00215 	stw	ra,8(sp)
 1207f94:	dc400115 	stw	r17,4(sp)
 1207f98:	dc000015 	stw	r16,0(sp)
 1207f9c:	20000c16 	blt	r4,zero,1207fd0 <__modsi3+0x44>
 1207fa0:	0023883a 	mov	r17,zero
 1207fa4:	0021883a 	mov	r16,zero
 1207fa8:	28000d16 	blt	r5,zero,1207fe0 <__modsi3+0x54>
 1207fac:	01800044 	movi	r6,1
 1207fb0:	1207ecc0 	call	1207ecc <udivmodsi4>
 1207fb4:	1404f03a 	xor	r2,r2,r16
 1207fb8:	8885883a 	add	r2,r17,r2
 1207fbc:	dfc00217 	ldw	ra,8(sp)
 1207fc0:	dc400117 	ldw	r17,4(sp)
 1207fc4:	dc000017 	ldw	r16,0(sp)
 1207fc8:	dec00304 	addi	sp,sp,12
 1207fcc:	f800283a 	ret
 1207fd0:	0109c83a 	sub	r4,zero,r4
 1207fd4:	04400044 	movi	r17,1
 1207fd8:	043fffc4 	movi	r16,-1
 1207fdc:	283ff30e 	bge	r5,zero,1207fac <__alt_mem_instruction_tcm+0xff207fac>
 1207fe0:	014bc83a 	sub	r5,zero,r5
 1207fe4:	003ff106 	br	1207fac <__alt_mem_instruction_tcm+0xff207fac>

01207fe8 <__udivsi3>:
 1207fe8:	000d883a 	mov	r6,zero
 1207fec:	1207ecc1 	jmpi	1207ecc <udivmodsi4>

01207ff0 <__umodsi3>:
 1207ff0:	01800044 	movi	r6,1
 1207ff4:	1207ecc1 	jmpi	1207ecc <udivmodsi4>

01207ff8 <_exit>:
 1207ff8:	defffd04 	addi	sp,sp,-12
 1207ffc:	df000215 	stw	fp,8(sp)
 1208000:	df000204 	addi	fp,sp,8
 1208004:	e13fff15 	stw	r4,-4(fp)
 1208008:	0001883a 	nop
 120800c:	e0bfff17 	ldw	r2,-4(fp)
 1208010:	e0bffe15 	stw	r2,-8(fp)
 1208014:	e0bffe17 	ldw	r2,-8(fp)
 1208018:	10000226 	beq	r2,zero,1208024 <_exit+0x2c>
 120801c:	002af070 	cmpltui	zero,zero,43969
 1208020:	00000106 	br	1208028 <_exit+0x30>
 1208024:	002af0b0 	cmpltui	zero,zero,43970
 1208028:	003fff06 	br	1208028 <__alt_mem_instruction_tcm+0xff208028>
