
hello2.elf:     file format elf32-littlenios2
hello2.elf
architecture: nios2:r1, flags 0x00000112:
EXEC_P, HAS_SYMS, D_PAGED
start address 0x01200240

Program Header:
    LOAD off    0x00001000 vaddr 0x00800000 paddr 0x00800000 align 2**12
         filesz 0x00000000 memsz 0x00000000 flags r-x
    LOAD off    0x00001020 vaddr 0x01200020 paddr 0x01200020 align 2**12
         filesz 0x0001400c memsz 0x00014184 flags rwx

Sections:
Idx Name          Size      VMA       LMA       File off  Algn
  0 .entry        00000000  00800000  00800000  00001000  2**5
                  CONTENTS, ALLOC, LOAD, READONLY, CODE
  1 .exceptions   00000220  01200020  01200020  00001020  2**2
                  CONTENTS, ALLOC, LOAD, READONLY, CODE
  2 .text         00011d04  01200240  01200240  00001240  2**2
                  CONTENTS, ALLOC, LOAD, READONLY, CODE
  3 .rodata       00000418  01211f44  01211f44  00012f44  2**2
                  CONTENTS, ALLOC, LOAD, READONLY, DATA
  4 .rwdata       00001cd0  0121235c  0121235c  0001335c  2**2
                  CONTENTS, ALLOC, LOAD, DATA, SMALL_DATA
  5 .bss          00000178  0121402c  0121402c  0001502c  2**2
                  ALLOC, SMALL_DATA
  6 .ext_flash_ctl 00000000  00800020  00800020  0001502c  2**0
                  CONTENTS
  7 .ext_ram_ctl  00000000  012141a4  012141a4  0001502c  2**0
                  CONTENTS
  8 .instruction_tcm 00000000  02000000  02000000  0001502c  2**0
                  CONTENTS
  9 .comment      00000023  00000000  00000000  0001502c  2**0
                  CONTENTS, READONLY
 10 .debug_aranges 00000ea8  00000000  00000000  00015050  2**3
                  CONTENTS, READONLY, DEBUGGING
 11 .debug_info   0002887d  00000000  00000000  00015ef8  2**0
                  CONTENTS, READONLY, DEBUGGING
 12 .debug_abbrev 0000a1f9  00000000  00000000  0003e775  2**0
                  CONTENTS, READONLY, DEBUGGING
 13 .debug_line   0000c456  00000000  00000000  0004896e  2**0
                  CONTENTS, READONLY, DEBUGGING
 14 .debug_frame  00002858  00000000  00000000  00054dc4  2**2
                  CONTENTS, READONLY, DEBUGGING
 15 .debug_str    000040cf  00000000  00000000  0005761c  2**0
                  CONTENTS, READONLY, DEBUGGING
 16 .debug_loc    0001722a  00000000  00000000  0005b6eb  2**0
                  CONTENTS, READONLY, DEBUGGING
 17 .debug_alt_sim_info 00000050  00000000  00000000  00072918  2**2
                  CONTENTS, READONLY, DEBUGGING
 18 .debug_ranges 00001390  00000000  00000000  00072968  2**3
                  CONTENTS, READONLY, DEBUGGING
 19 .thread_model 00000003  00000000  00000000  000777c6  2**0
                  CONTENTS, READONLY
 20 .cpu          00000003  00000000  00000000  000777c9  2**0
                  CONTENTS, READONLY
 21 .qsys         00000001  00000000  00000000  000777cc  2**0
                  CONTENTS, READONLY
 22 .simulation_enabled 00000001  00000000  00000000  000777cd  2**0
                  CONTENTS, READONLY
 23 .sysid_hash   00000004  00000000  00000000  000777ce  2**0
                  CONTENTS, READONLY
 24 .sysid_base   00000004  00000000  00000000  000777d2  2**0
                  CONTENTS, READONLY
 25 .sysid_time   00000004  00000000  00000000  000777d6  2**0
                  CONTENTS, READONLY
 26 .stderr_dev   00000009  00000000  00000000  000777da  2**0
                  CONTENTS, READONLY
 27 .stdin_dev    00000009  00000000  00000000  000777e3  2**0
                  CONTENTS, READONLY
 28 .stdout_dev   00000009  00000000  00000000  000777ec  2**0
                  CONTENTS, READONLY
 29 .sopc_system_name 00000006  00000000  00000000  000777f5  2**0
                  CONTENTS, READONLY
 30 .jdi          00003635  00000000  00000000  000777fb  2**0
                  CONTENTS, READONLY
 31 .sopcinfo     00075594  00000000  00000000  0007ae30  2**0
                  CONTENTS, READONLY
SYMBOL TABLE:
00800000 l    d  .entry	00000000 .entry
01200020 l    d  .exceptions	00000000 .exceptions
01200240 l    d  .text	00000000 .text
01211f44 l    d  .rodata	00000000 .rodata
0121235c l    d  .rwdata	00000000 .rwdata
0121402c l    d  .bss	00000000 .bss
00800020 l    d  .ext_flash_ctl	00000000 .ext_flash_ctl
012141a4 l    d  .ext_ram_ctl	00000000 .ext_ram_ctl
02000000 l    d  .instruction_tcm	00000000 .instruction_tcm
00000000 l    d  .comment	00000000 .comment
00000000 l    d  .debug_aranges	00000000 .debug_aranges
00000000 l    d  .debug_info	00000000 .debug_info
00000000 l    d  .debug_abbrev	00000000 .debug_abbrev
00000000 l    d  .debug_line	00000000 .debug_line
00000000 l    d  .debug_frame	00000000 .debug_frame
00000000 l    d  .debug_str	00000000 .debug_str
00000000 l    d  .debug_loc	00000000 .debug_loc
00000000 l    d  .debug_alt_sim_info	00000000 .debug_alt_sim_info
00000000 l    d  .debug_ranges	00000000 .debug_ranges
00000000 l    df *ABS*	00000000 ../hello_bsp1//obj/HAL/src/crt0.o
01200284 l       .text	00000000 alt_after_alt_main
00000000 l    df *ABS*	00000000 alt_irq_handler.c
00000000 l    df *ABS*	00000000 alt_instruction_exception_entry.c
00000000 l    df *ABS*	00000000 hello_world.c
00000000 l    df *ABS*	00000000 lib2-divmod.c
0120041c l     F .text	0000006c udivmodsi4
00000000 l    df *ABS*	00000000 lib2-divtable.c
00000000 l    df *ABS*	00000000 printf.c
00000000 l    df *ABS*	00000000 putchar.c
00000000 l    df *ABS*	00000000 rand.c
00000000 l    df *ABS*	00000000 time.c
00000000 l    df *ABS*	00000000 vfprintf.c
01211f96 l     O .rodata	00000010 zeroes.4181
01211fa6 l     O .rodata	00000010 blanks.4180
00000000 l    df *ABS*	00000000 wsetup.c
00000000 l    df *ABS*	00000000 dtoa.c
012027ec l     F .text	00000200 quorem
00000000 l    df *ABS*	00000000 fflush.c
00000000 l    df *ABS*	00000000 findfp.c
0120436c l     F .text	00000008 __fp_lock
01204374 l     F .text	00000008 __fp_unlock
01204388 l     F .text	000001a0 __sinit.part.1
00000000 l    df *ABS*	00000000 mallocr.c
00000000 l    df *ABS*	00000000 fwalk.c
00000000 l    df *ABS*	00000000 gettimeofdayr.c
00000000 l    df *ABS*	00000000 impure.c
0121245c l     O .rwdata	00000424 impure_data
00000000 l    df *ABS*	00000000 int_errno.c
00000000 l    df *ABS*	00000000 locale.c
012128a0 l     O .rwdata	00000020 lc_ctype_charset
01212880 l     O .rwdata	00000020 lc_message_charset
012128c0 l     O .rwdata	00000038 lconv
00000000 l    df *ABS*	00000000 makebuf.c
00000000 l    df *ABS*	00000000 mallocr.c
00000000 l    df *ABS*	00000000 memchr.c
00000000 l    df *ABS*	00000000 memcpy.c
00000000 l    df *ABS*	00000000 memset.c
00000000 l    df *ABS*	00000000 mprec.c
01211fd8 l     O .rodata	0000000c p05.2678
00000000 l    df *ABS*	00000000 putc.c
00000000 l    df *ABS*	00000000 s_fpclassify.c
00000000 l    df *ABS*	00000000 sbrkr.c
00000000 l    df *ABS*	00000000 stdio.c
00000000 l    df *ABS*	00000000 strcmp.c
00000000 l    df *ABS*	00000000 strlen.c
00000000 l    df *ABS*	00000000 vfprintf.c
01206ea0 l     F .text	000000fc __sprint_r.part.0
0121210c l     O .rodata	00000010 blanks.4125
012120fc l     O .rodata	00000010 zeroes.4126
00000000 l    df *ABS*	00000000 wbuf.c
00000000 l    df *ABS*	00000000 writer.c
00000000 l    df *ABS*	00000000 closer.c
00000000 l    df *ABS*	00000000 mallocr.c
00000000 l    df *ABS*	00000000 fclose.c
00000000 l    df *ABS*	00000000 fputwc.c
00000000 l    df *ABS*	00000000 fstatr.c
00000000 l    df *ABS*	00000000 fvwrite.c
00000000 l    df *ABS*	00000000 isattyr.c
00000000 l    df *ABS*	00000000 lseekr.c
00000000 l    df *ABS*	00000000 memmove.c
00000000 l    df *ABS*	00000000 readr.c
00000000 l    df *ABS*	00000000 mallocr.c
00000000 l    df *ABS*	00000000 wcrtomb.c
00000000 l    df *ABS*	00000000 wctomb_r.c
00000000 l    df *ABS*	00000000 libgcc2.c
00000000 l    df *ABS*	00000000 libgcc2.c
00000000 l    df *ABS*	00000000 libgcc2.c
00000000 l    df *ABS*	00000000 adddf3.c
00000000 l    df *ABS*	00000000 divdf3.c
00000000 l    df *ABS*	00000000 eqdf2.c
00000000 l    df *ABS*	00000000 gedf2.c
00000000 l    df *ABS*	00000000 ledf2.c
00000000 l    df *ABS*	00000000 muldf3.c
00000000 l    df *ABS*	00000000 subdf3.c
00000000 l    df *ABS*	00000000 fixdfsi.c
00000000 l    df *ABS*	00000000 floatsidf.c
00000000 l    df *ABS*	00000000 floatunsidf.c
00000000 l    df *ABS*	00000000 libgcc2.c
00000000 l    df *ABS*	00000000 libgcc2.c
00000000 l    df *ABS*	00000000 alt_close.c
0120c9bc l     F .text	00000050 alt_get_errno
00000000 l    df *ABS*	00000000 alt_dev.c
0120cadc l     F .text	0000002c alt_dev_null_write
00000000 l    df *ABS*	00000000 alt_errno.c
00000000 l    df *ABS*	00000000 alt_fstat.c
0120cb08 l     F .text	00000050 alt_get_errno
00000000 l    df *ABS*	00000000 alt_gettod.c
00000000 l    df *ABS*	00000000 alt_isatty.c
0120ce1c l     F .text	00000050 alt_get_errno
00000000 l    df *ABS*	00000000 alt_lseek.c
0120cf10 l     F .text	00000050 alt_get_errno
00000000 l    df *ABS*	00000000 alt_main.c
00000000 l    df *ABS*	00000000 alt_malloc_lock.c
00000000 l    df *ABS*	00000000 alt_read.c
0120d0ec l     F .text	00000050 alt_get_errno
00000000 l    df *ABS*	00000000 alt_release_fd.c
00000000 l    df *ABS*	00000000 alt_sbrk.c
01214014 l     O .rwdata	00000004 heap_end
00000000 l    df *ABS*	00000000 alt_tick.c
00000000 l    df *ABS*	00000000 alt_write.c
0120d4e4 l     F .text	00000050 alt_get_errno
00000000 l    df *ABS*	00000000 alt_sys_init.c
0120d62c l     F .text	00000038 alt_dev_reg
01212ea8 l     O .rwdata	000000dc ext_flash_ctl
01212f84 l     O .rwdata	00001060 jtag_uart
00000000 l    df *ABS*	00000000 altera_avalon_cfi_flash.c
0120d714 l     F .text	00000038 alt_flash_device_register
00000000 l    df *ABS*	00000000 altera_avalon_cfi_flash_table.c
0120e550 l     F .text	00000080 alt_read_16bit_query_entry
00000000 l    df *ABS*	00000000 altera_avalon_jtag_uart_fd.c
00000000 l    df *ABS*	00000000 altera_avalon_jtag_uart_init.c
0120f61c l     F .text	00000204 altera_avalon_jtag_uart_irq
0120f820 l     F .text	000000a8 altera_avalon_jtag_uart_timeout
00000000 l    df *ABS*	00000000 altera_avalon_jtag_uart_ioctl.c
00000000 l    df *ABS*	00000000 altera_avalon_jtag_uart_read.c
00000000 l    df *ABS*	00000000 altera_avalon_jtag_uart_write.c
00000000 l    df *ABS*	00000000 altera_avalon_timer_sc.c
0120fe40 l     F .text	00000074 alt_avalon_timer_sc_irq
00000000 l    df *ABS*	00000000 perf_print_formatted_report.c
00000000 l    df *ABS*	00000000 alt_alarm_start.c
00000000 l    df *ABS*	00000000 alt_dcache_flush.c
00000000 l    df *ABS*	00000000 alt_dev_llist_insert.c
01210370 l     F .text	00000050 alt_get_errno
00000000 l    df *ABS*	00000000 alt_do_ctors.c
00000000 l    df *ABS*	00000000 alt_do_dtors.c
00000000 l    df *ABS*	00000000 alt_flash_dev.c
00000000 l    df *ABS*	00000000 alt_iic.c
00000000 l    df *ABS*	00000000 alt_iic_isr_register.c
00000000 l    df *ABS*	00000000 alt_io_redirect.c
012108a4 l     F .text	000000c0 alt_open_fd
00000000 l    df *ABS*	00000000 alt_irq_vars.c
00000000 l    df *ABS*	00000000 alt_open.c
012109dc l     F .text	00000050 alt_get_errno
01210a2c l     F .text	000000cc alt_file_locked
00000000 l    df *ABS*	00000000 altera_nios2_gen2_irq.c
00000000 l    df *ABS*	00000000 altera_avalon_cfi_flash_amd.c
01211004 l     F .text	000000cc alt_write_word_amd
01210ee8 l     F .text	0000011c alt_wait_for_command_to_complete_amd
00000000 l    df *ABS*	00000000 altera_avalon_cfi_flash_intel.c
012112d8 l     F .text	00000178 alt_unlock_block_intel
01211450 l     F .text	000000d4 alt_write_word_intel
00000000 l    df *ABS*	00000000 altera_avalon_performance_counter.c
00000000 l    df *ABS*	00000000 alt_find_dev.c
00000000 l    df *ABS*	00000000 alt_find_file.c
00000000 l    df *ABS*	00000000 alt_get_fd.c
00000000 l    df *ABS*	00000000 alt_usleep.c
00000000 l    df *ABS*	00000000 alt_busy_sleep.c
00000000 l    df *ABS*	00000000 atexit.c
00000000 l    df *ABS*	00000000 exit.c
00000000 l    df *ABS*	00000000 memcmp.c
00000000 l    df *ABS*	00000000 __atexit.c
00000000 l    df *ABS*	00000000 __call_atexit.c
00000000 l    df *ABS*	00000000 libgcc2.c
00000000 l    df *ABS*	00000000 alt_exit.c
01214078 g     O .bss	00000004 alt_instruction_exception_handler
012005b8 g     F .text	00000018 putchar
01206880 g     F .text	00000074 _mprec_log10
0120696c g     F .text	0000008c __any_on
01208e04 g     F .text	00000054 _isatty_r
01211fe4 g     O .rodata	00000028 __mprec_tinytens
0120d034 g     F .text	00000078 alt_main
0120e01c g     F .text	00000040 alt_read_query_entry_32bit
012140a4 g     O .bss	00000100 alt_irq
01208e58 g     F .text	0000005c _lseek_r
0120d7dc g     F .text	000002a8 alt_flash_cfi_write
0120b524 g     F .text	00000084 .hidden __eqdf2
01204c90 g     F .text	00000058 _gettimeofday_r
012141a4 g       *ABS*	00000000 __alt_heap_start
01200574 g     F .text	0000003c printf
0120960c g     F .text	0000009c _wcrtomb_r
01206d00 g     F .text	0000005c __sseek
012046bc g     F .text	00000010 __sinit
01211690 g     F .text	00000024 alt_get_cpu_freq
01208334 g     F .text	00000154 __swbuf_r
01204ce8 g     F .text	0000007c _setlocale_r
01204528 g     F .text	00000064 __sfmoreglue
0120d0cc g     F .text	00000020 __malloc_unlock
01208eb4 g     F .text	0000015c memmove
0120ff3c g     F .text	00000280 perf_print_formatted_report
012046a4 g     F .text	00000018 _cleanup
01205a6c g     F .text	000000a8 _Balloc
0120b5a8 g     F .text	000000e0 .hidden __gtdf2
01210c50 g     F .text	00000020 altera_nios2_gen2_irq_init
00000000  w      *UND*	00000000 __errno
02000000 g       *ABS*	00000000 __alt_mem_instruction_tcm
0120e1b4 g     F .text	00000050 alt_write_flash_command_32bit_device_16bit_mode
00800000 g     F .entry	00000000 __reset
01214030 g     O .bss	00000004 edge_capture
01208908 g     F .text	00000058 _fstat_r
0120dccc g     F .text	000002d4 alt_flash_program_block
01214034 g     O .bss	00000004 errno
01206c7c g     F .text	00000008 __seofread
01214064 g     O .bss	00000004 alt_argv
0121bfe4 g       *ABS*	00000000 _gp
012119a8 g     F .text	00000030 usleep
01212d28 g     O .rwdata	00000180 alt_fd_list
012005b0 g     F .text	00000008 _putchar_r
012116b4 g     F .text	00000090 alt_find_dev
01205810 g     F .text	00000138 memcpy
0120437c g     F .text	0000000c _cleanup_r
0120c7e4 g     F .text	000000d0 .hidden __floatsidf
01210964 g     F .text	00000078 alt_io_redirect
0120b688 g     F .text	000000e0 .hidden __ltdf2
01200000 g       *ABS*	00000000 __alt_mem_ext_ram_ctl
01211f44 g       *ABS*	00000000 __DTOR_END__
0121190c g     F .text	0000009c alt_exception_cause_generated_bad_addr
01206b60 g     F .text	00000074 __fpclassifyd
012067dc g     F .text	000000a4 __ratio
01208310 g     F .text	00000024 __vfiprintf_internal
0120fa1c g     F .text	0000020c altera_avalon_jtag_uart_read
00000000  w      *UND*	00000000 malloc
01200548 g     F .text	0000002c _printf_r
01200538 g     F .text	00000008 .hidden __udivsi3
0120ce6c g     F .text	000000a4 isatty
01212034 g     O .rodata	000000c8 __mprec_tens
01204d64 g     F .text	0000000c __locale_charset
01214050 g     O .bss	00000008 alt_timezone
0121404c g     O .bss	00000004 __malloc_top_pad
0121162c g     F .text	00000040 perf_get_num_starts
01213fec g     O .rwdata	00000004 __mb_cur_max
01204d94 g     F .text	0000000c _localeconv_r
01208960 g     F .text	000004a4 __sfvwrite_r
01205e6c g     F .text	0000003c __i2b
01206bd4 g     F .text	00000054 _sbrk_r
012110d0 g     F .text	00000080 alt_program_intel
01209010 g     F .text	0000005c _read_r
012102fc g     F .text	00000074 alt_dcache_flush
0121400c g     O .rwdata	00000004 alt_max_fd
0120dfa0 g     F .text	0000003c alt_read_query_entry_8bit
01208618 g     F .text	00000100 _fclose_r
01211150 g     F .text	00000188 alt_erase_block_intel
0120433c g     F .text	00000030 fflush
01214048 g     O .bss	00000004 __malloc_max_sbrked_mem
0120a3bc g     F .text	0000089c .hidden __adddf3
01206584 g     F .text	0000011c __b2d
01209e2c g     F .text	00000590 .hidden __umoddi3
0120cf60 g     F .text	000000d4 lseek
01213fe4 g     O .rwdata	00000004 _global_impure_ptr
0120906c g     F .text	000005a0 _realloc_r
012141a4 g       *ABS*	00000000 __bss_end
012107b4 g     F .text	000000f0 alt_iic_isr_register
0120d3e0 g     F .text	00000104 alt_tick
0120986c g     F .text	000005c0 .hidden __udivdi3
0120872c g     F .text	00000184 _fputwc_r
0121200c g     O .rodata	00000028 __mprec_bigtens
01205c50 g     F .text	00000104 __s2b
0120c8b4 g     F .text	000000a4 .hidden __floatunsidf
0120632c g     F .text	00000060 __mcmp
012046dc g     F .text	00000018 __fp_lock_all
01210768 g     F .text	0000004c alt_ic_irq_enabled
0120d348 g     F .text	00000098 alt_alarm_stop
01214074 g     O .bss	00000004 alt_irq_active
012000fc g     F .exceptions	000000d0 alt_irq_handler
01212d00 g     O .rwdata	00000028 alt_dev_null
0120e4b4 g     F .text	0000009c alt_set_flash_algorithm_func
01205d54 g     F .text	00000068 __hi0bits
0120c75c g     F .text	00000088 .hidden __fixdfsi
0120e05c g     F .text	00000044 alt_write_flash_command_8bit_device_8bit_mode
01214004 g     O .rwdata	00000008 alt_dev_list
0120d534 g     F .text	000000f8 write
012069f8 g     F .text	000000a0 _putc_r
0120cb58 g     F .text	000000b0 fstat
0120b688 g     F .text	000000e0 .hidden __ledf2
0120f31c g     F .text	000000d8 alt_check_primary_table
012060a4 g     F .text	00000140 __pow5mult
01206fb4 g     F .text	0000135c ___vfiprintf_internal_r
01214040 g     O .bss	00000004 __nlocale_changed
01200540 g     F .text	00000008 .hidden __umodsi3
0120db10 g     F .text	00000064 alt_flash_cfi_read
0120e254 g     F .text	00000038 alt_write_native_8bit
012141a4 g       *ABS*	00000000 end
0120e0a0 g     F .text	00000078 alt_write_flash_command_16bit_device_8bit_mode
0120e5d0 g     F .text	000005c8 alt_read_cfi_table
0120f558 g     F .text	000000c4 altera_avalon_jtag_uart_init
012001cc g     F .exceptions	00000074 alt_instruction_exception_entry
01211f44 g       *ABS*	00000000 __CTOR_LIST__
01400000 g       *ABS*	00000000 __alt_stack_pointer
0120feb4 g     F .text	00000088 alt_avalon_timer_sc_init
0120c958 g     F .text	00000064 .hidden __clzsi2
0120fc28 g     F .text	00000218 altera_avalon_jtag_uart_write
0120d74c g     F .text	00000090 alt_flash_cfi_init
012046cc g     F .text	00000004 __sfp_lock_acquire
01205728 g     F .text	000000e8 memchr
0120069c g     F .text	00001ffc ___vfprintf_internal_r
01204830 g     F .text	000002f0 _free_r
01204d70 g     F .text	00000010 __locale_mb_cur_max
01211d0c g     F .text	00000194 __call_exitprocs
0121403c g     O .bss	00000004 __mlocale_changed
01213ff0 g     O .rwdata	00000004 __malloc_sbrk_base
01200240 g     F .text	00000048 _start
0121406c g     O .bss	00000004 _alt_tick_rate
01211ea0 g     F .text	00000070 .hidden __floatundidf
012005e8 g     F .text	00000064 rand
012061e4 g     F .text	00000148 __lshift
01214070 g     O .bss	00000004 _alt_nticks
0120d13c g     F .text	000000fc read
0120d698 g     F .text	0000007c alt_sys_init
01211bf8 g     F .text	00000114 __register_exitproc
0120dfdc g     F .text	00000040 alt_read_query_entry_16bit
01205ea8 g     F .text	000001fc __multiply
0120f8c8 g     F .text	00000068 altera_avalon_jtag_uart_close
00800000 g       *ABS*	00000000 __alt_mem_ext_flash_ctl
0121407c g     O .bss	00000028 __malloc_current_mallinfo
0120e2f8 g     F .text	000001bc alt_set_flash_width_func
012066a0 g     F .text	0000013c __d2b
0120f3f4 g     F .text	00000060 altera_avalon_jtag_uart_read_fd
01211858 g     F .text	000000b4 alt_get_fd
012119d8 g     F .text	00000158 alt_busy_sleep
01208500 g     F .text	00000054 _close_r
01210cd8 g     F .text	00000210 alt_erase_block_amd
01211524 g     F .text	000000bc perf_get_section_time
01211b7c g     F .text	0000007c memcmp
0120f4b4 g     F .text	00000050 altera_avalon_jtag_uart_close_fd
012141a4 g       *ABS*	00000000 __alt_stack_base
0120f504 g     F .text	00000054 altera_avalon_jtag_uart_ioctl_fd
012026bc g     F .text	00000130 __swsetup_r
0120eb98 g     F .text	00000784 alt_read_cfi_width
0120ac58 g     F .text	000008cc .hidden __divdf3
0120458c g     F .text	00000118 __sfp
012068f4 g     F .text	00000078 __copybits
012115e0 g     F .text	0000004c perf_get_total_time
012128f8 g     O .rwdata	00000408 __malloc_av_
012046d8 g     F .text	00000004 __sinit_lock_release
0120b768 g     F .text	00000724 .hidden __muldf3
01206c28 g     F .text	00000054 __sread
01211744 g     F .text	00000114 alt_find_file
012103c0 g     F .text	000000a4 alt_dev_llist_insert
0120d0ac g     F .text	00000020 __malloc_lock
0120d298 g     F .text	000000b0 sbrk
01204114 g     F .text	00000228 _fflush_r
01208554 g     F .text	000000c4 _calloc_r
01214020 g     O .rwdata	00000008 alt_flash_dev_list
0120e168 g     F .text	0000004c alt_write_flash_command_16bit_device_16bit_mode
0120cc08 g     F .text	00000214 gettimeofday
0121235c g     O .rwdata	00000100 .hidden __divsi3_table
0121402c g       *ABS*	00000000 __bss_start
01205948 g     F .text	00000124 memset
012003ac g     F .text	00000070 main
01214068 g     O .bss	00000004 alt_envp
01214044 g     O .bss	00000004 __malloc_max_total_mem
0120f454 g     F .text	00000060 altera_avalon_jtag_uart_write_fd
01208488 g     F .text	0000001c __swbuf
012005d0 g     F .text	00000018 srand
01206d5c g     F .text	00000008 __sclose
01400000 g       *ABS*	00000000 __alt_heap_limit
01208718 g     F .text	00000014 fclose
012029ec g     F .text	00001728 _dtoa_r
01204f80 g     F .text	000007a8 _malloc_r
01209780 g     F .text	00000030 __ascii_wctomb
0120064c g     F .text	00000050 time
01214010 g     O .rwdata	00000004 alt_errno
0120e204 g     F .text	00000050 alt_write_flash_command_32bit_device_32bit_mode
01204b20 g     F .text	000000b8 _fwalk
01200288 g     F .text	00000124 arrays
0120db74 g     F .text	00000158 alt_write_value_to_flash
0120e28c g     F .text	00000038 alt_write_native_16bit
01206a98 g     F .text	000000c8 putc
01200488 g     F .text	00000054 .hidden __divsi3
0121402c g     O .bss	00000004 interrupt_exit_flag
0120470c g     F .text	00000124 _malloc_trim_r
01211f44 g       *ABS*	00000000 __CTOR_END__
01206d64 g     F .text	000000a4 strcmp
01211f44 g       *ABS*	00000000 __DTOR_LIST__
0120b524 g     F .text	00000084 .hidden __nedf2
0120d664 g     F .text	00000034 alt_irq_init
0120d238 g     F .text	00000060 alt_release_fd
0121211c g     O .rodata	00000100 .hidden __clz_tab
01214038 g     O .bss	00000004 _PathLocale
01211b30 g     F .text	00000014 atexit
012084a4 g     F .text	0000005c _write_r
01204da0 g     F .text	0000001c setlocale
01213fe8 g     O .rwdata	00000004 _impure_ptr
01214060 g     O .bss	00000004 alt_argc
012104c0 g     F .text	0000005c _do_dtors
01204d8c g     F .text	00000008 __locale_cjk_lang
01200020 g       .exceptions	00000000 alt_irq_entry
01206524 g     F .text	00000060 __ulp
012046f4 g     F .text	00000018 __fp_unlock_all
01213ffc g     O .rwdata	00000008 alt_fs_list
0120e118 g     F .text	00000050 alt_write_flash_command_32bit_device_8bit_mode
01214058 g     O .bss	00000008 alt_resettime
01204dbc g     F .text	0000000c localeconv
012105d4 g     F .text	00000050 alt_ic_isr_register
0121402c g       *ABS*	00000000 _edata
012141a4 g       *ABS*	00000000 _end
0121051c g     F .text	00000068 alt_flash_open_dev
0120f930 g     F .text	000000ec altera_avalon_jtag_uart_ioctl
012106c4 g     F .text	000000a4 alt_ic_irq_disable
01206c84 g     F .text	0000007c __swrite
01213ff4 g     O .rwdata	00000004 __malloc_trim_threshold
0121166c g     F .text	00000024 alt_get_performance_counter_base
01204d80 g     F .text	0000000c __locale_msgcharset
01211b44 g     F .text	00000038 exit
01204bd8 g     F .text	000000b8 _fwalk_reent
0120638c g     F .text	00000198 __mdiff
01210584 g     F .text	00000050 alt_flash_close_dev
012004dc g     F .text	0000005c .hidden __modsi3
01400000 g       *ABS*	00000000 __alt_data_end
01200020 g     F .exceptions	00000000 alt_exception
012046d0 g     F .text	00000004 __sfp_lock_release
01211f10 g     F .text	00000034 _exit
012101bc g     F .text	00000140 alt_alarm_start
0120980c g     F .text	00000060 .hidden __muldi3
01204dc8 g     F .text	000001b8 __smakebuf_r
0120e2c4 g     F .text	00000034 alt_write_native_32bit
01206e08 g     F .text	00000098 strlen
01210af8 g     F .text	00000158 open
0120b5a8 g     F .text	000000e0 .hidden __gedf2
0120da84 g     F .text	0000008c alt_flash_cfi_get_info
01213ff8 g     O .rwdata	00000004 __wctomb
01206f9c g     F .text	00000018 __sprint_r
01214028 g     O .rwdata	00000004 alt_priority_mask
01210624 g     F .text	000000a0 alt_ic_irq_enable
01202698 g     F .text	00000024 __vfprintf_internal
012097b0 g     F .text	0000005c _wctomb_r
0120be8c g     F .text	000008d0 .hidden __subdf3
01205dbc g     F .text	000000b0 __lo0bits
01214018 g     O .rwdata	00000008 alt_alarm_list
01210464 g     F .text	0000005c _do_ctors
012096a8 g     F .text	000000d8 wcrtomb
0120ca0c g     F .text	000000d0 close
01210c70 g     F .text	00000068 alt_program_amd
012088b0 g     F .text	00000058 fputwc
00000000  w      *UND*	00000000 free
012046d4 g     F .text	00000004 __sinit_lock_acquire
01205b3c g     F .text	00000114 __multadd
01205b14 g     F .text	00000028 _Bfree



Disassembly of section .exceptions:

01200020 <alt_exception>:
 1200020:	deffed04 	addi	sp,sp,-76
 1200024:	dfc00015 	stw	ra,0(sp)
 1200028:	d8400215 	stw	at,8(sp)
 120002c:	d8800315 	stw	r2,12(sp)
 1200030:	d8c00415 	stw	r3,16(sp)
 1200034:	d9000515 	stw	r4,20(sp)
 1200038:	d9400615 	stw	r5,24(sp)
 120003c:	d9800715 	stw	r6,28(sp)
 1200040:	d9c00815 	stw	r7,32(sp)
 1200044:	000b307a 	rdctl	r5,estatus
 1200048:	da000915 	stw	r8,36(sp)
 120004c:	da400a15 	stw	r9,40(sp)
 1200050:	da800b15 	stw	r10,44(sp)
 1200054:	dac00c15 	stw	r11,48(sp)
 1200058:	db000d15 	stw	r12,52(sp)
 120005c:	db400e15 	stw	r13,56(sp)
 1200060:	db800f15 	stw	r14,60(sp)
 1200064:	dbc01015 	stw	r15,64(sp)
 1200068:	d9401115 	stw	r5,68(sp)
 120006c:	ebffff04 	addi	r15,ea,-4
 1200070:	dbc01215 	stw	r15,72(sp)
 1200074:	0009313a 	rdctl	r4,ipending
 1200078:	2880004c 	andi	r2,r5,1
 120007c:	10000326 	beq	r2,zero,120008c <alt_exception+0x6c>
 1200080:	20000226 	beq	r4,zero,120008c <alt_exception+0x6c>
 1200084:	12000fc0 	call	12000fc <alt_irq_handler>
 1200088:	00000706 	br	12000a8 <alt_exception+0x88>
 120008c:	df401215 	stw	ea,72(sp)
 1200090:	e8bfff17 	ldw	r2,-4(ea)
 1200094:	e93fff04 	addi	r4,ea,-4
 1200098:	12001cc0 	call	12001cc <alt_instruction_exception_entry>
 120009c:	1000021e 	bne	r2,zero,12000a8 <alt_exception+0x88>
 12000a0:	ebffff04 	addi	r15,ea,-4
 12000a4:	dbc01215 	stw	r15,72(sp)
 12000a8:	d9401117 	ldw	r5,68(sp)
 12000ac:	df401217 	ldw	ea,72(sp)
 12000b0:	dfc00017 	ldw	ra,0(sp)
 12000b4:	2801707a 	wrctl	estatus,r5
 12000b8:	d8400217 	ldw	at,8(sp)
 12000bc:	d8800317 	ldw	r2,12(sp)
 12000c0:	d8c00417 	ldw	r3,16(sp)
 12000c4:	d9000517 	ldw	r4,20(sp)
 12000c8:	d9400617 	ldw	r5,24(sp)
 12000cc:	d9800717 	ldw	r6,28(sp)
 12000d0:	d9c00817 	ldw	r7,32(sp)
 12000d4:	da000917 	ldw	r8,36(sp)
 12000d8:	da400a17 	ldw	r9,40(sp)
 12000dc:	da800b17 	ldw	r10,44(sp)
 12000e0:	dac00c17 	ldw	r11,48(sp)
 12000e4:	db000d17 	ldw	r12,52(sp)
 12000e8:	db400e17 	ldw	r13,56(sp)
 12000ec:	db800f17 	ldw	r14,60(sp)
 12000f0:	dbc01017 	ldw	r15,64(sp)
 12000f4:	dec01304 	addi	sp,sp,76
 12000f8:	ef80083a 	eret

012000fc <alt_irq_handler>:
 12000fc:	defff904 	addi	sp,sp,-28
 1200100:	dfc00615 	stw	ra,24(sp)
 1200104:	df000515 	stw	fp,20(sp)
 1200108:	df000504 	addi	fp,sp,20
 120010c:	0001883a 	nop
 1200110:	0005313a 	rdctl	r2,ipending
 1200114:	e0bffe15 	stw	r2,-8(fp)
 1200118:	e0bffe17 	ldw	r2,-8(fp)
 120011c:	e0bffb15 	stw	r2,-20(fp)
 1200120:	e03ffd15 	stw	zero,-12(fp)
 1200124:	00800044 	movi	r2,1
 1200128:	e0bffc15 	stw	r2,-16(fp)
 120012c:	e0fffb17 	ldw	r3,-20(fp)
 1200130:	e0bffc17 	ldw	r2,-16(fp)
 1200134:	1884703a 	and	r2,r3,r2
 1200138:	10001426 	beq	r2,zero,120018c <alt_irq_handler+0x90>
 120013c:	00804874 	movhi	r2,289
 1200140:	10902904 	addi	r2,r2,16548
 1200144:	e0fffd17 	ldw	r3,-12(fp)
 1200148:	180690fa 	slli	r3,r3,3
 120014c:	10c5883a 	add	r2,r2,r3
 1200150:	10c00017 	ldw	r3,0(r2)
 1200154:	00804874 	movhi	r2,289
 1200158:	10902904 	addi	r2,r2,16548
 120015c:	e13ffd17 	ldw	r4,-12(fp)
 1200160:	200890fa 	slli	r4,r4,3
 1200164:	1105883a 	add	r2,r2,r4
 1200168:	10800104 	addi	r2,r2,4
 120016c:	10800017 	ldw	r2,0(r2)
 1200170:	1009883a 	mov	r4,r2
 1200174:	183ee83a 	callr	r3
 1200178:	0001883a 	nop
 120017c:	0005313a 	rdctl	r2,ipending
 1200180:	e0bfff15 	stw	r2,-4(fp)
 1200184:	e0bfff17 	ldw	r2,-4(fp)
 1200188:	00000706 	br	12001a8 <alt_irq_handler+0xac>
 120018c:	e0bffc17 	ldw	r2,-16(fp)
 1200190:	1085883a 	add	r2,r2,r2
 1200194:	e0bffc15 	stw	r2,-16(fp)
 1200198:	e0bffd17 	ldw	r2,-12(fp)
 120019c:	10800044 	addi	r2,r2,1
 12001a0:	e0bffd15 	stw	r2,-12(fp)
 12001a4:	003fe106 	br	120012c <__alt_mem_instruction_tcm+0xff20012c>
 12001a8:	e0bffb15 	stw	r2,-20(fp)
 12001ac:	e0bffb17 	ldw	r2,-20(fp)
 12001b0:	103fdb1e 	bne	r2,zero,1200120 <__alt_mem_instruction_tcm+0xff200120>
 12001b4:	0001883a 	nop
 12001b8:	e037883a 	mov	sp,fp
 12001bc:	dfc00117 	ldw	ra,4(sp)
 12001c0:	df000017 	ldw	fp,0(sp)
 12001c4:	dec00204 	addi	sp,sp,8
 12001c8:	f800283a 	ret

012001cc <alt_instruction_exception_entry>:
 12001cc:	defffb04 	addi	sp,sp,-20
 12001d0:	dfc00415 	stw	ra,16(sp)
 12001d4:	df000315 	stw	fp,12(sp)
 12001d8:	df000304 	addi	fp,sp,12
 12001dc:	e13fff15 	stw	r4,-4(fp)
 12001e0:	000531fa 	rdctl	r2,exception
 12001e4:	e0bffd15 	stw	r2,-12(fp)
 12001e8:	e0bffd17 	ldw	r2,-12(fp)
 12001ec:	10801f0c 	andi	r2,r2,124
 12001f0:	1004d0ba 	srli	r2,r2,2
 12001f4:	e0bffd15 	stw	r2,-12(fp)
 12001f8:	0005333a 	rdctl	r2,badaddr
 12001fc:	e0bffe15 	stw	r2,-8(fp)
 1200200:	d0a02517 	ldw	r2,-32620(gp)
 1200204:	10000726 	beq	r2,zero,1200224 <alt_instruction_exception_entry+0x58>
 1200208:	d0a02517 	ldw	r2,-32620(gp)
 120020c:	e0fffd17 	ldw	r3,-12(fp)
 1200210:	1809883a 	mov	r4,r3
 1200214:	e17fff17 	ldw	r5,-4(fp)
 1200218:	e1bffe17 	ldw	r6,-8(fp)
 120021c:	103ee83a 	callr	r2
 1200220:	00000206 	br	120022c <alt_instruction_exception_entry+0x60>
 1200224:	003da03a 	break	0
 1200228:	0005883a 	mov	r2,zero
 120022c:	e037883a 	mov	sp,fp
 1200230:	dfc00117 	ldw	ra,4(sp)
 1200234:	df000017 	ldw	fp,0(sp)
 1200238:	dec00204 	addi	sp,sp,8
 120023c:	f800283a 	ret

Disassembly of section .text:

01200240 <_start>:
 1200240:	00840014 	movui	r2,4096
 1200244:	10000033 	initd	0(r2)
 1200248:	10bff804 	addi	r2,r2,-32
 120024c:	00bffd16 	blt	zero,r2,1200244 <__alt_mem_instruction_tcm+0xff200244>
 1200250:	06c05034 	movhi	sp,320
 1200254:	dec00014 	ori	sp,sp,0
 1200258:	06804874 	movhi	gp,289
 120025c:	d6aff914 	ori	gp,gp,49124
 1200260:	00804874 	movhi	r2,289
 1200264:	10900b14 	ori	r2,r2,16428
 1200268:	00c04874 	movhi	r3,289
 120026c:	18d06914 	ori	r3,r3,16804
 1200270:	10c00326 	beq	r2,r3,1200280 <_start+0x40>
 1200274:	10000015 	stw	zero,0(r2)
 1200278:	10800104 	addi	r2,r2,4
 120027c:	10fffd36 	bltu	r2,r3,1200274 <__alt_mem_instruction_tcm+0xff200274>
 1200280:	120d0340 	call	120d034 <alt_main>

01200284 <alt_after_alt_main>:
 1200284:	003fff06 	br	1200284 <__alt_mem_instruction_tcm+0xff200284>

01200288 <arrays>:
 1200288:	2105883a 	add	r2,r4,r4
 120028c:	1085883a 	add	r2,r2,r2
 1200290:	00ffff04 	movi	r3,-4
 1200294:	10800184 	addi	r2,r2,6
 1200298:	defff804 	addi	sp,sp,-32
 120029c:	10c4703a 	and	r2,r2,r3
 12002a0:	df000615 	stw	fp,24(sp)
 12002a4:	dc400115 	stw	r17,4(sp)
 12002a8:	dfc00715 	stw	ra,28(sp)
 12002ac:	dd400515 	stw	r21,20(sp)
 12002b0:	dd000415 	stw	r20,16(sp)
 12002b4:	dcc00315 	stw	r19,12(sp)
 12002b8:	dc800215 	stw	r18,8(sp)
 12002bc:	dc000015 	stw	r16,0(sp)
 12002c0:	df000604 	addi	fp,sp,24
 12002c4:	2023883a 	mov	r17,r4
 12002c8:	d8b7c83a 	sub	sp,sp,r2
 12002cc:	0009883a 	mov	r4,zero
 12002d0:	120064c0 	call	120064c <time>
 12002d4:	1009883a 	mov	r4,r2
 12002d8:	12005d00 	call	12005d0 <srand>
 12002dc:	0440190e 	bge	zero,r17,1200344 <arrays+0xbc>
 12002e0:	04c04874 	movhi	r19,289
 12002e4:	d829883a 	mov	r20,sp
 12002e8:	9cc8d704 	addi	r19,r19,9052
 12002ec:	002b883a 	mov	r21,zero
 12002f0:	048003c4 	movi	r18,15
 12002f4:	00000806 	br	1200318 <arrays+0x90>
 12002f8:	10800003 	ldbu	r2,0(r2)
 12002fc:	108002a4 	muli	r2,r2,10
 1200300:	a5000104 	addi	r20,r20,4
 1200304:	ad400044 	addi	r21,r21,1
 1200308:	80a1c83a 	sub	r16,r16,r2
 120030c:	84000044 	addi	r16,r16,1
 1200310:	a43fff15 	stw	r16,-4(r20)
 1200314:	ac400b26 	beq	r21,r17,1200344 <arrays+0xbc>
 1200318:	12005e80 	call	12005e8 <rand>
 120031c:	1021883a 	mov	r16,r2
 1200320:	1004913a 	slli	r2,r2,4
 1200324:	80c00294 	ori	r3,r16,10
 1200328:	8009883a 	mov	r4,r16
 120032c:	10800294 	ori	r2,r2,10
 1200330:	14c5883a 	add	r2,r2,r19
 1200334:	01400284 	movi	r5,10
 1200338:	90ffef2e 	bgeu	r18,r3,12002f8 <__alt_mem_instruction_tcm+0xff2002f8>
 120033c:	12004880 	call	1200488 <__divsi3>
 1200340:	003fee06 	br	12002fc <__alt_mem_instruction_tcm+0xff2002fc>
 1200344:	00805034 	movhi	r2,320
 1200348:	10840504 	addi	r2,r2,4116
 120034c:	10000035 	stwio	zero,0(r2)
 1200350:	01000284 	movi	r4,10
 1200354:	12005b80 	call	12005b8 <putchar>
 1200358:	01000284 	movi	r4,10
 120035c:	12005b80 	call	12005b8 <putchar>
 1200360:	01004874 	movhi	r4,289
 1200364:	2107d104 	addi	r4,r4,8004
 1200368:	017fffc4 	movi	r5,-1
 120036c:	12005740 	call	1200574 <printf>
 1200370:	00805034 	movhi	r2,320
 1200374:	10840404 	addi	r2,r2,4112
 1200378:	10000035 	stwio	zero,0(r2)
 120037c:	0005883a 	mov	r2,zero
 1200380:	e6fffa04 	addi	sp,fp,-24
 1200384:	dfc00717 	ldw	ra,28(sp)
 1200388:	df000617 	ldw	fp,24(sp)
 120038c:	dd400517 	ldw	r21,20(sp)
 1200390:	dd000417 	ldw	r20,16(sp)
 1200394:	dcc00317 	ldw	r19,12(sp)
 1200398:	dc800217 	ldw	r18,8(sp)
 120039c:	dc400117 	ldw	r17,4(sp)
 12003a0:	dc000017 	ldw	r16,0(sp)
 12003a4:	dec00804 	addi	sp,sp,32
 12003a8:	f800283a 	ret

012003ac <main>:
 12003ac:	defffc04 	addi	sp,sp,-16
 12003b0:	dc000015 	stw	r16,0(sp)
 12003b4:	04005034 	movhi	r16,320
 12003b8:	dc400115 	stw	r17,4(sp)
 12003bc:	dfc00315 	stw	ra,12(sp)
 12003c0:	dc800215 	stw	r18,8(sp)
 12003c4:	84040004 	addi	r16,r16,4096
 12003c8:	04400044 	movi	r17,1
 12003cc:	84400035 	stwio	r17,0(r16)
 12003d0:	00805034 	movhi	r2,320
 12003d4:	0025883a 	mov	r18,zero
 12003d8:	10840104 	addi	r2,r2,4100
 12003dc:	14800035 	stwio	r18,0(r2)
 12003e0:	0100fa04 	movi	r4,1000
 12003e4:	12002880 	call	1200288 <arrays>
 12003e8:	84800035 	stwio	r18,0(r16)
 12003ec:	0140bef4 	movhi	r5,763
 12003f0:	01c04874 	movhi	r7,289
 12003f4:	297c2004 	addi	r5,r5,-3968
 12003f8:	39c7d404 	addi	r7,r7,8016
 12003fc:	8009883a 	mov	r4,r16
 1200400:	880d883a 	mov	r6,r17
 1200404:	dfc00317 	ldw	ra,12(sp)
 1200408:	dc800217 	ldw	r18,8(sp)
 120040c:	dc400117 	ldw	r17,4(sp)
 1200410:	dc000017 	ldw	r16,0(sp)
 1200414:	dec00404 	addi	sp,sp,16
 1200418:	120ff3c1 	jmpi	120ff3c <perf_print_formatted_report>

0120041c <udivmodsi4>:
 120041c:	2900182e 	bgeu	r5,r4,1200480 <udivmodsi4+0x64>
 1200420:	28001716 	blt	r5,zero,1200480 <udivmodsi4+0x64>
 1200424:	00800804 	movi	r2,32
 1200428:	00c00044 	movi	r3,1
 120042c:	00000206 	br	1200438 <udivmodsi4+0x1c>
 1200430:	10001126 	beq	r2,zero,1200478 <udivmodsi4+0x5c>
 1200434:	28000516 	blt	r5,zero,120044c <udivmodsi4+0x30>
 1200438:	294b883a 	add	r5,r5,r5
 120043c:	10bfffc4 	addi	r2,r2,-1
 1200440:	18c7883a 	add	r3,r3,r3
 1200444:	293ffa36 	bltu	r5,r4,1200430 <__alt_mem_instruction_tcm+0xff200430>
 1200448:	18000b26 	beq	r3,zero,1200478 <udivmodsi4+0x5c>
 120044c:	0005883a 	mov	r2,zero
 1200450:	21400236 	bltu	r4,r5,120045c <udivmodsi4+0x40>
 1200454:	2149c83a 	sub	r4,r4,r5
 1200458:	10c4b03a 	or	r2,r2,r3
 120045c:	1806d07a 	srli	r3,r3,1
 1200460:	280ad07a 	srli	r5,r5,1
 1200464:	183ffa1e 	bne	r3,zero,1200450 <__alt_mem_instruction_tcm+0xff200450>
 1200468:	3000011e 	bne	r6,zero,1200470 <udivmodsi4+0x54>
 120046c:	f800283a 	ret
 1200470:	2005883a 	mov	r2,r4
 1200474:	f800283a 	ret
 1200478:	0005883a 	mov	r2,zero
 120047c:	003ffa06 	br	1200468 <__alt_mem_instruction_tcm+0xff200468>
 1200480:	00c00044 	movi	r3,1
 1200484:	003ff106 	br	120044c <__alt_mem_instruction_tcm+0xff20044c>

01200488 <__divsi3>:
 1200488:	defffe04 	addi	sp,sp,-8
 120048c:	dfc00115 	stw	ra,4(sp)
 1200490:	dc000015 	stw	r16,0(sp)
 1200494:	20000b16 	blt	r4,zero,12004c4 <__divsi3+0x3c>
 1200498:	0021883a 	mov	r16,zero
 120049c:	28000c16 	blt	r5,zero,12004d0 <__divsi3+0x48>
 12004a0:	000d883a 	mov	r6,zero
 12004a4:	120041c0 	call	120041c <udivmodsi4>
 12004a8:	0407c83a 	sub	r3,zero,r16
 12004ac:	1884f03a 	xor	r2,r3,r2
 12004b0:	1405883a 	add	r2,r2,r16
 12004b4:	dfc00117 	ldw	ra,4(sp)
 12004b8:	dc000017 	ldw	r16,0(sp)
 12004bc:	dec00204 	addi	sp,sp,8
 12004c0:	f800283a 	ret
 12004c4:	0109c83a 	sub	r4,zero,r4
 12004c8:	04000044 	movi	r16,1
 12004cc:	283ff40e 	bge	r5,zero,12004a0 <__alt_mem_instruction_tcm+0xff2004a0>
 12004d0:	014bc83a 	sub	r5,zero,r5
 12004d4:	8400005c 	xori	r16,r16,1
 12004d8:	003ff106 	br	12004a0 <__alt_mem_instruction_tcm+0xff2004a0>

012004dc <__modsi3>:
 12004dc:	defffd04 	addi	sp,sp,-12
 12004e0:	dfc00215 	stw	ra,8(sp)
 12004e4:	dc400115 	stw	r17,4(sp)
 12004e8:	dc000015 	stw	r16,0(sp)
 12004ec:	20000c16 	blt	r4,zero,1200520 <__modsi3+0x44>
 12004f0:	0023883a 	mov	r17,zero
 12004f4:	0021883a 	mov	r16,zero
 12004f8:	28000d16 	blt	r5,zero,1200530 <__modsi3+0x54>
 12004fc:	01800044 	movi	r6,1
 1200500:	120041c0 	call	120041c <udivmodsi4>
 1200504:	1404f03a 	xor	r2,r2,r16
 1200508:	8885883a 	add	r2,r17,r2
 120050c:	dfc00217 	ldw	ra,8(sp)
 1200510:	dc400117 	ldw	r17,4(sp)
 1200514:	dc000017 	ldw	r16,0(sp)
 1200518:	dec00304 	addi	sp,sp,12
 120051c:	f800283a 	ret
 1200520:	0109c83a 	sub	r4,zero,r4
 1200524:	04400044 	movi	r17,1
 1200528:	043fffc4 	movi	r16,-1
 120052c:	283ff30e 	bge	r5,zero,12004fc <__alt_mem_instruction_tcm+0xff2004fc>
 1200530:	014bc83a 	sub	r5,zero,r5
 1200534:	003ff106 	br	12004fc <__alt_mem_instruction_tcm+0xff2004fc>

01200538 <__udivsi3>:
 1200538:	000d883a 	mov	r6,zero
 120053c:	120041c1 	jmpi	120041c <udivmodsi4>

01200540 <__umodsi3>:
 1200540:	01800044 	movi	r6,1
 1200544:	120041c1 	jmpi	120041c <udivmodsi4>

01200548 <_printf_r>:
 1200548:	defffd04 	addi	sp,sp,-12
 120054c:	dfc00015 	stw	ra,0(sp)
 1200550:	d9800115 	stw	r6,4(sp)
 1200554:	d9c00215 	stw	r7,8(sp)
 1200558:	280d883a 	mov	r6,r5
 120055c:	21400217 	ldw	r5,8(r4)
 1200560:	d9c00104 	addi	r7,sp,4
 1200564:	120069c0 	call	120069c <___vfprintf_internal_r>
 1200568:	dfc00017 	ldw	ra,0(sp)
 120056c:	dec00304 	addi	sp,sp,12
 1200570:	f800283a 	ret

01200574 <printf>:
 1200574:	defffc04 	addi	sp,sp,-16
 1200578:	dfc00015 	stw	ra,0(sp)
 120057c:	d9400115 	stw	r5,4(sp)
 1200580:	d9800215 	stw	r6,8(sp)
 1200584:	d9c00315 	stw	r7,12(sp)
 1200588:	00804874 	movhi	r2,289
 120058c:	108ffa04 	addi	r2,r2,16360
 1200590:	10800017 	ldw	r2,0(r2)
 1200594:	200b883a 	mov	r5,r4
 1200598:	d9800104 	addi	r6,sp,4
 120059c:	11000217 	ldw	r4,8(r2)
 12005a0:	12026980 	call	1202698 <__vfprintf_internal>
 12005a4:	dfc00017 	ldw	ra,0(sp)
 12005a8:	dec00404 	addi	sp,sp,16
 12005ac:	f800283a 	ret

012005b0 <_putchar_r>:
 12005b0:	21800217 	ldw	r6,8(r4)
 12005b4:	12069f81 	jmpi	12069f8 <_putc_r>

012005b8 <putchar>:
 12005b8:	00804874 	movhi	r2,289
 12005bc:	108ffa04 	addi	r2,r2,16360
 12005c0:	200b883a 	mov	r5,r4
 12005c4:	11000017 	ldw	r4,0(r2)
 12005c8:	21800217 	ldw	r6,8(r4)
 12005cc:	12069f81 	jmpi	12069f8 <_putc_r>

012005d0 <srand>:
 12005d0:	00804874 	movhi	r2,289
 12005d4:	108ffa04 	addi	r2,r2,16360
 12005d8:	10800017 	ldw	r2,0(r2)
 12005dc:	11002915 	stw	r4,164(r2)
 12005e0:	10002a15 	stw	zero,168(r2)
 12005e4:	f800283a 	ret

012005e8 <rand>:
 12005e8:	00804874 	movhi	r2,289
 12005ec:	defffe04 	addi	sp,sp,-8
 12005f0:	108ffa04 	addi	r2,r2,16360
 12005f4:	dc000015 	stw	r16,0(sp)
 12005f8:	14000017 	ldw	r16,0(r2)
 12005fc:	dfc00115 	stw	ra,4(sp)
 1200600:	01932574 	movhi	r6,19605
 1200604:	81002917 	ldw	r4,164(r16)
 1200608:	81402a17 	ldw	r5,168(r16)
 120060c:	01d614b4 	movhi	r7,22610
 1200610:	319fcb44 	addi	r6,r6,32557
 1200614:	39fd0b44 	addi	r7,r7,-3027
 1200618:	120980c0 	call	120980c <__muldi3>
 120061c:	11000044 	addi	r4,r2,1
 1200620:	2085803a 	cmpltu	r2,r4,r2
 1200624:	10c7883a 	add	r3,r2,r3
 1200628:	00a00034 	movhi	r2,32768
 120062c:	10bfffc4 	addi	r2,r2,-1
 1200630:	1884703a 	and	r2,r3,r2
 1200634:	81002915 	stw	r4,164(r16)
 1200638:	80c02a15 	stw	r3,168(r16)
 120063c:	dfc00117 	ldw	ra,4(sp)
 1200640:	dc000017 	ldw	r16,0(sp)
 1200644:	dec00204 	addi	sp,sp,8
 1200648:	f800283a 	ret

0120064c <time>:
 120064c:	00804874 	movhi	r2,289
 1200650:	defffc04 	addi	sp,sp,-16
 1200654:	108ffa04 	addi	r2,r2,16360
 1200658:	dc000215 	stw	r16,8(sp)
 120065c:	2021883a 	mov	r16,r4
 1200660:	11000017 	ldw	r4,0(r2)
 1200664:	d80b883a 	mov	r5,sp
 1200668:	000d883a 	mov	r6,zero
 120066c:	dfc00315 	stw	ra,12(sp)
 1200670:	1204c900 	call	1204c90 <_gettimeofday_r>
 1200674:	10000716 	blt	r2,zero,1200694 <time+0x48>
 1200678:	d8800017 	ldw	r2,0(sp)
 120067c:	80000126 	beq	r16,zero,1200684 <time+0x38>
 1200680:	80800015 	stw	r2,0(r16)
 1200684:	dfc00317 	ldw	ra,12(sp)
 1200688:	dc000217 	ldw	r16,8(sp)
 120068c:	dec00404 	addi	sp,sp,16
 1200690:	f800283a 	ret
 1200694:	00bfffc4 	movi	r2,-1
 1200698:	003ffa06 	br	1200684 <__alt_mem_instruction_tcm+0xff200684>

0120069c <___vfprintf_internal_r>:
 120069c:	defeb604 	addi	sp,sp,-1320
 12006a0:	dfc14915 	stw	ra,1316(sp)
 12006a4:	ddc14715 	stw	r23,1308(sp)
 12006a8:	dd814615 	stw	r22,1304(sp)
 12006ac:	282f883a 	mov	r23,r5
 12006b0:	202d883a 	mov	r22,r4
 12006b4:	d9812a15 	stw	r6,1192(sp)
 12006b8:	d9c12d15 	stw	r7,1204(sp)
 12006bc:	df014815 	stw	fp,1312(sp)
 12006c0:	dd414515 	stw	r21,1300(sp)
 12006c4:	dd014415 	stw	r20,1296(sp)
 12006c8:	dcc14315 	stw	r19,1292(sp)
 12006cc:	dc814215 	stw	r18,1288(sp)
 12006d0:	dc414115 	stw	r17,1284(sp)
 12006d4:	dc014015 	stw	r16,1280(sp)
 12006d8:	1204d940 	call	1204d94 <_localeconv_r>
 12006dc:	10800017 	ldw	r2,0(r2)
 12006e0:	1009883a 	mov	r4,r2
 12006e4:	d8813515 	stw	r2,1236(sp)
 12006e8:	1206e080 	call	1206e08 <strlen>
 12006ec:	d8813815 	stw	r2,1248(sp)
 12006f0:	b0000226 	beq	r22,zero,12006fc <___vfprintf_internal_r+0x60>
 12006f4:	b0800e17 	ldw	r2,56(r22)
 12006f8:	10010426 	beq	r2,zero,1200b0c <___vfprintf_internal_r+0x470>
 12006fc:	b8c0030b 	ldhu	r3,12(r23)
 1200700:	1908000c 	andi	r4,r3,8192
 1200704:	1805883a 	mov	r2,r3
 1200708:	2000071e 	bne	r4,zero,1200728 <___vfprintf_internal_r+0x8c>
 120070c:	b9001917 	ldw	r4,100(r23)
 1200710:	18880014 	ori	r2,r3,8192
 1200714:	00f7ffc4 	movi	r3,-8193
 1200718:	20c8703a 	and	r4,r4,r3
 120071c:	b880030d 	sth	r2,12(r23)
 1200720:	1007883a 	mov	r3,r2
 1200724:	b9001915 	stw	r4,100(r23)
 1200728:	1100020c 	andi	r4,r2,8
 120072c:	2000a726 	beq	r4,zero,12009cc <___vfprintf_internal_r+0x330>
 1200730:	b9000417 	ldw	r4,16(r23)
 1200734:	2000a526 	beq	r4,zero,12009cc <___vfprintf_internal_r+0x330>
 1200738:	1080068c 	andi	r2,r2,26
 120073c:	01000284 	movi	r4,10
 1200740:	1100ab26 	beq	r2,r4,12009f0 <___vfprintf_internal_r+0x354>
 1200744:	dac10e04 	addi	r11,sp,1080
 1200748:	db010dc4 	addi	r12,sp,1079
 120074c:	d8800404 	addi	r2,sp,16
 1200750:	05004874 	movhi	r20,289
 1200754:	dac12815 	stw	r11,1184(sp)
 1200758:	5b17c83a 	sub	r11,r11,r12
 120075c:	a507e584 	addi	r20,r20,8086
 1200760:	db012915 	stw	r12,1188(sp)
 1200764:	d8811e15 	stw	r2,1144(sp)
 1200768:	d8012015 	stw	zero,1152(sp)
 120076c:	d8011f15 	stw	zero,1148(sp)
 1200770:	d8013315 	stw	zero,1228(sp)
 1200774:	d8013715 	stw	zero,1244(sp)
 1200778:	d8013915 	stw	zero,1252(sp)
 120077c:	d8013b15 	stw	zero,1260(sp)
 1200780:	d8013a15 	stw	zero,1256(sp)
 1200784:	d8012f15 	stw	zero,1212(sp)
 1200788:	1011883a 	mov	r8,r2
 120078c:	dac13c15 	stw	r11,1264(sp)
 1200790:	db012a17 	ldw	r12,1192(sp)
 1200794:	60800007 	ldb	r2,0(r12)
 1200798:	1000df26 	beq	r2,zero,1200b18 <___vfprintf_internal_r+0x47c>
 120079c:	00c00944 	movi	r3,37
 12007a0:	10c0dd26 	beq	r2,r3,1200b18 <___vfprintf_internal_r+0x47c>
 12007a4:	6021883a 	mov	r16,r12
 12007a8:	00000106 	br	12007b0 <___vfprintf_internal_r+0x114>
 12007ac:	10c08426 	beq	r2,r3,12009c0 <___vfprintf_internal_r+0x324>
 12007b0:	84000044 	addi	r16,r16,1
 12007b4:	80800007 	ldb	r2,0(r16)
 12007b8:	103ffc1e 	bne	r2,zero,12007ac <__alt_mem_instruction_tcm+0xff2007ac>
 12007bc:	dac12a17 	ldw	r11,1192(sp)
 12007c0:	82e3c83a 	sub	r17,r16,r11
 12007c4:	88000f26 	beq	r17,zero,1200804 <___vfprintf_internal_r+0x168>
 12007c8:	d8c12017 	ldw	r3,1152(sp)
 12007cc:	d8811f17 	ldw	r2,1148(sp)
 12007d0:	dac12a17 	ldw	r11,1192(sp)
 12007d4:	1c47883a 	add	r3,r3,r17
 12007d8:	10800044 	addi	r2,r2,1
 12007dc:	d8c12015 	stw	r3,1152(sp)
 12007e0:	42c00015 	stw	r11,0(r8)
 12007e4:	44400115 	stw	r17,4(r8)
 12007e8:	d8811f15 	stw	r2,1148(sp)
 12007ec:	00c001c4 	movi	r3,7
 12007f0:	1880b416 	blt	r3,r2,1200ac4 <___vfprintf_internal_r+0x428>
 12007f4:	42000204 	addi	r8,r8,8
 12007f8:	db012f17 	ldw	r12,1212(sp)
 12007fc:	6459883a 	add	r12,r12,r17
 1200800:	db012f15 	stw	r12,1212(sp)
 1200804:	80800007 	ldb	r2,0(r16)
 1200808:	1000b526 	beq	r2,zero,1200ae0 <___vfprintf_internal_r+0x444>
 120080c:	80800044 	addi	r2,r16,1
 1200810:	84000047 	ldb	r16,1(r16)
 1200814:	d8012785 	stb	zero,1182(sp)
 1200818:	000d883a 	mov	r6,zero
 120081c:	027fffc4 	movi	r9,-1
 1200820:	d8012e15 	stw	zero,1208(sp)
 1200824:	0023883a 	mov	r17,zero
 1200828:	01001604 	movi	r4,88
 120082c:	01400244 	movi	r5,9
 1200830:	02800a84 	movi	r10,42
 1200834:	01c01b04 	movi	r7,108
 1200838:	10c00044 	addi	r3,r2,1
 120083c:	80bff804 	addi	r2,r16,-32
 1200840:	2082f236 	bltu	r4,r2,120140c <___vfprintf_internal_r+0xd70>
 1200844:	100490ba 	slli	r2,r2,2
 1200848:	02c04834 	movhi	r11,288
 120084c:	5ac21704 	addi	r11,r11,2140
 1200850:	12c5883a 	add	r2,r2,r11
 1200854:	10800017 	ldw	r2,0(r2)
 1200858:	1000683a 	jmp	r2
 120085c:	01201254 	movui	r4,32841
 1200860:	0120140c 	andi	r4,zero,32848
 1200864:	0120140c 	andi	r4,zero,32848
 1200868:	01201274 	movhi	r4,32841
 120086c:	0120140c 	andi	r4,zero,32848
 1200870:	0120140c 	andi	r4,zero,32848
 1200874:	0120140c 	andi	r4,zero,32848
 1200878:	0120140c 	andi	r4,zero,32848
 120087c:	0120140c 	andi	r4,zero,32848
 1200880:	0120140c 	andi	r4,zero,32848
 1200884:	012013d0 	cmplti	r4,zero,-32689
 1200888:	012013fc 	xorhi	r4,zero,32847
 120088c:	0120140c 	andi	r4,zero,32848
 1200890:	01200b20 	cmpeqi	r4,zero,-32724
 1200894:	01200b30 	cmpltui	r4,zero,32812
 1200898:	0120140c 	andi	r4,zero,32848
 120089c:	01200b70 	cmpltui	r4,zero,32813
 12008a0:	01201064 	muli	r4,zero,-32703
 12008a4:	01201064 	muli	r4,zero,-32703
 12008a8:	01201064 	muli	r4,zero,-32703
 12008ac:	01201064 	muli	r4,zero,-32703
 12008b0:	01201064 	muli	r4,zero,-32703
 12008b4:	01201064 	muli	r4,zero,-32703
 12008b8:	01201064 	muli	r4,zero,-32703
 12008bc:	01201064 	muli	r4,zero,-32703
 12008c0:	01201064 	muli	r4,zero,-32703
 12008c4:	0120140c 	andi	r4,zero,32848
 12008c8:	0120140c 	andi	r4,zero,32848
 12008cc:	0120140c 	andi	r4,zero,32848
 12008d0:	0120140c 	andi	r4,zero,32848
 12008d4:	0120140c 	andi	r4,zero,32848
 12008d8:	0120140c 	andi	r4,zero,32848
 12008dc:	0120140c 	andi	r4,zero,32848
 12008e0:	0120140c 	andi	r4,zero,32848
 12008e4:	0120140c 	andi	r4,zero,32848
 12008e8:	0120140c 	andi	r4,zero,32848
 12008ec:	01201098 	cmpnei	r4,zero,-32702
 12008f0:	01200b80 	call	1200b8 <__reset-0x6dff48>
 12008f4:	0120140c 	andi	r4,zero,32848
 12008f8:	01200b80 	call	1200b8 <__reset-0x6dff48>
 12008fc:	0120140c 	andi	r4,zero,32848
 1200900:	0120140c 	andi	r4,zero,32848
 1200904:	0120140c 	andi	r4,zero,32848
 1200908:	0120140c 	andi	r4,zero,32848
 120090c:	01200c24 	muli	r4,zero,-32720
 1200910:	0120140c 	andi	r4,zero,32848
 1200914:	0120140c 	andi	r4,zero,32848
 1200918:	01200c34 	movhi	r4,32816
 120091c:	0120140c 	andi	r4,zero,32848
 1200920:	0120140c 	andi	r4,zero,32848
 1200924:	0120140c 	andi	r4,zero,32848
 1200928:	0120140c 	andi	r4,zero,32848
 120092c:	0120140c 	andi	r4,zero,32848
 1200930:	01201030 	cmpltui	r4,zero,32832
 1200934:	0120140c 	andi	r4,zero,32848
 1200938:	0120140c 	andi	r4,zero,32848
 120093c:	012010e0 	cmpeqi	r4,zero,-32701
 1200940:	0120140c 	andi	r4,zero,32848
 1200944:	0120140c 	andi	r4,zero,32848
 1200948:	0120140c 	andi	r4,zero,32848
 120094c:	0120140c 	andi	r4,zero,32848
 1200950:	0120140c 	andi	r4,zero,32848
 1200954:	0120140c 	andi	r4,zero,32848
 1200958:	0120140c 	andi	r4,zero,32848
 120095c:	0120140c 	andi	r4,zero,32848
 1200960:	0120140c 	andi	r4,zero,32848
 1200964:	0120140c 	andi	r4,zero,32848
 1200968:	012012d4 	movui	r4,32843
 120096c:	01201284 	movi	r4,-32694
 1200970:	01200b80 	call	1200b8 <__reset-0x6dff48>
 1200974:	01200b80 	call	1200b8 <__reset-0x6dff48>
 1200978:	01200b80 	call	1200b8 <__reset-0x6dff48>
 120097c:	012012c4 	movi	r4,-32693
 1200980:	01201284 	movi	r4,-32694
 1200984:	0120140c 	andi	r4,zero,32848
 1200988:	0120140c 	andi	r4,zero,32848
 120098c:	012011cc 	andi	r4,zero,32839
 1200990:	0120140c 	andi	r4,zero,32848
 1200994:	012011e0 	cmpeqi	r4,zero,-32697
 1200998:	01201214 	movui	r4,32840
 120099c:	01201314 	movui	r4,32844
 12009a0:	0120113c 	xorhi	r4,zero,32836
 12009a4:	0120140c 	andi	r4,zero,32848
 12009a8:	0120135c 	xori	r4,zero,32845
 12009ac:	0120140c 	andi	r4,zero,32848
 12009b0:	0120114c 	andi	r4,zero,32837
 12009b4:	0120140c 	andi	r4,zero,32848
 12009b8:	0120140c 	andi	r4,zero,32848
 12009bc:	0120118c 	andi	r4,zero,32838
 12009c0:	db012a17 	ldw	r12,1192(sp)
 12009c4:	8323c83a 	sub	r17,r16,r12
 12009c8:	003f7e06 	br	12007c4 <__alt_mem_instruction_tcm+0xff2007c4>
 12009cc:	b009883a 	mov	r4,r22
 12009d0:	b80b883a 	mov	r5,r23
 12009d4:	12026bc0 	call	12026bc <__swsetup_r>
 12009d8:	10002d1e 	bne	r2,zero,1200a90 <___vfprintf_internal_r+0x3f4>
 12009dc:	b8c0030b 	ldhu	r3,12(r23)
 12009e0:	01000284 	movi	r4,10
 12009e4:	1805883a 	mov	r2,r3
 12009e8:	1080068c 	andi	r2,r2,26
 12009ec:	113f551e 	bne	r2,r4,1200744 <__alt_mem_instruction_tcm+0xff200744>
 12009f0:	b880038b 	ldhu	r2,14(r23)
 12009f4:	113fffcc 	andi	r4,r2,65535
 12009f8:	2120001c 	xori	r4,r4,32768
 12009fc:	21200004 	addi	r4,r4,-32768
 1200a00:	203f5016 	blt	r4,zero,1200744 <__alt_mem_instruction_tcm+0xff200744>
 1200a04:	bac01917 	ldw	r11,100(r23)
 1200a08:	ba800717 	ldw	r10,28(r23)
 1200a0c:	ba400917 	ldw	r9,36(r23)
 1200a10:	d9812a17 	ldw	r6,1192(sp)
 1200a14:	d9c12d17 	ldw	r7,1204(sp)
 1200a18:	02010004 	movi	r8,1024
 1200a1c:	18ffff4c 	andi	r3,r3,65533
 1200a20:	d881078d 	sth	r2,1054(sp)
 1200a24:	b009883a 	mov	r4,r22
 1200a28:	d8800404 	addi	r2,sp,16
 1200a2c:	d9410404 	addi	r5,sp,1040
 1200a30:	d8c1070d 	sth	r3,1052(sp)
 1200a34:	dac11d15 	stw	r11,1140(sp)
 1200a38:	da810b15 	stw	r10,1068(sp)
 1200a3c:	da410d15 	stw	r9,1076(sp)
 1200a40:	d8810415 	stw	r2,1040(sp)
 1200a44:	d8810815 	stw	r2,1056(sp)
 1200a48:	da010615 	stw	r8,1048(sp)
 1200a4c:	da010915 	stw	r8,1060(sp)
 1200a50:	d8010a15 	stw	zero,1064(sp)
 1200a54:	120069c0 	call	120069c <___vfprintf_internal_r>
 1200a58:	1021883a 	mov	r16,r2
 1200a5c:	10000416 	blt	r2,zero,1200a70 <___vfprintf_internal_r+0x3d4>
 1200a60:	b009883a 	mov	r4,r22
 1200a64:	d9410404 	addi	r5,sp,1040
 1200a68:	12041140 	call	1204114 <_fflush_r>
 1200a6c:	1006ee1e 	bne	r2,zero,1202628 <___vfprintf_internal_r+0x1f8c>
 1200a70:	d881070b 	ldhu	r2,1052(sp)
 1200a74:	1080100c 	andi	r2,r2,64
 1200a78:	10000326 	beq	r2,zero,1200a88 <___vfprintf_internal_r+0x3ec>
 1200a7c:	b880030b 	ldhu	r2,12(r23)
 1200a80:	10801014 	ori	r2,r2,64
 1200a84:	b880030d 	sth	r2,12(r23)
 1200a88:	8005883a 	mov	r2,r16
 1200a8c:	00000106 	br	1200a94 <___vfprintf_internal_r+0x3f8>
 1200a90:	00bfffc4 	movi	r2,-1
 1200a94:	dfc14917 	ldw	ra,1316(sp)
 1200a98:	df014817 	ldw	fp,1312(sp)
 1200a9c:	ddc14717 	ldw	r23,1308(sp)
 1200aa0:	dd814617 	ldw	r22,1304(sp)
 1200aa4:	dd414517 	ldw	r21,1300(sp)
 1200aa8:	dd014417 	ldw	r20,1296(sp)
 1200aac:	dcc14317 	ldw	r19,1292(sp)
 1200ab0:	dc814217 	ldw	r18,1288(sp)
 1200ab4:	dc414117 	ldw	r17,1284(sp)
 1200ab8:	dc014017 	ldw	r16,1280(sp)
 1200abc:	dec14a04 	addi	sp,sp,1320
 1200ac0:	f800283a 	ret
 1200ac4:	b009883a 	mov	r4,r22
 1200ac8:	b80b883a 	mov	r5,r23
 1200acc:	d9811e04 	addi	r6,sp,1144
 1200ad0:	1206f9c0 	call	1206f9c <__sprint_r>
 1200ad4:	1000081e 	bne	r2,zero,1200af8 <___vfprintf_internal_r+0x45c>
 1200ad8:	da000404 	addi	r8,sp,16
 1200adc:	003f4606 	br	12007f8 <__alt_mem_instruction_tcm+0xff2007f8>
 1200ae0:	d8812017 	ldw	r2,1152(sp)
 1200ae4:	10000426 	beq	r2,zero,1200af8 <___vfprintf_internal_r+0x45c>
 1200ae8:	b009883a 	mov	r4,r22
 1200aec:	b80b883a 	mov	r5,r23
 1200af0:	d9811e04 	addi	r6,sp,1144
 1200af4:	1206f9c0 	call	1206f9c <__sprint_r>
 1200af8:	b880030b 	ldhu	r2,12(r23)
 1200afc:	1080100c 	andi	r2,r2,64
 1200b00:	103fe31e 	bne	r2,zero,1200a90 <__alt_mem_instruction_tcm+0xff200a90>
 1200b04:	d8812f17 	ldw	r2,1212(sp)
 1200b08:	003fe206 	br	1200a94 <__alt_mem_instruction_tcm+0xff200a94>
 1200b0c:	b009883a 	mov	r4,r22
 1200b10:	12046bc0 	call	12046bc <__sinit>
 1200b14:	003ef906 	br	12006fc <__alt_mem_instruction_tcm+0xff2006fc>
 1200b18:	dc012a17 	ldw	r16,1192(sp)
 1200b1c:	003f3906 	br	1200804 <__alt_mem_instruction_tcm+0xff200804>
 1200b20:	1805883a 	mov	r2,r3
 1200b24:	8c400114 	ori	r17,r17,4
 1200b28:	1c000007 	ldb	r16,0(r3)
 1200b2c:	003f4206 	br	1200838 <__alt_mem_instruction_tcm+0xff200838>
 1200b30:	1c000007 	ldb	r16,0(r3)
 1200b34:	18800044 	addi	r2,r3,1
 1200b38:	8286b326 	beq	r16,r10,1202608 <___vfprintf_internal_r+0x1f6c>
 1200b3c:	82fff404 	addi	r11,r16,-48
 1200b40:	1007883a 	mov	r3,r2
 1200b44:	0013883a 	mov	r9,zero
 1200b48:	2aff3c36 	bltu	r5,r11,120083c <__alt_mem_instruction_tcm+0xff20083c>
 1200b4c:	1c000007 	ldb	r16,0(r3)
 1200b50:	4a4002a4 	muli	r9,r9,10
 1200b54:	18c00044 	addi	r3,r3,1
 1200b58:	5a53883a 	add	r9,r11,r9
 1200b5c:	82fff404 	addi	r11,r16,-48
 1200b60:	2afffa2e 	bgeu	r5,r11,1200b4c <__alt_mem_instruction_tcm+0xff200b4c>
 1200b64:	483f350e 	bge	r9,zero,120083c <__alt_mem_instruction_tcm+0xff20083c>
 1200b68:	027fffc4 	movi	r9,-1
 1200b6c:	003f3306 	br	120083c <__alt_mem_instruction_tcm+0xff20083c>
 1200b70:	8c402014 	ori	r17,r17,128
 1200b74:	1805883a 	mov	r2,r3
 1200b78:	1c000007 	ldb	r16,0(r3)
 1200b7c:	003f2e06 	br	1200838 <__alt_mem_instruction_tcm+0xff200838>
 1200b80:	db012d17 	ldw	r12,1204(sp)
 1200b84:	dac12d17 	ldw	r11,1204(sp)
 1200b88:	d8c12a15 	stw	r3,1192(sp)
 1200b8c:	63000017 	ldw	r12,0(r12)
 1200b90:	5ac00117 	ldw	r11,4(r11)
 1200b94:	d9812785 	stb	r6,1182(sp)
 1200b98:	6009883a 	mov	r4,r12
 1200b9c:	580b883a 	mov	r5,r11
 1200ba0:	db013715 	stw	r12,1244(sp)
 1200ba4:	da013f15 	stw	r8,1276(sp)
 1200ba8:	da413e15 	stw	r9,1272(sp)
 1200bac:	dac13915 	stw	r11,1252(sp)
 1200bb0:	1206b600 	call	1206b60 <__fpclassifyd>
 1200bb4:	db012d17 	ldw	r12,1204(sp)
 1200bb8:	04800044 	movi	r18,1
 1200bbc:	da013f17 	ldw	r8,1276(sp)
 1200bc0:	64c00204 	addi	r19,r12,8
 1200bc4:	da413e17 	ldw	r9,1272(sp)
 1200bc8:	d9013717 	ldw	r4,1244(sp)
 1200bcc:	d9413917 	ldw	r5,1252(sp)
 1200bd0:	1484581e 	bne	r2,r18,1201d34 <___vfprintf_internal_r+0x1698>
 1200bd4:	000d883a 	mov	r6,zero
 1200bd8:	000f883a 	mov	r7,zero
 1200bdc:	120b6880 	call	120b688 <__ledf2>
 1200be0:	da013f17 	ldw	r8,1276(sp)
 1200be4:	1005ef16 	blt	r2,zero,12023a4 <___vfprintf_internal_r+0x1d08>
 1200be8:	dd412783 	ldbu	r21,1182(sp)
 1200bec:	008011c4 	movi	r2,71
 1200bf0:	14053b0e 	bge	r2,r16,12020e0 <___vfprintf_internal_r+0x1a44>
 1200bf4:	00c04874 	movhi	r3,289
 1200bf8:	18c7d604 	addi	r3,r3,8024
 1200bfc:	d8c13115 	stw	r3,1220(sp)
 1200c00:	02c000c4 	movi	r11,3
 1200c04:	00bfdfc4 	movi	r2,-129
 1200c08:	dac12b15 	stw	r11,1196(sp)
 1200c0c:	88a2703a 	and	r17,r17,r2
 1200c10:	dcc12d15 	stw	r19,1204(sp)
 1200c14:	5825883a 	mov	r18,r11
 1200c18:	d8013215 	stw	zero,1224(sp)
 1200c1c:	d8013415 	stw	zero,1232(sp)
 1200c20:	00003206 	br	1200cec <___vfprintf_internal_r+0x650>
 1200c24:	8c400214 	ori	r17,r17,8
 1200c28:	1805883a 	mov	r2,r3
 1200c2c:	1c000007 	ldb	r16,0(r3)
 1200c30:	003f0106 	br	1200838 <__alt_mem_instruction_tcm+0xff200838>
 1200c34:	8c400414 	ori	r17,r17,16
 1200c38:	d8c12a15 	stw	r3,1192(sp)
 1200c3c:	88c0080c 	andi	r3,r17,32
 1200c40:	d8812d17 	ldw	r2,1204(sp)
 1200c44:	18017726 	beq	r3,zero,1201224 <___vfprintf_internal_r+0xb88>
 1200c48:	db012d17 	ldw	r12,1204(sp)
 1200c4c:	14c00017 	ldw	r19,0(r2)
 1200c50:	17000117 	ldw	fp,4(r2)
 1200c54:	63000204 	addi	r12,r12,8
 1200c58:	db012d15 	stw	r12,1204(sp)
 1200c5c:	0005883a 	mov	r2,zero
 1200c60:	9f06b03a 	or	r3,r19,fp
 1200c64:	d8012785 	stb	zero,1182(sp)
 1200c68:	da413215 	stw	r9,1224(sp)
 1200c6c:	002b883a 	mov	r21,zero
 1200c70:	48000216 	blt	r9,zero,1200c7c <___vfprintf_internal_r+0x5e0>
 1200c74:	013fdfc4 	movi	r4,-129
 1200c78:	8922703a 	and	r17,r17,r4
 1200c7c:	1801ed1e 	bne	r3,zero,1201434 <___vfprintf_internal_r+0xd98>
 1200c80:	4802e026 	beq	r9,zero,1201804 <___vfprintf_internal_r+0x1168>
 1200c84:	10803fcc 	andi	r2,r2,255
 1200c88:	00c00044 	movi	r3,1
 1200c8c:	10c20f26 	beq	r2,r3,12014cc <___vfprintf_internal_r+0xe30>
 1200c90:	00c00084 	movi	r3,2
 1200c94:	10c2fd26 	beq	r2,r3,120188c <___vfprintf_internal_r+0x11f0>
 1200c98:	d8c10e04 	addi	r3,sp,1080
 1200c9c:	9808d0fa 	srli	r4,r19,3
 1200ca0:	e00a977a 	slli	r5,fp,29
 1200ca4:	e038d0fa 	srli	fp,fp,3
 1200ca8:	9cc001cc 	andi	r19,r19,7
 1200cac:	98800c04 	addi	r2,r19,48
 1200cb0:	18ffffc4 	addi	r3,r3,-1
 1200cb4:	2926b03a 	or	r19,r5,r4
 1200cb8:	18800005 	stb	r2,0(r3)
 1200cbc:	9f08b03a 	or	r4,r19,fp
 1200cc0:	203ff61e 	bne	r4,zero,1200c9c <__alt_mem_instruction_tcm+0xff200c9c>
 1200cc4:	8900004c 	andi	r4,r17,1
 1200cc8:	d8c13115 	stw	r3,1220(sp)
 1200ccc:	2003791e 	bne	r4,zero,1201ab4 <___vfprintf_internal_r+0x1418>
 1200cd0:	dac12817 	ldw	r11,1184(sp)
 1200cd4:	58e5c83a 	sub	r18,r11,r3
 1200cd8:	9005883a 	mov	r2,r18
 1200cdc:	9240010e 	bge	r18,r9,1200ce4 <___vfprintf_internal_r+0x648>
 1200ce0:	4805883a 	mov	r2,r9
 1200ce4:	d8812b15 	stw	r2,1196(sp)
 1200ce8:	d8013415 	stw	zero,1232(sp)
 1200cec:	a8803fcc 	andi	r2,r21,255
 1200cf0:	1080201c 	xori	r2,r2,128
 1200cf4:	10bfe004 	addi	r2,r2,-128
 1200cf8:	10000326 	beq	r2,zero,1200d08 <___vfprintf_internal_r+0x66c>
 1200cfc:	db012b17 	ldw	r12,1196(sp)
 1200d00:	63000044 	addi	r12,r12,1
 1200d04:	db012b15 	stw	r12,1196(sp)
 1200d08:	88c0008c 	andi	r3,r17,2
 1200d0c:	d8c12c15 	stw	r3,1200(sp)
 1200d10:	18000326 	beq	r3,zero,1200d20 <___vfprintf_internal_r+0x684>
 1200d14:	dac12b17 	ldw	r11,1196(sp)
 1200d18:	5ac00084 	addi	r11,r11,2
 1200d1c:	dac12b15 	stw	r11,1196(sp)
 1200d20:	8b00210c 	andi	r12,r17,132
 1200d24:	db013015 	stw	r12,1216(sp)
 1200d28:	6001c01e 	bne	r12,zero,120142c <___vfprintf_internal_r+0xd90>
 1200d2c:	dac12e17 	ldw	r11,1208(sp)
 1200d30:	db012b17 	ldw	r12,1196(sp)
 1200d34:	5b39c83a 	sub	fp,r11,r12
 1200d38:	0701bc0e 	bge	zero,fp,120142c <___vfprintf_internal_r+0xd90>
 1200d3c:	02400404 	movi	r9,16
 1200d40:	d8c12017 	ldw	r3,1152(sp)
 1200d44:	d8811f17 	ldw	r2,1148(sp)
 1200d48:	4f05220e 	bge	r9,fp,12021d4 <___vfprintf_internal_r+0x1b38>
 1200d4c:	01404874 	movhi	r5,289
 1200d50:	2947e984 	addi	r5,r5,8102
 1200d54:	d9413615 	stw	r5,1240(sp)
 1200d58:	482b883a 	mov	r21,r9
 1200d5c:	04c001c4 	movi	r19,7
 1200d60:	00000306 	br	1200d70 <___vfprintf_internal_r+0x6d4>
 1200d64:	e73ffc04 	addi	fp,fp,-16
 1200d68:	42000204 	addi	r8,r8,8
 1200d6c:	af00130e 	bge	r21,fp,1200dbc <___vfprintf_internal_r+0x720>
 1200d70:	02c04874 	movhi	r11,289
 1200d74:	18c00404 	addi	r3,r3,16
 1200d78:	10800044 	addi	r2,r2,1
 1200d7c:	5ac7e984 	addi	r11,r11,8102
 1200d80:	42c00015 	stw	r11,0(r8)
 1200d84:	45400115 	stw	r21,4(r8)
 1200d88:	d8c12015 	stw	r3,1152(sp)
 1200d8c:	d8811f15 	stw	r2,1148(sp)
 1200d90:	98bff40e 	bge	r19,r2,1200d64 <__alt_mem_instruction_tcm+0xff200d64>
 1200d94:	b009883a 	mov	r4,r22
 1200d98:	b80b883a 	mov	r5,r23
 1200d9c:	d9811e04 	addi	r6,sp,1144
 1200da0:	1206f9c0 	call	1206f9c <__sprint_r>
 1200da4:	103f541e 	bne	r2,zero,1200af8 <__alt_mem_instruction_tcm+0xff200af8>
 1200da8:	e73ffc04 	addi	fp,fp,-16
 1200dac:	d8c12017 	ldw	r3,1152(sp)
 1200db0:	d8811f17 	ldw	r2,1148(sp)
 1200db4:	da000404 	addi	r8,sp,16
 1200db8:	af3fed16 	blt	r21,fp,1200d70 <__alt_mem_instruction_tcm+0xff200d70>
 1200dbc:	db013617 	ldw	r12,1240(sp)
 1200dc0:	e0c7883a 	add	r3,fp,r3
 1200dc4:	10800044 	addi	r2,r2,1
 1200dc8:	43000015 	stw	r12,0(r8)
 1200dcc:	47000115 	stw	fp,4(r8)
 1200dd0:	d8c12015 	stw	r3,1152(sp)
 1200dd4:	d8811f15 	stw	r2,1148(sp)
 1200dd8:	010001c4 	movi	r4,7
 1200ddc:	2082f416 	blt	r4,r2,12019b0 <___vfprintf_internal_r+0x1314>
 1200de0:	d8812787 	ldb	r2,1182(sp)
 1200de4:	42000204 	addi	r8,r8,8
 1200de8:	10000c26 	beq	r2,zero,1200e1c <___vfprintf_internal_r+0x780>
 1200dec:	d8811f17 	ldw	r2,1148(sp)
 1200df0:	d9012784 	addi	r4,sp,1182
 1200df4:	18c00044 	addi	r3,r3,1
 1200df8:	10800044 	addi	r2,r2,1
 1200dfc:	41000015 	stw	r4,0(r8)
 1200e00:	01000044 	movi	r4,1
 1200e04:	41000115 	stw	r4,4(r8)
 1200e08:	d8c12015 	stw	r3,1152(sp)
 1200e0c:	d8811f15 	stw	r2,1148(sp)
 1200e10:	010001c4 	movi	r4,7
 1200e14:	20828d16 	blt	r4,r2,120184c <___vfprintf_internal_r+0x11b0>
 1200e18:	42000204 	addi	r8,r8,8
 1200e1c:	dac12c17 	ldw	r11,1200(sp)
 1200e20:	58000c26 	beq	r11,zero,1200e54 <___vfprintf_internal_r+0x7b8>
 1200e24:	d8811f17 	ldw	r2,1148(sp)
 1200e28:	d9012704 	addi	r4,sp,1180
 1200e2c:	18c00084 	addi	r3,r3,2
 1200e30:	10800044 	addi	r2,r2,1
 1200e34:	41000015 	stw	r4,0(r8)
 1200e38:	01000084 	movi	r4,2
 1200e3c:	41000115 	stw	r4,4(r8)
 1200e40:	d8c12015 	stw	r3,1152(sp)
 1200e44:	d8811f15 	stw	r2,1148(sp)
 1200e48:	010001c4 	movi	r4,7
 1200e4c:	20828716 	blt	r4,r2,120186c <___vfprintf_internal_r+0x11d0>
 1200e50:	42000204 	addi	r8,r8,8
 1200e54:	db013017 	ldw	r12,1216(sp)
 1200e58:	00802004 	movi	r2,128
 1200e5c:	6081e926 	beq	r12,r2,1201604 <___vfprintf_internal_r+0xf68>
 1200e60:	db013217 	ldw	r12,1224(sp)
 1200e64:	64abc83a 	sub	r21,r12,r18
 1200e68:	0540260e 	bge	zero,r21,1200f04 <___vfprintf_internal_r+0x868>
 1200e6c:	07000404 	movi	fp,16
 1200e70:	d8811f17 	ldw	r2,1148(sp)
 1200e74:	e5443d0e 	bge	fp,r21,1201f6c <___vfprintf_internal_r+0x18d0>
 1200e78:	01404874 	movhi	r5,289
 1200e7c:	2947e584 	addi	r5,r5,8086
 1200e80:	d9412c15 	stw	r5,1200(sp)
 1200e84:	04c001c4 	movi	r19,7
 1200e88:	00000306 	br	1200e98 <___vfprintf_internal_r+0x7fc>
 1200e8c:	ad7ffc04 	addi	r21,r21,-16
 1200e90:	42000204 	addi	r8,r8,8
 1200e94:	e540110e 	bge	fp,r21,1200edc <___vfprintf_internal_r+0x840>
 1200e98:	18c00404 	addi	r3,r3,16
 1200e9c:	10800044 	addi	r2,r2,1
 1200ea0:	45000015 	stw	r20,0(r8)
 1200ea4:	47000115 	stw	fp,4(r8)
 1200ea8:	d8c12015 	stw	r3,1152(sp)
 1200eac:	d8811f15 	stw	r2,1148(sp)
 1200eb0:	98bff60e 	bge	r19,r2,1200e8c <__alt_mem_instruction_tcm+0xff200e8c>
 1200eb4:	b009883a 	mov	r4,r22
 1200eb8:	b80b883a 	mov	r5,r23
 1200ebc:	d9811e04 	addi	r6,sp,1144
 1200ec0:	1206f9c0 	call	1206f9c <__sprint_r>
 1200ec4:	103f0c1e 	bne	r2,zero,1200af8 <__alt_mem_instruction_tcm+0xff200af8>
 1200ec8:	ad7ffc04 	addi	r21,r21,-16
 1200ecc:	d8c12017 	ldw	r3,1152(sp)
 1200ed0:	d8811f17 	ldw	r2,1148(sp)
 1200ed4:	da000404 	addi	r8,sp,16
 1200ed8:	e57fef16 	blt	fp,r21,1200e98 <__alt_mem_instruction_tcm+0xff200e98>
 1200edc:	dac12c17 	ldw	r11,1200(sp)
 1200ee0:	1d47883a 	add	r3,r3,r21
 1200ee4:	10800044 	addi	r2,r2,1
 1200ee8:	42c00015 	stw	r11,0(r8)
 1200eec:	45400115 	stw	r21,4(r8)
 1200ef0:	d8c12015 	stw	r3,1152(sp)
 1200ef4:	d8811f15 	stw	r2,1148(sp)
 1200ef8:	010001c4 	movi	r4,7
 1200efc:	20824b16 	blt	r4,r2,120182c <___vfprintf_internal_r+0x1190>
 1200f00:	42000204 	addi	r8,r8,8
 1200f04:	8880400c 	andi	r2,r17,256
 1200f08:	1001761e 	bne	r2,zero,12014e4 <___vfprintf_internal_r+0xe48>
 1200f0c:	d8811f17 	ldw	r2,1148(sp)
 1200f10:	db013117 	ldw	r12,1220(sp)
 1200f14:	1c87883a 	add	r3,r3,r18
 1200f18:	10800044 	addi	r2,r2,1
 1200f1c:	43000015 	stw	r12,0(r8)
 1200f20:	44800115 	stw	r18,4(r8)
 1200f24:	d8c12015 	stw	r3,1152(sp)
 1200f28:	d8811f15 	stw	r2,1148(sp)
 1200f2c:	010001c4 	movi	r4,7
 1200f30:	20822616 	blt	r4,r2,12017cc <___vfprintf_internal_r+0x1130>
 1200f34:	42000204 	addi	r8,r8,8
 1200f38:	8c40010c 	andi	r17,r17,4
 1200f3c:	88003126 	beq	r17,zero,1201004 <___vfprintf_internal_r+0x968>
 1200f40:	db012e17 	ldw	r12,1208(sp)
 1200f44:	dac12b17 	ldw	r11,1196(sp)
 1200f48:	62e1c83a 	sub	r16,r12,r11
 1200f4c:	04002d0e 	bge	zero,r16,1201004 <___vfprintf_internal_r+0x968>
 1200f50:	04400404 	movi	r17,16
 1200f54:	d8811f17 	ldw	r2,1148(sp)
 1200f58:	8c04df0e 	bge	r17,r16,12022d8 <___vfprintf_internal_r+0x1c3c>
 1200f5c:	01004874 	movhi	r4,289
 1200f60:	2107e984 	addi	r4,r4,8102
 1200f64:	d9013615 	stw	r4,1240(sp)
 1200f68:	048001c4 	movi	r18,7
 1200f6c:	00000306 	br	1200f7c <___vfprintf_internal_r+0x8e0>
 1200f70:	843ffc04 	addi	r16,r16,-16
 1200f74:	42000204 	addi	r8,r8,8
 1200f78:	8c00130e 	bge	r17,r16,1200fc8 <___vfprintf_internal_r+0x92c>
 1200f7c:	01404874 	movhi	r5,289
 1200f80:	18c00404 	addi	r3,r3,16
 1200f84:	10800044 	addi	r2,r2,1
 1200f88:	2947e984 	addi	r5,r5,8102
 1200f8c:	41400015 	stw	r5,0(r8)
 1200f90:	44400115 	stw	r17,4(r8)
 1200f94:	d8c12015 	stw	r3,1152(sp)
 1200f98:	d8811f15 	stw	r2,1148(sp)
 1200f9c:	90bff40e 	bge	r18,r2,1200f70 <__alt_mem_instruction_tcm+0xff200f70>
 1200fa0:	b009883a 	mov	r4,r22
 1200fa4:	b80b883a 	mov	r5,r23
 1200fa8:	d9811e04 	addi	r6,sp,1144
 1200fac:	1206f9c0 	call	1206f9c <__sprint_r>
 1200fb0:	103ed11e 	bne	r2,zero,1200af8 <__alt_mem_instruction_tcm+0xff200af8>
 1200fb4:	843ffc04 	addi	r16,r16,-16
 1200fb8:	d8c12017 	ldw	r3,1152(sp)
 1200fbc:	d8811f17 	ldw	r2,1148(sp)
 1200fc0:	da000404 	addi	r8,sp,16
 1200fc4:	8c3fed16 	blt	r17,r16,1200f7c <__alt_mem_instruction_tcm+0xff200f7c>
 1200fc8:	dac13617 	ldw	r11,1240(sp)
 1200fcc:	1c07883a 	add	r3,r3,r16
 1200fd0:	10800044 	addi	r2,r2,1
 1200fd4:	42c00015 	stw	r11,0(r8)
 1200fd8:	44000115 	stw	r16,4(r8)
 1200fdc:	d8c12015 	stw	r3,1152(sp)
 1200fe0:	d8811f15 	stw	r2,1148(sp)
 1200fe4:	010001c4 	movi	r4,7
 1200fe8:	2080060e 	bge	r4,r2,1201004 <___vfprintf_internal_r+0x968>
 1200fec:	b009883a 	mov	r4,r22
 1200ff0:	b80b883a 	mov	r5,r23
 1200ff4:	d9811e04 	addi	r6,sp,1144
 1200ff8:	1206f9c0 	call	1206f9c <__sprint_r>
 1200ffc:	103ebe1e 	bne	r2,zero,1200af8 <__alt_mem_instruction_tcm+0xff200af8>
 1201000:	d8c12017 	ldw	r3,1152(sp)
 1201004:	d8812b17 	ldw	r2,1196(sp)
 1201008:	db012e17 	ldw	r12,1208(sp)
 120100c:	1300010e 	bge	r2,r12,1201014 <___vfprintf_internal_r+0x978>
 1201010:	6005883a 	mov	r2,r12
 1201014:	dac12f17 	ldw	r11,1212(sp)
 1201018:	5897883a 	add	r11,r11,r2
 120101c:	dac12f15 	stw	r11,1212(sp)
 1201020:	1801f21e 	bne	r3,zero,12017ec <___vfprintf_internal_r+0x1150>
 1201024:	d8011f15 	stw	zero,1148(sp)
 1201028:	da000404 	addi	r8,sp,16
 120102c:	003dd806 	br	1200790 <__alt_mem_instruction_tcm+0xff200790>
 1201030:	8c400414 	ori	r17,r17,16
 1201034:	d8c12a15 	stw	r3,1192(sp)
 1201038:	88c0080c 	andi	r3,r17,32
 120103c:	d8812d17 	ldw	r2,1204(sp)
 1201040:	18004626 	beq	r3,zero,120115c <___vfprintf_internal_r+0xac0>
 1201044:	dac12d17 	ldw	r11,1204(sp)
 1201048:	14c00017 	ldw	r19,0(r2)
 120104c:	17000117 	ldw	fp,4(r2)
 1201050:	5ac00204 	addi	r11,r11,8
 1201054:	dac12d15 	stw	r11,1204(sp)
 1201058:	00800044 	movi	r2,1
 120105c:	9f06b03a 	or	r3,r19,fp
 1201060:	003f0006 	br	1200c64 <__alt_mem_instruction_tcm+0xff200c64>
 1201064:	1805883a 	mov	r2,r3
 1201068:	d8012e15 	stw	zero,1208(sp)
 120106c:	82fff404 	addi	r11,r16,-48
 1201070:	0019883a 	mov	r12,zero
 1201074:	14000007 	ldb	r16,0(r2)
 1201078:	630002a4 	muli	r12,r12,10
 120107c:	18c00044 	addi	r3,r3,1
 1201080:	1805883a 	mov	r2,r3
 1201084:	62d9883a 	add	r12,r12,r11
 1201088:	82fff404 	addi	r11,r16,-48
 120108c:	2afff92e 	bgeu	r5,r11,1201074 <__alt_mem_instruction_tcm+0xff201074>
 1201090:	db012e15 	stw	r12,1208(sp)
 1201094:	003de906 	br	120083c <__alt_mem_instruction_tcm+0xff20083c>
 1201098:	8c400414 	ori	r17,r17,16
 120109c:	d8c12a15 	stw	r3,1192(sp)
 12010a0:	d9812785 	stb	r6,1182(sp)
 12010a4:	8880080c 	andi	r2,r17,32
 12010a8:	d8c12d17 	ldw	r3,1204(sp)
 12010ac:	10007a26 	beq	r2,zero,1201298 <___vfprintf_internal_r+0xbfc>
 12010b0:	db012d17 	ldw	r12,1204(sp)
 12010b4:	18800117 	ldw	r2,4(r3)
 12010b8:	1cc00017 	ldw	r19,0(r3)
 12010bc:	63000204 	addi	r12,r12,8
 12010c0:	db012d15 	stw	r12,1204(sp)
 12010c4:	1039883a 	mov	fp,r2
 12010c8:	10031016 	blt	r2,zero,1201d0c <___vfprintf_internal_r+0x1670>
 12010cc:	dd412783 	ldbu	r21,1182(sp)
 12010d0:	da413215 	stw	r9,1224(sp)
 12010d4:	00800044 	movi	r2,1
 12010d8:	9f06b03a 	or	r3,r19,fp
 12010dc:	003ee406 	br	1200c70 <__alt_mem_instruction_tcm+0xff200c70>
 12010e0:	03004874 	movhi	r12,289
 12010e4:	6307d904 	addi	r12,r12,8036
 12010e8:	d8c12a15 	stw	r3,1192(sp)
 12010ec:	d9812785 	stb	r6,1182(sp)
 12010f0:	db013b15 	stw	r12,1260(sp)
 12010f4:	88c0080c 	andi	r3,r17,32
 12010f8:	d8812d17 	ldw	r2,1204(sp)
 12010fc:	18002b26 	beq	r3,zero,12011ac <___vfprintf_internal_r+0xb10>
 1201100:	dac12d17 	ldw	r11,1204(sp)
 1201104:	14c00017 	ldw	r19,0(r2)
 1201108:	17000117 	ldw	fp,4(r2)
 120110c:	5ac00204 	addi	r11,r11,8
 1201110:	dac12d15 	stw	r11,1204(sp)
 1201114:	8880004c 	andi	r2,r17,1
 1201118:	10025b26 	beq	r2,zero,1201a88 <___vfprintf_internal_r+0x13ec>
 120111c:	9f06b03a 	or	r3,r19,fp
 1201120:	18037026 	beq	r3,zero,1201ee4 <___vfprintf_internal_r+0x1848>
 1201124:	00800c04 	movi	r2,48
 1201128:	d8812705 	stb	r2,1180(sp)
 120112c:	dc012745 	stb	r16,1181(sp)
 1201130:	8c400094 	ori	r17,r17,2
 1201134:	00800084 	movi	r2,2
 1201138:	003eca06 	br	1200c64 <__alt_mem_instruction_tcm+0xff200c64>
 120113c:	8c400814 	ori	r17,r17,32
 1201140:	1805883a 	mov	r2,r3
 1201144:	1c000007 	ldb	r16,0(r3)
 1201148:	003dbb06 	br	1200838 <__alt_mem_instruction_tcm+0xff200838>
 120114c:	d8c12a15 	stw	r3,1192(sp)
 1201150:	88c0080c 	andi	r3,r17,32
 1201154:	d8812d17 	ldw	r2,1204(sp)
 1201158:	183fba1e 	bne	r3,zero,1201044 <__alt_mem_instruction_tcm+0xff201044>
 120115c:	88c0040c 	andi	r3,r17,16
 1201160:	18024c1e 	bne	r3,zero,1201a94 <___vfprintf_internal_r+0x13f8>
 1201164:	88c0100c 	andi	r3,r17,64
 1201168:	18024a26 	beq	r3,zero,1201a94 <___vfprintf_internal_r+0x13f8>
 120116c:	dac12d17 	ldw	r11,1204(sp)
 1201170:	14c0000b 	ldhu	r19,0(r2)
 1201174:	0039883a 	mov	fp,zero
 1201178:	5ac00104 	addi	r11,r11,4
 120117c:	dac12d15 	stw	r11,1204(sp)
 1201180:	00800044 	movi	r2,1
 1201184:	9807883a 	mov	r3,r19
 1201188:	003eb606 	br	1200c64 <__alt_mem_instruction_tcm+0xff200c64>
 120118c:	00804874 	movhi	r2,289
 1201190:	1087de04 	addi	r2,r2,8056
 1201194:	d8c12a15 	stw	r3,1192(sp)
 1201198:	d8813b15 	stw	r2,1260(sp)
 120119c:	d9812785 	stb	r6,1182(sp)
 12011a0:	88c0080c 	andi	r3,r17,32
 12011a4:	d8812d17 	ldw	r2,1204(sp)
 12011a8:	183fd51e 	bne	r3,zero,1201100 <__alt_mem_instruction_tcm+0xff201100>
 12011ac:	88c0040c 	andi	r3,r17,16
 12011b0:	18034126 	beq	r3,zero,1201eb8 <___vfprintf_internal_r+0x181c>
 12011b4:	db012d17 	ldw	r12,1204(sp)
 12011b8:	14c00017 	ldw	r19,0(r2)
 12011bc:	0039883a 	mov	fp,zero
 12011c0:	63000104 	addi	r12,r12,4
 12011c4:	db012d15 	stw	r12,1204(sp)
 12011c8:	003fd206 	br	1201114 <__alt_mem_instruction_tcm+0xff201114>
 12011cc:	1c000007 	ldb	r16,0(r3)
 12011d0:	81c3d626 	beq	r16,r7,120212c <___vfprintf_internal_r+0x1a90>
 12011d4:	8c400414 	ori	r17,r17,16
 12011d8:	1805883a 	mov	r2,r3
 12011dc:	003d9606 	br	1200838 <__alt_mem_instruction_tcm+0xff200838>
 12011e0:	d8c12a15 	stw	r3,1192(sp)
 12011e4:	d9812785 	stb	r6,1182(sp)
 12011e8:	8880080c 	andi	r2,r17,32
 12011ec:	10033f26 	beq	r2,zero,1201eec <___vfprintf_internal_r+0x1850>
 12011f0:	db012d17 	ldw	r12,1204(sp)
 12011f4:	dac12f17 	ldw	r11,1212(sp)
 12011f8:	60800017 	ldw	r2,0(r12)
 12011fc:	5807d7fa 	srai	r3,r11,31
 1201200:	63000104 	addi	r12,r12,4
 1201204:	db012d15 	stw	r12,1204(sp)
 1201208:	12c00015 	stw	r11,0(r2)
 120120c:	10c00115 	stw	r3,4(r2)
 1201210:	003d5f06 	br	1200790 <__alt_mem_instruction_tcm+0xff200790>
 1201214:	d8c12a15 	stw	r3,1192(sp)
 1201218:	88c0080c 	andi	r3,r17,32
 120121c:	d8812d17 	ldw	r2,1204(sp)
 1201220:	183e891e 	bne	r3,zero,1200c48 <__alt_mem_instruction_tcm+0xff200c48>
 1201224:	88c0040c 	andi	r3,r17,16
 1201228:	1801ea1e 	bne	r3,zero,12019d4 <___vfprintf_internal_r+0x1338>
 120122c:	88c0100c 	andi	r3,r17,64
 1201230:	1801e826 	beq	r3,zero,12019d4 <___vfprintf_internal_r+0x1338>
 1201234:	db012d17 	ldw	r12,1204(sp)
 1201238:	14c0000b 	ldhu	r19,0(r2)
 120123c:	0039883a 	mov	fp,zero
 1201240:	63000104 	addi	r12,r12,4
 1201244:	db012d15 	stw	r12,1204(sp)
 1201248:	0005883a 	mov	r2,zero
 120124c:	9807883a 	mov	r3,r19
 1201250:	003e8406 	br	1200c64 <__alt_mem_instruction_tcm+0xff200c64>
 1201254:	30803fcc 	andi	r2,r6,255
 1201258:	1080201c 	xori	r2,r2,128
 120125c:	10bfe004 	addi	r2,r2,-128
 1201260:	10031d1e 	bne	r2,zero,1201ed8 <___vfprintf_internal_r+0x183c>
 1201264:	1805883a 	mov	r2,r3
 1201268:	01800804 	movi	r6,32
 120126c:	1c000007 	ldb	r16,0(r3)
 1201270:	003d7106 	br	1200838 <__alt_mem_instruction_tcm+0xff200838>
 1201274:	8c400054 	ori	r17,r17,1
 1201278:	1805883a 	mov	r2,r3
 120127c:	1c000007 	ldb	r16,0(r3)
 1201280:	003d6d06 	br	1200838 <__alt_mem_instruction_tcm+0xff200838>
 1201284:	d8c12a15 	stw	r3,1192(sp)
 1201288:	d9812785 	stb	r6,1182(sp)
 120128c:	8880080c 	andi	r2,r17,32
 1201290:	d8c12d17 	ldw	r3,1204(sp)
 1201294:	103f861e 	bne	r2,zero,12010b0 <__alt_mem_instruction_tcm+0xff2010b0>
 1201298:	8880040c 	andi	r2,r17,16
 120129c:	1001f31e 	bne	r2,zero,1201a6c <___vfprintf_internal_r+0x13d0>
 12012a0:	8880100c 	andi	r2,r17,64
 12012a4:	1001f126 	beq	r2,zero,1201a6c <___vfprintf_internal_r+0x13d0>
 12012a8:	1cc0000f 	ldh	r19,0(r3)
 12012ac:	db012d17 	ldw	r12,1204(sp)
 12012b0:	9839d7fa 	srai	fp,r19,31
 12012b4:	63000104 	addi	r12,r12,4
 12012b8:	db012d15 	stw	r12,1204(sp)
 12012bc:	e005883a 	mov	r2,fp
 12012c0:	003f8106 	br	12010c8 <__alt_mem_instruction_tcm+0xff2010c8>
 12012c4:	8c401014 	ori	r17,r17,64
 12012c8:	1805883a 	mov	r2,r3
 12012cc:	1c000007 	ldb	r16,0(r3)
 12012d0:	003d5906 	br	1200838 <__alt_mem_instruction_tcm+0xff200838>
 12012d4:	db012d17 	ldw	r12,1204(sp)
 12012d8:	d8c12a15 	stw	r3,1192(sp)
 12012dc:	00c00044 	movi	r3,1
 12012e0:	60800017 	ldw	r2,0(r12)
 12012e4:	63000104 	addi	r12,r12,4
 12012e8:	d8c12b15 	stw	r3,1196(sp)
 12012ec:	d8012785 	stb	zero,1182(sp)
 12012f0:	d8810405 	stb	r2,1040(sp)
 12012f4:	db012d15 	stw	r12,1204(sp)
 12012f8:	dac10404 	addi	r11,sp,1040
 12012fc:	1825883a 	mov	r18,r3
 1201300:	d8013215 	stw	zero,1224(sp)
 1201304:	d8013415 	stw	zero,1232(sp)
 1201308:	dac13115 	stw	r11,1220(sp)
 120130c:	0005883a 	mov	r2,zero
 1201310:	003e7d06 	br	1200d08 <__alt_mem_instruction_tcm+0xff200d08>
 1201314:	db012d17 	ldw	r12,1204(sp)
 1201318:	00800c04 	movi	r2,48
 120131c:	d8812705 	stb	r2,1180(sp)
 1201320:	64c00017 	ldw	r19,0(r12)
 1201324:	00801e04 	movi	r2,120
 1201328:	d8812745 	stb	r2,1181(sp)
 120132c:	00804874 	movhi	r2,289
 1201330:	1087de04 	addi	r2,r2,8056
 1201334:	63000104 	addi	r12,r12,4
 1201338:	d8c12a15 	stw	r3,1192(sp)
 120133c:	d8813b15 	stw	r2,1260(sp)
 1201340:	0039883a 	mov	fp,zero
 1201344:	8c400094 	ori	r17,r17,2
 1201348:	db012d15 	stw	r12,1204(sp)
 120134c:	00800084 	movi	r2,2
 1201350:	04001e04 	movi	r16,120
 1201354:	9807883a 	mov	r3,r19
 1201358:	003e4206 	br	1200c64 <__alt_mem_instruction_tcm+0xff200c64>
 120135c:	dac12d17 	ldw	r11,1204(sp)
 1201360:	db012d17 	ldw	r12,1204(sp)
 1201364:	d8c12a15 	stw	r3,1192(sp)
 1201368:	5ac00017 	ldw	r11,0(r11)
 120136c:	d8012785 	stb	zero,1182(sp)
 1201370:	64c00104 	addi	r19,r12,4
 1201374:	dac13115 	stw	r11,1220(sp)
 1201378:	5803e826 	beq	r11,zero,120231c <___vfprintf_internal_r+0x1c80>
 120137c:	d9013117 	ldw	r4,1220(sp)
 1201380:	48037a16 	blt	r9,zero,120216c <___vfprintf_internal_r+0x1ad0>
 1201384:	480d883a 	mov	r6,r9
 1201388:	000b883a 	mov	r5,zero
 120138c:	da013f15 	stw	r8,1276(sp)
 1201390:	da413e15 	stw	r9,1272(sp)
 1201394:	12057280 	call	1205728 <memchr>
 1201398:	da013f17 	ldw	r8,1276(sp)
 120139c:	da413e17 	ldw	r9,1272(sp)
 12013a0:	10044426 	beq	r2,zero,12024b4 <___vfprintf_internal_r+0x1e18>
 12013a4:	d8c13117 	ldw	r3,1220(sp)
 12013a8:	10e5c83a 	sub	r18,r2,r3
 12013ac:	4c834416 	blt	r9,r18,12020c0 <___vfprintf_internal_r+0x1a24>
 12013b0:	9005883a 	mov	r2,r18
 12013b4:	90037216 	blt	r18,zero,1202180 <___vfprintf_internal_r+0x1ae4>
 12013b8:	dd412783 	ldbu	r21,1182(sp)
 12013bc:	d8812b15 	stw	r2,1196(sp)
 12013c0:	dcc12d15 	stw	r19,1204(sp)
 12013c4:	d8013215 	stw	zero,1224(sp)
 12013c8:	d8013415 	stw	zero,1232(sp)
 12013cc:	003e4706 	br	1200cec <__alt_mem_instruction_tcm+0xff200cec>
 12013d0:	dac12d17 	ldw	r11,1204(sp)
 12013d4:	db012d17 	ldw	r12,1204(sp)
 12013d8:	5ac00017 	ldw	r11,0(r11)
 12013dc:	dac12e15 	stw	r11,1208(sp)
 12013e0:	62c00104 	addi	r11,r12,4
 12013e4:	db012e17 	ldw	r12,1208(sp)
 12013e8:	60034a16 	blt	r12,zero,1202114 <___vfprintf_internal_r+0x1a78>
 12013ec:	dac12d15 	stw	r11,1204(sp)
 12013f0:	1805883a 	mov	r2,r3
 12013f4:	1c000007 	ldb	r16,0(r3)
 12013f8:	003d0f06 	br	1200838 <__alt_mem_instruction_tcm+0xff200838>
 12013fc:	1805883a 	mov	r2,r3
 1201400:	01800ac4 	movi	r6,43
 1201404:	1c000007 	ldb	r16,0(r3)
 1201408:	003d0b06 	br	1200838 <__alt_mem_instruction_tcm+0xff200838>
 120140c:	d8c12a15 	stw	r3,1192(sp)
 1201410:	d9812785 	stb	r6,1182(sp)
 1201414:	803db226 	beq	r16,zero,1200ae0 <__alt_mem_instruction_tcm+0xff200ae0>
 1201418:	00c00044 	movi	r3,1
 120141c:	d8c12b15 	stw	r3,1196(sp)
 1201420:	dc010405 	stb	r16,1040(sp)
 1201424:	d8012785 	stb	zero,1182(sp)
 1201428:	003fb306 	br	12012f8 <__alt_mem_instruction_tcm+0xff2012f8>
 120142c:	d8c12017 	ldw	r3,1152(sp)
 1201430:	003e6d06 	br	1200de8 <__alt_mem_instruction_tcm+0xff200de8>
 1201434:	10803fcc 	andi	r2,r2,255
 1201438:	00c00044 	movi	r3,1
 120143c:	10fe141e 	bne	r2,r3,1200c90 <__alt_mem_instruction_tcm+0xff200c90>
 1201440:	e000021e 	bne	fp,zero,120144c <___vfprintf_internal_r+0xdb0>
 1201444:	00800244 	movi	r2,9
 1201448:	14c0202e 	bgeu	r2,r19,12014cc <___vfprintf_internal_r+0xe30>
 120144c:	dc012b15 	stw	r16,1196(sp)
 1201450:	dc412c15 	stw	r17,1200(sp)
 1201454:	9821883a 	mov	r16,r19
 1201458:	e023883a 	mov	r17,fp
 120145c:	dc810e04 	addi	r18,sp,1080
 1201460:	4027883a 	mov	r19,r8
 1201464:	4839883a 	mov	fp,r9
 1201468:	8009883a 	mov	r4,r16
 120146c:	880b883a 	mov	r5,r17
 1201470:	01800284 	movi	r6,10
 1201474:	000f883a 	mov	r7,zero
 1201478:	1209e2c0 	call	1209e2c <__umoddi3>
 120147c:	10800c04 	addi	r2,r2,48
 1201480:	94bfffc4 	addi	r18,r18,-1
 1201484:	8009883a 	mov	r4,r16
 1201488:	880b883a 	mov	r5,r17
 120148c:	01800284 	movi	r6,10
 1201490:	000f883a 	mov	r7,zero
 1201494:	90800005 	stb	r2,0(r18)
 1201498:	120986c0 	call	120986c <__udivdi3>
 120149c:	1021883a 	mov	r16,r2
 12014a0:	10c4b03a 	or	r2,r2,r3
 12014a4:	1823883a 	mov	r17,r3
 12014a8:	103fef1e 	bne	r2,zero,1201468 <__alt_mem_instruction_tcm+0xff201468>
 12014ac:	dac12817 	ldw	r11,1184(sp)
 12014b0:	dc813115 	stw	r18,1220(sp)
 12014b4:	dc012b17 	ldw	r16,1196(sp)
 12014b8:	9811883a 	mov	r8,r19
 12014bc:	dc412c17 	ldw	r17,1200(sp)
 12014c0:	e013883a 	mov	r9,fp
 12014c4:	5ca5c83a 	sub	r18,r11,r18
 12014c8:	003e0306 	br	1200cd8 <__alt_mem_instruction_tcm+0xff200cd8>
 12014cc:	9cc00c04 	addi	r19,r19,48
 12014d0:	d8c10dc4 	addi	r3,sp,1079
 12014d4:	dcc10dc5 	stb	r19,1079(sp)
 12014d8:	dc813c17 	ldw	r18,1264(sp)
 12014dc:	d8c13115 	stw	r3,1220(sp)
 12014e0:	003dfd06 	br	1200cd8 <__alt_mem_instruction_tcm+0xff200cd8>
 12014e4:	00801944 	movi	r2,101
 12014e8:	1400710e 	bge	r2,r16,12016b0 <___vfprintf_internal_r+0x1014>
 12014ec:	d9013717 	ldw	r4,1244(sp)
 12014f0:	d9413917 	ldw	r5,1252(sp)
 12014f4:	000d883a 	mov	r6,zero
 12014f8:	000f883a 	mov	r7,zero
 12014fc:	d8c13d15 	stw	r3,1268(sp)
 1201500:	da013f15 	stw	r8,1276(sp)
 1201504:	120b5240 	call	120b524 <__eqdf2>
 1201508:	d8c13d17 	ldw	r3,1268(sp)
 120150c:	da013f17 	ldw	r8,1276(sp)
 1201510:	1000ef1e 	bne	r2,zero,12018d0 <___vfprintf_internal_r+0x1234>
 1201514:	d8811f17 	ldw	r2,1148(sp)
 1201518:	01004874 	movhi	r4,289
 120151c:	2107e504 	addi	r4,r4,8084
 1201520:	18c00044 	addi	r3,r3,1
 1201524:	10800044 	addi	r2,r2,1
 1201528:	41000015 	stw	r4,0(r8)
 120152c:	01000044 	movi	r4,1
 1201530:	41000115 	stw	r4,4(r8)
 1201534:	d8c12015 	stw	r3,1152(sp)
 1201538:	d8811f15 	stw	r2,1148(sp)
 120153c:	010001c4 	movi	r4,7
 1201540:	20828e16 	blt	r4,r2,1201f7c <___vfprintf_internal_r+0x18e0>
 1201544:	42000204 	addi	r8,r8,8
 1201548:	d8812617 	ldw	r2,1176(sp)
 120154c:	dac13317 	ldw	r11,1228(sp)
 1201550:	12c00216 	blt	r2,r11,120155c <___vfprintf_internal_r+0xec0>
 1201554:	8880004c 	andi	r2,r17,1
 1201558:	103e7726 	beq	r2,zero,1200f38 <__alt_mem_instruction_tcm+0xff200f38>
 120155c:	db013817 	ldw	r12,1248(sp)
 1201560:	d8811f17 	ldw	r2,1148(sp)
 1201564:	dac13517 	ldw	r11,1236(sp)
 1201568:	1b07883a 	add	r3,r3,r12
 120156c:	10800044 	addi	r2,r2,1
 1201570:	42c00015 	stw	r11,0(r8)
 1201574:	43000115 	stw	r12,4(r8)
 1201578:	d8c12015 	stw	r3,1152(sp)
 120157c:	d8811f15 	stw	r2,1148(sp)
 1201580:	010001c4 	movi	r4,7
 1201584:	2082ed16 	blt	r4,r2,120213c <___vfprintf_internal_r+0x1aa0>
 1201588:	42000204 	addi	r8,r8,8
 120158c:	db013317 	ldw	r12,1228(sp)
 1201590:	643fffc4 	addi	r16,r12,-1
 1201594:	043e680e 	bge	zero,r16,1200f38 <__alt_mem_instruction_tcm+0xff200f38>
 1201598:	04800404 	movi	r18,16
 120159c:	d8811f17 	ldw	r2,1148(sp)
 12015a0:	94007e0e 	bge	r18,r16,120179c <___vfprintf_internal_r+0x1100>
 12015a4:	01404874 	movhi	r5,289
 12015a8:	2947e584 	addi	r5,r5,8086
 12015ac:	d9412c15 	stw	r5,1200(sp)
 12015b0:	054001c4 	movi	r21,7
 12015b4:	00000306 	br	12015c4 <___vfprintf_internal_r+0xf28>
 12015b8:	42000204 	addi	r8,r8,8
 12015bc:	843ffc04 	addi	r16,r16,-16
 12015c0:	9400790e 	bge	r18,r16,12017a8 <___vfprintf_internal_r+0x110c>
 12015c4:	18c00404 	addi	r3,r3,16
 12015c8:	10800044 	addi	r2,r2,1
 12015cc:	45000015 	stw	r20,0(r8)
 12015d0:	44800115 	stw	r18,4(r8)
 12015d4:	d8c12015 	stw	r3,1152(sp)
 12015d8:	d8811f15 	stw	r2,1148(sp)
 12015dc:	a8bff60e 	bge	r21,r2,12015b8 <__alt_mem_instruction_tcm+0xff2015b8>
 12015e0:	b009883a 	mov	r4,r22
 12015e4:	b80b883a 	mov	r5,r23
 12015e8:	d9811e04 	addi	r6,sp,1144
 12015ec:	1206f9c0 	call	1206f9c <__sprint_r>
 12015f0:	103d411e 	bne	r2,zero,1200af8 <__alt_mem_instruction_tcm+0xff200af8>
 12015f4:	d8c12017 	ldw	r3,1152(sp)
 12015f8:	d8811f17 	ldw	r2,1148(sp)
 12015fc:	da000404 	addi	r8,sp,16
 1201600:	003fee06 	br	12015bc <__alt_mem_instruction_tcm+0xff2015bc>
 1201604:	dac12e17 	ldw	r11,1208(sp)
 1201608:	db012b17 	ldw	r12,1196(sp)
 120160c:	5b2bc83a 	sub	r21,r11,r12
 1201610:	057e130e 	bge	zero,r21,1200e60 <__alt_mem_instruction_tcm+0xff200e60>
 1201614:	07000404 	movi	fp,16
 1201618:	d8811f17 	ldw	r2,1148(sp)
 120161c:	e543640e 	bge	fp,r21,12023b0 <___vfprintf_internal_r+0x1d14>
 1201620:	01404874 	movhi	r5,289
 1201624:	2947e584 	addi	r5,r5,8086
 1201628:	d9412c15 	stw	r5,1200(sp)
 120162c:	04c001c4 	movi	r19,7
 1201630:	00000306 	br	1201640 <___vfprintf_internal_r+0xfa4>
 1201634:	ad7ffc04 	addi	r21,r21,-16
 1201638:	42000204 	addi	r8,r8,8
 120163c:	e540110e 	bge	fp,r21,1201684 <___vfprintf_internal_r+0xfe8>
 1201640:	18c00404 	addi	r3,r3,16
 1201644:	10800044 	addi	r2,r2,1
 1201648:	45000015 	stw	r20,0(r8)
 120164c:	47000115 	stw	fp,4(r8)
 1201650:	d8c12015 	stw	r3,1152(sp)
 1201654:	d8811f15 	stw	r2,1148(sp)
 1201658:	98bff60e 	bge	r19,r2,1201634 <__alt_mem_instruction_tcm+0xff201634>
 120165c:	b009883a 	mov	r4,r22
 1201660:	b80b883a 	mov	r5,r23
 1201664:	d9811e04 	addi	r6,sp,1144
 1201668:	1206f9c0 	call	1206f9c <__sprint_r>
 120166c:	103d221e 	bne	r2,zero,1200af8 <__alt_mem_instruction_tcm+0xff200af8>
 1201670:	ad7ffc04 	addi	r21,r21,-16
 1201674:	d8c12017 	ldw	r3,1152(sp)
 1201678:	d8811f17 	ldw	r2,1148(sp)
 120167c:	da000404 	addi	r8,sp,16
 1201680:	e57fef16 	blt	fp,r21,1201640 <__alt_mem_instruction_tcm+0xff201640>
 1201684:	dac12c17 	ldw	r11,1200(sp)
 1201688:	1d47883a 	add	r3,r3,r21
 120168c:	10800044 	addi	r2,r2,1
 1201690:	42c00015 	stw	r11,0(r8)
 1201694:	45400115 	stw	r21,4(r8)
 1201698:	d8c12015 	stw	r3,1152(sp)
 120169c:	d8811f15 	stw	r2,1148(sp)
 12016a0:	010001c4 	movi	r4,7
 12016a4:	20819116 	blt	r4,r2,1201cec <___vfprintf_internal_r+0x1650>
 12016a8:	42000204 	addi	r8,r8,8
 12016ac:	003dec06 	br	1200e60 <__alt_mem_instruction_tcm+0xff200e60>
 12016b0:	db013317 	ldw	r12,1228(sp)
 12016b4:	00800044 	movi	r2,1
 12016b8:	18c00044 	addi	r3,r3,1
 12016bc:	1301530e 	bge	r2,r12,1201c0c <___vfprintf_internal_r+0x1570>
 12016c0:	dc011f17 	ldw	r16,1148(sp)
 12016c4:	dac13117 	ldw	r11,1220(sp)
 12016c8:	00800044 	movi	r2,1
 12016cc:	84000044 	addi	r16,r16,1
 12016d0:	40800115 	stw	r2,4(r8)
 12016d4:	42c00015 	stw	r11,0(r8)
 12016d8:	d8c12015 	stw	r3,1152(sp)
 12016dc:	dc011f15 	stw	r16,1148(sp)
 12016e0:	008001c4 	movi	r2,7
 12016e4:	14016b16 	blt	r2,r16,1201c94 <___vfprintf_internal_r+0x15f8>
 12016e8:	42000204 	addi	r8,r8,8
 12016ec:	db013817 	ldw	r12,1248(sp)
 12016f0:	dac13517 	ldw	r11,1236(sp)
 12016f4:	84000044 	addi	r16,r16,1
 12016f8:	1b07883a 	add	r3,r3,r12
 12016fc:	42c00015 	stw	r11,0(r8)
 1201700:	43000115 	stw	r12,4(r8)
 1201704:	d8c12015 	stw	r3,1152(sp)
 1201708:	dc011f15 	stw	r16,1148(sp)
 120170c:	008001c4 	movi	r2,7
 1201710:	14016916 	blt	r2,r16,1201cb8 <___vfprintf_internal_r+0x161c>
 1201714:	44800204 	addi	r18,r8,8
 1201718:	d9013717 	ldw	r4,1244(sp)
 120171c:	d9413917 	ldw	r5,1252(sp)
 1201720:	000d883a 	mov	r6,zero
 1201724:	000f883a 	mov	r7,zero
 1201728:	d8c13d15 	stw	r3,1268(sp)
 120172c:	120b5240 	call	120b524 <__eqdf2>
 1201730:	d8c13d17 	ldw	r3,1268(sp)
 1201734:	db013317 	ldw	r12,1228(sp)
 1201738:	1000ae26 	beq	r2,zero,12019f4 <___vfprintf_internal_r+0x1358>
 120173c:	dac13117 	ldw	r11,1220(sp)
 1201740:	60bfffc4 	addi	r2,r12,-1
 1201744:	1887883a 	add	r3,r3,r2
 1201748:	59000044 	addi	r4,r11,1
 120174c:	84000044 	addi	r16,r16,1
 1201750:	90800115 	stw	r2,4(r18)
 1201754:	91000015 	stw	r4,0(r18)
 1201758:	d8c12015 	stw	r3,1152(sp)
 120175c:	dc011f15 	stw	r16,1148(sp)
 1201760:	008001c4 	movi	r2,7
 1201764:	14014216 	blt	r2,r16,1201c70 <___vfprintf_internal_r+0x15d4>
 1201768:	94800204 	addi	r18,r18,8
 120176c:	dac13a17 	ldw	r11,1256(sp)
 1201770:	dd4122c4 	addi	r21,sp,1163
 1201774:	84000044 	addi	r16,r16,1
 1201778:	58c7883a 	add	r3,r11,r3
 120177c:	95400015 	stw	r21,0(r18)
 1201780:	92c00115 	stw	r11,4(r18)
 1201784:	d8c12015 	stw	r3,1152(sp)
 1201788:	dc011f15 	stw	r16,1148(sp)
 120178c:	008001c4 	movi	r2,7
 1201790:	14000e16 	blt	r2,r16,12017cc <___vfprintf_internal_r+0x1130>
 1201794:	92000204 	addi	r8,r18,8
 1201798:	003de706 	br	1200f38 <__alt_mem_instruction_tcm+0xff200f38>
 120179c:	01004874 	movhi	r4,289
 12017a0:	2107e584 	addi	r4,r4,8086
 12017a4:	d9012c15 	stw	r4,1200(sp)
 12017a8:	dac12c17 	ldw	r11,1200(sp)
 12017ac:	1c07883a 	add	r3,r3,r16
 12017b0:	44000115 	stw	r16,4(r8)
 12017b4:	42c00015 	stw	r11,0(r8)
 12017b8:	10800044 	addi	r2,r2,1
 12017bc:	d8c12015 	stw	r3,1152(sp)
 12017c0:	d8811f15 	stw	r2,1148(sp)
 12017c4:	010001c4 	movi	r4,7
 12017c8:	20bdda0e 	bge	r4,r2,1200f34 <__alt_mem_instruction_tcm+0xff200f34>
 12017cc:	b009883a 	mov	r4,r22
 12017d0:	b80b883a 	mov	r5,r23
 12017d4:	d9811e04 	addi	r6,sp,1144
 12017d8:	1206f9c0 	call	1206f9c <__sprint_r>
 12017dc:	103cc61e 	bne	r2,zero,1200af8 <__alt_mem_instruction_tcm+0xff200af8>
 12017e0:	d8c12017 	ldw	r3,1152(sp)
 12017e4:	da000404 	addi	r8,sp,16
 12017e8:	003dd306 	br	1200f38 <__alt_mem_instruction_tcm+0xff200f38>
 12017ec:	b009883a 	mov	r4,r22
 12017f0:	b80b883a 	mov	r5,r23
 12017f4:	d9811e04 	addi	r6,sp,1144
 12017f8:	1206f9c0 	call	1206f9c <__sprint_r>
 12017fc:	103e0926 	beq	r2,zero,1201024 <__alt_mem_instruction_tcm+0xff201024>
 1201800:	003cbd06 	br	1200af8 <__alt_mem_instruction_tcm+0xff200af8>
 1201804:	10803fcc 	andi	r2,r2,255
 1201808:	1000651e 	bne	r2,zero,12019a0 <___vfprintf_internal_r+0x1304>
 120180c:	8880004c 	andi	r2,r17,1
 1201810:	10013226 	beq	r2,zero,1201cdc <___vfprintf_internal_r+0x1640>
 1201814:	00800c04 	movi	r2,48
 1201818:	d8c10dc4 	addi	r3,sp,1079
 120181c:	d8810dc5 	stb	r2,1079(sp)
 1201820:	dc813c17 	ldw	r18,1264(sp)
 1201824:	d8c13115 	stw	r3,1220(sp)
 1201828:	003d2b06 	br	1200cd8 <__alt_mem_instruction_tcm+0xff200cd8>
 120182c:	b009883a 	mov	r4,r22
 1201830:	b80b883a 	mov	r5,r23
 1201834:	d9811e04 	addi	r6,sp,1144
 1201838:	1206f9c0 	call	1206f9c <__sprint_r>
 120183c:	103cae1e 	bne	r2,zero,1200af8 <__alt_mem_instruction_tcm+0xff200af8>
 1201840:	d8c12017 	ldw	r3,1152(sp)
 1201844:	da000404 	addi	r8,sp,16
 1201848:	003dae06 	br	1200f04 <__alt_mem_instruction_tcm+0xff200f04>
 120184c:	b009883a 	mov	r4,r22
 1201850:	b80b883a 	mov	r5,r23
 1201854:	d9811e04 	addi	r6,sp,1144
 1201858:	1206f9c0 	call	1206f9c <__sprint_r>
 120185c:	103ca61e 	bne	r2,zero,1200af8 <__alt_mem_instruction_tcm+0xff200af8>
 1201860:	d8c12017 	ldw	r3,1152(sp)
 1201864:	da000404 	addi	r8,sp,16
 1201868:	003d6c06 	br	1200e1c <__alt_mem_instruction_tcm+0xff200e1c>
 120186c:	b009883a 	mov	r4,r22
 1201870:	b80b883a 	mov	r5,r23
 1201874:	d9811e04 	addi	r6,sp,1144
 1201878:	1206f9c0 	call	1206f9c <__sprint_r>
 120187c:	103c9e1e 	bne	r2,zero,1200af8 <__alt_mem_instruction_tcm+0xff200af8>
 1201880:	d8c12017 	ldw	r3,1152(sp)
 1201884:	da000404 	addi	r8,sp,16
 1201888:	003d7206 	br	1200e54 <__alt_mem_instruction_tcm+0xff200e54>
 120188c:	d9413b17 	ldw	r5,1260(sp)
 1201890:	d8c10e04 	addi	r3,sp,1080
 1201894:	988003cc 	andi	r2,r19,15
 1201898:	e008973a 	slli	r4,fp,28
 120189c:	2885883a 	add	r2,r5,r2
 12018a0:	9826d13a 	srli	r19,r19,4
 12018a4:	10800003 	ldbu	r2,0(r2)
 12018a8:	e038d13a 	srli	fp,fp,4
 12018ac:	18ffffc4 	addi	r3,r3,-1
 12018b0:	24e6b03a 	or	r19,r4,r19
 12018b4:	18800005 	stb	r2,0(r3)
 12018b8:	9f04b03a 	or	r2,r19,fp
 12018bc:	103ff51e 	bne	r2,zero,1201894 <__alt_mem_instruction_tcm+0xff201894>
 12018c0:	db012817 	ldw	r12,1184(sp)
 12018c4:	d8c13115 	stw	r3,1220(sp)
 12018c8:	60e5c83a 	sub	r18,r12,r3
 12018cc:	003d0206 	br	1200cd8 <__alt_mem_instruction_tcm+0xff200cd8>
 12018d0:	dc012617 	ldw	r16,1176(sp)
 12018d4:	0401b10e 	bge	zero,r16,1201f9c <___vfprintf_internal_r+0x1900>
 12018d8:	db013117 	ldw	r12,1220(sp)
 12018dc:	dac13317 	ldw	r11,1228(sp)
 12018e0:	62e1883a 	add	r16,r12,r11
 12018e4:	db013417 	ldw	r12,1232(sp)
 12018e8:	5825883a 	mov	r18,r11
 12018ec:	62c0010e 	bge	r12,r11,12018f4 <___vfprintf_internal_r+0x1258>
 12018f0:	6025883a 	mov	r18,r12
 12018f4:	04800b0e 	bge	zero,r18,1201924 <___vfprintf_internal_r+0x1288>
 12018f8:	d8811f17 	ldw	r2,1148(sp)
 12018fc:	dac13117 	ldw	r11,1220(sp)
 1201900:	1c87883a 	add	r3,r3,r18
 1201904:	10800044 	addi	r2,r2,1
 1201908:	42c00015 	stw	r11,0(r8)
 120190c:	44800115 	stw	r18,4(r8)
 1201910:	d8c12015 	stw	r3,1152(sp)
 1201914:	d8811f15 	stw	r2,1148(sp)
 1201918:	010001c4 	movi	r4,7
 120191c:	20824f16 	blt	r4,r2,120225c <___vfprintf_internal_r+0x1bc0>
 1201920:	42000204 	addi	r8,r8,8
 1201924:	90024b16 	blt	r18,zero,1202254 <___vfprintf_internal_r+0x1bb8>
 1201928:	db013417 	ldw	r12,1232(sp)
 120192c:	64a5c83a 	sub	r18,r12,r18
 1201930:	0480730e 	bge	zero,r18,1201b00 <___vfprintf_internal_r+0x1464>
 1201934:	05400404 	movi	r21,16
 1201938:	d8811f17 	ldw	r2,1148(sp)
 120193c:	ac817d0e 	bge	r21,r18,1201f34 <___vfprintf_internal_r+0x1898>
 1201940:	01404874 	movhi	r5,289
 1201944:	2947e584 	addi	r5,r5,8086
 1201948:	d9412c15 	stw	r5,1200(sp)
 120194c:	070001c4 	movi	fp,7
 1201950:	00000306 	br	1201960 <___vfprintf_internal_r+0x12c4>
 1201954:	42000204 	addi	r8,r8,8
 1201958:	94bffc04 	addi	r18,r18,-16
 120195c:	ac81780e 	bge	r21,r18,1201f40 <___vfprintf_internal_r+0x18a4>
 1201960:	18c00404 	addi	r3,r3,16
 1201964:	10800044 	addi	r2,r2,1
 1201968:	45000015 	stw	r20,0(r8)
 120196c:	45400115 	stw	r21,4(r8)
 1201970:	d8c12015 	stw	r3,1152(sp)
 1201974:	d8811f15 	stw	r2,1148(sp)
 1201978:	e0bff60e 	bge	fp,r2,1201954 <__alt_mem_instruction_tcm+0xff201954>
 120197c:	b009883a 	mov	r4,r22
 1201980:	b80b883a 	mov	r5,r23
 1201984:	d9811e04 	addi	r6,sp,1144
 1201988:	1206f9c0 	call	1206f9c <__sprint_r>
 120198c:	103c5a1e 	bne	r2,zero,1200af8 <__alt_mem_instruction_tcm+0xff200af8>
 1201990:	d8c12017 	ldw	r3,1152(sp)
 1201994:	d8811f17 	ldw	r2,1148(sp)
 1201998:	da000404 	addi	r8,sp,16
 120199c:	003fee06 	br	1201958 <__alt_mem_instruction_tcm+0xff201958>
 12019a0:	dac10e04 	addi	r11,sp,1080
 12019a4:	0025883a 	mov	r18,zero
 12019a8:	dac13115 	stw	r11,1220(sp)
 12019ac:	003cca06 	br	1200cd8 <__alt_mem_instruction_tcm+0xff200cd8>
 12019b0:	b009883a 	mov	r4,r22
 12019b4:	b80b883a 	mov	r5,r23
 12019b8:	d9811e04 	addi	r6,sp,1144
 12019bc:	1206f9c0 	call	1206f9c <__sprint_r>
 12019c0:	103c4d1e 	bne	r2,zero,1200af8 <__alt_mem_instruction_tcm+0xff200af8>
 12019c4:	d8c12017 	ldw	r3,1152(sp)
 12019c8:	d8812787 	ldb	r2,1182(sp)
 12019cc:	da000404 	addi	r8,sp,16
 12019d0:	003d0506 	br	1200de8 <__alt_mem_instruction_tcm+0xff200de8>
 12019d4:	dac12d17 	ldw	r11,1204(sp)
 12019d8:	14c00017 	ldw	r19,0(r2)
 12019dc:	0039883a 	mov	fp,zero
 12019e0:	5ac00104 	addi	r11,r11,4
 12019e4:	dac12d15 	stw	r11,1204(sp)
 12019e8:	0005883a 	mov	r2,zero
 12019ec:	9807883a 	mov	r3,r19
 12019f0:	003c9c06 	br	1200c64 <__alt_mem_instruction_tcm+0xff200c64>
 12019f4:	657fffc4 	addi	r21,r12,-1
 12019f8:	057f5c0e 	bge	zero,r21,120176c <__alt_mem_instruction_tcm+0xff20176c>
 12019fc:	07000404 	movi	fp,16
 1201a00:	e5408f0e 	bge	fp,r21,1201c40 <___vfprintf_internal_r+0x15a4>
 1201a04:	01004874 	movhi	r4,289
 1201a08:	2107e584 	addi	r4,r4,8086
 1201a0c:	d9012c15 	stw	r4,1200(sp)
 1201a10:	01c001c4 	movi	r7,7
 1201a14:	00000306 	br	1201a24 <___vfprintf_internal_r+0x1388>
 1201a18:	94800204 	addi	r18,r18,8
 1201a1c:	ad7ffc04 	addi	r21,r21,-16
 1201a20:	e5408a0e 	bge	fp,r21,1201c4c <___vfprintf_internal_r+0x15b0>
 1201a24:	18c00404 	addi	r3,r3,16
 1201a28:	84000044 	addi	r16,r16,1
 1201a2c:	95000015 	stw	r20,0(r18)
 1201a30:	97000115 	stw	fp,4(r18)
 1201a34:	d8c12015 	stw	r3,1152(sp)
 1201a38:	dc011f15 	stw	r16,1148(sp)
 1201a3c:	3c3ff60e 	bge	r7,r16,1201a18 <__alt_mem_instruction_tcm+0xff201a18>
 1201a40:	b009883a 	mov	r4,r22
 1201a44:	b80b883a 	mov	r5,r23
 1201a48:	d9811e04 	addi	r6,sp,1144
 1201a4c:	d9c13d15 	stw	r7,1268(sp)
 1201a50:	1206f9c0 	call	1206f9c <__sprint_r>
 1201a54:	d9c13d17 	ldw	r7,1268(sp)
 1201a58:	103c271e 	bne	r2,zero,1200af8 <__alt_mem_instruction_tcm+0xff200af8>
 1201a5c:	d8c12017 	ldw	r3,1152(sp)
 1201a60:	dc011f17 	ldw	r16,1148(sp)
 1201a64:	dc800404 	addi	r18,sp,16
 1201a68:	003fec06 	br	1201a1c <__alt_mem_instruction_tcm+0xff201a1c>
 1201a6c:	1cc00017 	ldw	r19,0(r3)
 1201a70:	dac12d17 	ldw	r11,1204(sp)
 1201a74:	9839d7fa 	srai	fp,r19,31
 1201a78:	5ac00104 	addi	r11,r11,4
 1201a7c:	dac12d15 	stw	r11,1204(sp)
 1201a80:	e005883a 	mov	r2,fp
 1201a84:	003d9006 	br	12010c8 <__alt_mem_instruction_tcm+0xff2010c8>
 1201a88:	00800084 	movi	r2,2
 1201a8c:	9f06b03a 	or	r3,r19,fp
 1201a90:	003c7406 	br	1200c64 <__alt_mem_instruction_tcm+0xff200c64>
 1201a94:	db012d17 	ldw	r12,1204(sp)
 1201a98:	14c00017 	ldw	r19,0(r2)
 1201a9c:	0039883a 	mov	fp,zero
 1201aa0:	63000104 	addi	r12,r12,4
 1201aa4:	db012d15 	stw	r12,1204(sp)
 1201aa8:	00800044 	movi	r2,1
 1201aac:	9807883a 	mov	r3,r19
 1201ab0:	003c6c06 	br	1200c64 <__alt_mem_instruction_tcm+0xff200c64>
 1201ab4:	10803fcc 	andi	r2,r2,255
 1201ab8:	1080201c 	xori	r2,r2,128
 1201abc:	10bfe004 	addi	r2,r2,-128
 1201ac0:	01000c04 	movi	r4,48
 1201ac4:	1101a526 	beq	r2,r4,120215c <___vfprintf_internal_r+0x1ac0>
 1201ac8:	dac13117 	ldw	r11,1220(sp)
 1201acc:	db012817 	ldw	r12,1184(sp)
 1201ad0:	193fffc5 	stb	r4,-1(r3)
 1201ad4:	5affffc4 	addi	r11,r11,-1
 1201ad8:	dac13115 	stw	r11,1220(sp)
 1201adc:	62e5c83a 	sub	r18,r12,r11
 1201ae0:	003c7d06 	br	1200cd8 <__alt_mem_instruction_tcm+0xff200cd8>
 1201ae4:	b009883a 	mov	r4,r22
 1201ae8:	b80b883a 	mov	r5,r23
 1201aec:	d9811e04 	addi	r6,sp,1144
 1201af0:	1206f9c0 	call	1206f9c <__sprint_r>
 1201af4:	103c001e 	bne	r2,zero,1200af8 <__alt_mem_instruction_tcm+0xff200af8>
 1201af8:	d8c12017 	ldw	r3,1152(sp)
 1201afc:	da000404 	addi	r8,sp,16
 1201b00:	db013117 	ldw	r12,1220(sp)
 1201b04:	dac13417 	ldw	r11,1232(sp)
 1201b08:	d8812617 	ldw	r2,1176(sp)
 1201b0c:	62e5883a 	add	r18,r12,r11
 1201b10:	db013317 	ldw	r12,1228(sp)
 1201b14:	13000216 	blt	r2,r12,1201b20 <___vfprintf_internal_r+0x1484>
 1201b18:	8900004c 	andi	r4,r17,1
 1201b1c:	20000c26 	beq	r4,zero,1201b50 <___vfprintf_internal_r+0x14b4>
 1201b20:	dac13817 	ldw	r11,1248(sp)
 1201b24:	d9011f17 	ldw	r4,1148(sp)
 1201b28:	db013517 	ldw	r12,1236(sp)
 1201b2c:	1ac7883a 	add	r3,r3,r11
 1201b30:	21000044 	addi	r4,r4,1
 1201b34:	43000015 	stw	r12,0(r8)
 1201b38:	42c00115 	stw	r11,4(r8)
 1201b3c:	d8c12015 	stw	r3,1152(sp)
 1201b40:	d9011f15 	stw	r4,1148(sp)
 1201b44:	014001c4 	movi	r5,7
 1201b48:	2901cc16 	blt	r5,r4,120227c <___vfprintf_internal_r+0x1be0>
 1201b4c:	42000204 	addi	r8,r8,8
 1201b50:	dac13317 	ldw	r11,1228(sp)
 1201b54:	8489c83a 	sub	r4,r16,r18
 1201b58:	5885c83a 	sub	r2,r11,r2
 1201b5c:	1021883a 	mov	r16,r2
 1201b60:	2080010e 	bge	r4,r2,1201b68 <___vfprintf_internal_r+0x14cc>
 1201b64:	2021883a 	mov	r16,r4
 1201b68:	04000a0e 	bge	zero,r16,1201b94 <___vfprintf_internal_r+0x14f8>
 1201b6c:	d9011f17 	ldw	r4,1148(sp)
 1201b70:	1c07883a 	add	r3,r3,r16
 1201b74:	44800015 	stw	r18,0(r8)
 1201b78:	21000044 	addi	r4,r4,1
 1201b7c:	44000115 	stw	r16,4(r8)
 1201b80:	d8c12015 	stw	r3,1152(sp)
 1201b84:	d9011f15 	stw	r4,1148(sp)
 1201b88:	014001c4 	movi	r5,7
 1201b8c:	2901d616 	blt	r5,r4,12022e8 <___vfprintf_internal_r+0x1c4c>
 1201b90:	42000204 	addi	r8,r8,8
 1201b94:	8001df16 	blt	r16,zero,1202314 <___vfprintf_internal_r+0x1c78>
 1201b98:	1421c83a 	sub	r16,r2,r16
 1201b9c:	043ce60e 	bge	zero,r16,1200f38 <__alt_mem_instruction_tcm+0xff200f38>
 1201ba0:	04800404 	movi	r18,16
 1201ba4:	d8811f17 	ldw	r2,1148(sp)
 1201ba8:	943efc0e 	bge	r18,r16,120179c <__alt_mem_instruction_tcm+0xff20179c>
 1201bac:	01404874 	movhi	r5,289
 1201bb0:	2947e584 	addi	r5,r5,8086
 1201bb4:	d9412c15 	stw	r5,1200(sp)
 1201bb8:	054001c4 	movi	r21,7
 1201bbc:	00000306 	br	1201bcc <___vfprintf_internal_r+0x1530>
 1201bc0:	42000204 	addi	r8,r8,8
 1201bc4:	843ffc04 	addi	r16,r16,-16
 1201bc8:	943ef70e 	bge	r18,r16,12017a8 <__alt_mem_instruction_tcm+0xff2017a8>
 1201bcc:	18c00404 	addi	r3,r3,16
 1201bd0:	10800044 	addi	r2,r2,1
 1201bd4:	45000015 	stw	r20,0(r8)
 1201bd8:	44800115 	stw	r18,4(r8)
 1201bdc:	d8c12015 	stw	r3,1152(sp)
 1201be0:	d8811f15 	stw	r2,1148(sp)
 1201be4:	a8bff60e 	bge	r21,r2,1201bc0 <__alt_mem_instruction_tcm+0xff201bc0>
 1201be8:	b009883a 	mov	r4,r22
 1201bec:	b80b883a 	mov	r5,r23
 1201bf0:	d9811e04 	addi	r6,sp,1144
 1201bf4:	1206f9c0 	call	1206f9c <__sprint_r>
 1201bf8:	103bbf1e 	bne	r2,zero,1200af8 <__alt_mem_instruction_tcm+0xff200af8>
 1201bfc:	d8c12017 	ldw	r3,1152(sp)
 1201c00:	d8811f17 	ldw	r2,1148(sp)
 1201c04:	da000404 	addi	r8,sp,16
 1201c08:	003fee06 	br	1201bc4 <__alt_mem_instruction_tcm+0xff201bc4>
 1201c0c:	8888703a 	and	r4,r17,r2
 1201c10:	203eab1e 	bne	r4,zero,12016c0 <__alt_mem_instruction_tcm+0xff2016c0>
 1201c14:	dc011f17 	ldw	r16,1148(sp)
 1201c18:	db013117 	ldw	r12,1220(sp)
 1201c1c:	40800115 	stw	r2,4(r8)
 1201c20:	84000044 	addi	r16,r16,1
 1201c24:	43000015 	stw	r12,0(r8)
 1201c28:	d8c12015 	stw	r3,1152(sp)
 1201c2c:	dc011f15 	stw	r16,1148(sp)
 1201c30:	008001c4 	movi	r2,7
 1201c34:	14000e16 	blt	r2,r16,1201c70 <___vfprintf_internal_r+0x15d4>
 1201c38:	44800204 	addi	r18,r8,8
 1201c3c:	003ecb06 	br	120176c <__alt_mem_instruction_tcm+0xff20176c>
 1201c40:	00804874 	movhi	r2,289
 1201c44:	1087e584 	addi	r2,r2,8086
 1201c48:	d8812c15 	stw	r2,1200(sp)
 1201c4c:	dac12c17 	ldw	r11,1200(sp)
 1201c50:	1d47883a 	add	r3,r3,r21
 1201c54:	84000044 	addi	r16,r16,1
 1201c58:	92c00015 	stw	r11,0(r18)
 1201c5c:	95400115 	stw	r21,4(r18)
 1201c60:	d8c12015 	stw	r3,1152(sp)
 1201c64:	dc011f15 	stw	r16,1148(sp)
 1201c68:	008001c4 	movi	r2,7
 1201c6c:	143ebe0e 	bge	r2,r16,1201768 <__alt_mem_instruction_tcm+0xff201768>
 1201c70:	b009883a 	mov	r4,r22
 1201c74:	b80b883a 	mov	r5,r23
 1201c78:	d9811e04 	addi	r6,sp,1144
 1201c7c:	1206f9c0 	call	1206f9c <__sprint_r>
 1201c80:	103b9d1e 	bne	r2,zero,1200af8 <__alt_mem_instruction_tcm+0xff200af8>
 1201c84:	d8c12017 	ldw	r3,1152(sp)
 1201c88:	dc011f17 	ldw	r16,1148(sp)
 1201c8c:	dc800404 	addi	r18,sp,16
 1201c90:	003eb606 	br	120176c <__alt_mem_instruction_tcm+0xff20176c>
 1201c94:	b009883a 	mov	r4,r22
 1201c98:	b80b883a 	mov	r5,r23
 1201c9c:	d9811e04 	addi	r6,sp,1144
 1201ca0:	1206f9c0 	call	1206f9c <__sprint_r>
 1201ca4:	103b941e 	bne	r2,zero,1200af8 <__alt_mem_instruction_tcm+0xff200af8>
 1201ca8:	d8c12017 	ldw	r3,1152(sp)
 1201cac:	dc011f17 	ldw	r16,1148(sp)
 1201cb0:	da000404 	addi	r8,sp,16
 1201cb4:	003e8d06 	br	12016ec <__alt_mem_instruction_tcm+0xff2016ec>
 1201cb8:	b009883a 	mov	r4,r22
 1201cbc:	b80b883a 	mov	r5,r23
 1201cc0:	d9811e04 	addi	r6,sp,1144
 1201cc4:	1206f9c0 	call	1206f9c <__sprint_r>
 1201cc8:	103b8b1e 	bne	r2,zero,1200af8 <__alt_mem_instruction_tcm+0xff200af8>
 1201ccc:	d8c12017 	ldw	r3,1152(sp)
 1201cd0:	dc011f17 	ldw	r16,1148(sp)
 1201cd4:	dc800404 	addi	r18,sp,16
 1201cd8:	003e8f06 	br	1201718 <__alt_mem_instruction_tcm+0xff201718>
 1201cdc:	db010e04 	addi	r12,sp,1080
 1201ce0:	0025883a 	mov	r18,zero
 1201ce4:	db013115 	stw	r12,1220(sp)
 1201ce8:	003bfb06 	br	1200cd8 <__alt_mem_instruction_tcm+0xff200cd8>
 1201cec:	b009883a 	mov	r4,r22
 1201cf0:	b80b883a 	mov	r5,r23
 1201cf4:	d9811e04 	addi	r6,sp,1144
 1201cf8:	1206f9c0 	call	1206f9c <__sprint_r>
 1201cfc:	103b7e1e 	bne	r2,zero,1200af8 <__alt_mem_instruction_tcm+0xff200af8>
 1201d00:	d8c12017 	ldw	r3,1152(sp)
 1201d04:	da000404 	addi	r8,sp,16
 1201d08:	003c5506 	br	1200e60 <__alt_mem_instruction_tcm+0xff200e60>
 1201d0c:	04e7c83a 	sub	r19,zero,r19
 1201d10:	9804c03a 	cmpne	r2,r19,zero
 1201d14:	0739c83a 	sub	fp,zero,fp
 1201d18:	e0b9c83a 	sub	fp,fp,r2
 1201d1c:	05400b44 	movi	r21,45
 1201d20:	dd412785 	stb	r21,1182(sp)
 1201d24:	da413215 	stw	r9,1224(sp)
 1201d28:	00800044 	movi	r2,1
 1201d2c:	9f06b03a 	or	r3,r19,fp
 1201d30:	003bcf06 	br	1200c70 <__alt_mem_instruction_tcm+0xff200c70>
 1201d34:	da013f15 	stw	r8,1276(sp)
 1201d38:	da413e15 	stw	r9,1272(sp)
 1201d3c:	1206b600 	call	1206b60 <__fpclassifyd>
 1201d40:	da013f17 	ldw	r8,1276(sp)
 1201d44:	da413e17 	ldw	r9,1272(sp)
 1201d48:	1000ce26 	beq	r2,zero,1202084 <___vfprintf_internal_r+0x19e8>
 1201d4c:	057ff7c4 	movi	r21,-33
 1201d50:	00bfffc4 	movi	r2,-1
 1201d54:	856a703a 	and	r21,r16,r21
 1201d58:	4881f026 	beq	r9,r2,120251c <___vfprintf_internal_r+0x1e80>
 1201d5c:	008011c4 	movi	r2,71
 1201d60:	a881e526 	beq	r21,r2,12024f8 <___vfprintf_internal_r+0x1e5c>
 1201d64:	db013917 	ldw	r12,1252(sp)
 1201d68:	8ac04014 	ori	r11,r17,256
 1201d6c:	dac12d15 	stw	r11,1204(sp)
 1201d70:	6001e416 	blt	r12,zero,1202504 <___vfprintf_internal_r+0x1e68>
 1201d74:	dc813917 	ldw	r18,1252(sp)
 1201d78:	d8012b05 	stb	zero,1196(sp)
 1201d7c:	00801984 	movi	r2,102
 1201d80:	80811826 	beq	r16,r2,12021e4 <___vfprintf_internal_r+0x1b48>
 1201d84:	00801184 	movi	r2,70
 1201d88:	80811626 	beq	r16,r2,12021e4 <___vfprintf_internal_r+0x1b48>
 1201d8c:	00801144 	movi	r2,69
 1201d90:	a881e026 	beq	r21,r2,1202514 <___vfprintf_internal_r+0x1e78>
 1201d94:	4839883a 	mov	fp,r9
 1201d98:	d8812604 	addi	r2,sp,1176
 1201d9c:	d8800115 	stw	r2,4(sp)
 1201da0:	d9413717 	ldw	r5,1244(sp)
 1201da4:	d8812504 	addi	r2,sp,1172
 1201da8:	d8800215 	stw	r2,8(sp)
 1201dac:	d8812104 	addi	r2,sp,1156
 1201db0:	df000015 	stw	fp,0(sp)
 1201db4:	d8800315 	stw	r2,12(sp)
 1201db8:	b009883a 	mov	r4,r22
 1201dbc:	900d883a 	mov	r6,r18
 1201dc0:	01c00084 	movi	r7,2
 1201dc4:	da013f15 	stw	r8,1276(sp)
 1201dc8:	da413e15 	stw	r9,1272(sp)
 1201dcc:	12029ec0 	call	12029ec <_dtoa_r>
 1201dd0:	d8813115 	stw	r2,1220(sp)
 1201dd4:	008019c4 	movi	r2,103
 1201dd8:	da013f17 	ldw	r8,1276(sp)
 1201ddc:	da413e17 	ldw	r9,1272(sp)
 1201de0:	80800226 	beq	r16,r2,1201dec <___vfprintf_internal_r+0x1750>
 1201de4:	008011c4 	movi	r2,71
 1201de8:	8081101e 	bne	r16,r2,120222c <___vfprintf_internal_r+0x1b90>
 1201dec:	8880004c 	andi	r2,r17,1
 1201df0:	1001df26 	beq	r2,zero,1202570 <___vfprintf_internal_r+0x1ed4>
 1201df4:	db013117 	ldw	r12,1220(sp)
 1201df8:	6715883a 	add	r10,r12,fp
 1201dfc:	d9013717 	ldw	r4,1244(sp)
 1201e00:	900b883a 	mov	r5,r18
 1201e04:	000d883a 	mov	r6,zero
 1201e08:	000f883a 	mov	r7,zero
 1201e0c:	da013f15 	stw	r8,1276(sp)
 1201e10:	da413e15 	stw	r9,1272(sp)
 1201e14:	da813d15 	stw	r10,1268(sp)
 1201e18:	120b5240 	call	120b524 <__eqdf2>
 1201e1c:	da013f17 	ldw	r8,1276(sp)
 1201e20:	da413e17 	ldw	r9,1272(sp)
 1201e24:	da813d17 	ldw	r10,1268(sp)
 1201e28:	10016526 	beq	r2,zero,12023c0 <___vfprintf_internal_r+0x1d24>
 1201e2c:	d8812117 	ldw	r2,1156(sp)
 1201e30:	1280062e 	bgeu	r2,r10,1201e4c <___vfprintf_internal_r+0x17b0>
 1201e34:	01000c04 	movi	r4,48
 1201e38:	10c00044 	addi	r3,r2,1
 1201e3c:	d8c12115 	stw	r3,1156(sp)
 1201e40:	11000005 	stb	r4,0(r2)
 1201e44:	d8812117 	ldw	r2,1156(sp)
 1201e48:	12bffb36 	bltu	r2,r10,1201e38 <__alt_mem_instruction_tcm+0xff201e38>
 1201e4c:	db013117 	ldw	r12,1220(sp)
 1201e50:	1305c83a 	sub	r2,r2,r12
 1201e54:	d8813315 	stw	r2,1228(sp)
 1201e58:	008011c4 	movi	r2,71
 1201e5c:	a8814a26 	beq	r21,r2,1202388 <___vfprintf_internal_r+0x1cec>
 1201e60:	00801944 	movi	r2,101
 1201e64:	14020a0e 	bge	r2,r16,1202690 <___vfprintf_internal_r+0x1ff4>
 1201e68:	00801984 	movi	r2,102
 1201e6c:	8081b626 	beq	r16,r2,1202548 <___vfprintf_internal_r+0x1eac>
 1201e70:	db012617 	ldw	r12,1176(sp)
 1201e74:	db013415 	stw	r12,1232(sp)
 1201e78:	db013417 	ldw	r12,1232(sp)
 1201e7c:	dac13317 	ldw	r11,1228(sp)
 1201e80:	62c1a816 	blt	r12,r11,1202524 <___vfprintf_internal_r+0x1e88>
 1201e84:	8c40004c 	andi	r17,r17,1
 1201e88:	8801ca1e 	bne	r17,zero,12025b4 <___vfprintf_internal_r+0x1f18>
 1201e8c:	6005883a 	mov	r2,r12
 1201e90:	6001b516 	blt	r12,zero,1202568 <___vfprintf_internal_r+0x1ecc>
 1201e94:	dc813417 	ldw	r18,1232(sp)
 1201e98:	df012b07 	ldb	fp,1196(sp)
 1201e9c:	e001321e 	bne	fp,zero,1202368 <___vfprintf_internal_r+0x1ccc>
 1201ea0:	dc412d17 	ldw	r17,1204(sp)
 1201ea4:	dd412783 	ldbu	r21,1182(sp)
 1201ea8:	d8812b15 	stw	r2,1196(sp)
 1201eac:	dcc12d15 	stw	r19,1204(sp)
 1201eb0:	d8013215 	stw	zero,1224(sp)
 1201eb4:	003b8d06 	br	1200cec <__alt_mem_instruction_tcm+0xff200cec>
 1201eb8:	88c0100c 	andi	r3,r17,64
 1201ebc:	18008226 	beq	r3,zero,12020c8 <___vfprintf_internal_r+0x1a2c>
 1201ec0:	dac12d17 	ldw	r11,1204(sp)
 1201ec4:	14c0000b 	ldhu	r19,0(r2)
 1201ec8:	0039883a 	mov	fp,zero
 1201ecc:	5ac00104 	addi	r11,r11,4
 1201ed0:	dac12d15 	stw	r11,1204(sp)
 1201ed4:	003c8f06 	br	1201114 <__alt_mem_instruction_tcm+0xff201114>
 1201ed8:	1c000007 	ldb	r16,0(r3)
 1201edc:	1805883a 	mov	r2,r3
 1201ee0:	003a5506 	br	1200838 <__alt_mem_instruction_tcm+0xff200838>
 1201ee4:	00800084 	movi	r2,2
 1201ee8:	003b5e06 	br	1200c64 <__alt_mem_instruction_tcm+0xff200c64>
 1201eec:	8880040c 	andi	r2,r17,16
 1201ef0:	1000091e 	bne	r2,zero,1201f18 <___vfprintf_internal_r+0x187c>
 1201ef4:	8c40100c 	andi	r17,r17,64
 1201ef8:	88000726 	beq	r17,zero,1201f18 <___vfprintf_internal_r+0x187c>
 1201efc:	db012d17 	ldw	r12,1204(sp)
 1201f00:	dac12f17 	ldw	r11,1212(sp)
 1201f04:	60800017 	ldw	r2,0(r12)
 1201f08:	63000104 	addi	r12,r12,4
 1201f0c:	db012d15 	stw	r12,1204(sp)
 1201f10:	12c0000d 	sth	r11,0(r2)
 1201f14:	003a1e06 	br	1200790 <__alt_mem_instruction_tcm+0xff200790>
 1201f18:	db012d17 	ldw	r12,1204(sp)
 1201f1c:	dac12f17 	ldw	r11,1212(sp)
 1201f20:	60800017 	ldw	r2,0(r12)
 1201f24:	63000104 	addi	r12,r12,4
 1201f28:	db012d15 	stw	r12,1204(sp)
 1201f2c:	12c00015 	stw	r11,0(r2)
 1201f30:	003a1706 	br	1200790 <__alt_mem_instruction_tcm+0xff200790>
 1201f34:	01004874 	movhi	r4,289
 1201f38:	2107e584 	addi	r4,r4,8086
 1201f3c:	d9012c15 	stw	r4,1200(sp)
 1201f40:	dac12c17 	ldw	r11,1200(sp)
 1201f44:	1c87883a 	add	r3,r3,r18
 1201f48:	10800044 	addi	r2,r2,1
 1201f4c:	42c00015 	stw	r11,0(r8)
 1201f50:	44800115 	stw	r18,4(r8)
 1201f54:	d8c12015 	stw	r3,1152(sp)
 1201f58:	d8811f15 	stw	r2,1148(sp)
 1201f5c:	010001c4 	movi	r4,7
 1201f60:	20bee016 	blt	r4,r2,1201ae4 <__alt_mem_instruction_tcm+0xff201ae4>
 1201f64:	42000204 	addi	r8,r8,8
 1201f68:	003ee506 	br	1201b00 <__alt_mem_instruction_tcm+0xff201b00>
 1201f6c:	01004874 	movhi	r4,289
 1201f70:	2107e584 	addi	r4,r4,8086
 1201f74:	d9012c15 	stw	r4,1200(sp)
 1201f78:	003bd806 	br	1200edc <__alt_mem_instruction_tcm+0xff200edc>
 1201f7c:	b009883a 	mov	r4,r22
 1201f80:	b80b883a 	mov	r5,r23
 1201f84:	d9811e04 	addi	r6,sp,1144
 1201f88:	1206f9c0 	call	1206f9c <__sprint_r>
 1201f8c:	103ada1e 	bne	r2,zero,1200af8 <__alt_mem_instruction_tcm+0xff200af8>
 1201f90:	d8c12017 	ldw	r3,1152(sp)
 1201f94:	da000404 	addi	r8,sp,16
 1201f98:	003d6b06 	br	1201548 <__alt_mem_instruction_tcm+0xff201548>
 1201f9c:	d8811f17 	ldw	r2,1148(sp)
 1201fa0:	03004874 	movhi	r12,289
 1201fa4:	01000044 	movi	r4,1
 1201fa8:	18c00044 	addi	r3,r3,1
 1201fac:	10800044 	addi	r2,r2,1
 1201fb0:	6307e504 	addi	r12,r12,8084
 1201fb4:	41000115 	stw	r4,4(r8)
 1201fb8:	43000015 	stw	r12,0(r8)
 1201fbc:	d8c12015 	stw	r3,1152(sp)
 1201fc0:	d8811f15 	stw	r2,1148(sp)
 1201fc4:	010001c4 	movi	r4,7
 1201fc8:	20804916 	blt	r4,r2,12020f0 <___vfprintf_internal_r+0x1a54>
 1201fcc:	42000204 	addi	r8,r8,8
 1201fd0:	8000041e 	bne	r16,zero,1201fe4 <___vfprintf_internal_r+0x1948>
 1201fd4:	dac13317 	ldw	r11,1228(sp)
 1201fd8:	5800021e 	bne	r11,zero,1201fe4 <___vfprintf_internal_r+0x1948>
 1201fdc:	8880004c 	andi	r2,r17,1
 1201fe0:	103bd526 	beq	r2,zero,1200f38 <__alt_mem_instruction_tcm+0xff200f38>
 1201fe4:	db013817 	ldw	r12,1248(sp)
 1201fe8:	d8811f17 	ldw	r2,1148(sp)
 1201fec:	dac13517 	ldw	r11,1236(sp)
 1201ff0:	1b07883a 	add	r3,r3,r12
 1201ff4:	10800044 	addi	r2,r2,1
 1201ff8:	42c00015 	stw	r11,0(r8)
 1201ffc:	43000115 	stw	r12,4(r8)
 1202000:	d8c12015 	stw	r3,1152(sp)
 1202004:	d8811f15 	stw	r2,1148(sp)
 1202008:	010001c4 	movi	r4,7
 120200c:	20813016 	blt	r4,r2,12024d0 <___vfprintf_internal_r+0x1e34>
 1202010:	42000204 	addi	r8,r8,8
 1202014:	0421c83a 	sub	r16,zero,r16
 1202018:	0400630e 	bge	zero,r16,12021a8 <___vfprintf_internal_r+0x1b0c>
 120201c:	04800404 	movi	r18,16
 1202020:	94009f0e 	bge	r18,r16,12022a0 <___vfprintf_internal_r+0x1c04>
 1202024:	01004874 	movhi	r4,289
 1202028:	2107e584 	addi	r4,r4,8086
 120202c:	d9012c15 	stw	r4,1200(sp)
 1202030:	054001c4 	movi	r21,7
 1202034:	00000306 	br	1202044 <___vfprintf_internal_r+0x19a8>
 1202038:	42000204 	addi	r8,r8,8
 120203c:	843ffc04 	addi	r16,r16,-16
 1202040:	94009a0e 	bge	r18,r16,12022ac <___vfprintf_internal_r+0x1c10>
 1202044:	18c00404 	addi	r3,r3,16
 1202048:	10800044 	addi	r2,r2,1
 120204c:	45000015 	stw	r20,0(r8)
 1202050:	44800115 	stw	r18,4(r8)
 1202054:	d8c12015 	stw	r3,1152(sp)
 1202058:	d8811f15 	stw	r2,1148(sp)
 120205c:	a8bff60e 	bge	r21,r2,1202038 <__alt_mem_instruction_tcm+0xff202038>
 1202060:	b009883a 	mov	r4,r22
 1202064:	b80b883a 	mov	r5,r23
 1202068:	d9811e04 	addi	r6,sp,1144
 120206c:	1206f9c0 	call	1206f9c <__sprint_r>
 1202070:	103aa11e 	bne	r2,zero,1200af8 <__alt_mem_instruction_tcm+0xff200af8>
 1202074:	d8c12017 	ldw	r3,1152(sp)
 1202078:	d8811f17 	ldw	r2,1148(sp)
 120207c:	da000404 	addi	r8,sp,16
 1202080:	003fee06 	br	120203c <__alt_mem_instruction_tcm+0xff20203c>
 1202084:	008011c4 	movi	r2,71
 1202088:	1400b316 	blt	r2,r16,1202358 <___vfprintf_internal_r+0x1cbc>
 120208c:	03004874 	movhi	r12,289
 1202090:	6307d704 	addi	r12,r12,8028
 1202094:	db013115 	stw	r12,1220(sp)
 1202098:	00c000c4 	movi	r3,3
 120209c:	00bfdfc4 	movi	r2,-129
 12020a0:	d8c12b15 	stw	r3,1196(sp)
 12020a4:	88a2703a 	and	r17,r17,r2
 12020a8:	dd412783 	ldbu	r21,1182(sp)
 12020ac:	dcc12d15 	stw	r19,1204(sp)
 12020b0:	1825883a 	mov	r18,r3
 12020b4:	d8013215 	stw	zero,1224(sp)
 12020b8:	d8013415 	stw	zero,1232(sp)
 12020bc:	003b0b06 	br	1200cec <__alt_mem_instruction_tcm+0xff200cec>
 12020c0:	4825883a 	mov	r18,r9
 12020c4:	003cba06 	br	12013b0 <__alt_mem_instruction_tcm+0xff2013b0>
 12020c8:	db012d17 	ldw	r12,1204(sp)
 12020cc:	14c00017 	ldw	r19,0(r2)
 12020d0:	0039883a 	mov	fp,zero
 12020d4:	63000104 	addi	r12,r12,4
 12020d8:	db012d15 	stw	r12,1204(sp)
 12020dc:	003c0d06 	br	1201114 <__alt_mem_instruction_tcm+0xff201114>
 12020e0:	00804874 	movhi	r2,289
 12020e4:	1087d504 	addi	r2,r2,8020
 12020e8:	d8813115 	stw	r2,1220(sp)
 12020ec:	003ac406 	br	1200c00 <__alt_mem_instruction_tcm+0xff200c00>
 12020f0:	b009883a 	mov	r4,r22
 12020f4:	b80b883a 	mov	r5,r23
 12020f8:	d9811e04 	addi	r6,sp,1144
 12020fc:	1206f9c0 	call	1206f9c <__sprint_r>
 1202100:	103a7d1e 	bne	r2,zero,1200af8 <__alt_mem_instruction_tcm+0xff200af8>
 1202104:	dc012617 	ldw	r16,1176(sp)
 1202108:	d8c12017 	ldw	r3,1152(sp)
 120210c:	da000404 	addi	r8,sp,16
 1202110:	003faf06 	br	1201fd0 <__alt_mem_instruction_tcm+0xff201fd0>
 1202114:	db012e17 	ldw	r12,1208(sp)
 1202118:	1805883a 	mov	r2,r3
 120211c:	dac12d15 	stw	r11,1204(sp)
 1202120:	0319c83a 	sub	r12,zero,r12
 1202124:	db012e15 	stw	r12,1208(sp)
 1202128:	003a7e06 	br	1200b24 <__alt_mem_instruction_tcm+0xff200b24>
 120212c:	18800044 	addi	r2,r3,1
 1202130:	8c400814 	ori	r17,r17,32
 1202134:	1c000047 	ldb	r16,1(r3)
 1202138:	0039bf06 	br	1200838 <__alt_mem_instruction_tcm+0xff200838>
 120213c:	b009883a 	mov	r4,r22
 1202140:	b80b883a 	mov	r5,r23
 1202144:	d9811e04 	addi	r6,sp,1144
 1202148:	1206f9c0 	call	1206f9c <__sprint_r>
 120214c:	103a6a1e 	bne	r2,zero,1200af8 <__alt_mem_instruction_tcm+0xff200af8>
 1202150:	d8c12017 	ldw	r3,1152(sp)
 1202154:	da000404 	addi	r8,sp,16
 1202158:	003d0c06 	br	120158c <__alt_mem_instruction_tcm+0xff20158c>
 120215c:	db012817 	ldw	r12,1184(sp)
 1202160:	d8c13117 	ldw	r3,1220(sp)
 1202164:	60e5c83a 	sub	r18,r12,r3
 1202168:	003adb06 	br	1200cd8 <__alt_mem_instruction_tcm+0xff200cd8>
 120216c:	da013f15 	stw	r8,1276(sp)
 1202170:	1206e080 	call	1206e08 <strlen>
 1202174:	1025883a 	mov	r18,r2
 1202178:	da013f17 	ldw	r8,1276(sp)
 120217c:	903c8e0e 	bge	r18,zero,12013b8 <__alt_mem_instruction_tcm+0xff2013b8>
 1202180:	0005883a 	mov	r2,zero
 1202184:	003c8c06 	br	12013b8 <__alt_mem_instruction_tcm+0xff2013b8>
 1202188:	b009883a 	mov	r4,r22
 120218c:	b80b883a 	mov	r5,r23
 1202190:	d9811e04 	addi	r6,sp,1144
 1202194:	1206f9c0 	call	1206f9c <__sprint_r>
 1202198:	103a571e 	bne	r2,zero,1200af8 <__alt_mem_instruction_tcm+0xff200af8>
 120219c:	d8c12017 	ldw	r3,1152(sp)
 12021a0:	d8811f17 	ldw	r2,1148(sp)
 12021a4:	da000404 	addi	r8,sp,16
 12021a8:	db013317 	ldw	r12,1228(sp)
 12021ac:	dac13117 	ldw	r11,1220(sp)
 12021b0:	10800044 	addi	r2,r2,1
 12021b4:	60c7883a 	add	r3,r12,r3
 12021b8:	42c00015 	stw	r11,0(r8)
 12021bc:	43000115 	stw	r12,4(r8)
 12021c0:	d8c12015 	stw	r3,1152(sp)
 12021c4:	d8811f15 	stw	r2,1148(sp)
 12021c8:	010001c4 	movi	r4,7
 12021cc:	20bb590e 	bge	r4,r2,1200f34 <__alt_mem_instruction_tcm+0xff200f34>
 12021d0:	003d7e06 	br	12017cc <__alt_mem_instruction_tcm+0xff2017cc>
 12021d4:	01004874 	movhi	r4,289
 12021d8:	2107e984 	addi	r4,r4,8102
 12021dc:	d9013615 	stw	r4,1240(sp)
 12021e0:	003af606 	br	1200dbc <__alt_mem_instruction_tcm+0xff200dbc>
 12021e4:	d8812604 	addi	r2,sp,1176
 12021e8:	d8800115 	stw	r2,4(sp)
 12021ec:	d9413717 	ldw	r5,1244(sp)
 12021f0:	d8812504 	addi	r2,sp,1172
 12021f4:	d8800215 	stw	r2,8(sp)
 12021f8:	d8812104 	addi	r2,sp,1156
 12021fc:	da400015 	stw	r9,0(sp)
 1202200:	d8800315 	stw	r2,12(sp)
 1202204:	b009883a 	mov	r4,r22
 1202208:	900d883a 	mov	r6,r18
 120220c:	01c000c4 	movi	r7,3
 1202210:	da013f15 	stw	r8,1276(sp)
 1202214:	da413e15 	stw	r9,1272(sp)
 1202218:	12029ec0 	call	12029ec <_dtoa_r>
 120221c:	da413e17 	ldw	r9,1272(sp)
 1202220:	da013f17 	ldw	r8,1276(sp)
 1202224:	d8813115 	stw	r2,1220(sp)
 1202228:	4839883a 	mov	fp,r9
 120222c:	dac13117 	ldw	r11,1220(sp)
 1202230:	00801184 	movi	r2,70
 1202234:	5f15883a 	add	r10,r11,fp
 1202238:	a8bef01e 	bne	r21,r2,1201dfc <__alt_mem_instruction_tcm+0xff201dfc>
 120223c:	59000007 	ldb	r4,0(r11)
 1202240:	00800c04 	movi	r2,48
 1202244:	2080e026 	beq	r4,r2,12025c8 <___vfprintf_internal_r+0x1f2c>
 1202248:	d8c12617 	ldw	r3,1176(sp)
 120224c:	50d5883a 	add	r10,r10,r3
 1202250:	003eea06 	br	1201dfc <__alt_mem_instruction_tcm+0xff201dfc>
 1202254:	0025883a 	mov	r18,zero
 1202258:	003db306 	br	1201928 <__alt_mem_instruction_tcm+0xff201928>
 120225c:	b009883a 	mov	r4,r22
 1202260:	b80b883a 	mov	r5,r23
 1202264:	d9811e04 	addi	r6,sp,1144
 1202268:	1206f9c0 	call	1206f9c <__sprint_r>
 120226c:	103a221e 	bne	r2,zero,1200af8 <__alt_mem_instruction_tcm+0xff200af8>
 1202270:	d8c12017 	ldw	r3,1152(sp)
 1202274:	da000404 	addi	r8,sp,16
 1202278:	003daa06 	br	1201924 <__alt_mem_instruction_tcm+0xff201924>
 120227c:	b009883a 	mov	r4,r22
 1202280:	b80b883a 	mov	r5,r23
 1202284:	d9811e04 	addi	r6,sp,1144
 1202288:	1206f9c0 	call	1206f9c <__sprint_r>
 120228c:	103a1a1e 	bne	r2,zero,1200af8 <__alt_mem_instruction_tcm+0xff200af8>
 1202290:	d8812617 	ldw	r2,1176(sp)
 1202294:	d8c12017 	ldw	r3,1152(sp)
 1202298:	da000404 	addi	r8,sp,16
 120229c:	003e2c06 	br	1201b50 <__alt_mem_instruction_tcm+0xff201b50>
 12022a0:	03004874 	movhi	r12,289
 12022a4:	6307e584 	addi	r12,r12,8086
 12022a8:	db012c15 	stw	r12,1200(sp)
 12022ac:	dac12c17 	ldw	r11,1200(sp)
 12022b0:	1c07883a 	add	r3,r3,r16
 12022b4:	10800044 	addi	r2,r2,1
 12022b8:	42c00015 	stw	r11,0(r8)
 12022bc:	44000115 	stw	r16,4(r8)
 12022c0:	d8c12015 	stw	r3,1152(sp)
 12022c4:	d8811f15 	stw	r2,1148(sp)
 12022c8:	010001c4 	movi	r4,7
 12022cc:	20bfae16 	blt	r4,r2,1202188 <__alt_mem_instruction_tcm+0xff202188>
 12022d0:	42000204 	addi	r8,r8,8
 12022d4:	003fb406 	br	12021a8 <__alt_mem_instruction_tcm+0xff2021a8>
 12022d8:	03004874 	movhi	r12,289
 12022dc:	6307e984 	addi	r12,r12,8102
 12022e0:	db013615 	stw	r12,1240(sp)
 12022e4:	003b3806 	br	1200fc8 <__alt_mem_instruction_tcm+0xff200fc8>
 12022e8:	b009883a 	mov	r4,r22
 12022ec:	b80b883a 	mov	r5,r23
 12022f0:	d9811e04 	addi	r6,sp,1144
 12022f4:	1206f9c0 	call	1206f9c <__sprint_r>
 12022f8:	1039ff1e 	bne	r2,zero,1200af8 <__alt_mem_instruction_tcm+0xff200af8>
 12022fc:	d8812617 	ldw	r2,1176(sp)
 1202300:	db013317 	ldw	r12,1228(sp)
 1202304:	d8c12017 	ldw	r3,1152(sp)
 1202308:	da000404 	addi	r8,sp,16
 120230c:	6085c83a 	sub	r2,r12,r2
 1202310:	003e2006 	br	1201b94 <__alt_mem_instruction_tcm+0xff201b94>
 1202314:	0021883a 	mov	r16,zero
 1202318:	003e1f06 	br	1201b98 <__alt_mem_instruction_tcm+0xff201b98>
 120231c:	00800184 	movi	r2,6
 1202320:	1240012e 	bgeu	r2,r9,1202328 <___vfprintf_internal_r+0x1c8c>
 1202324:	1013883a 	mov	r9,r2
 1202328:	4825883a 	mov	r18,r9
 120232c:	4805883a 	mov	r2,r9
 1202330:	48009e16 	blt	r9,zero,12025ac <___vfprintf_internal_r+0x1f10>
 1202334:	d8812b15 	stw	r2,1196(sp)
 1202338:	00804874 	movhi	r2,289
 120233c:	1087e304 	addi	r2,r2,8076
 1202340:	d8813115 	stw	r2,1220(sp)
 1202344:	dcc12d15 	stw	r19,1204(sp)
 1202348:	d8013215 	stw	zero,1224(sp)
 120234c:	d8013415 	stw	zero,1232(sp)
 1202350:	0005883a 	mov	r2,zero
 1202354:	003a6c06 	br	1200d08 <__alt_mem_instruction_tcm+0xff200d08>
 1202358:	00804874 	movhi	r2,289
 120235c:	1087d804 	addi	r2,r2,8032
 1202360:	d8813115 	stw	r2,1220(sp)
 1202364:	003f4c06 	br	1202098 <__alt_mem_instruction_tcm+0xff202098>
 1202368:	00c00b44 	movi	r3,45
 120236c:	d8812b15 	stw	r2,1196(sp)
 1202370:	dc412d17 	ldw	r17,1204(sp)
 1202374:	d8c12785 	stb	r3,1182(sp)
 1202378:	dcc12d15 	stw	r19,1204(sp)
 120237c:	d8013215 	stw	zero,1224(sp)
 1202380:	00800b44 	movi	r2,45
 1202384:	003a5d06 	br	1200cfc <__alt_mem_instruction_tcm+0xff200cfc>
 1202388:	d8c12617 	ldw	r3,1176(sp)
 120238c:	00bfff44 	movi	r2,-3
 1202390:	18800d16 	blt	r3,r2,12023c8 <___vfprintf_internal_r+0x1d2c>
 1202394:	48c00c16 	blt	r9,r3,12023c8 <___vfprintf_internal_r+0x1d2c>
 1202398:	d8c13415 	stw	r3,1232(sp)
 120239c:	040019c4 	movi	r16,103
 12023a0:	003eb506 	br	1201e78 <__alt_mem_instruction_tcm+0xff201e78>
 12023a4:	05400b44 	movi	r21,45
 12023a8:	dd412785 	stb	r21,1182(sp)
 12023ac:	003a0f06 	br	1200bec <__alt_mem_instruction_tcm+0xff200bec>
 12023b0:	01004874 	movhi	r4,289
 12023b4:	2107e584 	addi	r4,r4,8086
 12023b8:	d9012c15 	stw	r4,1200(sp)
 12023bc:	003cb106 	br	1201684 <__alt_mem_instruction_tcm+0xff201684>
 12023c0:	5005883a 	mov	r2,r10
 12023c4:	003ea106 	br	1201e4c <__alt_mem_instruction_tcm+0xff201e4c>
 12023c8:	843fff84 	addi	r16,r16,-2
 12023cc:	1f3fffc4 	addi	fp,r3,-1
 12023d0:	df012615 	stw	fp,1176(sp)
 12023d4:	dc0122c5 	stb	r16,1163(sp)
 12023d8:	e0009516 	blt	fp,zero,1202630 <___vfprintf_internal_r+0x1f94>
 12023dc:	00800ac4 	movi	r2,43
 12023e0:	d8812305 	stb	r2,1164(sp)
 12023e4:	00800244 	movi	r2,9
 12023e8:	1700690e 	bge	r2,fp,1202590 <___vfprintf_internal_r+0x1ef4>
 12023ec:	dd4122c4 	addi	r21,sp,1163
 12023f0:	dc012c15 	stw	r16,1200(sp)
 12023f4:	8825883a 	mov	r18,r17
 12023f8:	a821883a 	mov	r16,r21
 12023fc:	4023883a 	mov	r17,r8
 1202400:	e009883a 	mov	r4,fp
 1202404:	01400284 	movi	r5,10
 1202408:	12004dc0 	call	12004dc <__modsi3>
 120240c:	10800c04 	addi	r2,r2,48
 1202410:	843fffc4 	addi	r16,r16,-1
 1202414:	e009883a 	mov	r4,fp
 1202418:	01400284 	movi	r5,10
 120241c:	80800005 	stb	r2,0(r16)
 1202420:	12004880 	call	1200488 <__divsi3>
 1202424:	1039883a 	mov	fp,r2
 1202428:	00800244 	movi	r2,9
 120242c:	173ff416 	blt	r2,fp,1202400 <__alt_mem_instruction_tcm+0xff202400>
 1202430:	8811883a 	mov	r8,r17
 1202434:	e0800c04 	addi	r2,fp,48
 1202438:	9023883a 	mov	r17,r18
 120243c:	8025883a 	mov	r18,r16
 1202440:	913fffc4 	addi	r4,r18,-1
 1202444:	90bfffc5 	stb	r2,-1(r18)
 1202448:	dc012c17 	ldw	r16,1200(sp)
 120244c:	25408e2e 	bgeu	r4,r21,1202688 <___vfprintf_internal_r+0x1fec>
 1202450:	d9412384 	addi	r5,sp,1166
 1202454:	2c8bc83a 	sub	r5,r5,r18
 1202458:	d8c12344 	addi	r3,sp,1165
 120245c:	a94b883a 	add	r5,r21,r5
 1202460:	00000106 	br	1202468 <___vfprintf_internal_r+0x1dcc>
 1202464:	20800003 	ldbu	r2,0(r4)
 1202468:	18800005 	stb	r2,0(r3)
 120246c:	18c00044 	addi	r3,r3,1
 1202470:	21000044 	addi	r4,r4,1
 1202474:	197ffb1e 	bne	r3,r5,1202464 <__alt_mem_instruction_tcm+0xff202464>
 1202478:	d8812304 	addi	r2,sp,1164
 120247c:	1485c83a 	sub	r2,r2,r18
 1202480:	d8c12344 	addi	r3,sp,1165
 1202484:	1885883a 	add	r2,r3,r2
 1202488:	dac13317 	ldw	r11,1228(sp)
 120248c:	156bc83a 	sub	r21,r2,r21
 1202490:	dd413a15 	stw	r21,1256(sp)
 1202494:	00800044 	movi	r2,1
 1202498:	5d65883a 	add	r18,r11,r21
 120249c:	12c0770e 	bge	r2,r11,120267c <___vfprintf_internal_r+0x1fe0>
 12024a0:	94800044 	addi	r18,r18,1
 12024a4:	9005883a 	mov	r2,r18
 12024a8:	90007216 	blt	r18,zero,1202674 <___vfprintf_internal_r+0x1fd8>
 12024ac:	d8013415 	stw	zero,1232(sp)
 12024b0:	003e7906 	br	1201e98 <__alt_mem_instruction_tcm+0xff201e98>
 12024b4:	da412b15 	stw	r9,1196(sp)
 12024b8:	dd412783 	ldbu	r21,1182(sp)
 12024bc:	4825883a 	mov	r18,r9
 12024c0:	dcc12d15 	stw	r19,1204(sp)
 12024c4:	d8013215 	stw	zero,1224(sp)
 12024c8:	d8013415 	stw	zero,1232(sp)
 12024cc:	003a0706 	br	1200cec <__alt_mem_instruction_tcm+0xff200cec>
 12024d0:	b009883a 	mov	r4,r22
 12024d4:	b80b883a 	mov	r5,r23
 12024d8:	d9811e04 	addi	r6,sp,1144
 12024dc:	1206f9c0 	call	1206f9c <__sprint_r>
 12024e0:	1039851e 	bne	r2,zero,1200af8 <__alt_mem_instruction_tcm+0xff200af8>
 12024e4:	dc012617 	ldw	r16,1176(sp)
 12024e8:	d8c12017 	ldw	r3,1152(sp)
 12024ec:	d8811f17 	ldw	r2,1148(sp)
 12024f0:	da000404 	addi	r8,sp,16
 12024f4:	003ec706 	br	1202014 <__alt_mem_instruction_tcm+0xff202014>
 12024f8:	483e1a1e 	bne	r9,zero,1201d64 <__alt_mem_instruction_tcm+0xff201d64>
 12024fc:	9013883a 	mov	r9,r18
 1202500:	003e1806 	br	1201d64 <__alt_mem_instruction_tcm+0xff201d64>
 1202504:	00c00b44 	movi	r3,45
 1202508:	64a0003c 	xorhi	r18,r12,32768
 120250c:	d8c12b05 	stb	r3,1196(sp)
 1202510:	003e1a06 	br	1201d7c <__alt_mem_instruction_tcm+0xff201d7c>
 1202514:	4f000044 	addi	fp,r9,1
 1202518:	003e1f06 	br	1201d98 <__alt_mem_instruction_tcm+0xff201d98>
 120251c:	02400184 	movi	r9,6
 1202520:	003e1006 	br	1201d64 <__alt_mem_instruction_tcm+0xff201d64>
 1202524:	d8c13417 	ldw	r3,1232(sp)
 1202528:	00c04b0e 	bge	zero,r3,1202658 <___vfprintf_internal_r+0x1fbc>
 120252c:	04800044 	movi	r18,1
 1202530:	dac13317 	ldw	r11,1228(sp)
 1202534:	92e5883a 	add	r18,r18,r11
 1202538:	9005883a 	mov	r2,r18
 120253c:	903e560e 	bge	r18,zero,1201e98 <__alt_mem_instruction_tcm+0xff201e98>
 1202540:	0005883a 	mov	r2,zero
 1202544:	003e5406 	br	1201e98 <__alt_mem_instruction_tcm+0xff201e98>
 1202548:	d8c12617 	ldw	r3,1176(sp)
 120254c:	d8c13415 	stw	r3,1232(sp)
 1202550:	00c03b0e 	bge	zero,r3,1202640 <___vfprintf_internal_r+0x1fa4>
 1202554:	4800081e 	bne	r9,zero,1202578 <___vfprintf_internal_r+0x1edc>
 1202558:	8c40004c 	andi	r17,r17,1
 120255c:	8800061e 	bne	r17,zero,1202578 <___vfprintf_internal_r+0x1edc>
 1202560:	1805883a 	mov	r2,r3
 1202564:	183e4b0e 	bge	r3,zero,1201e94 <__alt_mem_instruction_tcm+0xff201e94>
 1202568:	0005883a 	mov	r2,zero
 120256c:	003e4906 	br	1201e94 <__alt_mem_instruction_tcm+0xff201e94>
 1202570:	d8812117 	ldw	r2,1156(sp)
 1202574:	003e3506 	br	1201e4c <__alt_mem_instruction_tcm+0xff201e4c>
 1202578:	dac13417 	ldw	r11,1232(sp)
 120257c:	4a400044 	addi	r9,r9,1
 1202580:	5a65883a 	add	r18,r11,r9
 1202584:	9005883a 	mov	r2,r18
 1202588:	903e430e 	bge	r18,zero,1201e98 <__alt_mem_instruction_tcm+0xff201e98>
 120258c:	003fec06 	br	1202540 <__alt_mem_instruction_tcm+0xff202540>
 1202590:	00800c04 	movi	r2,48
 1202594:	e0c00c04 	addi	r3,fp,48
 1202598:	d8812345 	stb	r2,1165(sp)
 120259c:	d8c12385 	stb	r3,1166(sp)
 12025a0:	d88123c4 	addi	r2,sp,1167
 12025a4:	dd4122c4 	addi	r21,sp,1163
 12025a8:	003fb706 	br	1202488 <__alt_mem_instruction_tcm+0xff202488>
 12025ac:	0005883a 	mov	r2,zero
 12025b0:	003f6006 	br	1202334 <__alt_mem_instruction_tcm+0xff202334>
 12025b4:	db013417 	ldw	r12,1232(sp)
 12025b8:	64800044 	addi	r18,r12,1
 12025bc:	9005883a 	mov	r2,r18
 12025c0:	903e350e 	bge	r18,zero,1201e98 <__alt_mem_instruction_tcm+0xff201e98>
 12025c4:	003fde06 	br	1202540 <__alt_mem_instruction_tcm+0xff202540>
 12025c8:	d9013717 	ldw	r4,1244(sp)
 12025cc:	900b883a 	mov	r5,r18
 12025d0:	000d883a 	mov	r6,zero
 12025d4:	000f883a 	mov	r7,zero
 12025d8:	da013f15 	stw	r8,1276(sp)
 12025dc:	da413e15 	stw	r9,1272(sp)
 12025e0:	da813d15 	stw	r10,1268(sp)
 12025e4:	120b5240 	call	120b524 <__eqdf2>
 12025e8:	da013f17 	ldw	r8,1276(sp)
 12025ec:	da413e17 	ldw	r9,1272(sp)
 12025f0:	da813d17 	ldw	r10,1268(sp)
 12025f4:	103f1426 	beq	r2,zero,1202248 <__alt_mem_instruction_tcm+0xff202248>
 12025f8:	00800044 	movi	r2,1
 12025fc:	1707c83a 	sub	r3,r2,fp
 1202600:	d8c12615 	stw	r3,1176(sp)
 1202604:	003f1106 	br	120224c <__alt_mem_instruction_tcm+0xff20224c>
 1202608:	dac12d17 	ldw	r11,1204(sp)
 120260c:	5a400017 	ldw	r9,0(r11)
 1202610:	5ac00104 	addi	r11,r11,4
 1202614:	dac12d15 	stw	r11,1204(sp)
 1202618:	483ec60e 	bge	r9,zero,1202134 <__alt_mem_instruction_tcm+0xff202134>
 120261c:	027fffc4 	movi	r9,-1
 1202620:	1c000047 	ldb	r16,1(r3)
 1202624:	00388406 	br	1200838 <__alt_mem_instruction_tcm+0xff200838>
 1202628:	043fffc4 	movi	r16,-1
 120262c:	00391006 	br	1200a70 <__alt_mem_instruction_tcm+0xff200a70>
 1202630:	00800b44 	movi	r2,45
 1202634:	0739c83a 	sub	fp,zero,fp
 1202638:	d8812305 	stb	r2,1164(sp)
 120263c:	003f6906 	br	12023e4 <__alt_mem_instruction_tcm+0xff2023e4>
 1202640:	4800081e 	bne	r9,zero,1202664 <___vfprintf_internal_r+0x1fc8>
 1202644:	8c40004c 	andi	r17,r17,1
 1202648:	8800061e 	bne	r17,zero,1202664 <___vfprintf_internal_r+0x1fc8>
 120264c:	00800044 	movi	r2,1
 1202650:	1025883a 	mov	r18,r2
 1202654:	003e1006 	br	1201e98 <__alt_mem_instruction_tcm+0xff201e98>
 1202658:	04800084 	movi	r18,2
 120265c:	90e5c83a 	sub	r18,r18,r3
 1202660:	003fb306 	br	1202530 <__alt_mem_instruction_tcm+0xff202530>
 1202664:	4c800084 	addi	r18,r9,2
 1202668:	9005883a 	mov	r2,r18
 120266c:	903e0a0e 	bge	r18,zero,1201e98 <__alt_mem_instruction_tcm+0xff201e98>
 1202670:	003fb306 	br	1202540 <__alt_mem_instruction_tcm+0xff202540>
 1202674:	0005883a 	mov	r2,zero
 1202678:	003f8c06 	br	12024ac <__alt_mem_instruction_tcm+0xff2024ac>
 120267c:	88a2703a 	and	r17,r17,r2
 1202680:	883f8826 	beq	r17,zero,12024a4 <__alt_mem_instruction_tcm+0xff2024a4>
 1202684:	003f8606 	br	12024a0 <__alt_mem_instruction_tcm+0xff2024a0>
 1202688:	d8812344 	addi	r2,sp,1165
 120268c:	003f7e06 	br	1202488 <__alt_mem_instruction_tcm+0xff202488>
 1202690:	d8c12617 	ldw	r3,1176(sp)
 1202694:	003f4d06 	br	12023cc <__alt_mem_instruction_tcm+0xff2023cc>

01202698 <__vfprintf_internal>:
 1202698:	2007883a 	mov	r3,r4
 120269c:	01004874 	movhi	r4,289
 12026a0:	210ffa04 	addi	r4,r4,16360
 12026a4:	21000017 	ldw	r4,0(r4)
 12026a8:	2805883a 	mov	r2,r5
 12026ac:	300f883a 	mov	r7,r6
 12026b0:	180b883a 	mov	r5,r3
 12026b4:	100d883a 	mov	r6,r2
 12026b8:	120069c1 	jmpi	120069c <___vfprintf_internal_r>

012026bc <__swsetup_r>:
 12026bc:	00804874 	movhi	r2,289
 12026c0:	defffd04 	addi	sp,sp,-12
 12026c4:	108ffa04 	addi	r2,r2,16360
 12026c8:	dc400115 	stw	r17,4(sp)
 12026cc:	2023883a 	mov	r17,r4
 12026d0:	11000017 	ldw	r4,0(r2)
 12026d4:	dc000015 	stw	r16,0(sp)
 12026d8:	dfc00215 	stw	ra,8(sp)
 12026dc:	2821883a 	mov	r16,r5
 12026e0:	20000226 	beq	r4,zero,12026ec <__swsetup_r+0x30>
 12026e4:	20c00e17 	ldw	r3,56(r4)
 12026e8:	18002e26 	beq	r3,zero,12027a4 <__swsetup_r+0xe8>
 12026ec:	8080030b 	ldhu	r2,12(r16)
 12026f0:	10c0020c 	andi	r3,r2,8
 12026f4:	100d883a 	mov	r6,r2
 12026f8:	18000f26 	beq	r3,zero,1202738 <__swsetup_r+0x7c>
 12026fc:	80c00417 	ldw	r3,16(r16)
 1202700:	18001526 	beq	r3,zero,1202758 <__swsetup_r+0x9c>
 1202704:	1100004c 	andi	r4,r2,1
 1202708:	20001c1e 	bne	r4,zero,120277c <__swsetup_r+0xc0>
 120270c:	1080008c 	andi	r2,r2,2
 1202710:	1000261e 	bne	r2,zero,12027ac <__swsetup_r+0xf0>
 1202714:	80800517 	ldw	r2,20(r16)
 1202718:	80800215 	stw	r2,8(r16)
 120271c:	18001c26 	beq	r3,zero,1202790 <__swsetup_r+0xd4>
 1202720:	0005883a 	mov	r2,zero
 1202724:	dfc00217 	ldw	ra,8(sp)
 1202728:	dc400117 	ldw	r17,4(sp)
 120272c:	dc000017 	ldw	r16,0(sp)
 1202730:	dec00304 	addi	sp,sp,12
 1202734:	f800283a 	ret
 1202738:	3080040c 	andi	r2,r6,16
 120273c:	10001726 	beq	r2,zero,120279c <__swsetup_r+0xe0>
 1202740:	3080010c 	andi	r2,r6,4
 1202744:	10001b1e 	bne	r2,zero,12027b4 <__swsetup_r+0xf8>
 1202748:	80c00417 	ldw	r3,16(r16)
 120274c:	30800214 	ori	r2,r6,8
 1202750:	8080030d 	sth	r2,12(r16)
 1202754:	183feb1e 	bne	r3,zero,1202704 <__alt_mem_instruction_tcm+0xff202704>
 1202758:	1140a00c 	andi	r5,r2,640
 120275c:	01008004 	movi	r4,512
 1202760:	293fe826 	beq	r5,r4,1202704 <__alt_mem_instruction_tcm+0xff202704>
 1202764:	8809883a 	mov	r4,r17
 1202768:	800b883a 	mov	r5,r16
 120276c:	1204dc80 	call	1204dc8 <__smakebuf_r>
 1202770:	8080030b 	ldhu	r2,12(r16)
 1202774:	80c00417 	ldw	r3,16(r16)
 1202778:	003fe206 	br	1202704 <__alt_mem_instruction_tcm+0xff202704>
 120277c:	80800517 	ldw	r2,20(r16)
 1202780:	80000215 	stw	zero,8(r16)
 1202784:	0085c83a 	sub	r2,zero,r2
 1202788:	80800615 	stw	r2,24(r16)
 120278c:	183fe41e 	bne	r3,zero,1202720 <__alt_mem_instruction_tcm+0xff202720>
 1202790:	8080030b 	ldhu	r2,12(r16)
 1202794:	1080200c 	andi	r2,r2,128
 1202798:	103fe226 	beq	r2,zero,1202724 <__alt_mem_instruction_tcm+0xff202724>
 120279c:	00bfffc4 	movi	r2,-1
 12027a0:	003fe006 	br	1202724 <__alt_mem_instruction_tcm+0xff202724>
 12027a4:	12046bc0 	call	12046bc <__sinit>
 12027a8:	003fd006 	br	12026ec <__alt_mem_instruction_tcm+0xff2026ec>
 12027ac:	0005883a 	mov	r2,zero
 12027b0:	003fd906 	br	1202718 <__alt_mem_instruction_tcm+0xff202718>
 12027b4:	81400c17 	ldw	r5,48(r16)
 12027b8:	28000626 	beq	r5,zero,12027d4 <__swsetup_r+0x118>
 12027bc:	80801004 	addi	r2,r16,64
 12027c0:	28800326 	beq	r5,r2,12027d0 <__swsetup_r+0x114>
 12027c4:	8809883a 	mov	r4,r17
 12027c8:	12048300 	call	1204830 <_free_r>
 12027cc:	8180030b 	ldhu	r6,12(r16)
 12027d0:	80000c15 	stw	zero,48(r16)
 12027d4:	80c00417 	ldw	r3,16(r16)
 12027d8:	00bff6c4 	movi	r2,-37
 12027dc:	118c703a 	and	r6,r2,r6
 12027e0:	80000115 	stw	zero,4(r16)
 12027e4:	80c00015 	stw	r3,0(r16)
 12027e8:	003fd806 	br	120274c <__alt_mem_instruction_tcm+0xff20274c>

012027ec <quorem>:
 12027ec:	defff704 	addi	sp,sp,-36
 12027f0:	dc800215 	stw	r18,8(sp)
 12027f4:	20800417 	ldw	r2,16(r4)
 12027f8:	2c800417 	ldw	r18,16(r5)
 12027fc:	dfc00815 	stw	ra,32(sp)
 1202800:	ddc00715 	stw	r23,28(sp)
 1202804:	dd800615 	stw	r22,24(sp)
 1202808:	dd400515 	stw	r21,20(sp)
 120280c:	dd000415 	stw	r20,16(sp)
 1202810:	dcc00315 	stw	r19,12(sp)
 1202814:	dc400115 	stw	r17,4(sp)
 1202818:	dc000015 	stw	r16,0(sp)
 120281c:	14807116 	blt	r2,r18,12029e4 <quorem+0x1f8>
 1202820:	94bfffc4 	addi	r18,r18,-1
 1202824:	94ad883a 	add	r22,r18,r18
 1202828:	b5ad883a 	add	r22,r22,r22
 120282c:	2c400504 	addi	r17,r5,20
 1202830:	8da9883a 	add	r20,r17,r22
 1202834:	25400504 	addi	r21,r4,20
 1202838:	282f883a 	mov	r23,r5
 120283c:	adad883a 	add	r22,r21,r22
 1202840:	a1400017 	ldw	r5,0(r20)
 1202844:	2021883a 	mov	r16,r4
 1202848:	b1000017 	ldw	r4,0(r22)
 120284c:	29400044 	addi	r5,r5,1
 1202850:	12005380 	call	1200538 <__udivsi3>
 1202854:	1027883a 	mov	r19,r2
 1202858:	10002c26 	beq	r2,zero,120290c <quorem+0x120>
 120285c:	a813883a 	mov	r9,r21
 1202860:	8811883a 	mov	r8,r17
 1202864:	0009883a 	mov	r4,zero
 1202868:	000d883a 	mov	r6,zero
 120286c:	41c00017 	ldw	r7,0(r8)
 1202870:	49400017 	ldw	r5,0(r9)
 1202874:	42000104 	addi	r8,r8,4
 1202878:	38bfffcc 	andi	r2,r7,65535
 120287c:	14c5383a 	mul	r2,r2,r19
 1202880:	380ed43a 	srli	r7,r7,16
 1202884:	28ffffcc 	andi	r3,r5,65535
 1202888:	2085883a 	add	r2,r4,r2
 120288c:	1008d43a 	srli	r4,r2,16
 1202890:	3ccf383a 	mul	r7,r7,r19
 1202894:	198d883a 	add	r6,r3,r6
 1202898:	10ffffcc 	andi	r3,r2,65535
 120289c:	30c7c83a 	sub	r3,r6,r3
 12028a0:	280ad43a 	srli	r5,r5,16
 12028a4:	21c9883a 	add	r4,r4,r7
 12028a8:	180dd43a 	srai	r6,r3,16
 12028ac:	20bfffcc 	andi	r2,r4,65535
 12028b0:	288bc83a 	sub	r5,r5,r2
 12028b4:	298b883a 	add	r5,r5,r6
 12028b8:	280e943a 	slli	r7,r5,16
 12028bc:	18ffffcc 	andi	r3,r3,65535
 12028c0:	2008d43a 	srli	r4,r4,16
 12028c4:	38ceb03a 	or	r7,r7,r3
 12028c8:	49c00015 	stw	r7,0(r9)
 12028cc:	280dd43a 	srai	r6,r5,16
 12028d0:	4a400104 	addi	r9,r9,4
 12028d4:	a23fe52e 	bgeu	r20,r8,120286c <__alt_mem_instruction_tcm+0xff20286c>
 12028d8:	b0800017 	ldw	r2,0(r22)
 12028dc:	10000b1e 	bne	r2,zero,120290c <quorem+0x120>
 12028e0:	b0bfff04 	addi	r2,r22,-4
 12028e4:	a880082e 	bgeu	r21,r2,1202908 <quorem+0x11c>
 12028e8:	b0ffff17 	ldw	r3,-4(r22)
 12028ec:	18000326 	beq	r3,zero,12028fc <quorem+0x110>
 12028f0:	00000506 	br	1202908 <quorem+0x11c>
 12028f4:	10c00017 	ldw	r3,0(r2)
 12028f8:	1800031e 	bne	r3,zero,1202908 <quorem+0x11c>
 12028fc:	10bfff04 	addi	r2,r2,-4
 1202900:	94bfffc4 	addi	r18,r18,-1
 1202904:	a8bffb36 	bltu	r21,r2,12028f4 <__alt_mem_instruction_tcm+0xff2028f4>
 1202908:	84800415 	stw	r18,16(r16)
 120290c:	8009883a 	mov	r4,r16
 1202910:	b80b883a 	mov	r5,r23
 1202914:	120632c0 	call	120632c <__mcmp>
 1202918:	10002616 	blt	r2,zero,12029b4 <quorem+0x1c8>
 120291c:	9cc00044 	addi	r19,r19,1
 1202920:	a80d883a 	mov	r6,r21
 1202924:	000b883a 	mov	r5,zero
 1202928:	31000017 	ldw	r4,0(r6)
 120292c:	88800017 	ldw	r2,0(r17)
 1202930:	31800104 	addi	r6,r6,4
 1202934:	20ffffcc 	andi	r3,r4,65535
 1202938:	194b883a 	add	r5,r3,r5
 120293c:	10ffffcc 	andi	r3,r2,65535
 1202940:	28c7c83a 	sub	r3,r5,r3
 1202944:	1004d43a 	srli	r2,r2,16
 1202948:	2008d43a 	srli	r4,r4,16
 120294c:	180bd43a 	srai	r5,r3,16
 1202950:	18ffffcc 	andi	r3,r3,65535
 1202954:	2089c83a 	sub	r4,r4,r2
 1202958:	2149883a 	add	r4,r4,r5
 120295c:	2004943a 	slli	r2,r4,16
 1202960:	8c400104 	addi	r17,r17,4
 1202964:	200bd43a 	srai	r5,r4,16
 1202968:	10c6b03a 	or	r3,r2,r3
 120296c:	30ffff15 	stw	r3,-4(r6)
 1202970:	a47fed2e 	bgeu	r20,r17,1202928 <__alt_mem_instruction_tcm+0xff202928>
 1202974:	9485883a 	add	r2,r18,r18
 1202978:	1085883a 	add	r2,r2,r2
 120297c:	a887883a 	add	r3,r21,r2
 1202980:	18800017 	ldw	r2,0(r3)
 1202984:	10000b1e 	bne	r2,zero,12029b4 <quorem+0x1c8>
 1202988:	18bfff04 	addi	r2,r3,-4
 120298c:	a880082e 	bgeu	r21,r2,12029b0 <quorem+0x1c4>
 1202990:	18ffff17 	ldw	r3,-4(r3)
 1202994:	18000326 	beq	r3,zero,12029a4 <quorem+0x1b8>
 1202998:	00000506 	br	12029b0 <quorem+0x1c4>
 120299c:	10c00017 	ldw	r3,0(r2)
 12029a0:	1800031e 	bne	r3,zero,12029b0 <quorem+0x1c4>
 12029a4:	10bfff04 	addi	r2,r2,-4
 12029a8:	94bfffc4 	addi	r18,r18,-1
 12029ac:	a8bffb36 	bltu	r21,r2,120299c <__alt_mem_instruction_tcm+0xff20299c>
 12029b0:	84800415 	stw	r18,16(r16)
 12029b4:	9805883a 	mov	r2,r19
 12029b8:	dfc00817 	ldw	ra,32(sp)
 12029bc:	ddc00717 	ldw	r23,28(sp)
 12029c0:	dd800617 	ldw	r22,24(sp)
 12029c4:	dd400517 	ldw	r21,20(sp)
 12029c8:	dd000417 	ldw	r20,16(sp)
 12029cc:	dcc00317 	ldw	r19,12(sp)
 12029d0:	dc800217 	ldw	r18,8(sp)
 12029d4:	dc400117 	ldw	r17,4(sp)
 12029d8:	dc000017 	ldw	r16,0(sp)
 12029dc:	dec00904 	addi	sp,sp,36
 12029e0:	f800283a 	ret
 12029e4:	0005883a 	mov	r2,zero
 12029e8:	003ff306 	br	12029b8 <__alt_mem_instruction_tcm+0xff2029b8>

012029ec <_dtoa_r>:
 12029ec:	20801017 	ldw	r2,64(r4)
 12029f0:	deffde04 	addi	sp,sp,-136
 12029f4:	dd401d15 	stw	r21,116(sp)
 12029f8:	dcc01b15 	stw	r19,108(sp)
 12029fc:	dc801a15 	stw	r18,104(sp)
 1202a00:	dc401915 	stw	r17,100(sp)
 1202a04:	dc001815 	stw	r16,96(sp)
 1202a08:	dfc02115 	stw	ra,132(sp)
 1202a0c:	df002015 	stw	fp,128(sp)
 1202a10:	ddc01f15 	stw	r23,124(sp)
 1202a14:	dd801e15 	stw	r22,120(sp)
 1202a18:	dd001c15 	stw	r20,112(sp)
 1202a1c:	d9c00315 	stw	r7,12(sp)
 1202a20:	2021883a 	mov	r16,r4
 1202a24:	302b883a 	mov	r21,r6
 1202a28:	2825883a 	mov	r18,r5
 1202a2c:	dc402417 	ldw	r17,144(sp)
 1202a30:	3027883a 	mov	r19,r6
 1202a34:	10000826 	beq	r2,zero,1202a58 <_dtoa_r+0x6c>
 1202a38:	21801117 	ldw	r6,68(r4)
 1202a3c:	00c00044 	movi	r3,1
 1202a40:	100b883a 	mov	r5,r2
 1202a44:	1986983a 	sll	r3,r3,r6
 1202a48:	11800115 	stw	r6,4(r2)
 1202a4c:	10c00215 	stw	r3,8(r2)
 1202a50:	1205b140 	call	1205b14 <_Bfree>
 1202a54:	80001015 	stw	zero,64(r16)
 1202a58:	a8002d16 	blt	r21,zero,1202b10 <_dtoa_r+0x124>
 1202a5c:	88000015 	stw	zero,0(r17)
 1202a60:	a8dffc2c 	andhi	r3,r21,32752
 1202a64:	009ffc34 	movhi	r2,32752
 1202a68:	18801b26 	beq	r3,r2,1202ad8 <_dtoa_r+0xec>
 1202a6c:	9009883a 	mov	r4,r18
 1202a70:	980b883a 	mov	r5,r19
 1202a74:	000d883a 	mov	r6,zero
 1202a78:	000f883a 	mov	r7,zero
 1202a7c:	120b5240 	call	120b524 <__eqdf2>
 1202a80:	10002a1e 	bne	r2,zero,1202b2c <_dtoa_r+0x140>
 1202a84:	d8c02317 	ldw	r3,140(sp)
 1202a88:	d9002517 	ldw	r4,148(sp)
 1202a8c:	00800044 	movi	r2,1
 1202a90:	18800015 	stw	r2,0(r3)
 1202a94:	2001a226 	beq	r4,zero,1203120 <_dtoa_r+0x734>
 1202a98:	00804874 	movhi	r2,289
 1202a9c:	1087e544 	addi	r2,r2,8085
 1202aa0:	20800015 	stw	r2,0(r4)
 1202aa4:	10bfffc4 	addi	r2,r2,-1
 1202aa8:	dfc02117 	ldw	ra,132(sp)
 1202aac:	df002017 	ldw	fp,128(sp)
 1202ab0:	ddc01f17 	ldw	r23,124(sp)
 1202ab4:	dd801e17 	ldw	r22,120(sp)
 1202ab8:	dd401d17 	ldw	r21,116(sp)
 1202abc:	dd001c17 	ldw	r20,112(sp)
 1202ac0:	dcc01b17 	ldw	r19,108(sp)
 1202ac4:	dc801a17 	ldw	r18,104(sp)
 1202ac8:	dc401917 	ldw	r17,100(sp)
 1202acc:	dc001817 	ldw	r16,96(sp)
 1202ad0:	dec02204 	addi	sp,sp,136
 1202ad4:	f800283a 	ret
 1202ad8:	d8c02317 	ldw	r3,140(sp)
 1202adc:	0089c3c4 	movi	r2,9999
 1202ae0:	18800015 	stw	r2,0(r3)
 1202ae4:	90017c26 	beq	r18,zero,12030d8 <_dtoa_r+0x6ec>
 1202ae8:	00804874 	movhi	r2,289
 1202aec:	1087f104 	addi	r2,r2,8132
 1202af0:	d9002517 	ldw	r4,148(sp)
 1202af4:	203fec26 	beq	r4,zero,1202aa8 <__alt_mem_instruction_tcm+0xff202aa8>
 1202af8:	10c000c7 	ldb	r3,3(r2)
 1202afc:	18017d1e 	bne	r3,zero,12030f4 <_dtoa_r+0x708>
 1202b00:	10c000c4 	addi	r3,r2,3
 1202b04:	d9802517 	ldw	r6,148(sp)
 1202b08:	30c00015 	stw	r3,0(r6)
 1202b0c:	003fe606 	br	1202aa8 <__alt_mem_instruction_tcm+0xff202aa8>
 1202b10:	04e00034 	movhi	r19,32768
 1202b14:	9cffffc4 	addi	r19,r19,-1
 1202b18:	00800044 	movi	r2,1
 1202b1c:	ace6703a 	and	r19,r21,r19
 1202b20:	88800015 	stw	r2,0(r17)
 1202b24:	982b883a 	mov	r21,r19
 1202b28:	003fcd06 	br	1202a60 <__alt_mem_instruction_tcm+0xff202a60>
 1202b2c:	d8800204 	addi	r2,sp,8
 1202b30:	a822d53a 	srli	r17,r21,20
 1202b34:	d8800015 	stw	r2,0(sp)
 1202b38:	8009883a 	mov	r4,r16
 1202b3c:	900b883a 	mov	r5,r18
 1202b40:	980d883a 	mov	r6,r19
 1202b44:	d9c00104 	addi	r7,sp,4
 1202b48:	12066a00 	call	12066a0 <__d2b>
 1202b4c:	1039883a 	mov	fp,r2
 1202b50:	88016a1e 	bne	r17,zero,12030fc <_dtoa_r+0x710>
 1202b54:	dd000217 	ldw	r20,8(sp)
 1202b58:	dc400117 	ldw	r17,4(sp)
 1202b5c:	00befbc4 	movi	r2,-1041
 1202b60:	a463883a 	add	r17,r20,r17
 1202b64:	8882ea16 	blt	r17,r2,1203710 <_dtoa_r+0xd24>
 1202b68:	00bf0384 	movi	r2,-1010
 1202b6c:	1445c83a 	sub	r2,r2,r17
 1202b70:	89010484 	addi	r4,r17,1042
 1202b74:	a8aa983a 	sll	r21,r21,r2
 1202b78:	9108d83a 	srl	r4,r18,r4
 1202b7c:	a908b03a 	or	r4,r21,r4
 1202b80:	120c8b40 	call	120c8b4 <__floatunsidf>
 1202b84:	017f8434 	movhi	r5,65040
 1202b88:	01800044 	movi	r6,1
 1202b8c:	1009883a 	mov	r4,r2
 1202b90:	194b883a 	add	r5,r3,r5
 1202b94:	8c7fffc4 	addi	r17,r17,-1
 1202b98:	d9800f15 	stw	r6,60(sp)
 1202b9c:	000d883a 	mov	r6,zero
 1202ba0:	01cffe34 	movhi	r7,16376
 1202ba4:	120be8c0 	call	120be8c <__subdf3>
 1202ba8:	0198dbf4 	movhi	r6,25455
 1202bac:	01cff4f4 	movhi	r7,16339
 1202bb0:	1009883a 	mov	r4,r2
 1202bb4:	180b883a 	mov	r5,r3
 1202bb8:	3190d844 	addi	r6,r6,17249
 1202bbc:	39e1e9c4 	addi	r7,r7,-30809
 1202bc0:	120b7680 	call	120b768 <__muldf3>
 1202bc4:	01a2d874 	movhi	r6,35681
 1202bc8:	01cff1f4 	movhi	r7,16327
 1202bcc:	180b883a 	mov	r5,r3
 1202bd0:	31b22cc4 	addi	r6,r6,-14157
 1202bd4:	39e28a04 	addi	r7,r7,-30168
 1202bd8:	1009883a 	mov	r4,r2
 1202bdc:	120a3bc0 	call	120a3bc <__adddf3>
 1202be0:	8809883a 	mov	r4,r17
 1202be4:	102d883a 	mov	r22,r2
 1202be8:	182b883a 	mov	r21,r3
 1202bec:	120c7e40 	call	120c7e4 <__floatsidf>
 1202bf0:	019427f4 	movhi	r6,20639
 1202bf4:	01cff4f4 	movhi	r7,16339
 1202bf8:	1009883a 	mov	r4,r2
 1202bfc:	180b883a 	mov	r5,r3
 1202c00:	319e7ec4 	addi	r6,r6,31227
 1202c04:	39d104c4 	addi	r7,r7,17427
 1202c08:	120b7680 	call	120b768 <__muldf3>
 1202c0c:	b009883a 	mov	r4,r22
 1202c10:	a80b883a 	mov	r5,r21
 1202c14:	100d883a 	mov	r6,r2
 1202c18:	180f883a 	mov	r7,r3
 1202c1c:	120a3bc0 	call	120a3bc <__adddf3>
 1202c20:	1009883a 	mov	r4,r2
 1202c24:	180b883a 	mov	r5,r3
 1202c28:	102d883a 	mov	r22,r2
 1202c2c:	182b883a 	mov	r21,r3
 1202c30:	120c75c0 	call	120c75c <__fixdfsi>
 1202c34:	b009883a 	mov	r4,r22
 1202c38:	a80b883a 	mov	r5,r21
 1202c3c:	000d883a 	mov	r6,zero
 1202c40:	000f883a 	mov	r7,zero
 1202c44:	d8800515 	stw	r2,20(sp)
 1202c48:	120b6880 	call	120b688 <__ledf2>
 1202c4c:	10023116 	blt	r2,zero,1203514 <_dtoa_r+0xb28>
 1202c50:	d8c00517 	ldw	r3,20(sp)
 1202c54:	00800584 	movi	r2,22
 1202c58:	10c21f36 	bltu	r2,r3,12034d8 <_dtoa_r+0xaec>
 1202c5c:	180490fa 	slli	r2,r3,3
 1202c60:	00c04874 	movhi	r3,289
 1202c64:	18c80d04 	addi	r3,r3,8244
 1202c68:	1885883a 	add	r2,r3,r2
 1202c6c:	11000017 	ldw	r4,0(r2)
 1202c70:	11400117 	ldw	r5,4(r2)
 1202c74:	900d883a 	mov	r6,r18
 1202c78:	980f883a 	mov	r7,r19
 1202c7c:	120b5a80 	call	120b5a8 <__gedf2>
 1202c80:	0082a70e 	bge	zero,r2,1203720 <_dtoa_r+0xd34>
 1202c84:	d9000517 	ldw	r4,20(sp)
 1202c88:	d8000c15 	stw	zero,48(sp)
 1202c8c:	213fffc4 	addi	r4,r4,-1
 1202c90:	d9000515 	stw	r4,20(sp)
 1202c94:	a463c83a 	sub	r17,r20,r17
 1202c98:	8dbfffc4 	addi	r22,r17,-1
 1202c9c:	b0021916 	blt	r22,zero,1203504 <_dtoa_r+0xb18>
 1202ca0:	d8000815 	stw	zero,32(sp)
 1202ca4:	d8800517 	ldw	r2,20(sp)
 1202ca8:	10020e16 	blt	r2,zero,12034e4 <_dtoa_r+0xaf8>
 1202cac:	b0ad883a 	add	r22,r22,r2
 1202cb0:	d8800a15 	stw	r2,40(sp)
 1202cb4:	d8000915 	stw	zero,36(sp)
 1202cb8:	d8c00317 	ldw	r3,12(sp)
 1202cbc:	00800244 	movi	r2,9
 1202cc0:	10c11a36 	bltu	r2,r3,120312c <_dtoa_r+0x740>
 1202cc4:	00800144 	movi	r2,5
 1202cc8:	10c4fc0e 	bge	r2,r3,12040bc <_dtoa_r+0x16d0>
 1202ccc:	18ffff04 	addi	r3,r3,-4
 1202cd0:	d8c00315 	stw	r3,12(sp)
 1202cd4:	0029883a 	mov	r20,zero
 1202cd8:	d9800317 	ldw	r6,12(sp)
 1202cdc:	008000c4 	movi	r2,3
 1202ce0:	3083bd26 	beq	r6,r2,1203bd8 <_dtoa_r+0x11ec>
 1202ce4:	1183670e 	bge	r2,r6,1203a84 <_dtoa_r+0x1098>
 1202ce8:	d8c00317 	ldw	r3,12(sp)
 1202cec:	00800104 	movi	r2,4
 1202cf0:	1882e726 	beq	r3,r2,1203890 <_dtoa_r+0xea4>
 1202cf4:	00800144 	movi	r2,5
 1202cf8:	1884f21e 	bne	r3,r2,12040c4 <_dtoa_r+0x16d8>
 1202cfc:	00800044 	movi	r2,1
 1202d00:	d8800b15 	stw	r2,44(sp)
 1202d04:	d8c02217 	ldw	r3,136(sp)
 1202d08:	d9000517 	ldw	r4,20(sp)
 1202d0c:	1907883a 	add	r3,r3,r4
 1202d10:	19800044 	addi	r6,r3,1
 1202d14:	d8c00d15 	stw	r3,52(sp)
 1202d18:	d9800615 	stw	r6,24(sp)
 1202d1c:	0183c30e 	bge	zero,r6,1203c2c <_dtoa_r+0x1240>
 1202d20:	d9800617 	ldw	r6,24(sp)
 1202d24:	3023883a 	mov	r17,r6
 1202d28:	80001115 	stw	zero,68(r16)
 1202d2c:	008005c4 	movi	r2,23
 1202d30:	1184f62e 	bgeu	r2,r6,120410c <_dtoa_r+0x1720>
 1202d34:	00c00044 	movi	r3,1
 1202d38:	00800104 	movi	r2,4
 1202d3c:	1085883a 	add	r2,r2,r2
 1202d40:	11000504 	addi	r4,r2,20
 1202d44:	180b883a 	mov	r5,r3
 1202d48:	18c00044 	addi	r3,r3,1
 1202d4c:	313ffb2e 	bgeu	r6,r4,1202d3c <__alt_mem_instruction_tcm+0xff202d3c>
 1202d50:	81401115 	stw	r5,68(r16)
 1202d54:	8009883a 	mov	r4,r16
 1202d58:	1205a6c0 	call	1205a6c <_Balloc>
 1202d5c:	d8800715 	stw	r2,28(sp)
 1202d60:	80801015 	stw	r2,64(r16)
 1202d64:	00800384 	movi	r2,14
 1202d68:	1440fd36 	bltu	r2,r17,1203160 <_dtoa_r+0x774>
 1202d6c:	a000fc26 	beq	r20,zero,1203160 <_dtoa_r+0x774>
 1202d70:	d8800517 	ldw	r2,20(sp)
 1202d74:	0083b90e 	bge	zero,r2,1203c5c <_dtoa_r+0x1270>
 1202d78:	d8c00517 	ldw	r3,20(sp)
 1202d7c:	108003cc 	andi	r2,r2,15
 1202d80:	100490fa 	slli	r2,r2,3
 1202d84:	182fd13a 	srai	r23,r3,4
 1202d88:	00c04874 	movhi	r3,289
 1202d8c:	18c80d04 	addi	r3,r3,8244
 1202d90:	1885883a 	add	r2,r3,r2
 1202d94:	b8c0040c 	andi	r3,r23,16
 1202d98:	12c00017 	ldw	r11,0(r2)
 1202d9c:	12800117 	ldw	r10,4(r2)
 1202da0:	18039726 	beq	r3,zero,1203c00 <_dtoa_r+0x1214>
 1202da4:	00804874 	movhi	r2,289
 1202da8:	10880304 	addi	r2,r2,8204
 1202dac:	11800817 	ldw	r6,32(r2)
 1202db0:	11c00917 	ldw	r7,36(r2)
 1202db4:	9009883a 	mov	r4,r18
 1202db8:	980b883a 	mov	r5,r19
 1202dbc:	da801615 	stw	r10,88(sp)
 1202dc0:	dac01515 	stw	r11,84(sp)
 1202dc4:	120ac580 	call	120ac58 <__divdf3>
 1202dc8:	da801617 	ldw	r10,88(sp)
 1202dcc:	dac01517 	ldw	r11,84(sp)
 1202dd0:	bdc003cc 	andi	r23,r23,15
 1202dd4:	044000c4 	movi	r17,3
 1202dd8:	d8800e15 	stw	r2,56(sp)
 1202ddc:	182b883a 	mov	r21,r3
 1202de0:	b8001126 	beq	r23,zero,1202e28 <_dtoa_r+0x43c>
 1202de4:	05004874 	movhi	r20,289
 1202de8:	a5080304 	addi	r20,r20,8204
 1202dec:	5805883a 	mov	r2,r11
 1202df0:	5007883a 	mov	r3,r10
 1202df4:	b980004c 	andi	r6,r23,1
 1202df8:	1009883a 	mov	r4,r2
 1202dfc:	b82fd07a 	srai	r23,r23,1
 1202e00:	180b883a 	mov	r5,r3
 1202e04:	30000426 	beq	r6,zero,1202e18 <_dtoa_r+0x42c>
 1202e08:	a1800017 	ldw	r6,0(r20)
 1202e0c:	a1c00117 	ldw	r7,4(r20)
 1202e10:	8c400044 	addi	r17,r17,1
 1202e14:	120b7680 	call	120b768 <__muldf3>
 1202e18:	a5000204 	addi	r20,r20,8
 1202e1c:	b83ff51e 	bne	r23,zero,1202df4 <__alt_mem_instruction_tcm+0xff202df4>
 1202e20:	1017883a 	mov	r11,r2
 1202e24:	1815883a 	mov	r10,r3
 1202e28:	d9000e17 	ldw	r4,56(sp)
 1202e2c:	a80b883a 	mov	r5,r21
 1202e30:	580d883a 	mov	r6,r11
 1202e34:	500f883a 	mov	r7,r10
 1202e38:	120ac580 	call	120ac58 <__divdf3>
 1202e3c:	1029883a 	mov	r20,r2
 1202e40:	182b883a 	mov	r21,r3
 1202e44:	d9800c17 	ldw	r6,48(sp)
 1202e48:	30000626 	beq	r6,zero,1202e64 <_dtoa_r+0x478>
 1202e4c:	a009883a 	mov	r4,r20
 1202e50:	a80b883a 	mov	r5,r21
 1202e54:	000d883a 	mov	r6,zero
 1202e58:	01cffc34 	movhi	r7,16368
 1202e5c:	120b6880 	call	120b688 <__ledf2>
 1202e60:	10043216 	blt	r2,zero,1203f2c <_dtoa_r+0x1540>
 1202e64:	8809883a 	mov	r4,r17
 1202e68:	120c7e40 	call	120c7e4 <__floatsidf>
 1202e6c:	1009883a 	mov	r4,r2
 1202e70:	180b883a 	mov	r5,r3
 1202e74:	a00d883a 	mov	r6,r20
 1202e78:	a80f883a 	mov	r7,r21
 1202e7c:	120b7680 	call	120b768 <__muldf3>
 1202e80:	000d883a 	mov	r6,zero
 1202e84:	1009883a 	mov	r4,r2
 1202e88:	180b883a 	mov	r5,r3
 1202e8c:	01d00734 	movhi	r7,16412
 1202e90:	120a3bc0 	call	120a3bc <__adddf3>
 1202e94:	1023883a 	mov	r17,r2
 1202e98:	d9800617 	ldw	r6,24(sp)
 1202e9c:	00bf3034 	movhi	r2,64704
 1202ea0:	1885883a 	add	r2,r3,r2
 1202ea4:	d8800e15 	stw	r2,56(sp)
 1202ea8:	30032e26 	beq	r6,zero,1203b64 <_dtoa_r+0x1178>
 1202eac:	d8c00517 	ldw	r3,20(sp)
 1202eb0:	da800617 	ldw	r10,24(sp)
 1202eb4:	d8c01215 	stw	r3,72(sp)
 1202eb8:	d9000b17 	ldw	r4,44(sp)
 1202ebc:	2003b026 	beq	r4,zero,1203d80 <_dtoa_r+0x1394>
 1202ec0:	50bfffc4 	addi	r2,r10,-1
 1202ec4:	100490fa 	slli	r2,r2,3
 1202ec8:	00c04874 	movhi	r3,289
 1202ecc:	18c80d04 	addi	r3,r3,8244
 1202ed0:	1885883a 	add	r2,r3,r2
 1202ed4:	11800017 	ldw	r6,0(r2)
 1202ed8:	11c00117 	ldw	r7,4(r2)
 1202edc:	d8800717 	ldw	r2,28(sp)
 1202ee0:	0009883a 	mov	r4,zero
 1202ee4:	014ff834 	movhi	r5,16352
 1202ee8:	da801615 	stw	r10,88(sp)
 1202eec:	15c00044 	addi	r23,r2,1
 1202ef0:	120ac580 	call	120ac58 <__divdf3>
 1202ef4:	d9c00e17 	ldw	r7,56(sp)
 1202ef8:	880d883a 	mov	r6,r17
 1202efc:	1009883a 	mov	r4,r2
 1202f00:	180b883a 	mov	r5,r3
 1202f04:	120be8c0 	call	120be8c <__subdf3>
 1202f08:	a80b883a 	mov	r5,r21
 1202f0c:	a009883a 	mov	r4,r20
 1202f10:	d8c01015 	stw	r3,64(sp)
 1202f14:	d8800e15 	stw	r2,56(sp)
 1202f18:	120c75c0 	call	120c75c <__fixdfsi>
 1202f1c:	1009883a 	mov	r4,r2
 1202f20:	d8801715 	stw	r2,92(sp)
 1202f24:	120c7e40 	call	120c7e4 <__floatsidf>
 1202f28:	a009883a 	mov	r4,r20
 1202f2c:	a80b883a 	mov	r5,r21
 1202f30:	100d883a 	mov	r6,r2
 1202f34:	180f883a 	mov	r7,r3
 1202f38:	120be8c0 	call	120be8c <__subdf3>
 1202f3c:	da001717 	ldw	r8,92(sp)
 1202f40:	1829883a 	mov	r20,r3
 1202f44:	d8c00717 	ldw	r3,28(sp)
 1202f48:	d9000e17 	ldw	r4,56(sp)
 1202f4c:	d9401017 	ldw	r5,64(sp)
 1202f50:	42000c04 	addi	r8,r8,48
 1202f54:	1023883a 	mov	r17,r2
 1202f58:	1a000005 	stb	r8,0(r3)
 1202f5c:	880d883a 	mov	r6,r17
 1202f60:	a00f883a 	mov	r7,r20
 1202f64:	402b883a 	mov	r21,r8
 1202f68:	120b5a80 	call	120b5a8 <__gedf2>
 1202f6c:	00844516 	blt	zero,r2,1204084 <_dtoa_r+0x1698>
 1202f70:	0009883a 	mov	r4,zero
 1202f74:	014ffc34 	movhi	r5,16368
 1202f78:	880d883a 	mov	r6,r17
 1202f7c:	a00f883a 	mov	r7,r20
 1202f80:	120be8c0 	call	120be8c <__subdf3>
 1202f84:	d9000e17 	ldw	r4,56(sp)
 1202f88:	d9401017 	ldw	r5,64(sp)
 1202f8c:	100d883a 	mov	r6,r2
 1202f90:	180f883a 	mov	r7,r3
 1202f94:	120b5a80 	call	120b5a8 <__gedf2>
 1202f98:	da801617 	ldw	r10,88(sp)
 1202f9c:	00843616 	blt	zero,r2,1204078 <_dtoa_r+0x168c>
 1202fa0:	00800044 	movi	r2,1
 1202fa4:	12806e0e 	bge	r2,r10,1203160 <_dtoa_r+0x774>
 1202fa8:	d9000717 	ldw	r4,28(sp)
 1202fac:	dd801315 	stw	r22,76(sp)
 1202fb0:	dc001115 	stw	r16,68(sp)
 1202fb4:	2295883a 	add	r10,r4,r10
 1202fb8:	dcc01415 	stw	r19,80(sp)
 1202fbc:	502d883a 	mov	r22,r10
 1202fc0:	dcc01017 	ldw	r19,64(sp)
 1202fc4:	b821883a 	mov	r16,r23
 1202fc8:	dc801015 	stw	r18,64(sp)
 1202fcc:	dc800e17 	ldw	r18,56(sp)
 1202fd0:	00000906 	br	1202ff8 <_dtoa_r+0x60c>
 1202fd4:	120be8c0 	call	120be8c <__subdf3>
 1202fd8:	1009883a 	mov	r4,r2
 1202fdc:	180b883a 	mov	r5,r3
 1202fe0:	900d883a 	mov	r6,r18
 1202fe4:	980f883a 	mov	r7,r19
 1202fe8:	120b6880 	call	120b688 <__ledf2>
 1202fec:	10040e16 	blt	r2,zero,1204028 <_dtoa_r+0x163c>
 1202ff0:	b821883a 	mov	r16,r23
 1202ff4:	bd841026 	beq	r23,r22,1204038 <_dtoa_r+0x164c>
 1202ff8:	9009883a 	mov	r4,r18
 1202ffc:	980b883a 	mov	r5,r19
 1203000:	000d883a 	mov	r6,zero
 1203004:	01d00934 	movhi	r7,16420
 1203008:	120b7680 	call	120b768 <__muldf3>
 120300c:	000d883a 	mov	r6,zero
 1203010:	01d00934 	movhi	r7,16420
 1203014:	8809883a 	mov	r4,r17
 1203018:	a00b883a 	mov	r5,r20
 120301c:	1025883a 	mov	r18,r2
 1203020:	1827883a 	mov	r19,r3
 1203024:	120b7680 	call	120b768 <__muldf3>
 1203028:	180b883a 	mov	r5,r3
 120302c:	1009883a 	mov	r4,r2
 1203030:	1823883a 	mov	r17,r3
 1203034:	1029883a 	mov	r20,r2
 1203038:	120c75c0 	call	120c75c <__fixdfsi>
 120303c:	1009883a 	mov	r4,r2
 1203040:	102b883a 	mov	r21,r2
 1203044:	120c7e40 	call	120c7e4 <__floatsidf>
 1203048:	a009883a 	mov	r4,r20
 120304c:	880b883a 	mov	r5,r17
 1203050:	100d883a 	mov	r6,r2
 1203054:	180f883a 	mov	r7,r3
 1203058:	120be8c0 	call	120be8c <__subdf3>
 120305c:	ad400c04 	addi	r21,r21,48
 1203060:	1009883a 	mov	r4,r2
 1203064:	180b883a 	mov	r5,r3
 1203068:	900d883a 	mov	r6,r18
 120306c:	980f883a 	mov	r7,r19
 1203070:	85400005 	stb	r21,0(r16)
 1203074:	1023883a 	mov	r17,r2
 1203078:	1829883a 	mov	r20,r3
 120307c:	120b6880 	call	120b688 <__ledf2>
 1203080:	bdc00044 	addi	r23,r23,1
 1203084:	0009883a 	mov	r4,zero
 1203088:	014ffc34 	movhi	r5,16368
 120308c:	880d883a 	mov	r6,r17
 1203090:	a00f883a 	mov	r7,r20
 1203094:	103fcf0e 	bge	r2,zero,1202fd4 <__alt_mem_instruction_tcm+0xff202fd4>
 1203098:	d9801217 	ldw	r6,72(sp)
 120309c:	dc001117 	ldw	r16,68(sp)
 12030a0:	d9800515 	stw	r6,20(sp)
 12030a4:	8009883a 	mov	r4,r16
 12030a8:	e00b883a 	mov	r5,fp
 12030ac:	1205b140 	call	1205b14 <_Bfree>
 12030b0:	d8c00517 	ldw	r3,20(sp)
 12030b4:	d9002317 	ldw	r4,140(sp)
 12030b8:	d9802517 	ldw	r6,148(sp)
 12030bc:	b8000005 	stb	zero,0(r23)
 12030c0:	18800044 	addi	r2,r3,1
 12030c4:	20800015 	stw	r2,0(r4)
 12030c8:	30027226 	beq	r6,zero,1203a94 <_dtoa_r+0x10a8>
 12030cc:	35c00015 	stw	r23,0(r6)
 12030d0:	d8800717 	ldw	r2,28(sp)
 12030d4:	003e7406 	br	1202aa8 <__alt_mem_instruction_tcm+0xff202aa8>
 12030d8:	00800434 	movhi	r2,16
 12030dc:	10bfffc4 	addi	r2,r2,-1
 12030e0:	a8aa703a 	and	r21,r21,r2
 12030e4:	a83e801e 	bne	r21,zero,1202ae8 <__alt_mem_instruction_tcm+0xff202ae8>
 12030e8:	00804874 	movhi	r2,289
 12030ec:	1087ee04 	addi	r2,r2,8120
 12030f0:	003e7f06 	br	1202af0 <__alt_mem_instruction_tcm+0xff202af0>
 12030f4:	10c00204 	addi	r3,r2,8
 12030f8:	003e8206 	br	1202b04 <__alt_mem_instruction_tcm+0xff202b04>
 12030fc:	01400434 	movhi	r5,16
 1203100:	297fffc4 	addi	r5,r5,-1
 1203104:	994a703a 	and	r5,r19,r5
 1203108:	9009883a 	mov	r4,r18
 120310c:	8c7f0044 	addi	r17,r17,-1023
 1203110:	294ffc34 	orhi	r5,r5,16368
 1203114:	dd000217 	ldw	r20,8(sp)
 1203118:	d8000f15 	stw	zero,60(sp)
 120311c:	003e9f06 	br	1202b9c <__alt_mem_instruction_tcm+0xff202b9c>
 1203120:	00804874 	movhi	r2,289
 1203124:	1087e504 	addi	r2,r2,8084
 1203128:	003e5f06 	br	1202aa8 <__alt_mem_instruction_tcm+0xff202aa8>
 120312c:	80001115 	stw	zero,68(r16)
 1203130:	8009883a 	mov	r4,r16
 1203134:	000b883a 	mov	r5,zero
 1203138:	1205a6c0 	call	1205a6c <_Balloc>
 120313c:	01bfffc4 	movi	r6,-1
 1203140:	d8800715 	stw	r2,28(sp)
 1203144:	80801015 	stw	r2,64(r16)
 1203148:	00800044 	movi	r2,1
 120314c:	d9800615 	stw	r6,24(sp)
 1203150:	d8800b15 	stw	r2,44(sp)
 1203154:	d8002215 	stw	zero,136(sp)
 1203158:	d9800d15 	stw	r6,52(sp)
 120315c:	d8000315 	stw	zero,12(sp)
 1203160:	d8800117 	ldw	r2,4(sp)
 1203164:	10008e16 	blt	r2,zero,12033a0 <_dtoa_r+0x9b4>
 1203168:	d9000517 	ldw	r4,20(sp)
 120316c:	00c00384 	movi	r3,14
 1203170:	19008b16 	blt	r3,r4,12033a0 <_dtoa_r+0x9b4>
 1203174:	200490fa 	slli	r2,r4,3
 1203178:	00c04874 	movhi	r3,289
 120317c:	d9802217 	ldw	r6,136(sp)
 1203180:	18c80d04 	addi	r3,r3,8244
 1203184:	1885883a 	add	r2,r3,r2
 1203188:	14400017 	ldw	r17,0(r2)
 120318c:	15000117 	ldw	r20,4(r2)
 1203190:	3001c716 	blt	r6,zero,12038b0 <_dtoa_r+0xec4>
 1203194:	880d883a 	mov	r6,r17
 1203198:	a00f883a 	mov	r7,r20
 120319c:	9009883a 	mov	r4,r18
 12031a0:	980b883a 	mov	r5,r19
 12031a4:	120ac580 	call	120ac58 <__divdf3>
 12031a8:	180b883a 	mov	r5,r3
 12031ac:	1009883a 	mov	r4,r2
 12031b0:	120c75c0 	call	120c75c <__fixdfsi>
 12031b4:	1009883a 	mov	r4,r2
 12031b8:	102d883a 	mov	r22,r2
 12031bc:	120c7e40 	call	120c7e4 <__floatsidf>
 12031c0:	1009883a 	mov	r4,r2
 12031c4:	180b883a 	mov	r5,r3
 12031c8:	880d883a 	mov	r6,r17
 12031cc:	a00f883a 	mov	r7,r20
 12031d0:	120b7680 	call	120b768 <__muldf3>
 12031d4:	9009883a 	mov	r4,r18
 12031d8:	980b883a 	mov	r5,r19
 12031dc:	100d883a 	mov	r6,r2
 12031e0:	180f883a 	mov	r7,r3
 12031e4:	120be8c0 	call	120be8c <__subdf3>
 12031e8:	d9000717 	ldw	r4,28(sp)
 12031ec:	d9800617 	ldw	r6,24(sp)
 12031f0:	180b883a 	mov	r5,r3
 12031f4:	b0c00c04 	addi	r3,r22,48
 12031f8:	20c00005 	stb	r3,0(r4)
 12031fc:	25c00044 	addi	r23,r4,1
 1203200:	01000044 	movi	r4,1
 1203204:	1011883a 	mov	r8,r2
 1203208:	2807883a 	mov	r3,r5
 120320c:	31003d26 	beq	r6,r4,1203304 <_dtoa_r+0x918>
 1203210:	000d883a 	mov	r6,zero
 1203214:	01d00934 	movhi	r7,16420
 1203218:	1009883a 	mov	r4,r2
 120321c:	120b7680 	call	120b768 <__muldf3>
 1203220:	1009883a 	mov	r4,r2
 1203224:	180b883a 	mov	r5,r3
 1203228:	000d883a 	mov	r6,zero
 120322c:	000f883a 	mov	r7,zero
 1203230:	1027883a 	mov	r19,r2
 1203234:	182b883a 	mov	r21,r3
 1203238:	120b5240 	call	120b524 <__eqdf2>
 120323c:	103f9926 	beq	r2,zero,12030a4 <__alt_mem_instruction_tcm+0xff2030a4>
 1203240:	d8c00617 	ldw	r3,24(sp)
 1203244:	d9000717 	ldw	r4,28(sp)
 1203248:	b825883a 	mov	r18,r23
 120324c:	18bfffc4 	addi	r2,r3,-1
 1203250:	20ad883a 	add	r22,r4,r2
 1203254:	dc000315 	stw	r16,12(sp)
 1203258:	00000a06 	br	1203284 <_dtoa_r+0x898>
 120325c:	120b7680 	call	120b768 <__muldf3>
 1203260:	1009883a 	mov	r4,r2
 1203264:	180b883a 	mov	r5,r3
 1203268:	000d883a 	mov	r6,zero
 120326c:	000f883a 	mov	r7,zero
 1203270:	1027883a 	mov	r19,r2
 1203274:	182b883a 	mov	r21,r3
 1203278:	b825883a 	mov	r18,r23
 120327c:	120b5240 	call	120b524 <__eqdf2>
 1203280:	10022626 	beq	r2,zero,1203b1c <_dtoa_r+0x1130>
 1203284:	880d883a 	mov	r6,r17
 1203288:	a00f883a 	mov	r7,r20
 120328c:	9809883a 	mov	r4,r19
 1203290:	a80b883a 	mov	r5,r21
 1203294:	120ac580 	call	120ac58 <__divdf3>
 1203298:	180b883a 	mov	r5,r3
 120329c:	1009883a 	mov	r4,r2
 12032a0:	120c75c0 	call	120c75c <__fixdfsi>
 12032a4:	1009883a 	mov	r4,r2
 12032a8:	1021883a 	mov	r16,r2
 12032ac:	120c7e40 	call	120c7e4 <__floatsidf>
 12032b0:	1009883a 	mov	r4,r2
 12032b4:	180b883a 	mov	r5,r3
 12032b8:	880d883a 	mov	r6,r17
 12032bc:	a00f883a 	mov	r7,r20
 12032c0:	120b7680 	call	120b768 <__muldf3>
 12032c4:	9809883a 	mov	r4,r19
 12032c8:	a80b883a 	mov	r5,r21
 12032cc:	100d883a 	mov	r6,r2
 12032d0:	180f883a 	mov	r7,r3
 12032d4:	120be8c0 	call	120be8c <__subdf3>
 12032d8:	82000c04 	addi	r8,r16,48
 12032dc:	92000005 	stb	r8,0(r18)
 12032e0:	1009883a 	mov	r4,r2
 12032e4:	180b883a 	mov	r5,r3
 12032e8:	000d883a 	mov	r6,zero
 12032ec:	01d00934 	movhi	r7,16420
 12032f0:	1011883a 	mov	r8,r2
 12032f4:	bdc00044 	addi	r23,r23,1
 12032f8:	95bfd81e 	bne	r18,r22,120325c <__alt_mem_instruction_tcm+0xff20325c>
 12032fc:	802d883a 	mov	r22,r16
 1203300:	dc000317 	ldw	r16,12(sp)
 1203304:	4009883a 	mov	r4,r8
 1203308:	180b883a 	mov	r5,r3
 120330c:	400d883a 	mov	r6,r8
 1203310:	180f883a 	mov	r7,r3
 1203314:	120a3bc0 	call	120a3bc <__adddf3>
 1203318:	8809883a 	mov	r4,r17
 120331c:	a00b883a 	mov	r5,r20
 1203320:	100d883a 	mov	r6,r2
 1203324:	180f883a 	mov	r7,r3
 1203328:	1027883a 	mov	r19,r2
 120332c:	1825883a 	mov	r18,r3
 1203330:	120b6880 	call	120b688 <__ledf2>
 1203334:	10000816 	blt	r2,zero,1203358 <_dtoa_r+0x96c>
 1203338:	8809883a 	mov	r4,r17
 120333c:	a00b883a 	mov	r5,r20
 1203340:	980d883a 	mov	r6,r19
 1203344:	900f883a 	mov	r7,r18
 1203348:	120b5240 	call	120b524 <__eqdf2>
 120334c:	103f551e 	bne	r2,zero,12030a4 <__alt_mem_instruction_tcm+0xff2030a4>
 1203350:	b580004c 	andi	r22,r22,1
 1203354:	b03f5326 	beq	r22,zero,12030a4 <__alt_mem_instruction_tcm+0xff2030a4>
 1203358:	bd7fffc3 	ldbu	r21,-1(r23)
 120335c:	b8bfffc4 	addi	r2,r23,-1
 1203360:	1007883a 	mov	r3,r2
 1203364:	01400e44 	movi	r5,57
 1203368:	d9800717 	ldw	r6,28(sp)
 120336c:	00000506 	br	1203384 <_dtoa_r+0x998>
 1203370:	18ffffc4 	addi	r3,r3,-1
 1203374:	30825e26 	beq	r6,r2,1203cf0 <_dtoa_r+0x1304>
 1203378:	1d400003 	ldbu	r21,0(r3)
 120337c:	102f883a 	mov	r23,r2
 1203380:	10bfffc4 	addi	r2,r2,-1
 1203384:	a9003fcc 	andi	r4,r21,255
 1203388:	2100201c 	xori	r4,r4,128
 120338c:	213fe004 	addi	r4,r4,-128
 1203390:	217ff726 	beq	r4,r5,1203370 <__alt_mem_instruction_tcm+0xff203370>
 1203394:	aa000044 	addi	r8,r21,1
 1203398:	12000005 	stb	r8,0(r2)
 120339c:	003f4106 	br	12030a4 <__alt_mem_instruction_tcm+0xff2030a4>
 12033a0:	d8c00b17 	ldw	r3,44(sp)
 12033a4:	18006726 	beq	r3,zero,1203544 <_dtoa_r+0xb58>
 12033a8:	d9000317 	ldw	r4,12(sp)
 12033ac:	00c00044 	movi	r3,1
 12033b0:	19016a0e 	bge	r3,r4,120395c <_dtoa_r+0xf70>
 12033b4:	d8800617 	ldw	r2,24(sp)
 12033b8:	d8c00917 	ldw	r3,36(sp)
 12033bc:	157fffc4 	addi	r21,r2,-1
 12033c0:	1d420716 	blt	r3,r21,1203be0 <_dtoa_r+0x11f4>
 12033c4:	1d6bc83a 	sub	r21,r3,r21
 12033c8:	d8800617 	ldw	r2,24(sp)
 12033cc:	1002c716 	blt	r2,zero,1203eec <_dtoa_r+0x1500>
 12033d0:	dd000817 	ldw	r20,32(sp)
 12033d4:	d8800617 	ldw	r2,24(sp)
 12033d8:	d9800817 	ldw	r6,32(sp)
 12033dc:	8009883a 	mov	r4,r16
 12033e0:	01400044 	movi	r5,1
 12033e4:	308d883a 	add	r6,r6,r2
 12033e8:	d9800815 	stw	r6,32(sp)
 12033ec:	b0ad883a 	add	r22,r22,r2
 12033f0:	1205e6c0 	call	1205e6c <__i2b>
 12033f4:	1023883a 	mov	r17,r2
 12033f8:	a0000826 	beq	r20,zero,120341c <_dtoa_r+0xa30>
 12033fc:	0580070e 	bge	zero,r22,120341c <_dtoa_r+0xa30>
 1203400:	b005883a 	mov	r2,r22
 1203404:	a5812016 	blt	r20,r22,1203888 <_dtoa_r+0xe9c>
 1203408:	d8c00817 	ldw	r3,32(sp)
 120340c:	a0a9c83a 	sub	r20,r20,r2
 1203410:	b0adc83a 	sub	r22,r22,r2
 1203414:	1887c83a 	sub	r3,r3,r2
 1203418:	d8c00815 	stw	r3,32(sp)
 120341c:	d9000917 	ldw	r4,36(sp)
 1203420:	0100140e 	bge	zero,r4,1203474 <_dtoa_r+0xa88>
 1203424:	d9800b17 	ldw	r6,44(sp)
 1203428:	3001e526 	beq	r6,zero,1203bc0 <_dtoa_r+0x11d4>
 120342c:	05400e0e 	bge	zero,r21,1203468 <_dtoa_r+0xa7c>
 1203430:	880b883a 	mov	r5,r17
 1203434:	8009883a 	mov	r4,r16
 1203438:	a80d883a 	mov	r6,r21
 120343c:	12060a40 	call	12060a4 <__pow5mult>
 1203440:	e00d883a 	mov	r6,fp
 1203444:	8009883a 	mov	r4,r16
 1203448:	100b883a 	mov	r5,r2
 120344c:	1023883a 	mov	r17,r2
 1203450:	1205ea80 	call	1205ea8 <__multiply>
 1203454:	102f883a 	mov	r23,r2
 1203458:	e00b883a 	mov	r5,fp
 120345c:	8009883a 	mov	r4,r16
 1203460:	1205b140 	call	1205b14 <_Bfree>
 1203464:	b839883a 	mov	fp,r23
 1203468:	d8800917 	ldw	r2,36(sp)
 120346c:	154dc83a 	sub	r6,r2,r21
 1203470:	3001281e 	bne	r6,zero,1203914 <_dtoa_r+0xf28>
 1203474:	05c00044 	movi	r23,1
 1203478:	8009883a 	mov	r4,r16
 120347c:	b80b883a 	mov	r5,r23
 1203480:	1205e6c0 	call	1205e6c <__i2b>
 1203484:	d8c00a17 	ldw	r3,40(sp)
 1203488:	102b883a 	mov	r21,r2
 120348c:	00c0310e 	bge	zero,r3,1203554 <_dtoa_r+0xb68>
 1203490:	8009883a 	mov	r4,r16
 1203494:	100b883a 	mov	r5,r2
 1203498:	180d883a 	mov	r6,r3
 120349c:	12060a40 	call	12060a4 <__pow5mult>
 12034a0:	d9000317 	ldw	r4,12(sp)
 12034a4:	102b883a 	mov	r21,r2
 12034a8:	b9011f0e 	bge	r23,r4,1203928 <_dtoa_r+0xf3c>
 12034ac:	0027883a 	mov	r19,zero
 12034b0:	a8800417 	ldw	r2,16(r21)
 12034b4:	10800104 	addi	r2,r2,4
 12034b8:	1085883a 	add	r2,r2,r2
 12034bc:	1085883a 	add	r2,r2,r2
 12034c0:	a885883a 	add	r2,r21,r2
 12034c4:	11000017 	ldw	r4,0(r2)
 12034c8:	1205d540 	call	1205d54 <__hi0bits>
 12034cc:	00c00804 	movi	r3,32
 12034d0:	1885c83a 	sub	r2,r3,r2
 12034d4:	00002506 	br	120356c <_dtoa_r+0xb80>
 12034d8:	01800044 	movi	r6,1
 12034dc:	d9800c15 	stw	r6,48(sp)
 12034e0:	003dec06 	br	1202c94 <__alt_mem_instruction_tcm+0xff202c94>
 12034e4:	d8c00817 	ldw	r3,32(sp)
 12034e8:	d9000517 	ldw	r4,20(sp)
 12034ec:	d8000a15 	stw	zero,40(sp)
 12034f0:	1907c83a 	sub	r3,r3,r4
 12034f4:	010dc83a 	sub	r6,zero,r4
 12034f8:	d8c00815 	stw	r3,32(sp)
 12034fc:	d9800915 	stw	r6,36(sp)
 1203500:	003ded06 	br	1202cb8 <__alt_mem_instruction_tcm+0xff202cb8>
 1203504:	05adc83a 	sub	r22,zero,r22
 1203508:	dd800815 	stw	r22,32(sp)
 120350c:	002d883a 	mov	r22,zero
 1203510:	003de406 	br	1202ca4 <__alt_mem_instruction_tcm+0xff202ca4>
 1203514:	d9000517 	ldw	r4,20(sp)
 1203518:	120c7e40 	call	120c7e4 <__floatsidf>
 120351c:	1009883a 	mov	r4,r2
 1203520:	180b883a 	mov	r5,r3
 1203524:	b00d883a 	mov	r6,r22
 1203528:	a80f883a 	mov	r7,r21
 120352c:	120b5240 	call	120b524 <__eqdf2>
 1203530:	103dc726 	beq	r2,zero,1202c50 <__alt_mem_instruction_tcm+0xff202c50>
 1203534:	d8800517 	ldw	r2,20(sp)
 1203538:	10bfffc4 	addi	r2,r2,-1
 120353c:	d8800515 	stw	r2,20(sp)
 1203540:	003dc306 	br	1202c50 <__alt_mem_instruction_tcm+0xff202c50>
 1203544:	dd400917 	ldw	r21,36(sp)
 1203548:	dd000817 	ldw	r20,32(sp)
 120354c:	0023883a 	mov	r17,zero
 1203550:	003fa906 	br	12033f8 <__alt_mem_instruction_tcm+0xff2033f8>
 1203554:	d9800317 	ldw	r6,12(sp)
 1203558:	b981670e 	bge	r23,r6,1203af8 <_dtoa_r+0x110c>
 120355c:	0027883a 	mov	r19,zero
 1203560:	d8c00a17 	ldw	r3,40(sp)
 1203564:	183fd21e 	bne	r3,zero,12034b0 <__alt_mem_instruction_tcm+0xff2034b0>
 1203568:	00800044 	movi	r2,1
 120356c:	1585883a 	add	r2,r2,r22
 1203570:	108007cc 	andi	r2,r2,31
 1203574:	10005f26 	beq	r2,zero,12036f4 <_dtoa_r+0xd08>
 1203578:	00c00804 	movi	r3,32
 120357c:	1887c83a 	sub	r3,r3,r2
 1203580:	01000104 	movi	r4,4
 1203584:	20c2dd0e 	bge	r4,r3,12040fc <_dtoa_r+0x1710>
 1203588:	d9000817 	ldw	r4,32(sp)
 120358c:	00c00704 	movi	r3,28
 1203590:	1885c83a 	sub	r2,r3,r2
 1203594:	2089883a 	add	r4,r4,r2
 1203598:	d9000815 	stw	r4,32(sp)
 120359c:	a0a9883a 	add	r20,r20,r2
 12035a0:	b0ad883a 	add	r22,r22,r2
 12035a4:	d8800817 	ldw	r2,32(sp)
 12035a8:	0080050e 	bge	zero,r2,12035c0 <_dtoa_r+0xbd4>
 12035ac:	e00b883a 	mov	r5,fp
 12035b0:	8009883a 	mov	r4,r16
 12035b4:	100d883a 	mov	r6,r2
 12035b8:	12061e40 	call	12061e4 <__lshift>
 12035bc:	1039883a 	mov	fp,r2
 12035c0:	0580050e 	bge	zero,r22,12035d8 <_dtoa_r+0xbec>
 12035c4:	a80b883a 	mov	r5,r21
 12035c8:	8009883a 	mov	r4,r16
 12035cc:	b00d883a 	mov	r6,r22
 12035d0:	12061e40 	call	12061e4 <__lshift>
 12035d4:	102b883a 	mov	r21,r2
 12035d8:	d8c00c17 	ldw	r3,48(sp)
 12035dc:	1801161e 	bne	r3,zero,1203a38 <_dtoa_r+0x104c>
 12035e0:	d8c00617 	ldw	r3,24(sp)
 12035e4:	00c12d0e 	bge	zero,r3,1203a9c <_dtoa_r+0x10b0>
 12035e8:	d8c00b17 	ldw	r3,44(sp)
 12035ec:	1800571e 	bne	r3,zero,120374c <_dtoa_r+0xd60>
 12035f0:	dc800717 	ldw	r18,28(sp)
 12035f4:	dcc00617 	ldw	r19,24(sp)
 12035f8:	9029883a 	mov	r20,r18
 12035fc:	00000206 	br	1203608 <_dtoa_r+0xc1c>
 1203600:	1205b3c0 	call	1205b3c <__multadd>
 1203604:	1039883a 	mov	fp,r2
 1203608:	e009883a 	mov	r4,fp
 120360c:	a80b883a 	mov	r5,r21
 1203610:	12027ec0 	call	12027ec <quorem>
 1203614:	10800c04 	addi	r2,r2,48
 1203618:	90800005 	stb	r2,0(r18)
 120361c:	94800044 	addi	r18,r18,1
 1203620:	9507c83a 	sub	r3,r18,r20
 1203624:	8009883a 	mov	r4,r16
 1203628:	e00b883a 	mov	r5,fp
 120362c:	01800284 	movi	r6,10
 1203630:	000f883a 	mov	r7,zero
 1203634:	1cfff216 	blt	r3,r19,1203600 <__alt_mem_instruction_tcm+0xff203600>
 1203638:	1011883a 	mov	r8,r2
 120363c:	d8800617 	ldw	r2,24(sp)
 1203640:	00822e0e 	bge	zero,r2,1203efc <_dtoa_r+0x1510>
 1203644:	d9000717 	ldw	r4,28(sp)
 1203648:	0025883a 	mov	r18,zero
 120364c:	20af883a 	add	r23,r4,r2
 1203650:	e00b883a 	mov	r5,fp
 1203654:	01800044 	movi	r6,1
 1203658:	8009883a 	mov	r4,r16
 120365c:	da001715 	stw	r8,92(sp)
 1203660:	12061e40 	call	12061e4 <__lshift>
 1203664:	1009883a 	mov	r4,r2
 1203668:	a80b883a 	mov	r5,r21
 120366c:	1039883a 	mov	fp,r2
 1203670:	120632c0 	call	120632c <__mcmp>
 1203674:	da001717 	ldw	r8,92(sp)
 1203678:	00816e0e 	bge	zero,r2,1203c34 <_dtoa_r+0x1248>
 120367c:	b93fffc3 	ldbu	r4,-1(r23)
 1203680:	b8bfffc4 	addi	r2,r23,-1
 1203684:	1007883a 	mov	r3,r2
 1203688:	01800e44 	movi	r6,57
 120368c:	d9c00717 	ldw	r7,28(sp)
 1203690:	00000506 	br	12036a8 <_dtoa_r+0xcbc>
 1203694:	18ffffc4 	addi	r3,r3,-1
 1203698:	38811926 	beq	r7,r2,1203b00 <_dtoa_r+0x1114>
 120369c:	19000003 	ldbu	r4,0(r3)
 12036a0:	102f883a 	mov	r23,r2
 12036a4:	10bfffc4 	addi	r2,r2,-1
 12036a8:	21403fcc 	andi	r5,r4,255
 12036ac:	2940201c 	xori	r5,r5,128
 12036b0:	297fe004 	addi	r5,r5,-128
 12036b4:	29bff726 	beq	r5,r6,1203694 <__alt_mem_instruction_tcm+0xff203694>
 12036b8:	21000044 	addi	r4,r4,1
 12036bc:	11000005 	stb	r4,0(r2)
 12036c0:	8009883a 	mov	r4,r16
 12036c4:	a80b883a 	mov	r5,r21
 12036c8:	1205b140 	call	1205b14 <_Bfree>
 12036cc:	883e7526 	beq	r17,zero,12030a4 <__alt_mem_instruction_tcm+0xff2030a4>
 12036d0:	90000426 	beq	r18,zero,12036e4 <_dtoa_r+0xcf8>
 12036d4:	94400326 	beq	r18,r17,12036e4 <_dtoa_r+0xcf8>
 12036d8:	8009883a 	mov	r4,r16
 12036dc:	900b883a 	mov	r5,r18
 12036e0:	1205b140 	call	1205b14 <_Bfree>
 12036e4:	8009883a 	mov	r4,r16
 12036e8:	880b883a 	mov	r5,r17
 12036ec:	1205b140 	call	1205b14 <_Bfree>
 12036f0:	003e6c06 	br	12030a4 <__alt_mem_instruction_tcm+0xff2030a4>
 12036f4:	00800704 	movi	r2,28
 12036f8:	d9800817 	ldw	r6,32(sp)
 12036fc:	a0a9883a 	add	r20,r20,r2
 1203700:	b0ad883a 	add	r22,r22,r2
 1203704:	308d883a 	add	r6,r6,r2
 1203708:	d9800815 	stw	r6,32(sp)
 120370c:	003fa506 	br	12035a4 <__alt_mem_instruction_tcm+0xff2035a4>
 1203710:	013efb84 	movi	r4,-1042
 1203714:	246bc83a 	sub	r21,r4,r17
 1203718:	9548983a 	sll	r4,r18,r21
 120371c:	003d1806 	br	1202b80 <__alt_mem_instruction_tcm+0xff202b80>
 1203720:	d8000c15 	stw	zero,48(sp)
 1203724:	003d5b06 	br	1202c94 <__alt_mem_instruction_tcm+0xff202c94>
 1203728:	880b883a 	mov	r5,r17
 120372c:	8009883a 	mov	r4,r16
 1203730:	01800284 	movi	r6,10
 1203734:	000f883a 	mov	r7,zero
 1203738:	1205b3c0 	call	1205b3c <__multadd>
 120373c:	1023883a 	mov	r17,r2
 1203740:	d8800d17 	ldw	r2,52(sp)
 1203744:	0082550e 	bge	zero,r2,120409c <_dtoa_r+0x16b0>
 1203748:	d8800615 	stw	r2,24(sp)
 120374c:	0500050e 	bge	zero,r20,1203764 <_dtoa_r+0xd78>
 1203750:	880b883a 	mov	r5,r17
 1203754:	8009883a 	mov	r4,r16
 1203758:	a00d883a 	mov	r6,r20
 120375c:	12061e40 	call	12061e4 <__lshift>
 1203760:	1023883a 	mov	r17,r2
 1203764:	98016a1e 	bne	r19,zero,1203d10 <_dtoa_r+0x1324>
 1203768:	8829883a 	mov	r20,r17
 120376c:	d9000617 	ldw	r4,24(sp)
 1203770:	dcc00717 	ldw	r19,28(sp)
 1203774:	9480004c 	andi	r18,r18,1
 1203778:	20bfffc4 	addi	r2,r4,-1
 120377c:	9885883a 	add	r2,r19,r2
 1203780:	d8800415 	stw	r2,16(sp)
 1203784:	dc800615 	stw	r18,24(sp)
 1203788:	e009883a 	mov	r4,fp
 120378c:	a80b883a 	mov	r5,r21
 1203790:	12027ec0 	call	12027ec <quorem>
 1203794:	e009883a 	mov	r4,fp
 1203798:	880b883a 	mov	r5,r17
 120379c:	102f883a 	mov	r23,r2
 12037a0:	120632c0 	call	120632c <__mcmp>
 12037a4:	8009883a 	mov	r4,r16
 12037a8:	a80b883a 	mov	r5,r21
 12037ac:	a00d883a 	mov	r6,r20
 12037b0:	102d883a 	mov	r22,r2
 12037b4:	120638c0 	call	120638c <__mdiff>
 12037b8:	1007883a 	mov	r3,r2
 12037bc:	10800317 	ldw	r2,12(r2)
 12037c0:	bc800c04 	addi	r18,r23,48
 12037c4:	1000971e 	bne	r2,zero,1203a24 <_dtoa_r+0x1038>
 12037c8:	180b883a 	mov	r5,r3
 12037cc:	e009883a 	mov	r4,fp
 12037d0:	d8c01515 	stw	r3,84(sp)
 12037d4:	120632c0 	call	120632c <__mcmp>
 12037d8:	d8c01517 	ldw	r3,84(sp)
 12037dc:	8009883a 	mov	r4,r16
 12037e0:	d8801515 	stw	r2,84(sp)
 12037e4:	180b883a 	mov	r5,r3
 12037e8:	1205b140 	call	1205b14 <_Bfree>
 12037ec:	d8801517 	ldw	r2,84(sp)
 12037f0:	1000041e 	bne	r2,zero,1203804 <_dtoa_r+0xe18>
 12037f4:	d9800317 	ldw	r6,12(sp)
 12037f8:	3000021e 	bne	r6,zero,1203804 <_dtoa_r+0xe18>
 12037fc:	d8c00617 	ldw	r3,24(sp)
 1203800:	18007626 	beq	r3,zero,12039dc <_dtoa_r+0xff0>
 1203804:	b0005b16 	blt	r22,zero,1203974 <_dtoa_r+0xf88>
 1203808:	b000041e 	bne	r22,zero,120381c <_dtoa_r+0xe30>
 120380c:	d9000317 	ldw	r4,12(sp)
 1203810:	2000021e 	bne	r4,zero,120381c <_dtoa_r+0xe30>
 1203814:	d8c00617 	ldw	r3,24(sp)
 1203818:	18005626 	beq	r3,zero,1203974 <_dtoa_r+0xf88>
 120381c:	00814d16 	blt	zero,r2,1203d54 <_dtoa_r+0x1368>
 1203820:	d8c00417 	ldw	r3,16(sp)
 1203824:	9d800044 	addi	r22,r19,1
 1203828:	9c800005 	stb	r18,0(r19)
 120382c:	b02f883a 	mov	r23,r22
 1203830:	98c14c26 	beq	r19,r3,1203d64 <_dtoa_r+0x1378>
 1203834:	e00b883a 	mov	r5,fp
 1203838:	8009883a 	mov	r4,r16
 120383c:	01800284 	movi	r6,10
 1203840:	000f883a 	mov	r7,zero
 1203844:	1205b3c0 	call	1205b3c <__multadd>
 1203848:	1039883a 	mov	fp,r2
 120384c:	8d006d26 	beq	r17,r20,1203a04 <_dtoa_r+0x1018>
 1203850:	880b883a 	mov	r5,r17
 1203854:	01800284 	movi	r6,10
 1203858:	000f883a 	mov	r7,zero
 120385c:	8009883a 	mov	r4,r16
 1203860:	1205b3c0 	call	1205b3c <__multadd>
 1203864:	a00b883a 	mov	r5,r20
 1203868:	8009883a 	mov	r4,r16
 120386c:	01800284 	movi	r6,10
 1203870:	000f883a 	mov	r7,zero
 1203874:	1023883a 	mov	r17,r2
 1203878:	1205b3c0 	call	1205b3c <__multadd>
 120387c:	1029883a 	mov	r20,r2
 1203880:	b027883a 	mov	r19,r22
 1203884:	003fc006 	br	1203788 <__alt_mem_instruction_tcm+0xff203788>
 1203888:	a005883a 	mov	r2,r20
 120388c:	003ede06 	br	1203408 <__alt_mem_instruction_tcm+0xff203408>
 1203890:	01000044 	movi	r4,1
 1203894:	d9000b15 	stw	r4,44(sp)
 1203898:	d9802217 	ldw	r6,136(sp)
 120389c:	0180dc0e 	bge	zero,r6,1203c10 <_dtoa_r+0x1224>
 12038a0:	3023883a 	mov	r17,r6
 12038a4:	d9800d15 	stw	r6,52(sp)
 12038a8:	d9800615 	stw	r6,24(sp)
 12038ac:	003d1e06 	br	1202d28 <__alt_mem_instruction_tcm+0xff202d28>
 12038b0:	d8800617 	ldw	r2,24(sp)
 12038b4:	00be3716 	blt	zero,r2,1203194 <__alt_mem_instruction_tcm+0xff203194>
 12038b8:	1000be1e 	bne	r2,zero,1203bb4 <_dtoa_r+0x11c8>
 12038bc:	8809883a 	mov	r4,r17
 12038c0:	a00b883a 	mov	r5,r20
 12038c4:	000d883a 	mov	r6,zero
 12038c8:	01d00534 	movhi	r7,16404
 12038cc:	120b7680 	call	120b768 <__muldf3>
 12038d0:	1009883a 	mov	r4,r2
 12038d4:	180b883a 	mov	r5,r3
 12038d8:	900d883a 	mov	r6,r18
 12038dc:	980f883a 	mov	r7,r19
 12038e0:	120b5a80 	call	120b5a8 <__gedf2>
 12038e4:	002b883a 	mov	r21,zero
 12038e8:	0023883a 	mov	r17,zero
 12038ec:	10007a16 	blt	r2,zero,1203ad8 <_dtoa_r+0x10ec>
 12038f0:	d9002217 	ldw	r4,136(sp)
 12038f4:	ddc00717 	ldw	r23,28(sp)
 12038f8:	0108303a 	nor	r4,zero,r4
 12038fc:	d9000515 	stw	r4,20(sp)
 1203900:	8009883a 	mov	r4,r16
 1203904:	a80b883a 	mov	r5,r21
 1203908:	1205b140 	call	1205b14 <_Bfree>
 120390c:	883f751e 	bne	r17,zero,12036e4 <__alt_mem_instruction_tcm+0xff2036e4>
 1203910:	003de406 	br	12030a4 <__alt_mem_instruction_tcm+0xff2030a4>
 1203914:	e00b883a 	mov	r5,fp
 1203918:	8009883a 	mov	r4,r16
 120391c:	12060a40 	call	12060a4 <__pow5mult>
 1203920:	1039883a 	mov	fp,r2
 1203924:	003ed306 	br	1203474 <__alt_mem_instruction_tcm+0xff203474>
 1203928:	903ee01e 	bne	r18,zero,12034ac <__alt_mem_instruction_tcm+0xff2034ac>
 120392c:	00800434 	movhi	r2,16
 1203930:	10bfffc4 	addi	r2,r2,-1
 1203934:	9884703a 	and	r2,r19,r2
 1203938:	103f081e 	bne	r2,zero,120355c <__alt_mem_instruction_tcm+0xff20355c>
 120393c:	9cdffc2c 	andhi	r19,r19,32752
 1203940:	983f0626 	beq	r19,zero,120355c <__alt_mem_instruction_tcm+0xff20355c>
 1203944:	d8800817 	ldw	r2,32(sp)
 1203948:	b5800044 	addi	r22,r22,1
 120394c:	04c00044 	movi	r19,1
 1203950:	10800044 	addi	r2,r2,1
 1203954:	d8800815 	stw	r2,32(sp)
 1203958:	003f0106 	br	1203560 <__alt_mem_instruction_tcm+0xff203560>
 120395c:	d9800f17 	ldw	r6,60(sp)
 1203960:	30016826 	beq	r6,zero,1203f04 <_dtoa_r+0x1518>
 1203964:	10810cc4 	addi	r2,r2,1075
 1203968:	dd400917 	ldw	r21,36(sp)
 120396c:	dd000817 	ldw	r20,32(sp)
 1203970:	003e9906 	br	12033d8 <__alt_mem_instruction_tcm+0xff2033d8>
 1203974:	9011883a 	mov	r8,r18
 1203978:	4007883a 	mov	r3,r8
 120397c:	e02d883a 	mov	r22,fp
 1203980:	0080100e 	bge	zero,r2,12039c4 <_dtoa_r+0xfd8>
 1203984:	01800044 	movi	r6,1
 1203988:	8009883a 	mov	r4,r16
 120398c:	e00b883a 	mov	r5,fp
 1203990:	da001515 	stw	r8,84(sp)
 1203994:	da001715 	stw	r8,92(sp)
 1203998:	12061e40 	call	12061e4 <__lshift>
 120399c:	1009883a 	mov	r4,r2
 12039a0:	a80b883a 	mov	r5,r21
 12039a4:	102d883a 	mov	r22,r2
 12039a8:	120632c0 	call	120632c <__mcmp>
 12039ac:	d8c01517 	ldw	r3,84(sp)
 12039b0:	da001717 	ldw	r8,92(sp)
 12039b4:	0081a50e 	bge	zero,r2,120404c <_dtoa_r+0x1660>
 12039b8:	00800e44 	movi	r2,57
 12039bc:	40817b26 	beq	r8,r2,1203fac <_dtoa_r+0x15c0>
 12039c0:	40c00044 	addi	r3,r8,1
 12039c4:	8825883a 	mov	r18,r17
 12039c8:	9dc00044 	addi	r23,r19,1
 12039cc:	98c00005 	stb	r3,0(r19)
 12039d0:	a023883a 	mov	r17,r20
 12039d4:	b039883a 	mov	fp,r22
 12039d8:	003f3906 	br	12036c0 <__alt_mem_instruction_tcm+0xff2036c0>
 12039dc:	00800e44 	movi	r2,57
 12039e0:	9011883a 	mov	r8,r18
 12039e4:	90817226 	beq	r18,r2,1203fb0 <_dtoa_r+0x15c4>
 12039e8:	0580010e 	bge	zero,r22,12039f0 <_dtoa_r+0x1004>
 12039ec:	ba000c44 	addi	r8,r23,49
 12039f0:	8825883a 	mov	r18,r17
 12039f4:	9dc00044 	addi	r23,r19,1
 12039f8:	9a000005 	stb	r8,0(r19)
 12039fc:	a023883a 	mov	r17,r20
 1203a00:	003f2f06 	br	12036c0 <__alt_mem_instruction_tcm+0xff2036c0>
 1203a04:	880b883a 	mov	r5,r17
 1203a08:	8009883a 	mov	r4,r16
 1203a0c:	01800284 	movi	r6,10
 1203a10:	000f883a 	mov	r7,zero
 1203a14:	1205b3c0 	call	1205b3c <__multadd>
 1203a18:	1023883a 	mov	r17,r2
 1203a1c:	1029883a 	mov	r20,r2
 1203a20:	003f9706 	br	1203880 <__alt_mem_instruction_tcm+0xff203880>
 1203a24:	8009883a 	mov	r4,r16
 1203a28:	180b883a 	mov	r5,r3
 1203a2c:	1205b140 	call	1205b14 <_Bfree>
 1203a30:	00800044 	movi	r2,1
 1203a34:	003f7306 	br	1203804 <__alt_mem_instruction_tcm+0xff203804>
 1203a38:	e009883a 	mov	r4,fp
 1203a3c:	a80b883a 	mov	r5,r21
 1203a40:	120632c0 	call	120632c <__mcmp>
 1203a44:	103ee60e 	bge	r2,zero,12035e0 <__alt_mem_instruction_tcm+0xff2035e0>
 1203a48:	8009883a 	mov	r4,r16
 1203a4c:	e00b883a 	mov	r5,fp
 1203a50:	01800284 	movi	r6,10
 1203a54:	000f883a 	mov	r7,zero
 1203a58:	1205b3c0 	call	1205b3c <__multadd>
 1203a5c:	d9000517 	ldw	r4,20(sp)
 1203a60:	d9800b17 	ldw	r6,44(sp)
 1203a64:	1039883a 	mov	fp,r2
 1203a68:	213fffc4 	addi	r4,r4,-1
 1203a6c:	d9000515 	stw	r4,20(sp)
 1203a70:	303f2d1e 	bne	r6,zero,1203728 <__alt_mem_instruction_tcm+0xff203728>
 1203a74:	d9000d17 	ldw	r4,52(sp)
 1203a78:	0101780e 	bge	zero,r4,120405c <_dtoa_r+0x1670>
 1203a7c:	d9000615 	stw	r4,24(sp)
 1203a80:	003edb06 	br	12035f0 <__alt_mem_instruction_tcm+0xff2035f0>
 1203a84:	00800084 	movi	r2,2
 1203a88:	30818e1e 	bne	r6,r2,12040c4 <_dtoa_r+0x16d8>
 1203a8c:	d8000b15 	stw	zero,44(sp)
 1203a90:	003f8106 	br	1203898 <__alt_mem_instruction_tcm+0xff203898>
 1203a94:	d8800717 	ldw	r2,28(sp)
 1203a98:	003c0306 	br	1202aa8 <__alt_mem_instruction_tcm+0xff202aa8>
 1203a9c:	d9000317 	ldw	r4,12(sp)
 1203aa0:	00800084 	movi	r2,2
 1203aa4:	113ed00e 	bge	r2,r4,12035e8 <__alt_mem_instruction_tcm+0xff2035e8>
 1203aa8:	d8c00617 	ldw	r3,24(sp)
 1203aac:	183f901e 	bne	r3,zero,12038f0 <__alt_mem_instruction_tcm+0xff2038f0>
 1203ab0:	a80b883a 	mov	r5,r21
 1203ab4:	8009883a 	mov	r4,r16
 1203ab8:	01800144 	movi	r6,5
 1203abc:	000f883a 	mov	r7,zero
 1203ac0:	1205b3c0 	call	1205b3c <__multadd>
 1203ac4:	e009883a 	mov	r4,fp
 1203ac8:	100b883a 	mov	r5,r2
 1203acc:	102b883a 	mov	r21,r2
 1203ad0:	120632c0 	call	120632c <__mcmp>
 1203ad4:	00bf860e 	bge	zero,r2,12038f0 <__alt_mem_instruction_tcm+0xff2038f0>
 1203ad8:	d9800717 	ldw	r6,28(sp)
 1203adc:	00800c44 	movi	r2,49
 1203ae0:	30800005 	stb	r2,0(r6)
 1203ae4:	d8800517 	ldw	r2,20(sp)
 1203ae8:	35c00044 	addi	r23,r6,1
 1203aec:	10800044 	addi	r2,r2,1
 1203af0:	d8800515 	stw	r2,20(sp)
 1203af4:	003f8206 	br	1203900 <__alt_mem_instruction_tcm+0xff203900>
 1203af8:	903e981e 	bne	r18,zero,120355c <__alt_mem_instruction_tcm+0xff20355c>
 1203afc:	003f8b06 	br	120392c <__alt_mem_instruction_tcm+0xff20392c>
 1203b00:	d9800517 	ldw	r6,20(sp)
 1203b04:	d8c00717 	ldw	r3,28(sp)
 1203b08:	00800c44 	movi	r2,49
 1203b0c:	31800044 	addi	r6,r6,1
 1203b10:	d9800515 	stw	r6,20(sp)
 1203b14:	18800005 	stb	r2,0(r3)
 1203b18:	003ee906 	br	12036c0 <__alt_mem_instruction_tcm+0xff2036c0>
 1203b1c:	dc000317 	ldw	r16,12(sp)
 1203b20:	003d6006 	br	12030a4 <__alt_mem_instruction_tcm+0xff2030a4>
 1203b24:	8809883a 	mov	r4,r17
 1203b28:	120c7e40 	call	120c7e4 <__floatsidf>
 1203b2c:	a009883a 	mov	r4,r20
 1203b30:	a80b883a 	mov	r5,r21
 1203b34:	100d883a 	mov	r6,r2
 1203b38:	180f883a 	mov	r7,r3
 1203b3c:	120b7680 	call	120b768 <__muldf3>
 1203b40:	1009883a 	mov	r4,r2
 1203b44:	180b883a 	mov	r5,r3
 1203b48:	000d883a 	mov	r6,zero
 1203b4c:	01d00734 	movhi	r7,16412
 1203b50:	120a3bc0 	call	120a3bc <__adddf3>
 1203b54:	1023883a 	mov	r17,r2
 1203b58:	00bf3034 	movhi	r2,64704
 1203b5c:	1885883a 	add	r2,r3,r2
 1203b60:	d8800e15 	stw	r2,56(sp)
 1203b64:	a009883a 	mov	r4,r20
 1203b68:	a80b883a 	mov	r5,r21
 1203b6c:	000d883a 	mov	r6,zero
 1203b70:	01d00534 	movhi	r7,16404
 1203b74:	120be8c0 	call	120be8c <__subdf3>
 1203b78:	d9c00e17 	ldw	r7,56(sp)
 1203b7c:	1009883a 	mov	r4,r2
 1203b80:	180b883a 	mov	r5,r3
 1203b84:	880d883a 	mov	r6,r17
 1203b88:	102b883a 	mov	r21,r2
 1203b8c:	1829883a 	mov	r20,r3
 1203b90:	120b5a80 	call	120b5a8 <__gedf2>
 1203b94:	00807716 	blt	zero,r2,1203d74 <_dtoa_r+0x1388>
 1203b98:	d8800e17 	ldw	r2,56(sp)
 1203b9c:	a809883a 	mov	r4,r21
 1203ba0:	a00b883a 	mov	r5,r20
 1203ba4:	11e0003c 	xorhi	r7,r2,32768
 1203ba8:	880d883a 	mov	r6,r17
 1203bac:	120b6880 	call	120b688 <__ledf2>
 1203bb0:	103d6b0e 	bge	r2,zero,1203160 <__alt_mem_instruction_tcm+0xff203160>
 1203bb4:	002b883a 	mov	r21,zero
 1203bb8:	0023883a 	mov	r17,zero
 1203bbc:	003f4c06 	br	12038f0 <__alt_mem_instruction_tcm+0xff2038f0>
 1203bc0:	d9800917 	ldw	r6,36(sp)
 1203bc4:	e00b883a 	mov	r5,fp
 1203bc8:	8009883a 	mov	r4,r16
 1203bcc:	12060a40 	call	12060a4 <__pow5mult>
 1203bd0:	1039883a 	mov	fp,r2
 1203bd4:	003e2706 	br	1203474 <__alt_mem_instruction_tcm+0xff203474>
 1203bd8:	d8000b15 	stw	zero,44(sp)
 1203bdc:	003c4906 	br	1202d04 <__alt_mem_instruction_tcm+0xff202d04>
 1203be0:	d9000917 	ldw	r4,36(sp)
 1203be4:	d9800a17 	ldw	r6,40(sp)
 1203be8:	dd400915 	stw	r21,36(sp)
 1203bec:	a905c83a 	sub	r2,r21,r4
 1203bf0:	308d883a 	add	r6,r6,r2
 1203bf4:	d9800a15 	stw	r6,40(sp)
 1203bf8:	002b883a 	mov	r21,zero
 1203bfc:	003df206 	br	12033c8 <__alt_mem_instruction_tcm+0xff2033c8>
 1203c00:	dc800e15 	stw	r18,56(sp)
 1203c04:	982b883a 	mov	r21,r19
 1203c08:	04400084 	movi	r17,2
 1203c0c:	003c7406 	br	1202de0 <__alt_mem_instruction_tcm+0xff202de0>
 1203c10:	04400044 	movi	r17,1
 1203c14:	dc400d15 	stw	r17,52(sp)
 1203c18:	dc400615 	stw	r17,24(sp)
 1203c1c:	dc402215 	stw	r17,136(sp)
 1203c20:	80001115 	stw	zero,68(r16)
 1203c24:	000b883a 	mov	r5,zero
 1203c28:	003c4a06 	br	1202d54 <__alt_mem_instruction_tcm+0xff202d54>
 1203c2c:	3023883a 	mov	r17,r6
 1203c30:	003ffb06 	br	1203c20 <__alt_mem_instruction_tcm+0xff203c20>
 1203c34:	1000021e 	bne	r2,zero,1203c40 <_dtoa_r+0x1254>
 1203c38:	4200004c 	andi	r8,r8,1
 1203c3c:	403e8f1e 	bne	r8,zero,120367c <__alt_mem_instruction_tcm+0xff20367c>
 1203c40:	01000c04 	movi	r4,48
 1203c44:	00000106 	br	1203c4c <_dtoa_r+0x1260>
 1203c48:	102f883a 	mov	r23,r2
 1203c4c:	b8bfffc4 	addi	r2,r23,-1
 1203c50:	10c00007 	ldb	r3,0(r2)
 1203c54:	193ffc26 	beq	r3,r4,1203c48 <__alt_mem_instruction_tcm+0xff203c48>
 1203c58:	003e9906 	br	12036c0 <__alt_mem_instruction_tcm+0xff2036c0>
 1203c5c:	d9000517 	ldw	r4,20(sp)
 1203c60:	012fc83a 	sub	r23,zero,r4
 1203c64:	b800ad26 	beq	r23,zero,1203f1c <_dtoa_r+0x1530>
 1203c68:	b88003cc 	andi	r2,r23,15
 1203c6c:	100490fa 	slli	r2,r2,3
 1203c70:	00c04874 	movhi	r3,289
 1203c74:	18c80d04 	addi	r3,r3,8244
 1203c78:	1885883a 	add	r2,r3,r2
 1203c7c:	11800017 	ldw	r6,0(r2)
 1203c80:	11c00117 	ldw	r7,4(r2)
 1203c84:	b82fd13a 	srai	r23,r23,4
 1203c88:	9009883a 	mov	r4,r18
 1203c8c:	980b883a 	mov	r5,r19
 1203c90:	120b7680 	call	120b768 <__muldf3>
 1203c94:	1029883a 	mov	r20,r2
 1203c98:	182b883a 	mov	r21,r3
 1203c9c:	b800f426 	beq	r23,zero,1204070 <_dtoa_r+0x1684>
 1203ca0:	02004874 	movhi	r8,289
 1203ca4:	42080304 	addi	r8,r8,8204
 1203ca8:	8029883a 	mov	r20,r16
 1203cac:	04400084 	movi	r17,2
 1203cb0:	4021883a 	mov	r16,r8
 1203cb4:	b980004c 	andi	r6,r23,1
 1203cb8:	1009883a 	mov	r4,r2
 1203cbc:	b82fd07a 	srai	r23,r23,1
 1203cc0:	180b883a 	mov	r5,r3
 1203cc4:	30000426 	beq	r6,zero,1203cd8 <_dtoa_r+0x12ec>
 1203cc8:	81800017 	ldw	r6,0(r16)
 1203ccc:	81c00117 	ldw	r7,4(r16)
 1203cd0:	8c400044 	addi	r17,r17,1
 1203cd4:	120b7680 	call	120b768 <__muldf3>
 1203cd8:	84000204 	addi	r16,r16,8
 1203cdc:	b83ff51e 	bne	r23,zero,1203cb4 <__alt_mem_instruction_tcm+0xff203cb4>
 1203ce0:	a021883a 	mov	r16,r20
 1203ce4:	182b883a 	mov	r21,r3
 1203ce8:	1029883a 	mov	r20,r2
 1203cec:	003c5506 	br	1202e44 <__alt_mem_instruction_tcm+0xff202e44>
 1203cf0:	d9800517 	ldw	r6,20(sp)
 1203cf4:	d9000717 	ldw	r4,28(sp)
 1203cf8:	00c00c04 	movi	r3,48
 1203cfc:	31800044 	addi	r6,r6,1
 1203d00:	d9800515 	stw	r6,20(sp)
 1203d04:	20c00005 	stb	r3,0(r4)
 1203d08:	02000c44 	movi	r8,49
 1203d0c:	003da206 	br	1203398 <__alt_mem_instruction_tcm+0xff203398>
 1203d10:	89400117 	ldw	r5,4(r17)
 1203d14:	8009883a 	mov	r4,r16
 1203d18:	1205a6c0 	call	1205a6c <_Balloc>
 1203d1c:	89800417 	ldw	r6,16(r17)
 1203d20:	11000304 	addi	r4,r2,12
 1203d24:	89400304 	addi	r5,r17,12
 1203d28:	31800084 	addi	r6,r6,2
 1203d2c:	318d883a 	add	r6,r6,r6
 1203d30:	318d883a 	add	r6,r6,r6
 1203d34:	1027883a 	mov	r19,r2
 1203d38:	12058100 	call	1205810 <memcpy>
 1203d3c:	8009883a 	mov	r4,r16
 1203d40:	980b883a 	mov	r5,r19
 1203d44:	01800044 	movi	r6,1
 1203d48:	12061e40 	call	12061e4 <__lshift>
 1203d4c:	1029883a 	mov	r20,r2
 1203d50:	003e8606 	br	120376c <__alt_mem_instruction_tcm+0xff20376c>
 1203d54:	00800e44 	movi	r2,57
 1203d58:	90809526 	beq	r18,r2,1203fb0 <_dtoa_r+0x15c4>
 1203d5c:	92000044 	addi	r8,r18,1
 1203d60:	003f2306 	br	12039f0 <__alt_mem_instruction_tcm+0xff2039f0>
 1203d64:	9011883a 	mov	r8,r18
 1203d68:	8825883a 	mov	r18,r17
 1203d6c:	a023883a 	mov	r17,r20
 1203d70:	003e3706 	br	1203650 <__alt_mem_instruction_tcm+0xff203650>
 1203d74:	002b883a 	mov	r21,zero
 1203d78:	0023883a 	mov	r17,zero
 1203d7c:	003f5606 	br	1203ad8 <__alt_mem_instruction_tcm+0xff203ad8>
 1203d80:	51bfffc4 	addi	r6,r10,-1
 1203d84:	300490fa 	slli	r2,r6,3
 1203d88:	00c04874 	movhi	r3,289
 1203d8c:	18c80d04 	addi	r3,r3,8244
 1203d90:	1885883a 	add	r2,r3,r2
 1203d94:	d9c00e17 	ldw	r7,56(sp)
 1203d98:	11000017 	ldw	r4,0(r2)
 1203d9c:	11400117 	ldw	r5,4(r2)
 1203da0:	d8800717 	ldw	r2,28(sp)
 1203da4:	d9801015 	stw	r6,64(sp)
 1203da8:	880d883a 	mov	r6,r17
 1203dac:	da801615 	stw	r10,88(sp)
 1203db0:	15c00044 	addi	r23,r2,1
 1203db4:	120b7680 	call	120b768 <__muldf3>
 1203db8:	a80b883a 	mov	r5,r21
 1203dbc:	a009883a 	mov	r4,r20
 1203dc0:	d8c01115 	stw	r3,68(sp)
 1203dc4:	d8800e15 	stw	r2,56(sp)
 1203dc8:	120c75c0 	call	120c75c <__fixdfsi>
 1203dcc:	1009883a 	mov	r4,r2
 1203dd0:	1023883a 	mov	r17,r2
 1203dd4:	120c7e40 	call	120c7e4 <__floatsidf>
 1203dd8:	a009883a 	mov	r4,r20
 1203ddc:	a80b883a 	mov	r5,r21
 1203de0:	100d883a 	mov	r6,r2
 1203de4:	180f883a 	mov	r7,r3
 1203de8:	120be8c0 	call	120be8c <__subdf3>
 1203dec:	1813883a 	mov	r9,r3
 1203df0:	d8c00717 	ldw	r3,28(sp)
 1203df4:	8c400c04 	addi	r17,r17,48
 1203df8:	1011883a 	mov	r8,r2
 1203dfc:	1c400005 	stb	r17,0(r3)
 1203e00:	da801617 	ldw	r10,88(sp)
 1203e04:	00800044 	movi	r2,1
 1203e08:	50802326 	beq	r10,r2,1203e98 <_dtoa_r+0x14ac>
 1203e0c:	d8800717 	ldw	r2,28(sp)
 1203e10:	b82b883a 	mov	r21,r23
 1203e14:	dc001315 	stw	r16,76(sp)
 1203e18:	12a9883a 	add	r20,r2,r10
 1203e1c:	4807883a 	mov	r3,r9
 1203e20:	4005883a 	mov	r2,r8
 1203e24:	dc801415 	stw	r18,80(sp)
 1203e28:	000d883a 	mov	r6,zero
 1203e2c:	01d00934 	movhi	r7,16420
 1203e30:	1009883a 	mov	r4,r2
 1203e34:	180b883a 	mov	r5,r3
 1203e38:	120b7680 	call	120b768 <__muldf3>
 1203e3c:	180b883a 	mov	r5,r3
 1203e40:	1009883a 	mov	r4,r2
 1203e44:	1821883a 	mov	r16,r3
 1203e48:	1025883a 	mov	r18,r2
 1203e4c:	120c75c0 	call	120c75c <__fixdfsi>
 1203e50:	1009883a 	mov	r4,r2
 1203e54:	1023883a 	mov	r17,r2
 1203e58:	120c7e40 	call	120c7e4 <__floatsidf>
 1203e5c:	9009883a 	mov	r4,r18
 1203e60:	800b883a 	mov	r5,r16
 1203e64:	100d883a 	mov	r6,r2
 1203e68:	180f883a 	mov	r7,r3
 1203e6c:	8c400c04 	addi	r17,r17,48
 1203e70:	120be8c0 	call	120be8c <__subdf3>
 1203e74:	ad400044 	addi	r21,r21,1
 1203e78:	ac7fffc5 	stb	r17,-1(r21)
 1203e7c:	ad3fea1e 	bne	r21,r20,1203e28 <__alt_mem_instruction_tcm+0xff203e28>
 1203e80:	1813883a 	mov	r9,r3
 1203e84:	d8c01017 	ldw	r3,64(sp)
 1203e88:	dc001317 	ldw	r16,76(sp)
 1203e8c:	dc801417 	ldw	r18,80(sp)
 1203e90:	1011883a 	mov	r8,r2
 1203e94:	b8ef883a 	add	r23,r23,r3
 1203e98:	d9000e17 	ldw	r4,56(sp)
 1203e9c:	d9401117 	ldw	r5,68(sp)
 1203ea0:	000d883a 	mov	r6,zero
 1203ea4:	01cff834 	movhi	r7,16352
 1203ea8:	da001715 	stw	r8,92(sp)
 1203eac:	da401515 	stw	r9,84(sp)
 1203eb0:	120a3bc0 	call	120a3bc <__adddf3>
 1203eb4:	da001717 	ldw	r8,92(sp)
 1203eb8:	da401517 	ldw	r9,84(sp)
 1203ebc:	1009883a 	mov	r4,r2
 1203ec0:	400d883a 	mov	r6,r8
 1203ec4:	480f883a 	mov	r7,r9
 1203ec8:	180b883a 	mov	r5,r3
 1203ecc:	120b6880 	call	120b688 <__ledf2>
 1203ed0:	da001717 	ldw	r8,92(sp)
 1203ed4:	da401517 	ldw	r9,84(sp)
 1203ed8:	10003b0e 	bge	r2,zero,1203fc8 <_dtoa_r+0x15dc>
 1203edc:	d9001217 	ldw	r4,72(sp)
 1203ee0:	bd7fffc3 	ldbu	r21,-1(r23)
 1203ee4:	d9000515 	stw	r4,20(sp)
 1203ee8:	003d1c06 	br	120335c <__alt_mem_instruction_tcm+0xff20335c>
 1203eec:	d8c00817 	ldw	r3,32(sp)
 1203ef0:	18a9c83a 	sub	r20,r3,r2
 1203ef4:	0005883a 	mov	r2,zero
 1203ef8:	003d3706 	br	12033d8 <__alt_mem_instruction_tcm+0xff2033d8>
 1203efc:	00800044 	movi	r2,1
 1203f00:	003dd006 	br	1203644 <__alt_mem_instruction_tcm+0xff203644>
 1203f04:	d8c00217 	ldw	r3,8(sp)
 1203f08:	00800d84 	movi	r2,54
 1203f0c:	dd400917 	ldw	r21,36(sp)
 1203f10:	10c5c83a 	sub	r2,r2,r3
 1203f14:	dd000817 	ldw	r20,32(sp)
 1203f18:	003d2f06 	br	12033d8 <__alt_mem_instruction_tcm+0xff2033d8>
 1203f1c:	9029883a 	mov	r20,r18
 1203f20:	982b883a 	mov	r21,r19
 1203f24:	04400084 	movi	r17,2
 1203f28:	003bc606 	br	1202e44 <__alt_mem_instruction_tcm+0xff202e44>
 1203f2c:	d8800617 	ldw	r2,24(sp)
 1203f30:	103efc26 	beq	r2,zero,1203b24 <__alt_mem_instruction_tcm+0xff203b24>
 1203f34:	d8c00d17 	ldw	r3,52(sp)
 1203f38:	00fc890e 	bge	zero,r3,1203160 <__alt_mem_instruction_tcm+0xff203160>
 1203f3c:	a80b883a 	mov	r5,r21
 1203f40:	a009883a 	mov	r4,r20
 1203f44:	000d883a 	mov	r6,zero
 1203f48:	01d00934 	movhi	r7,16420
 1203f4c:	120b7680 	call	120b768 <__muldf3>
 1203f50:	89000044 	addi	r4,r17,1
 1203f54:	1029883a 	mov	r20,r2
 1203f58:	182b883a 	mov	r21,r3
 1203f5c:	120c7e40 	call	120c7e4 <__floatsidf>
 1203f60:	a009883a 	mov	r4,r20
 1203f64:	a80b883a 	mov	r5,r21
 1203f68:	100d883a 	mov	r6,r2
 1203f6c:	180f883a 	mov	r7,r3
 1203f70:	120b7680 	call	120b768 <__muldf3>
 1203f74:	1009883a 	mov	r4,r2
 1203f78:	180b883a 	mov	r5,r3
 1203f7c:	000d883a 	mov	r6,zero
 1203f80:	01d00734 	movhi	r7,16412
 1203f84:	120a3bc0 	call	120a3bc <__adddf3>
 1203f88:	d9000517 	ldw	r4,20(sp)
 1203f8c:	1023883a 	mov	r17,r2
 1203f90:	00bf3034 	movhi	r2,64704
 1203f94:	213fffc4 	addi	r4,r4,-1
 1203f98:	1885883a 	add	r2,r3,r2
 1203f9c:	d9001215 	stw	r4,72(sp)
 1203fa0:	d8800e15 	stw	r2,56(sp)
 1203fa4:	da800d17 	ldw	r10,52(sp)
 1203fa8:	003bc306 	br	1202eb8 <__alt_mem_instruction_tcm+0xff202eb8>
 1203fac:	b039883a 	mov	fp,r22
 1203fb0:	01000e44 	movi	r4,57
 1203fb4:	8825883a 	mov	r18,r17
 1203fb8:	9dc00044 	addi	r23,r19,1
 1203fbc:	99000005 	stb	r4,0(r19)
 1203fc0:	a023883a 	mov	r17,r20
 1203fc4:	003dae06 	br	1203680 <__alt_mem_instruction_tcm+0xff203680>
 1203fc8:	d9800e17 	ldw	r6,56(sp)
 1203fcc:	d9c01117 	ldw	r7,68(sp)
 1203fd0:	0009883a 	mov	r4,zero
 1203fd4:	014ff834 	movhi	r5,16352
 1203fd8:	da001715 	stw	r8,92(sp)
 1203fdc:	da401515 	stw	r9,84(sp)
 1203fe0:	120be8c0 	call	120be8c <__subdf3>
 1203fe4:	da001717 	ldw	r8,92(sp)
 1203fe8:	da401517 	ldw	r9,84(sp)
 1203fec:	1009883a 	mov	r4,r2
 1203ff0:	180b883a 	mov	r5,r3
 1203ff4:	400d883a 	mov	r6,r8
 1203ff8:	480f883a 	mov	r7,r9
 1203ffc:	120b5a80 	call	120b5a8 <__gedf2>
 1204000:	00bc570e 	bge	zero,r2,1203160 <__alt_mem_instruction_tcm+0xff203160>
 1204004:	01000c04 	movi	r4,48
 1204008:	00000106 	br	1204010 <_dtoa_r+0x1624>
 120400c:	102f883a 	mov	r23,r2
 1204010:	b8bfffc4 	addi	r2,r23,-1
 1204014:	10c00007 	ldb	r3,0(r2)
 1204018:	193ffc26 	beq	r3,r4,120400c <__alt_mem_instruction_tcm+0xff20400c>
 120401c:	d9801217 	ldw	r6,72(sp)
 1204020:	d9800515 	stw	r6,20(sp)
 1204024:	003c1f06 	br	12030a4 <__alt_mem_instruction_tcm+0xff2030a4>
 1204028:	d8801217 	ldw	r2,72(sp)
 120402c:	dc001117 	ldw	r16,68(sp)
 1204030:	d8800515 	stw	r2,20(sp)
 1204034:	003cc906 	br	120335c <__alt_mem_instruction_tcm+0xff20335c>
 1204038:	dd801317 	ldw	r22,76(sp)
 120403c:	dc001117 	ldw	r16,68(sp)
 1204040:	dcc01417 	ldw	r19,80(sp)
 1204044:	dc801017 	ldw	r18,64(sp)
 1204048:	003c4506 	br	1203160 <__alt_mem_instruction_tcm+0xff203160>
 120404c:	103e5d1e 	bne	r2,zero,12039c4 <__alt_mem_instruction_tcm+0xff2039c4>
 1204050:	4080004c 	andi	r2,r8,1
 1204054:	103e5b26 	beq	r2,zero,12039c4 <__alt_mem_instruction_tcm+0xff2039c4>
 1204058:	003e5706 	br	12039b8 <__alt_mem_instruction_tcm+0xff2039b8>
 120405c:	d8c00317 	ldw	r3,12(sp)
 1204060:	00800084 	movi	r2,2
 1204064:	10c00a16 	blt	r2,r3,1204090 <_dtoa_r+0x16a4>
 1204068:	d9000d17 	ldw	r4,52(sp)
 120406c:	003e8306 	br	1203a7c <__alt_mem_instruction_tcm+0xff203a7c>
 1204070:	04400084 	movi	r17,2
 1204074:	003b7306 	br	1202e44 <__alt_mem_instruction_tcm+0xff202e44>
 1204078:	d9801217 	ldw	r6,72(sp)
 120407c:	d9800515 	stw	r6,20(sp)
 1204080:	003cb606 	br	120335c <__alt_mem_instruction_tcm+0xff20335c>
 1204084:	d9001217 	ldw	r4,72(sp)
 1204088:	d9000515 	stw	r4,20(sp)
 120408c:	003c0506 	br	12030a4 <__alt_mem_instruction_tcm+0xff2030a4>
 1204090:	d9800d17 	ldw	r6,52(sp)
 1204094:	d9800615 	stw	r6,24(sp)
 1204098:	003e8306 	br	1203aa8 <__alt_mem_instruction_tcm+0xff203aa8>
 120409c:	d9800317 	ldw	r6,12(sp)
 12040a0:	00800084 	movi	r2,2
 12040a4:	11800216 	blt	r2,r6,12040b0 <_dtoa_r+0x16c4>
 12040a8:	d8800d17 	ldw	r2,52(sp)
 12040ac:	003da606 	br	1203748 <__alt_mem_instruction_tcm+0xff203748>
 12040b0:	d8800d17 	ldw	r2,52(sp)
 12040b4:	d8800615 	stw	r2,24(sp)
 12040b8:	003e7b06 	br	1203aa8 <__alt_mem_instruction_tcm+0xff203aa8>
 12040bc:	05000044 	movi	r20,1
 12040c0:	003b0506 	br	1202cd8 <__alt_mem_instruction_tcm+0xff202cd8>
 12040c4:	8009883a 	mov	r4,r16
 12040c8:	80001115 	stw	zero,68(r16)
 12040cc:	000b883a 	mov	r5,zero
 12040d0:	1205a6c0 	call	1205a6c <_Balloc>
 12040d4:	d8800715 	stw	r2,28(sp)
 12040d8:	d8c00717 	ldw	r3,28(sp)
 12040dc:	00bfffc4 	movi	r2,-1
 12040e0:	01000044 	movi	r4,1
 12040e4:	d8800615 	stw	r2,24(sp)
 12040e8:	80c01015 	stw	r3,64(r16)
 12040ec:	d9000b15 	stw	r4,44(sp)
 12040f0:	d8002215 	stw	zero,136(sp)
 12040f4:	d8800d15 	stw	r2,52(sp)
 12040f8:	003c1906 	br	1203160 <__alt_mem_instruction_tcm+0xff203160>
 12040fc:	193d2926 	beq	r3,r4,12035a4 <__alt_mem_instruction_tcm+0xff2035a4>
 1204100:	00c00f04 	movi	r3,60
 1204104:	1885c83a 	sub	r2,r3,r2
 1204108:	003d7b06 	br	12036f8 <__alt_mem_instruction_tcm+0xff2036f8>
 120410c:	000b883a 	mov	r5,zero
 1204110:	003b1006 	br	1202d54 <__alt_mem_instruction_tcm+0xff202d54>

01204114 <_fflush_r>:
 1204114:	defffb04 	addi	sp,sp,-20
 1204118:	dcc00315 	stw	r19,12(sp)
 120411c:	dc000015 	stw	r16,0(sp)
 1204120:	dfc00415 	stw	ra,16(sp)
 1204124:	dc800215 	stw	r18,8(sp)
 1204128:	dc400115 	stw	r17,4(sp)
 120412c:	2027883a 	mov	r19,r4
 1204130:	2821883a 	mov	r16,r5
 1204134:	20000226 	beq	r4,zero,1204140 <_fflush_r+0x2c>
 1204138:	20800e17 	ldw	r2,56(r4)
 120413c:	10005326 	beq	r2,zero,120428c <_fflush_r+0x178>
 1204140:	8080030b 	ldhu	r2,12(r16)
 1204144:	10ffffcc 	andi	r3,r2,65535
 1204148:	18e0001c 	xori	r3,r3,32768
 120414c:	18e00004 	addi	r3,r3,-32768
 1204150:	18002c26 	beq	r3,zero,1204204 <_fflush_r+0xf0>
 1204154:	10c0020c 	andi	r3,r2,8
 1204158:	1800321e 	bne	r3,zero,1204224 <_fflush_r+0x110>
 120415c:	80c00117 	ldw	r3,4(r16)
 1204160:	10820014 	ori	r2,r2,2048
 1204164:	8080030d 	sth	r2,12(r16)
 1204168:	00c0570e 	bge	zero,r3,12042c8 <_fflush_r+0x1b4>
 120416c:	82000a17 	ldw	r8,40(r16)
 1204170:	40002426 	beq	r8,zero,1204204 <_fflush_r+0xf0>
 1204174:	9c400017 	ldw	r17,0(r19)
 1204178:	10c4000c 	andi	r3,r2,4096
 120417c:	98000015 	stw	zero,0(r19)
 1204180:	18004626 	beq	r3,zero,120429c <_fflush_r+0x188>
 1204184:	81801417 	ldw	r6,80(r16)
 1204188:	10c0010c 	andi	r3,r2,4
 120418c:	18000626 	beq	r3,zero,12041a8 <_fflush_r+0x94>
 1204190:	80c00117 	ldw	r3,4(r16)
 1204194:	80800c17 	ldw	r2,48(r16)
 1204198:	30cdc83a 	sub	r6,r6,r3
 120419c:	10000226 	beq	r2,zero,12041a8 <_fflush_r+0x94>
 12041a0:	80800f17 	ldw	r2,60(r16)
 12041a4:	308dc83a 	sub	r6,r6,r2
 12041a8:	81400717 	ldw	r5,28(r16)
 12041ac:	9809883a 	mov	r4,r19
 12041b0:	000f883a 	mov	r7,zero
 12041b4:	403ee83a 	callr	r8
 12041b8:	00ffffc4 	movi	r3,-1
 12041bc:	10c04526 	beq	r2,r3,12042d4 <_fflush_r+0x1c0>
 12041c0:	80c0030b 	ldhu	r3,12(r16)
 12041c4:	81000417 	ldw	r4,16(r16)
 12041c8:	80000115 	stw	zero,4(r16)
 12041cc:	197dffcc 	andi	r5,r3,63487
 12041d0:	8140030d 	sth	r5,12(r16)
 12041d4:	81000015 	stw	r4,0(r16)
 12041d8:	18c4000c 	andi	r3,r3,4096
 12041dc:	18000126 	beq	r3,zero,12041e4 <_fflush_r+0xd0>
 12041e0:	80801415 	stw	r2,80(r16)
 12041e4:	81400c17 	ldw	r5,48(r16)
 12041e8:	9c400015 	stw	r17,0(r19)
 12041ec:	28000526 	beq	r5,zero,1204204 <_fflush_r+0xf0>
 12041f0:	80801004 	addi	r2,r16,64
 12041f4:	28800226 	beq	r5,r2,1204200 <_fflush_r+0xec>
 12041f8:	9809883a 	mov	r4,r19
 12041fc:	12048300 	call	1204830 <_free_r>
 1204200:	80000c15 	stw	zero,48(r16)
 1204204:	0005883a 	mov	r2,zero
 1204208:	dfc00417 	ldw	ra,16(sp)
 120420c:	dcc00317 	ldw	r19,12(sp)
 1204210:	dc800217 	ldw	r18,8(sp)
 1204214:	dc400117 	ldw	r17,4(sp)
 1204218:	dc000017 	ldw	r16,0(sp)
 120421c:	dec00504 	addi	sp,sp,20
 1204220:	f800283a 	ret
 1204224:	84800417 	ldw	r18,16(r16)
 1204228:	903ff626 	beq	r18,zero,1204204 <__alt_mem_instruction_tcm+0xff204204>
 120422c:	84400017 	ldw	r17,0(r16)
 1204230:	108000cc 	andi	r2,r2,3
 1204234:	84800015 	stw	r18,0(r16)
 1204238:	8ca3c83a 	sub	r17,r17,r18
 120423c:	10001526 	beq	r2,zero,1204294 <_fflush_r+0x180>
 1204240:	0005883a 	mov	r2,zero
 1204244:	80800215 	stw	r2,8(r16)
 1204248:	04400316 	blt	zero,r17,1204258 <_fflush_r+0x144>
 120424c:	003fed06 	br	1204204 <__alt_mem_instruction_tcm+0xff204204>
 1204250:	90a5883a 	add	r18,r18,r2
 1204254:	047feb0e 	bge	zero,r17,1204204 <__alt_mem_instruction_tcm+0xff204204>
 1204258:	80800917 	ldw	r2,36(r16)
 120425c:	81400717 	ldw	r5,28(r16)
 1204260:	880f883a 	mov	r7,r17
 1204264:	900d883a 	mov	r6,r18
 1204268:	9809883a 	mov	r4,r19
 120426c:	103ee83a 	callr	r2
 1204270:	88a3c83a 	sub	r17,r17,r2
 1204274:	00bff616 	blt	zero,r2,1204250 <__alt_mem_instruction_tcm+0xff204250>
 1204278:	80c0030b 	ldhu	r3,12(r16)
 120427c:	00bfffc4 	movi	r2,-1
 1204280:	18c01014 	ori	r3,r3,64
 1204284:	80c0030d 	sth	r3,12(r16)
 1204288:	003fdf06 	br	1204208 <__alt_mem_instruction_tcm+0xff204208>
 120428c:	12046bc0 	call	12046bc <__sinit>
 1204290:	003fab06 	br	1204140 <__alt_mem_instruction_tcm+0xff204140>
 1204294:	80800517 	ldw	r2,20(r16)
 1204298:	003fea06 	br	1204244 <__alt_mem_instruction_tcm+0xff204244>
 120429c:	81400717 	ldw	r5,28(r16)
 12042a0:	000d883a 	mov	r6,zero
 12042a4:	9809883a 	mov	r4,r19
 12042a8:	01c00044 	movi	r7,1
 12042ac:	403ee83a 	callr	r8
 12042b0:	100d883a 	mov	r6,r2
 12042b4:	00bfffc4 	movi	r2,-1
 12042b8:	30801326 	beq	r6,r2,1204308 <_fflush_r+0x1f4>
 12042bc:	8080030b 	ldhu	r2,12(r16)
 12042c0:	82000a17 	ldw	r8,40(r16)
 12042c4:	003fb006 	br	1204188 <__alt_mem_instruction_tcm+0xff204188>
 12042c8:	80c00f17 	ldw	r3,60(r16)
 12042cc:	00ffa716 	blt	zero,r3,120416c <__alt_mem_instruction_tcm+0xff20416c>
 12042d0:	003fcc06 	br	1204204 <__alt_mem_instruction_tcm+0xff204204>
 12042d4:	98c00017 	ldw	r3,0(r19)
 12042d8:	183fb926 	beq	r3,zero,12041c0 <__alt_mem_instruction_tcm+0xff2041c0>
 12042dc:	01000744 	movi	r4,29
 12042e0:	19000226 	beq	r3,r4,12042ec <_fflush_r+0x1d8>
 12042e4:	01000584 	movi	r4,22
 12042e8:	1900101e 	bne	r3,r4,120432c <_fflush_r+0x218>
 12042ec:	8080030b 	ldhu	r2,12(r16)
 12042f0:	80c00417 	ldw	r3,16(r16)
 12042f4:	80000115 	stw	zero,4(r16)
 12042f8:	10bdffcc 	andi	r2,r2,63487
 12042fc:	8080030d 	sth	r2,12(r16)
 1204300:	80c00015 	stw	r3,0(r16)
 1204304:	003fb706 	br	12041e4 <__alt_mem_instruction_tcm+0xff2041e4>
 1204308:	98800017 	ldw	r2,0(r19)
 120430c:	103feb26 	beq	r2,zero,12042bc <__alt_mem_instruction_tcm+0xff2042bc>
 1204310:	00c00744 	movi	r3,29
 1204314:	10c00226 	beq	r2,r3,1204320 <_fflush_r+0x20c>
 1204318:	00c00584 	movi	r3,22
 120431c:	10ffd61e 	bne	r2,r3,1204278 <__alt_mem_instruction_tcm+0xff204278>
 1204320:	9c400015 	stw	r17,0(r19)
 1204324:	0005883a 	mov	r2,zero
 1204328:	003fb706 	br	1204208 <__alt_mem_instruction_tcm+0xff204208>
 120432c:	80c0030b 	ldhu	r3,12(r16)
 1204330:	18c01014 	ori	r3,r3,64
 1204334:	80c0030d 	sth	r3,12(r16)
 1204338:	003fb306 	br	1204208 <__alt_mem_instruction_tcm+0xff204208>

0120433c <fflush>:
 120433c:	20000526 	beq	r4,zero,1204354 <fflush+0x18>
 1204340:	00804874 	movhi	r2,289
 1204344:	108ffa04 	addi	r2,r2,16360
 1204348:	200b883a 	mov	r5,r4
 120434c:	11000017 	ldw	r4,0(r2)
 1204350:	12041141 	jmpi	1204114 <_fflush_r>
 1204354:	00804874 	movhi	r2,289
 1204358:	108ff904 	addi	r2,r2,16356
 120435c:	11000017 	ldw	r4,0(r2)
 1204360:	01404834 	movhi	r5,288
 1204364:	29504504 	addi	r5,r5,16660
 1204368:	1204bd81 	jmpi	1204bd8 <_fwalk_reent>

0120436c <__fp_lock>:
 120436c:	0005883a 	mov	r2,zero
 1204370:	f800283a 	ret

01204374 <__fp_unlock>:
 1204374:	0005883a 	mov	r2,zero
 1204378:	f800283a 	ret

0120437c <_cleanup_r>:
 120437c:	01404874 	movhi	r5,289
 1204380:	2961c604 	addi	r5,r5,-30952
 1204384:	1204b201 	jmpi	1204b20 <_fwalk>

01204388 <__sinit.part.1>:
 1204388:	defff604 	addi	sp,sp,-40
 120438c:	00c04834 	movhi	r3,288
 1204390:	dfc00915 	stw	ra,36(sp)
 1204394:	df000815 	stw	fp,32(sp)
 1204398:	ddc00715 	stw	r23,28(sp)
 120439c:	dd800615 	stw	r22,24(sp)
 12043a0:	dd400515 	stw	r21,20(sp)
 12043a4:	dd000415 	stw	r20,16(sp)
 12043a8:	dcc00315 	stw	r19,12(sp)
 12043ac:	dc800215 	stw	r18,8(sp)
 12043b0:	dc400115 	stw	r17,4(sp)
 12043b4:	dc000015 	stw	r16,0(sp)
 12043b8:	18d0df04 	addi	r3,r3,17276
 12043bc:	24000117 	ldw	r16,4(r4)
 12043c0:	20c00f15 	stw	r3,60(r4)
 12043c4:	07000044 	movi	fp,1
 12043c8:	00c000c4 	movi	r3,3
 12043cc:	2080bb04 	addi	r2,r4,748
 12043d0:	20c0b915 	stw	r3,740(r4)
 12043d4:	27000e15 	stw	fp,56(r4)
 12043d8:	2080ba15 	stw	r2,744(r4)
 12043dc:	2000b815 	stw	zero,736(r4)
 12043e0:	05c00204 	movi	r23,8
 12043e4:	00800104 	movi	r2,4
 12043e8:	2025883a 	mov	r18,r4
 12043ec:	b80d883a 	mov	r6,r23
 12043f0:	81001704 	addi	r4,r16,92
 12043f4:	000b883a 	mov	r5,zero
 12043f8:	80000015 	stw	zero,0(r16)
 12043fc:	80000115 	stw	zero,4(r16)
 1204400:	80000215 	stw	zero,8(r16)
 1204404:	8080030d 	sth	r2,12(r16)
 1204408:	80001915 	stw	zero,100(r16)
 120440c:	8000038d 	sth	zero,14(r16)
 1204410:	80000415 	stw	zero,16(r16)
 1204414:	80000515 	stw	zero,20(r16)
 1204418:	80000615 	stw	zero,24(r16)
 120441c:	12059480 	call	1205948 <memset>
 1204420:	05804834 	movhi	r22,288
 1204424:	94400217 	ldw	r17,8(r18)
 1204428:	05404834 	movhi	r21,288
 120442c:	05004834 	movhi	r20,288
 1204430:	04c04834 	movhi	r19,288
 1204434:	b59b0a04 	addi	r22,r22,27688
 1204438:	ad5b2104 	addi	r21,r21,27780
 120443c:	a51b4004 	addi	r20,r20,27904
 1204440:	9cdb5704 	addi	r19,r19,27996
 1204444:	85800815 	stw	r22,32(r16)
 1204448:	85400915 	stw	r21,36(r16)
 120444c:	85000a15 	stw	r20,40(r16)
 1204450:	84c00b15 	stw	r19,44(r16)
 1204454:	84000715 	stw	r16,28(r16)
 1204458:	00800284 	movi	r2,10
 120445c:	89001704 	addi	r4,r17,92
 1204460:	b80d883a 	mov	r6,r23
 1204464:	000b883a 	mov	r5,zero
 1204468:	88000015 	stw	zero,0(r17)
 120446c:	88000115 	stw	zero,4(r17)
 1204470:	88000215 	stw	zero,8(r17)
 1204474:	8880030d 	sth	r2,12(r17)
 1204478:	88001915 	stw	zero,100(r17)
 120447c:	8f00038d 	sth	fp,14(r17)
 1204480:	88000415 	stw	zero,16(r17)
 1204484:	88000515 	stw	zero,20(r17)
 1204488:	88000615 	stw	zero,24(r17)
 120448c:	12059480 	call	1205948 <memset>
 1204490:	94000317 	ldw	r16,12(r18)
 1204494:	00800484 	movi	r2,18
 1204498:	8c400715 	stw	r17,28(r17)
 120449c:	8d800815 	stw	r22,32(r17)
 12044a0:	8d400915 	stw	r21,36(r17)
 12044a4:	8d000a15 	stw	r20,40(r17)
 12044a8:	8cc00b15 	stw	r19,44(r17)
 12044ac:	8080030d 	sth	r2,12(r16)
 12044b0:	00800084 	movi	r2,2
 12044b4:	80000015 	stw	zero,0(r16)
 12044b8:	80000115 	stw	zero,4(r16)
 12044bc:	80000215 	stw	zero,8(r16)
 12044c0:	80001915 	stw	zero,100(r16)
 12044c4:	8080038d 	sth	r2,14(r16)
 12044c8:	80000415 	stw	zero,16(r16)
 12044cc:	80000515 	stw	zero,20(r16)
 12044d0:	80000615 	stw	zero,24(r16)
 12044d4:	81001704 	addi	r4,r16,92
 12044d8:	000b883a 	mov	r5,zero
 12044dc:	b80d883a 	mov	r6,r23
 12044e0:	12059480 	call	1205948 <memset>
 12044e4:	84000715 	stw	r16,28(r16)
 12044e8:	85800815 	stw	r22,32(r16)
 12044ec:	85400915 	stw	r21,36(r16)
 12044f0:	85000a15 	stw	r20,40(r16)
 12044f4:	84c00b15 	stw	r19,44(r16)
 12044f8:	dfc00917 	ldw	ra,36(sp)
 12044fc:	df000817 	ldw	fp,32(sp)
 1204500:	ddc00717 	ldw	r23,28(sp)
 1204504:	dd800617 	ldw	r22,24(sp)
 1204508:	dd400517 	ldw	r21,20(sp)
 120450c:	dd000417 	ldw	r20,16(sp)
 1204510:	dcc00317 	ldw	r19,12(sp)
 1204514:	dc800217 	ldw	r18,8(sp)
 1204518:	dc400117 	ldw	r17,4(sp)
 120451c:	dc000017 	ldw	r16,0(sp)
 1204520:	dec00a04 	addi	sp,sp,40
 1204524:	f800283a 	ret

01204528 <__sfmoreglue>:
 1204528:	defffc04 	addi	sp,sp,-16
 120452c:	dc400115 	stw	r17,4(sp)
 1204530:	2c401a24 	muli	r17,r5,104
 1204534:	dc800215 	stw	r18,8(sp)
 1204538:	2825883a 	mov	r18,r5
 120453c:	89400304 	addi	r5,r17,12
 1204540:	dc000015 	stw	r16,0(sp)
 1204544:	dfc00315 	stw	ra,12(sp)
 1204548:	1204f800 	call	1204f80 <_malloc_r>
 120454c:	1021883a 	mov	r16,r2
 1204550:	10000726 	beq	r2,zero,1204570 <__sfmoreglue+0x48>
 1204554:	11000304 	addi	r4,r2,12
 1204558:	10000015 	stw	zero,0(r2)
 120455c:	14800115 	stw	r18,4(r2)
 1204560:	11000215 	stw	r4,8(r2)
 1204564:	000b883a 	mov	r5,zero
 1204568:	880d883a 	mov	r6,r17
 120456c:	12059480 	call	1205948 <memset>
 1204570:	8005883a 	mov	r2,r16
 1204574:	dfc00317 	ldw	ra,12(sp)
 1204578:	dc800217 	ldw	r18,8(sp)
 120457c:	dc400117 	ldw	r17,4(sp)
 1204580:	dc000017 	ldw	r16,0(sp)
 1204584:	dec00404 	addi	sp,sp,16
 1204588:	f800283a 	ret

0120458c <__sfp>:
 120458c:	00804874 	movhi	r2,289
 1204590:	defffb04 	addi	sp,sp,-20
 1204594:	108ff904 	addi	r2,r2,16356
 1204598:	dc800215 	stw	r18,8(sp)
 120459c:	14800017 	ldw	r18,0(r2)
 12045a0:	dcc00315 	stw	r19,12(sp)
 12045a4:	dfc00415 	stw	ra,16(sp)
 12045a8:	90800e17 	ldw	r2,56(r18)
 12045ac:	dc400115 	stw	r17,4(sp)
 12045b0:	dc000015 	stw	r16,0(sp)
 12045b4:	2027883a 	mov	r19,r4
 12045b8:	1000021e 	bne	r2,zero,12045c4 <__sfp+0x38>
 12045bc:	9009883a 	mov	r4,r18
 12045c0:	12043880 	call	1204388 <__sinit.part.1>
 12045c4:	9480b804 	addi	r18,r18,736
 12045c8:	047fffc4 	movi	r17,-1
 12045cc:	91400117 	ldw	r5,4(r18)
 12045d0:	94000217 	ldw	r16,8(r18)
 12045d4:	297fffc4 	addi	r5,r5,-1
 12045d8:	28000a16 	blt	r5,zero,1204604 <__sfp+0x78>
 12045dc:	8080030f 	ldh	r2,12(r16)
 12045e0:	10000c26 	beq	r2,zero,1204614 <__sfp+0x88>
 12045e4:	80c01d04 	addi	r3,r16,116
 12045e8:	00000206 	br	12045f4 <__sfp+0x68>
 12045ec:	18bfe60f 	ldh	r2,-104(r3)
 12045f0:	10000826 	beq	r2,zero,1204614 <__sfp+0x88>
 12045f4:	297fffc4 	addi	r5,r5,-1
 12045f8:	1c3ffd04 	addi	r16,r3,-12
 12045fc:	18c01a04 	addi	r3,r3,104
 1204600:	2c7ffa1e 	bne	r5,r17,12045ec <__alt_mem_instruction_tcm+0xff2045ec>
 1204604:	90800017 	ldw	r2,0(r18)
 1204608:	10001d26 	beq	r2,zero,1204680 <__sfp+0xf4>
 120460c:	1025883a 	mov	r18,r2
 1204610:	003fee06 	br	12045cc <__alt_mem_instruction_tcm+0xff2045cc>
 1204614:	00bfffc4 	movi	r2,-1
 1204618:	8080038d 	sth	r2,14(r16)
 120461c:	00800044 	movi	r2,1
 1204620:	8080030d 	sth	r2,12(r16)
 1204624:	80001915 	stw	zero,100(r16)
 1204628:	80000015 	stw	zero,0(r16)
 120462c:	80000215 	stw	zero,8(r16)
 1204630:	80000115 	stw	zero,4(r16)
 1204634:	80000415 	stw	zero,16(r16)
 1204638:	80000515 	stw	zero,20(r16)
 120463c:	80000615 	stw	zero,24(r16)
 1204640:	81001704 	addi	r4,r16,92
 1204644:	000b883a 	mov	r5,zero
 1204648:	01800204 	movi	r6,8
 120464c:	12059480 	call	1205948 <memset>
 1204650:	8005883a 	mov	r2,r16
 1204654:	80000c15 	stw	zero,48(r16)
 1204658:	80000d15 	stw	zero,52(r16)
 120465c:	80001115 	stw	zero,68(r16)
 1204660:	80001215 	stw	zero,72(r16)
 1204664:	dfc00417 	ldw	ra,16(sp)
 1204668:	dcc00317 	ldw	r19,12(sp)
 120466c:	dc800217 	ldw	r18,8(sp)
 1204670:	dc400117 	ldw	r17,4(sp)
 1204674:	dc000017 	ldw	r16,0(sp)
 1204678:	dec00504 	addi	sp,sp,20
 120467c:	f800283a 	ret
 1204680:	9809883a 	mov	r4,r19
 1204684:	01400104 	movi	r5,4
 1204688:	12045280 	call	1204528 <__sfmoreglue>
 120468c:	90800015 	stw	r2,0(r18)
 1204690:	103fde1e 	bne	r2,zero,120460c <__alt_mem_instruction_tcm+0xff20460c>
 1204694:	00800304 	movi	r2,12
 1204698:	98800015 	stw	r2,0(r19)
 120469c:	0005883a 	mov	r2,zero
 12046a0:	003ff006 	br	1204664 <__alt_mem_instruction_tcm+0xff204664>

012046a4 <_cleanup>:
 12046a4:	00804874 	movhi	r2,289
 12046a8:	108ff904 	addi	r2,r2,16356
 12046ac:	11000017 	ldw	r4,0(r2)
 12046b0:	01404874 	movhi	r5,289
 12046b4:	2961c604 	addi	r5,r5,-30952
 12046b8:	1204b201 	jmpi	1204b20 <_fwalk>

012046bc <__sinit>:
 12046bc:	20800e17 	ldw	r2,56(r4)
 12046c0:	10000126 	beq	r2,zero,12046c8 <__sinit+0xc>
 12046c4:	f800283a 	ret
 12046c8:	12043881 	jmpi	1204388 <__sinit.part.1>

012046cc <__sfp_lock_acquire>:
 12046cc:	f800283a 	ret

012046d0 <__sfp_lock_release>:
 12046d0:	f800283a 	ret

012046d4 <__sinit_lock_acquire>:
 12046d4:	f800283a 	ret

012046d8 <__sinit_lock_release>:
 12046d8:	f800283a 	ret

012046dc <__fp_lock_all>:
 12046dc:	00804874 	movhi	r2,289
 12046e0:	108ffa04 	addi	r2,r2,16360
 12046e4:	11000017 	ldw	r4,0(r2)
 12046e8:	01404834 	movhi	r5,288
 12046ec:	2950db04 	addi	r5,r5,17260
 12046f0:	1204b201 	jmpi	1204b20 <_fwalk>

012046f4 <__fp_unlock_all>:
 12046f4:	00804874 	movhi	r2,289
 12046f8:	108ffa04 	addi	r2,r2,16360
 12046fc:	11000017 	ldw	r4,0(r2)
 1204700:	01404834 	movhi	r5,288
 1204704:	2950dd04 	addi	r5,r5,17268
 1204708:	1204b201 	jmpi	1204b20 <_fwalk>

0120470c <_malloc_trim_r>:
 120470c:	defffb04 	addi	sp,sp,-20
 1204710:	dcc00315 	stw	r19,12(sp)
 1204714:	04c04874 	movhi	r19,289
 1204718:	dc800215 	stw	r18,8(sp)
 120471c:	dc400115 	stw	r17,4(sp)
 1204720:	dc000015 	stw	r16,0(sp)
 1204724:	dfc00415 	stw	ra,16(sp)
 1204728:	2821883a 	mov	r16,r5
 120472c:	9cca3e04 	addi	r19,r19,10488
 1204730:	2025883a 	mov	r18,r4
 1204734:	120d0ac0 	call	120d0ac <__malloc_lock>
 1204738:	98800217 	ldw	r2,8(r19)
 120473c:	14400117 	ldw	r17,4(r2)
 1204740:	00bfff04 	movi	r2,-4
 1204744:	88a2703a 	and	r17,r17,r2
 1204748:	8c21c83a 	sub	r16,r17,r16
 120474c:	8403fbc4 	addi	r16,r16,4079
 1204750:	8020d33a 	srli	r16,r16,12
 1204754:	0083ffc4 	movi	r2,4095
 1204758:	843fffc4 	addi	r16,r16,-1
 120475c:	8020933a 	slli	r16,r16,12
 1204760:	1400060e 	bge	r2,r16,120477c <_malloc_trim_r+0x70>
 1204764:	9009883a 	mov	r4,r18
 1204768:	000b883a 	mov	r5,zero
 120476c:	1206bd40 	call	1206bd4 <_sbrk_r>
 1204770:	98c00217 	ldw	r3,8(r19)
 1204774:	1c47883a 	add	r3,r3,r17
 1204778:	10c00a26 	beq	r2,r3,12047a4 <_malloc_trim_r+0x98>
 120477c:	9009883a 	mov	r4,r18
 1204780:	120d0cc0 	call	120d0cc <__malloc_unlock>
 1204784:	0005883a 	mov	r2,zero
 1204788:	dfc00417 	ldw	ra,16(sp)
 120478c:	dcc00317 	ldw	r19,12(sp)
 1204790:	dc800217 	ldw	r18,8(sp)
 1204794:	dc400117 	ldw	r17,4(sp)
 1204798:	dc000017 	ldw	r16,0(sp)
 120479c:	dec00504 	addi	sp,sp,20
 12047a0:	f800283a 	ret
 12047a4:	9009883a 	mov	r4,r18
 12047a8:	040bc83a 	sub	r5,zero,r16
 12047ac:	1206bd40 	call	1206bd4 <_sbrk_r>
 12047b0:	00ffffc4 	movi	r3,-1
 12047b4:	10c00d26 	beq	r2,r3,12047ec <_malloc_trim_r+0xe0>
 12047b8:	00c04874 	movhi	r3,289
 12047bc:	18d01f04 	addi	r3,r3,16508
 12047c0:	18800017 	ldw	r2,0(r3)
 12047c4:	99000217 	ldw	r4,8(r19)
 12047c8:	8c23c83a 	sub	r17,r17,r16
 12047cc:	8c400054 	ori	r17,r17,1
 12047d0:	1421c83a 	sub	r16,r2,r16
 12047d4:	24400115 	stw	r17,4(r4)
 12047d8:	9009883a 	mov	r4,r18
 12047dc:	1c000015 	stw	r16,0(r3)
 12047e0:	120d0cc0 	call	120d0cc <__malloc_unlock>
 12047e4:	00800044 	movi	r2,1
 12047e8:	003fe706 	br	1204788 <__alt_mem_instruction_tcm+0xff204788>
 12047ec:	9009883a 	mov	r4,r18
 12047f0:	000b883a 	mov	r5,zero
 12047f4:	1206bd40 	call	1206bd4 <_sbrk_r>
 12047f8:	99000217 	ldw	r4,8(r19)
 12047fc:	014003c4 	movi	r5,15
 1204800:	1107c83a 	sub	r3,r2,r4
 1204804:	28ffdd0e 	bge	r5,r3,120477c <__alt_mem_instruction_tcm+0xff20477c>
 1204808:	01404874 	movhi	r5,289
 120480c:	294ffc04 	addi	r5,r5,16368
 1204810:	29400017 	ldw	r5,0(r5)
 1204814:	18c00054 	ori	r3,r3,1
 1204818:	20c00115 	stw	r3,4(r4)
 120481c:	00c04874 	movhi	r3,289
 1204820:	1145c83a 	sub	r2,r2,r5
 1204824:	18d01f04 	addi	r3,r3,16508
 1204828:	18800015 	stw	r2,0(r3)
 120482c:	003fd306 	br	120477c <__alt_mem_instruction_tcm+0xff20477c>

01204830 <_free_r>:
 1204830:	28004c26 	beq	r5,zero,1204964 <_free_r+0x134>
 1204834:	defffd04 	addi	sp,sp,-12
 1204838:	dc400115 	stw	r17,4(sp)
 120483c:	dc000015 	stw	r16,0(sp)
 1204840:	2023883a 	mov	r17,r4
 1204844:	2821883a 	mov	r16,r5
 1204848:	dfc00215 	stw	ra,8(sp)
 120484c:	120d0ac0 	call	120d0ac <__malloc_lock>
 1204850:	813fff17 	ldw	r4,-4(r16)
 1204854:	00bfff84 	movi	r2,-2
 1204858:	02404874 	movhi	r9,289
 120485c:	81bffe04 	addi	r6,r16,-8
 1204860:	2084703a 	and	r2,r4,r2
 1204864:	4a4a3e04 	addi	r9,r9,10488
 1204868:	308b883a 	add	r5,r6,r2
 120486c:	2a000117 	ldw	r8,4(r5)
 1204870:	49c00217 	ldw	r7,8(r9)
 1204874:	00ffff04 	movi	r3,-4
 1204878:	40c6703a 	and	r3,r8,r3
 120487c:	39405326 	beq	r7,r5,12049cc <_free_r+0x19c>
 1204880:	28c00115 	stw	r3,4(r5)
 1204884:	2100004c 	andi	r4,r4,1
 1204888:	2000091e 	bne	r4,zero,12048b0 <_free_r+0x80>
 120488c:	81fffe17 	ldw	r7,-8(r16)
 1204890:	4a000204 	addi	r8,r9,8
 1204894:	31cdc83a 	sub	r6,r6,r7
 1204898:	31000217 	ldw	r4,8(r6)
 120489c:	11c5883a 	add	r2,r2,r7
 12048a0:	22006126 	beq	r4,r8,1204a28 <_free_r+0x1f8>
 12048a4:	31c00317 	ldw	r7,12(r6)
 12048a8:	21c00315 	stw	r7,12(r4)
 12048ac:	39000215 	stw	r4,8(r7)
 12048b0:	28c9883a 	add	r4,r5,r3
 12048b4:	21c00117 	ldw	r7,4(r4)
 12048b8:	39c0004c 	andi	r7,r7,1
 12048bc:	38000d1e 	bne	r7,zero,12048f4 <_free_r+0xc4>
 12048c0:	29000217 	ldw	r4,8(r5)
 12048c4:	10c5883a 	add	r2,r2,r3
 12048c8:	00c04874 	movhi	r3,289
 12048cc:	18ca4004 	addi	r3,r3,10496
 12048d0:	20c07526 	beq	r4,r3,1204aa8 <_free_r+0x278>
 12048d4:	29c00317 	ldw	r7,12(r5)
 12048d8:	11400054 	ori	r5,r2,1
 12048dc:	3087883a 	add	r3,r6,r2
 12048e0:	21c00315 	stw	r7,12(r4)
 12048e4:	39000215 	stw	r4,8(r7)
 12048e8:	31400115 	stw	r5,4(r6)
 12048ec:	18800015 	stw	r2,0(r3)
 12048f0:	00000406 	br	1204904 <_free_r+0xd4>
 12048f4:	10c00054 	ori	r3,r2,1
 12048f8:	30c00115 	stw	r3,4(r6)
 12048fc:	3087883a 	add	r3,r6,r2
 1204900:	18800015 	stw	r2,0(r3)
 1204904:	00c07fc4 	movi	r3,511
 1204908:	18801736 	bltu	r3,r2,1204968 <_free_r+0x138>
 120490c:	1004d0fa 	srli	r2,r2,3
 1204910:	01400044 	movi	r5,1
 1204914:	49000117 	ldw	r4,4(r9)
 1204918:	1087883a 	add	r3,r2,r2
 120491c:	18c7883a 	add	r3,r3,r3
 1204920:	1005d0ba 	srai	r2,r2,2
 1204924:	18c7883a 	add	r3,r3,r3
 1204928:	1a47883a 	add	r3,r3,r9
 120492c:	19c00217 	ldw	r7,8(r3)
 1204930:	2884983a 	sll	r2,r5,r2
 1204934:	30c00315 	stw	r3,12(r6)
 1204938:	31c00215 	stw	r7,8(r6)
 120493c:	1104b03a 	or	r2,r2,r4
 1204940:	19800215 	stw	r6,8(r3)
 1204944:	48800115 	stw	r2,4(r9)
 1204948:	39800315 	stw	r6,12(r7)
 120494c:	8809883a 	mov	r4,r17
 1204950:	dfc00217 	ldw	ra,8(sp)
 1204954:	dc400117 	ldw	r17,4(sp)
 1204958:	dc000017 	ldw	r16,0(sp)
 120495c:	dec00304 	addi	sp,sp,12
 1204960:	120d0cc1 	jmpi	120d0cc <__malloc_unlock>
 1204964:	f800283a 	ret
 1204968:	1006d27a 	srli	r3,r2,9
 120496c:	01000104 	movi	r4,4
 1204970:	20c04036 	bltu	r4,r3,1204a74 <_free_r+0x244>
 1204974:	1006d1ba 	srli	r3,r2,6
 1204978:	19400e04 	addi	r5,r3,56
 120497c:	2947883a 	add	r3,r5,r5
 1204980:	18c7883a 	add	r3,r3,r3
 1204984:	18c7883a 	add	r3,r3,r3
 1204988:	1a49883a 	add	r4,r3,r9
 120498c:	20c00217 	ldw	r3,8(r4)
 1204990:	01c04874 	movhi	r7,289
 1204994:	39ca3e04 	addi	r7,r7,10488
 1204998:	19003b26 	beq	r3,r4,1204a88 <_free_r+0x258>
 120499c:	01ffff04 	movi	r7,-4
 12049a0:	19400117 	ldw	r5,4(r3)
 12049a4:	29ca703a 	and	r5,r5,r7
 12049a8:	1140022e 	bgeu	r2,r5,12049b4 <_free_r+0x184>
 12049ac:	18c00217 	ldw	r3,8(r3)
 12049b0:	20fffb1e 	bne	r4,r3,12049a0 <__alt_mem_instruction_tcm+0xff2049a0>
 12049b4:	18800317 	ldw	r2,12(r3)
 12049b8:	30800315 	stw	r2,12(r6)
 12049bc:	30c00215 	stw	r3,8(r6)
 12049c0:	11800215 	stw	r6,8(r2)
 12049c4:	19800315 	stw	r6,12(r3)
 12049c8:	003fe006 	br	120494c <__alt_mem_instruction_tcm+0xff20494c>
 12049cc:	2100004c 	andi	r4,r4,1
 12049d0:	1885883a 	add	r2,r3,r2
 12049d4:	2000071e 	bne	r4,zero,12049f4 <_free_r+0x1c4>
 12049d8:	817ffe17 	ldw	r5,-8(r16)
 12049dc:	314dc83a 	sub	r6,r6,r5
 12049e0:	30c00317 	ldw	r3,12(r6)
 12049e4:	31000217 	ldw	r4,8(r6)
 12049e8:	1145883a 	add	r2,r2,r5
 12049ec:	20c00315 	stw	r3,12(r4)
 12049f0:	19000215 	stw	r4,8(r3)
 12049f4:	10c00054 	ori	r3,r2,1
 12049f8:	30c00115 	stw	r3,4(r6)
 12049fc:	00c04874 	movhi	r3,289
 1204a00:	18cffd04 	addi	r3,r3,16372
 1204a04:	18c00017 	ldw	r3,0(r3)
 1204a08:	49800215 	stw	r6,8(r9)
 1204a0c:	10ffcf36 	bltu	r2,r3,120494c <__alt_mem_instruction_tcm+0xff20494c>
 1204a10:	00804874 	movhi	r2,289
 1204a14:	10901304 	addi	r2,r2,16460
 1204a18:	11400017 	ldw	r5,0(r2)
 1204a1c:	8809883a 	mov	r4,r17
 1204a20:	120470c0 	call	120470c <_malloc_trim_r>
 1204a24:	003fc906 	br	120494c <__alt_mem_instruction_tcm+0xff20494c>
 1204a28:	28c9883a 	add	r4,r5,r3
 1204a2c:	21000117 	ldw	r4,4(r4)
 1204a30:	2100004c 	andi	r4,r4,1
 1204a34:	20000a1e 	bne	r4,zero,1204a60 <_free_r+0x230>
 1204a38:	29000317 	ldw	r4,12(r5)
 1204a3c:	29400217 	ldw	r5,8(r5)
 1204a40:	10c5883a 	add	r2,r2,r3
 1204a44:	10c00054 	ori	r3,r2,1
 1204a48:	29000315 	stw	r4,12(r5)
 1204a4c:	21400215 	stw	r5,8(r4)
 1204a50:	30c00115 	stw	r3,4(r6)
 1204a54:	308d883a 	add	r6,r6,r2
 1204a58:	30800015 	stw	r2,0(r6)
 1204a5c:	003fbb06 	br	120494c <__alt_mem_instruction_tcm+0xff20494c>
 1204a60:	10c00054 	ori	r3,r2,1
 1204a64:	30c00115 	stw	r3,4(r6)
 1204a68:	308d883a 	add	r6,r6,r2
 1204a6c:	30800015 	stw	r2,0(r6)
 1204a70:	003fb606 	br	120494c <__alt_mem_instruction_tcm+0xff20494c>
 1204a74:	01000504 	movi	r4,20
 1204a78:	20c01436 	bltu	r4,r3,1204acc <_free_r+0x29c>
 1204a7c:	194016c4 	addi	r5,r3,91
 1204a80:	2947883a 	add	r3,r5,r5
 1204a84:	003fbe06 	br	1204980 <__alt_mem_instruction_tcm+0xff204980>
 1204a88:	280bd0ba 	srai	r5,r5,2
 1204a8c:	00800044 	movi	r2,1
 1204a90:	39000117 	ldw	r4,4(r7)
 1204a94:	114a983a 	sll	r5,r2,r5
 1204a98:	1805883a 	mov	r2,r3
 1204a9c:	2908b03a 	or	r4,r5,r4
 1204aa0:	39000115 	stw	r4,4(r7)
 1204aa4:	003fc406 	br	12049b8 <__alt_mem_instruction_tcm+0xff2049b8>
 1204aa8:	49800515 	stw	r6,20(r9)
 1204aac:	49800415 	stw	r6,16(r9)
 1204ab0:	10c00054 	ori	r3,r2,1
 1204ab4:	31000315 	stw	r4,12(r6)
 1204ab8:	31000215 	stw	r4,8(r6)
 1204abc:	30c00115 	stw	r3,4(r6)
 1204ac0:	308d883a 	add	r6,r6,r2
 1204ac4:	30800015 	stw	r2,0(r6)
 1204ac8:	003fa006 	br	120494c <__alt_mem_instruction_tcm+0xff20494c>
 1204acc:	01001504 	movi	r4,84
 1204ad0:	20c00436 	bltu	r4,r3,1204ae4 <_free_r+0x2b4>
 1204ad4:	1006d33a 	srli	r3,r2,12
 1204ad8:	19401b84 	addi	r5,r3,110
 1204adc:	2947883a 	add	r3,r5,r5
 1204ae0:	003fa706 	br	1204980 <__alt_mem_instruction_tcm+0xff204980>
 1204ae4:	01005504 	movi	r4,340
 1204ae8:	20c00436 	bltu	r4,r3,1204afc <_free_r+0x2cc>
 1204aec:	1006d3fa 	srli	r3,r2,15
 1204af0:	19401dc4 	addi	r5,r3,119
 1204af4:	2947883a 	add	r3,r5,r5
 1204af8:	003fa106 	br	1204980 <__alt_mem_instruction_tcm+0xff204980>
 1204afc:	01015504 	movi	r4,1364
 1204b00:	20c00436 	bltu	r4,r3,1204b14 <_free_r+0x2e4>
 1204b04:	1006d4ba 	srli	r3,r2,18
 1204b08:	19401f04 	addi	r5,r3,124
 1204b0c:	2947883a 	add	r3,r5,r5
 1204b10:	003f9b06 	br	1204980 <__alt_mem_instruction_tcm+0xff204980>
 1204b14:	00c03f04 	movi	r3,252
 1204b18:	01401f84 	movi	r5,126
 1204b1c:	003f9806 	br	1204980 <__alt_mem_instruction_tcm+0xff204980>

01204b20 <_fwalk>:
 1204b20:	defff804 	addi	sp,sp,-32
 1204b24:	dd400515 	stw	r21,20(sp)
 1204b28:	2540b804 	addi	r21,r4,736
 1204b2c:	dd800615 	stw	r22,24(sp)
 1204b30:	dd000415 	stw	r20,16(sp)
 1204b34:	dfc00715 	stw	ra,28(sp)
 1204b38:	dcc00315 	stw	r19,12(sp)
 1204b3c:	dc800215 	stw	r18,8(sp)
 1204b40:	dc400115 	stw	r17,4(sp)
 1204b44:	dc000015 	stw	r16,0(sp)
 1204b48:	2829883a 	mov	r20,r5
 1204b4c:	002d883a 	mov	r22,zero
 1204b50:	12046cc0 	call	12046cc <__sfp_lock_acquire>
 1204b54:	a8001426 	beq	r21,zero,1204ba8 <_fwalk+0x88>
 1204b58:	04ffffc4 	movi	r19,-1
 1204b5c:	ac400117 	ldw	r17,4(r21)
 1204b60:	ac800217 	ldw	r18,8(r21)
 1204b64:	8c7fffc4 	addi	r17,r17,-1
 1204b68:	88000d16 	blt	r17,zero,1204ba0 <_fwalk+0x80>
 1204b6c:	94000304 	addi	r16,r18,12
 1204b70:	94800384 	addi	r18,r18,14
 1204b74:	80c0000f 	ldh	r3,0(r16)
 1204b78:	8c7fffc4 	addi	r17,r17,-1
 1204b7c:	813ffd04 	addi	r4,r16,-12
 1204b80:	18000426 	beq	r3,zero,1204b94 <_fwalk+0x74>
 1204b84:	90c0000f 	ldh	r3,0(r18)
 1204b88:	1cc00226 	beq	r3,r19,1204b94 <_fwalk+0x74>
 1204b8c:	a03ee83a 	callr	r20
 1204b90:	b0acb03a 	or	r22,r22,r2
 1204b94:	84001a04 	addi	r16,r16,104
 1204b98:	94801a04 	addi	r18,r18,104
 1204b9c:	8cfff51e 	bne	r17,r19,1204b74 <__alt_mem_instruction_tcm+0xff204b74>
 1204ba0:	ad400017 	ldw	r21,0(r21)
 1204ba4:	a83fed1e 	bne	r21,zero,1204b5c <__alt_mem_instruction_tcm+0xff204b5c>
 1204ba8:	12046d00 	call	12046d0 <__sfp_lock_release>
 1204bac:	b005883a 	mov	r2,r22
 1204bb0:	dfc00717 	ldw	ra,28(sp)
 1204bb4:	dd800617 	ldw	r22,24(sp)
 1204bb8:	dd400517 	ldw	r21,20(sp)
 1204bbc:	dd000417 	ldw	r20,16(sp)
 1204bc0:	dcc00317 	ldw	r19,12(sp)
 1204bc4:	dc800217 	ldw	r18,8(sp)
 1204bc8:	dc400117 	ldw	r17,4(sp)
 1204bcc:	dc000017 	ldw	r16,0(sp)
 1204bd0:	dec00804 	addi	sp,sp,32
 1204bd4:	f800283a 	ret

01204bd8 <_fwalk_reent>:
 1204bd8:	defff804 	addi	sp,sp,-32
 1204bdc:	dd400515 	stw	r21,20(sp)
 1204be0:	2540b804 	addi	r21,r4,736
 1204be4:	dd800615 	stw	r22,24(sp)
 1204be8:	dd000415 	stw	r20,16(sp)
 1204bec:	dcc00315 	stw	r19,12(sp)
 1204bf0:	dfc00715 	stw	ra,28(sp)
 1204bf4:	dc800215 	stw	r18,8(sp)
 1204bf8:	dc400115 	stw	r17,4(sp)
 1204bfc:	dc000015 	stw	r16,0(sp)
 1204c00:	2027883a 	mov	r19,r4
 1204c04:	2829883a 	mov	r20,r5
 1204c08:	002d883a 	mov	r22,zero
 1204c0c:	12046cc0 	call	12046cc <__sfp_lock_acquire>
 1204c10:	a8001326 	beq	r21,zero,1204c60 <_fwalk_reent+0x88>
 1204c14:	04bfffc4 	movi	r18,-1
 1204c18:	ac400117 	ldw	r17,4(r21)
 1204c1c:	ac000217 	ldw	r16,8(r21)
 1204c20:	8c7fffc4 	addi	r17,r17,-1
 1204c24:	88000c16 	blt	r17,zero,1204c58 <_fwalk_reent+0x80>
 1204c28:	84000304 	addi	r16,r16,12
 1204c2c:	80c0000f 	ldh	r3,0(r16)
 1204c30:	8c7fffc4 	addi	r17,r17,-1
 1204c34:	817ffd04 	addi	r5,r16,-12
 1204c38:	18000526 	beq	r3,zero,1204c50 <_fwalk_reent+0x78>
 1204c3c:	80c0008f 	ldh	r3,2(r16)
 1204c40:	9809883a 	mov	r4,r19
 1204c44:	1c800226 	beq	r3,r18,1204c50 <_fwalk_reent+0x78>
 1204c48:	a03ee83a 	callr	r20
 1204c4c:	b0acb03a 	or	r22,r22,r2
 1204c50:	84001a04 	addi	r16,r16,104
 1204c54:	8cbff51e 	bne	r17,r18,1204c2c <__alt_mem_instruction_tcm+0xff204c2c>
 1204c58:	ad400017 	ldw	r21,0(r21)
 1204c5c:	a83fee1e 	bne	r21,zero,1204c18 <__alt_mem_instruction_tcm+0xff204c18>
 1204c60:	12046d00 	call	12046d0 <__sfp_lock_release>
 1204c64:	b005883a 	mov	r2,r22
 1204c68:	dfc00717 	ldw	ra,28(sp)
 1204c6c:	dd800617 	ldw	r22,24(sp)
 1204c70:	dd400517 	ldw	r21,20(sp)
 1204c74:	dd000417 	ldw	r20,16(sp)
 1204c78:	dcc00317 	ldw	r19,12(sp)
 1204c7c:	dc800217 	ldw	r18,8(sp)
 1204c80:	dc400117 	ldw	r17,4(sp)
 1204c84:	dc000017 	ldw	r16,0(sp)
 1204c88:	dec00804 	addi	sp,sp,32
 1204c8c:	f800283a 	ret

01204c90 <_gettimeofday_r>:
 1204c90:	defffd04 	addi	sp,sp,-12
 1204c94:	dc000015 	stw	r16,0(sp)
 1204c98:	04004874 	movhi	r16,289
 1204c9c:	dc400115 	stw	r17,4(sp)
 1204ca0:	84100d04 	addi	r16,r16,16436
 1204ca4:	2023883a 	mov	r17,r4
 1204ca8:	2809883a 	mov	r4,r5
 1204cac:	300b883a 	mov	r5,r6
 1204cb0:	dfc00215 	stw	ra,8(sp)
 1204cb4:	80000015 	stw	zero,0(r16)
 1204cb8:	120cc080 	call	120cc08 <gettimeofday>
 1204cbc:	00ffffc4 	movi	r3,-1
 1204cc0:	10c00526 	beq	r2,r3,1204cd8 <_gettimeofday_r+0x48>
 1204cc4:	dfc00217 	ldw	ra,8(sp)
 1204cc8:	dc400117 	ldw	r17,4(sp)
 1204ccc:	dc000017 	ldw	r16,0(sp)
 1204cd0:	dec00304 	addi	sp,sp,12
 1204cd4:	f800283a 	ret
 1204cd8:	80c00017 	ldw	r3,0(r16)
 1204cdc:	183ff926 	beq	r3,zero,1204cc4 <__alt_mem_instruction_tcm+0xff204cc4>
 1204ce0:	88c00015 	stw	r3,0(r17)
 1204ce4:	003ff706 	br	1204cc4 <__alt_mem_instruction_tcm+0xff204cc4>

01204ce8 <_setlocale_r>:
 1204ce8:	30001b26 	beq	r6,zero,1204d58 <_setlocale_r+0x70>
 1204cec:	01404874 	movhi	r5,289
 1204cf0:	defffe04 	addi	sp,sp,-8
 1204cf4:	2947f304 	addi	r5,r5,8140
 1204cf8:	3009883a 	mov	r4,r6
 1204cfc:	dc000015 	stw	r16,0(sp)
 1204d00:	dfc00115 	stw	ra,4(sp)
 1204d04:	3021883a 	mov	r16,r6
 1204d08:	1206d640 	call	1206d64 <strcmp>
 1204d0c:	1000061e 	bne	r2,zero,1204d28 <_setlocale_r+0x40>
 1204d10:	00804874 	movhi	r2,289
 1204d14:	1087f204 	addi	r2,r2,8136
 1204d18:	dfc00117 	ldw	ra,4(sp)
 1204d1c:	dc000017 	ldw	r16,0(sp)
 1204d20:	dec00204 	addi	sp,sp,8
 1204d24:	f800283a 	ret
 1204d28:	01404874 	movhi	r5,289
 1204d2c:	2947f204 	addi	r5,r5,8136
 1204d30:	8009883a 	mov	r4,r16
 1204d34:	1206d640 	call	1206d64 <strcmp>
 1204d38:	103ff526 	beq	r2,zero,1204d10 <__alt_mem_instruction_tcm+0xff204d10>
 1204d3c:	01404874 	movhi	r5,289
 1204d40:	2947dd04 	addi	r5,r5,8052
 1204d44:	8009883a 	mov	r4,r16
 1204d48:	1206d640 	call	1206d64 <strcmp>
 1204d4c:	103ff026 	beq	r2,zero,1204d10 <__alt_mem_instruction_tcm+0xff204d10>
 1204d50:	0005883a 	mov	r2,zero
 1204d54:	003ff006 	br	1204d18 <__alt_mem_instruction_tcm+0xff204d18>
 1204d58:	00804874 	movhi	r2,289
 1204d5c:	1087f204 	addi	r2,r2,8136
 1204d60:	f800283a 	ret

01204d64 <__locale_charset>:
 1204d64:	00804874 	movhi	r2,289
 1204d68:	108a2804 	addi	r2,r2,10400
 1204d6c:	f800283a 	ret

01204d70 <__locale_mb_cur_max>:
 1204d70:	00804874 	movhi	r2,289
 1204d74:	108ffb04 	addi	r2,r2,16364
 1204d78:	10800017 	ldw	r2,0(r2)
 1204d7c:	f800283a 	ret

01204d80 <__locale_msgcharset>:
 1204d80:	00804874 	movhi	r2,289
 1204d84:	108a2004 	addi	r2,r2,10368
 1204d88:	f800283a 	ret

01204d8c <__locale_cjk_lang>:
 1204d8c:	0005883a 	mov	r2,zero
 1204d90:	f800283a 	ret

01204d94 <_localeconv_r>:
 1204d94:	00804874 	movhi	r2,289
 1204d98:	108a3004 	addi	r2,r2,10432
 1204d9c:	f800283a 	ret

01204da0 <setlocale>:
 1204da0:	00c04874 	movhi	r3,289
 1204da4:	18cffa04 	addi	r3,r3,16360
 1204da8:	2005883a 	mov	r2,r4
 1204dac:	19000017 	ldw	r4,0(r3)
 1204db0:	280d883a 	mov	r6,r5
 1204db4:	100b883a 	mov	r5,r2
 1204db8:	1204ce81 	jmpi	1204ce8 <_setlocale_r>

01204dbc <localeconv>:
 1204dbc:	00804874 	movhi	r2,289
 1204dc0:	108a3004 	addi	r2,r2,10432
 1204dc4:	f800283a 	ret

01204dc8 <__smakebuf_r>:
 1204dc8:	2880030b 	ldhu	r2,12(r5)
 1204dcc:	10c0008c 	andi	r3,r2,2
 1204dd0:	1800401e 	bne	r3,zero,1204ed4 <__smakebuf_r+0x10c>
 1204dd4:	deffec04 	addi	sp,sp,-80
 1204dd8:	dc000f15 	stw	r16,60(sp)
 1204ddc:	2821883a 	mov	r16,r5
 1204de0:	2940038f 	ldh	r5,14(r5)
 1204de4:	dc401015 	stw	r17,64(sp)
 1204de8:	dfc01315 	stw	ra,76(sp)
 1204dec:	dcc01215 	stw	r19,72(sp)
 1204df0:	dc801115 	stw	r18,68(sp)
 1204df4:	2023883a 	mov	r17,r4
 1204df8:	28001b16 	blt	r5,zero,1204e68 <__smakebuf_r+0xa0>
 1204dfc:	d80d883a 	mov	r6,sp
 1204e00:	12089080 	call	1208908 <_fstat_r>
 1204e04:	10001716 	blt	r2,zero,1204e64 <__smakebuf_r+0x9c>
 1204e08:	d8800117 	ldw	r2,4(sp)
 1204e0c:	00e00014 	movui	r3,32768
 1204e10:	10bc000c 	andi	r2,r2,61440
 1204e14:	10c03726 	beq	r2,r3,1204ef4 <__smakebuf_r+0x12c>
 1204e18:	80c0030b 	ldhu	r3,12(r16)
 1204e1c:	18c20014 	ori	r3,r3,2048
 1204e20:	80c0030d 	sth	r3,12(r16)
 1204e24:	00c80004 	movi	r3,8192
 1204e28:	10c03c1e 	bne	r2,r3,1204f1c <__smakebuf_r+0x154>
 1204e2c:	8140038f 	ldh	r5,14(r16)
 1204e30:	8809883a 	mov	r4,r17
 1204e34:	1208e040 	call	1208e04 <_isatty_r>
 1204e38:	10004e26 	beq	r2,zero,1204f74 <__smakebuf_r+0x1ac>
 1204e3c:	8080030b 	ldhu	r2,12(r16)
 1204e40:	04c00044 	movi	r19,1
 1204e44:	80c010c4 	addi	r3,r16,67
 1204e48:	14c4b03a 	or	r2,r2,r19
 1204e4c:	8080030d 	sth	r2,12(r16)
 1204e50:	80c00015 	stw	r3,0(r16)
 1204e54:	80c00415 	stw	r3,16(r16)
 1204e58:	84c00515 	stw	r19,20(r16)
 1204e5c:	04810004 	movi	r18,1024
 1204e60:	00000706 	br	1204e80 <__smakebuf_r+0xb8>
 1204e64:	8080030b 	ldhu	r2,12(r16)
 1204e68:	10c0200c 	andi	r3,r2,128
 1204e6c:	18001f1e 	bne	r3,zero,1204eec <__smakebuf_r+0x124>
 1204e70:	04810004 	movi	r18,1024
 1204e74:	10820014 	ori	r2,r2,2048
 1204e78:	8080030d 	sth	r2,12(r16)
 1204e7c:	0027883a 	mov	r19,zero
 1204e80:	8809883a 	mov	r4,r17
 1204e84:	900b883a 	mov	r5,r18
 1204e88:	1204f800 	call	1204f80 <_malloc_r>
 1204e8c:	10002e26 	beq	r2,zero,1204f48 <__smakebuf_r+0x180>
 1204e90:	80c0030b 	ldhu	r3,12(r16)
 1204e94:	01004834 	movhi	r4,288
 1204e98:	2110df04 	addi	r4,r4,17276
 1204e9c:	89000f15 	stw	r4,60(r17)
 1204ea0:	18c02014 	ori	r3,r3,128
 1204ea4:	80c0030d 	sth	r3,12(r16)
 1204ea8:	80800015 	stw	r2,0(r16)
 1204eac:	80800415 	stw	r2,16(r16)
 1204eb0:	84800515 	stw	r18,20(r16)
 1204eb4:	98001c1e 	bne	r19,zero,1204f28 <__smakebuf_r+0x160>
 1204eb8:	dfc01317 	ldw	ra,76(sp)
 1204ebc:	dcc01217 	ldw	r19,72(sp)
 1204ec0:	dc801117 	ldw	r18,68(sp)
 1204ec4:	dc401017 	ldw	r17,64(sp)
 1204ec8:	dc000f17 	ldw	r16,60(sp)
 1204ecc:	dec01404 	addi	sp,sp,80
 1204ed0:	f800283a 	ret
 1204ed4:	288010c4 	addi	r2,r5,67
 1204ed8:	28800015 	stw	r2,0(r5)
 1204edc:	28800415 	stw	r2,16(r5)
 1204ee0:	00800044 	movi	r2,1
 1204ee4:	28800515 	stw	r2,20(r5)
 1204ee8:	f800283a 	ret
 1204eec:	04801004 	movi	r18,64
 1204ef0:	003fe006 	br	1204e74 <__alt_mem_instruction_tcm+0xff204e74>
 1204ef4:	81000a17 	ldw	r4,40(r16)
 1204ef8:	00c04834 	movhi	r3,288
 1204efc:	18db4004 	addi	r3,r3,27904
 1204f00:	20ffc51e 	bne	r4,r3,1204e18 <__alt_mem_instruction_tcm+0xff204e18>
 1204f04:	80c0030b 	ldhu	r3,12(r16)
 1204f08:	01010004 	movi	r4,1024
 1204f0c:	81001315 	stw	r4,76(r16)
 1204f10:	1906b03a 	or	r3,r3,r4
 1204f14:	80c0030d 	sth	r3,12(r16)
 1204f18:	003fc206 	br	1204e24 <__alt_mem_instruction_tcm+0xff204e24>
 1204f1c:	0027883a 	mov	r19,zero
 1204f20:	04810004 	movi	r18,1024
 1204f24:	003fd606 	br	1204e80 <__alt_mem_instruction_tcm+0xff204e80>
 1204f28:	8140038f 	ldh	r5,14(r16)
 1204f2c:	8809883a 	mov	r4,r17
 1204f30:	1208e040 	call	1208e04 <_isatty_r>
 1204f34:	103fe026 	beq	r2,zero,1204eb8 <__alt_mem_instruction_tcm+0xff204eb8>
 1204f38:	8080030b 	ldhu	r2,12(r16)
 1204f3c:	10800054 	ori	r2,r2,1
 1204f40:	8080030d 	sth	r2,12(r16)
 1204f44:	003fdc06 	br	1204eb8 <__alt_mem_instruction_tcm+0xff204eb8>
 1204f48:	8080030b 	ldhu	r2,12(r16)
 1204f4c:	10c0800c 	andi	r3,r2,512
 1204f50:	183fd91e 	bne	r3,zero,1204eb8 <__alt_mem_instruction_tcm+0xff204eb8>
 1204f54:	10800094 	ori	r2,r2,2
 1204f58:	80c010c4 	addi	r3,r16,67
 1204f5c:	8080030d 	sth	r2,12(r16)
 1204f60:	00800044 	movi	r2,1
 1204f64:	80c00015 	stw	r3,0(r16)
 1204f68:	80c00415 	stw	r3,16(r16)
 1204f6c:	80800515 	stw	r2,20(r16)
 1204f70:	003fd106 	br	1204eb8 <__alt_mem_instruction_tcm+0xff204eb8>
 1204f74:	04c00044 	movi	r19,1
 1204f78:	04810004 	movi	r18,1024
 1204f7c:	003fc006 	br	1204e80 <__alt_mem_instruction_tcm+0xff204e80>

01204f80 <_malloc_r>:
 1204f80:	defff504 	addi	sp,sp,-44
 1204f84:	dc800315 	stw	r18,12(sp)
 1204f88:	dfc00a15 	stw	ra,40(sp)
 1204f8c:	df000915 	stw	fp,36(sp)
 1204f90:	ddc00815 	stw	r23,32(sp)
 1204f94:	dd800715 	stw	r22,28(sp)
 1204f98:	dd400615 	stw	r21,24(sp)
 1204f9c:	dd000515 	stw	r20,20(sp)
 1204fa0:	dcc00415 	stw	r19,16(sp)
 1204fa4:	dc400215 	stw	r17,8(sp)
 1204fa8:	dc000115 	stw	r16,4(sp)
 1204fac:	288002c4 	addi	r2,r5,11
 1204fb0:	00c00584 	movi	r3,22
 1204fb4:	2025883a 	mov	r18,r4
 1204fb8:	18802a2e 	bgeu	r3,r2,1205064 <_malloc_r+0xe4>
 1204fbc:	047ffe04 	movi	r17,-8
 1204fc0:	1462703a 	and	r17,r2,r17
 1204fc4:	88009e16 	blt	r17,zero,1205240 <_malloc_r+0x2c0>
 1204fc8:	89409d36 	bltu	r17,r5,1205240 <_malloc_r+0x2c0>
 1204fcc:	120d0ac0 	call	120d0ac <__malloc_lock>
 1204fd0:	00807dc4 	movi	r2,503
 1204fd4:	14402736 	bltu	r2,r17,1205074 <_malloc_r+0xf4>
 1204fd8:	8806d0fa 	srli	r3,r17,3
 1204fdc:	04c04874 	movhi	r19,289
 1204fe0:	9cca3e04 	addi	r19,r19,10488
 1204fe4:	18c5883a 	add	r2,r3,r3
 1204fe8:	1085883a 	add	r2,r2,r2
 1204fec:	1085883a 	add	r2,r2,r2
 1204ff0:	9885883a 	add	r2,r19,r2
 1204ff4:	14000317 	ldw	r16,12(r2)
 1204ff8:	80814a26 	beq	r16,r2,1205524 <_malloc_r+0x5a4>
 1204ffc:	80c00117 	ldw	r3,4(r16)
 1205000:	81000317 	ldw	r4,12(r16)
 1205004:	00bfff04 	movi	r2,-4
 1205008:	1884703a 	and	r2,r3,r2
 120500c:	81400217 	ldw	r5,8(r16)
 1205010:	8085883a 	add	r2,r16,r2
 1205014:	10c00117 	ldw	r3,4(r2)
 1205018:	29000315 	stw	r4,12(r5)
 120501c:	21400215 	stw	r5,8(r4)
 1205020:	18c00054 	ori	r3,r3,1
 1205024:	10c00115 	stw	r3,4(r2)
 1205028:	9009883a 	mov	r4,r18
 120502c:	120d0cc0 	call	120d0cc <__malloc_unlock>
 1205030:	80800204 	addi	r2,r16,8
 1205034:	dfc00a17 	ldw	ra,40(sp)
 1205038:	df000917 	ldw	fp,36(sp)
 120503c:	ddc00817 	ldw	r23,32(sp)
 1205040:	dd800717 	ldw	r22,28(sp)
 1205044:	dd400617 	ldw	r21,24(sp)
 1205048:	dd000517 	ldw	r20,20(sp)
 120504c:	dcc00417 	ldw	r19,16(sp)
 1205050:	dc800317 	ldw	r18,12(sp)
 1205054:	dc400217 	ldw	r17,8(sp)
 1205058:	dc000117 	ldw	r16,4(sp)
 120505c:	dec00b04 	addi	sp,sp,44
 1205060:	f800283a 	ret
 1205064:	04400404 	movi	r17,16
 1205068:	89407536 	bltu	r17,r5,1205240 <_malloc_r+0x2c0>
 120506c:	120d0ac0 	call	120d0ac <__malloc_lock>
 1205070:	003fd906 	br	1204fd8 <__alt_mem_instruction_tcm+0xff204fd8>
 1205074:	8806d27a 	srli	r3,r17,9
 1205078:	18007526 	beq	r3,zero,1205250 <_malloc_r+0x2d0>
 120507c:	00800104 	movi	r2,4
 1205080:	10c0ef36 	bltu	r2,r3,1205440 <_malloc_r+0x4c0>
 1205084:	8806d1ba 	srli	r3,r17,6
 1205088:	19c00e04 	addi	r7,r3,56
 120508c:	39cb883a 	add	r5,r7,r7
 1205090:	04c04874 	movhi	r19,289
 1205094:	294b883a 	add	r5,r5,r5
 1205098:	9cca3e04 	addi	r19,r19,10488
 120509c:	294b883a 	add	r5,r5,r5
 12050a0:	994b883a 	add	r5,r19,r5
 12050a4:	2c000317 	ldw	r16,12(r5)
 12050a8:	2c000e26 	beq	r5,r16,12050e4 <_malloc_r+0x164>
 12050ac:	80800117 	ldw	r2,4(r16)
 12050b0:	01bfff04 	movi	r6,-4
 12050b4:	010003c4 	movi	r4,15
 12050b8:	1184703a 	and	r2,r2,r6
 12050bc:	1447c83a 	sub	r3,r2,r17
 12050c0:	20c00716 	blt	r4,r3,12050e0 <_malloc_r+0x160>
 12050c4:	1800650e 	bge	r3,zero,120525c <_malloc_r+0x2dc>
 12050c8:	84000317 	ldw	r16,12(r16)
 12050cc:	2c000526 	beq	r5,r16,12050e4 <_malloc_r+0x164>
 12050d0:	80800117 	ldw	r2,4(r16)
 12050d4:	1184703a 	and	r2,r2,r6
 12050d8:	1447c83a 	sub	r3,r2,r17
 12050dc:	20fff90e 	bge	r4,r3,12050c4 <__alt_mem_instruction_tcm+0xff2050c4>
 12050e0:	39ffffc4 	addi	r7,r7,-1
 12050e4:	38c00044 	addi	r3,r7,1
 12050e8:	01804874 	movhi	r6,289
 12050ec:	9c000417 	ldw	r16,16(r19)
 12050f0:	318a3e04 	addi	r6,r6,10488
 12050f4:	32400204 	addi	r9,r6,8
 12050f8:	82410326 	beq	r16,r9,1205508 <_malloc_r+0x588>
 12050fc:	81000117 	ldw	r4,4(r16)
 1205100:	00bfff04 	movi	r2,-4
 1205104:	208e703a 	and	r7,r4,r2
 1205108:	3c45c83a 	sub	r2,r7,r17
 120510c:	010003c4 	movi	r4,15
 1205110:	2080ee16 	blt	r4,r2,12054cc <_malloc_r+0x54c>
 1205114:	32400515 	stw	r9,20(r6)
 1205118:	32400415 	stw	r9,16(r6)
 120511c:	1000510e 	bge	r2,zero,1205264 <_malloc_r+0x2e4>
 1205120:	00807fc4 	movi	r2,511
 1205124:	11c0ce36 	bltu	r2,r7,1205460 <_malloc_r+0x4e0>
 1205128:	3808d0fa 	srli	r4,r7,3
 120512c:	01c00044 	movi	r7,1
 1205130:	30800117 	ldw	r2,4(r6)
 1205134:	210b883a 	add	r5,r4,r4
 1205138:	294b883a 	add	r5,r5,r5
 120513c:	2009d0ba 	srai	r4,r4,2
 1205140:	294b883a 	add	r5,r5,r5
 1205144:	298b883a 	add	r5,r5,r6
 1205148:	2a000217 	ldw	r8,8(r5)
 120514c:	3908983a 	sll	r4,r7,r4
 1205150:	81400315 	stw	r5,12(r16)
 1205154:	82000215 	stw	r8,8(r16)
 1205158:	2088b03a 	or	r4,r4,r2
 120515c:	2c000215 	stw	r16,8(r5)
 1205160:	31000115 	stw	r4,4(r6)
 1205164:	44000315 	stw	r16,12(r8)
 1205168:	1805d0ba 	srai	r2,r3,2
 120516c:	01400044 	movi	r5,1
 1205170:	288a983a 	sll	r5,r5,r2
 1205174:	21404336 	bltu	r4,r5,1205284 <_malloc_r+0x304>
 1205178:	2144703a 	and	r2,r4,r5
 120517c:	10000a1e 	bne	r2,zero,12051a8 <_malloc_r+0x228>
 1205180:	00bfff04 	movi	r2,-4
 1205184:	294b883a 	add	r5,r5,r5
 1205188:	1886703a 	and	r3,r3,r2
 120518c:	2144703a 	and	r2,r4,r5
 1205190:	18c00104 	addi	r3,r3,4
 1205194:	1000041e 	bne	r2,zero,12051a8 <_malloc_r+0x228>
 1205198:	294b883a 	add	r5,r5,r5
 120519c:	2144703a 	and	r2,r4,r5
 12051a0:	18c00104 	addi	r3,r3,4
 12051a4:	103ffc26 	beq	r2,zero,1205198 <__alt_mem_instruction_tcm+0xff205198>
 12051a8:	023fff04 	movi	r8,-4
 12051ac:	01c003c4 	movi	r7,15
 12051b0:	18c5883a 	add	r2,r3,r3
 12051b4:	1085883a 	add	r2,r2,r2
 12051b8:	1085883a 	add	r2,r2,r2
 12051bc:	9895883a 	add	r10,r19,r2
 12051c0:	52c00304 	addi	r11,r10,12
 12051c4:	1819883a 	mov	r12,r3
 12051c8:	5c000017 	ldw	r16,0(r11)
 12051cc:	59bffd04 	addi	r6,r11,-12
 12051d0:	8180041e 	bne	r16,r6,12051e4 <_malloc_r+0x264>
 12051d4:	0000ce06 	br	1205510 <_malloc_r+0x590>
 12051d8:	2000d70e 	bge	r4,zero,1205538 <_malloc_r+0x5b8>
 12051dc:	84000317 	ldw	r16,12(r16)
 12051e0:	8180cb26 	beq	r16,r6,1205510 <_malloc_r+0x590>
 12051e4:	80800117 	ldw	r2,4(r16)
 12051e8:	1204703a 	and	r2,r2,r8
 12051ec:	1449c83a 	sub	r4,r2,r17
 12051f0:	393ff90e 	bge	r7,r4,12051d8 <__alt_mem_instruction_tcm+0xff2051d8>
 12051f4:	80800317 	ldw	r2,12(r16)
 12051f8:	80c00217 	ldw	r3,8(r16)
 12051fc:	89400054 	ori	r5,r17,1
 1205200:	81400115 	stw	r5,4(r16)
 1205204:	18800315 	stw	r2,12(r3)
 1205208:	10c00215 	stw	r3,8(r2)
 120520c:	8463883a 	add	r17,r16,r17
 1205210:	9c400515 	stw	r17,20(r19)
 1205214:	9c400415 	stw	r17,16(r19)
 1205218:	20800054 	ori	r2,r4,1
 120521c:	88800115 	stw	r2,4(r17)
 1205220:	8a400315 	stw	r9,12(r17)
 1205224:	8a400215 	stw	r9,8(r17)
 1205228:	8923883a 	add	r17,r17,r4
 120522c:	89000015 	stw	r4,0(r17)
 1205230:	9009883a 	mov	r4,r18
 1205234:	120d0cc0 	call	120d0cc <__malloc_unlock>
 1205238:	80800204 	addi	r2,r16,8
 120523c:	003f7d06 	br	1205034 <__alt_mem_instruction_tcm+0xff205034>
 1205240:	00800304 	movi	r2,12
 1205244:	90800015 	stw	r2,0(r18)
 1205248:	0005883a 	mov	r2,zero
 120524c:	003f7906 	br	1205034 <__alt_mem_instruction_tcm+0xff205034>
 1205250:	01401f84 	movi	r5,126
 1205254:	01c00fc4 	movi	r7,63
 1205258:	003f8d06 	br	1205090 <__alt_mem_instruction_tcm+0xff205090>
 120525c:	81000317 	ldw	r4,12(r16)
 1205260:	003f6a06 	br	120500c <__alt_mem_instruction_tcm+0xff20500c>
 1205264:	81c5883a 	add	r2,r16,r7
 1205268:	10c00117 	ldw	r3,4(r2)
 120526c:	9009883a 	mov	r4,r18
 1205270:	18c00054 	ori	r3,r3,1
 1205274:	10c00115 	stw	r3,4(r2)
 1205278:	120d0cc0 	call	120d0cc <__malloc_unlock>
 120527c:	80800204 	addi	r2,r16,8
 1205280:	003f6c06 	br	1205034 <__alt_mem_instruction_tcm+0xff205034>
 1205284:	9c000217 	ldw	r16,8(r19)
 1205288:	00bfff04 	movi	r2,-4
 120528c:	85800117 	ldw	r22,4(r16)
 1205290:	b0ac703a 	and	r22,r22,r2
 1205294:	b4400336 	bltu	r22,r17,12052a4 <_malloc_r+0x324>
 1205298:	b445c83a 	sub	r2,r22,r17
 120529c:	00c003c4 	movi	r3,15
 12052a0:	18805d16 	blt	r3,r2,1205418 <_malloc_r+0x498>
 12052a4:	05c04874 	movhi	r23,289
 12052a8:	00804874 	movhi	r2,289
 12052ac:	bdcffc04 	addi	r23,r23,16368
 12052b0:	10901304 	addi	r2,r2,16460
 12052b4:	15400017 	ldw	r21,0(r2)
 12052b8:	b9000017 	ldw	r4,0(r23)
 12052bc:	00ffffc4 	movi	r3,-1
 12052c0:	858d883a 	add	r6,r16,r22
 12052c4:	8d6b883a 	add	r21,r17,r21
 12052c8:	20c0e426 	beq	r4,r3,120565c <_malloc_r+0x6dc>
 12052cc:	ad4403c4 	addi	r21,r21,4111
 12052d0:	00fc0004 	movi	r3,-4096
 12052d4:	a8ea703a 	and	r21,r21,r3
 12052d8:	9009883a 	mov	r4,r18
 12052dc:	a80b883a 	mov	r5,r21
 12052e0:	d9800015 	stw	r6,0(sp)
 12052e4:	1206bd40 	call	1206bd4 <_sbrk_r>
 12052e8:	00ffffc4 	movi	r3,-1
 12052ec:	1029883a 	mov	r20,r2
 12052f0:	d9800017 	ldw	r6,0(sp)
 12052f4:	10c0a426 	beq	r2,r3,1205588 <_malloc_r+0x608>
 12052f8:	1180a236 	bltu	r2,r6,1205584 <_malloc_r+0x604>
 12052fc:	07004874 	movhi	fp,289
 1205300:	e7101f04 	addi	fp,fp,16508
 1205304:	e0c00017 	ldw	r3,0(fp)
 1205308:	a8c7883a 	add	r3,r21,r3
 120530c:	e0c00015 	stw	r3,0(fp)
 1205310:	3500da26 	beq	r6,r20,120567c <_malloc_r+0x6fc>
 1205314:	b9000017 	ldw	r4,0(r23)
 1205318:	00bfffc4 	movi	r2,-1
 120531c:	2080e426 	beq	r4,r2,12056b0 <_malloc_r+0x730>
 1205320:	a185c83a 	sub	r2,r20,r6
 1205324:	1885883a 	add	r2,r3,r2
 1205328:	e0800015 	stw	r2,0(fp)
 120532c:	a0c001cc 	andi	r3,r20,7
 1205330:	1800b526 	beq	r3,zero,1205608 <_malloc_r+0x688>
 1205334:	a0e9c83a 	sub	r20,r20,r3
 1205338:	00840204 	movi	r2,4104
 120533c:	a5000204 	addi	r20,r20,8
 1205340:	10c7c83a 	sub	r3,r2,r3
 1205344:	a545883a 	add	r2,r20,r21
 1205348:	1083ffcc 	andi	r2,r2,4095
 120534c:	18abc83a 	sub	r21,r3,r2
 1205350:	9009883a 	mov	r4,r18
 1205354:	a80b883a 	mov	r5,r21
 1205358:	1206bd40 	call	1206bd4 <_sbrk_r>
 120535c:	00ffffc4 	movi	r3,-1
 1205360:	10c0d026 	beq	r2,r3,12056a4 <_malloc_r+0x724>
 1205364:	1507c83a 	sub	r3,r2,r20
 1205368:	a8c7883a 	add	r3,r21,r3
 120536c:	18c00054 	ori	r3,r3,1
 1205370:	e0800017 	ldw	r2,0(fp)
 1205374:	9d000215 	stw	r20,8(r19)
 1205378:	a0c00115 	stw	r3,4(r20)
 120537c:	a887883a 	add	r3,r21,r2
 1205380:	e0c00015 	stw	r3,0(fp)
 1205384:	84c00e26 	beq	r16,r19,12053c0 <_malloc_r+0x440>
 1205388:	018003c4 	movi	r6,15
 120538c:	3580a02e 	bgeu	r6,r22,1205610 <_malloc_r+0x690>
 1205390:	81400117 	ldw	r5,4(r16)
 1205394:	013ffe04 	movi	r4,-8
 1205398:	b0bffd04 	addi	r2,r22,-12
 120539c:	1104703a 	and	r2,r2,r4
 12053a0:	2900004c 	andi	r4,r5,1
 12053a4:	1108b03a 	or	r4,r2,r4
 12053a8:	81000115 	stw	r4,4(r16)
 12053ac:	01400144 	movi	r5,5
 12053b0:	8089883a 	add	r4,r16,r2
 12053b4:	21400115 	stw	r5,4(r4)
 12053b8:	21400215 	stw	r5,8(r4)
 12053bc:	3080c036 	bltu	r6,r2,12056c0 <_malloc_r+0x740>
 12053c0:	00804874 	movhi	r2,289
 12053c4:	10901204 	addi	r2,r2,16456
 12053c8:	11000017 	ldw	r4,0(r2)
 12053cc:	20c0012e 	bgeu	r4,r3,12053d4 <_malloc_r+0x454>
 12053d0:	10c00015 	stw	r3,0(r2)
 12053d4:	00804874 	movhi	r2,289
 12053d8:	10901104 	addi	r2,r2,16452
 12053dc:	11000017 	ldw	r4,0(r2)
 12053e0:	9c000217 	ldw	r16,8(r19)
 12053e4:	20c0012e 	bgeu	r4,r3,12053ec <_malloc_r+0x46c>
 12053e8:	10c00015 	stw	r3,0(r2)
 12053ec:	80c00117 	ldw	r3,4(r16)
 12053f0:	00bfff04 	movi	r2,-4
 12053f4:	1886703a 	and	r3,r3,r2
 12053f8:	1c45c83a 	sub	r2,r3,r17
 12053fc:	1c400236 	bltu	r3,r17,1205408 <_malloc_r+0x488>
 1205400:	00c003c4 	movi	r3,15
 1205404:	18800416 	blt	r3,r2,1205418 <_malloc_r+0x498>
 1205408:	9009883a 	mov	r4,r18
 120540c:	120d0cc0 	call	120d0cc <__malloc_unlock>
 1205410:	0005883a 	mov	r2,zero
 1205414:	003f0706 	br	1205034 <__alt_mem_instruction_tcm+0xff205034>
 1205418:	88c00054 	ori	r3,r17,1
 120541c:	80c00115 	stw	r3,4(r16)
 1205420:	8463883a 	add	r17,r16,r17
 1205424:	10800054 	ori	r2,r2,1
 1205428:	9c400215 	stw	r17,8(r19)
 120542c:	88800115 	stw	r2,4(r17)
 1205430:	9009883a 	mov	r4,r18
 1205434:	120d0cc0 	call	120d0cc <__malloc_unlock>
 1205438:	80800204 	addi	r2,r16,8
 120543c:	003efd06 	br	1205034 <__alt_mem_instruction_tcm+0xff205034>
 1205440:	00800504 	movi	r2,20
 1205444:	10c0482e 	bgeu	r2,r3,1205568 <_malloc_r+0x5e8>
 1205448:	00801504 	movi	r2,84
 120544c:	10c06836 	bltu	r2,r3,12055f0 <_malloc_r+0x670>
 1205450:	8806d33a 	srli	r3,r17,12
 1205454:	19c01b84 	addi	r7,r3,110
 1205458:	39cb883a 	add	r5,r7,r7
 120545c:	003f0c06 	br	1205090 <__alt_mem_instruction_tcm+0xff205090>
 1205460:	3804d27a 	srli	r2,r7,9
 1205464:	01000104 	movi	r4,4
 1205468:	2080422e 	bgeu	r4,r2,1205574 <_malloc_r+0x5f4>
 120546c:	01000504 	movi	r4,20
 1205470:	20807c36 	bltu	r4,r2,1205664 <_malloc_r+0x6e4>
 1205474:	110016c4 	addi	r4,r2,91
 1205478:	210b883a 	add	r5,r4,r4
 120547c:	294b883a 	add	r5,r5,r5
 1205480:	294b883a 	add	r5,r5,r5
 1205484:	994b883a 	add	r5,r19,r5
 1205488:	28800217 	ldw	r2,8(r5)
 120548c:	02004874 	movhi	r8,289
 1205490:	420a3e04 	addi	r8,r8,10488
 1205494:	11406326 	beq	r2,r5,1205624 <_malloc_r+0x6a4>
 1205498:	01bfff04 	movi	r6,-4
 120549c:	11000117 	ldw	r4,4(r2)
 12054a0:	2188703a 	and	r4,r4,r6
 12054a4:	3900022e 	bgeu	r7,r4,12054b0 <_malloc_r+0x530>
 12054a8:	10800217 	ldw	r2,8(r2)
 12054ac:	28bffb1e 	bne	r5,r2,120549c <__alt_mem_instruction_tcm+0xff20549c>
 12054b0:	11800317 	ldw	r6,12(r2)
 12054b4:	99000117 	ldw	r4,4(r19)
 12054b8:	81800315 	stw	r6,12(r16)
 12054bc:	80800215 	stw	r2,8(r16)
 12054c0:	34000215 	stw	r16,8(r6)
 12054c4:	14000315 	stw	r16,12(r2)
 12054c8:	003f2706 	br	1205168 <__alt_mem_instruction_tcm+0xff205168>
 12054cc:	88c00054 	ori	r3,r17,1
 12054d0:	80c00115 	stw	r3,4(r16)
 12054d4:	8463883a 	add	r17,r16,r17
 12054d8:	34400515 	stw	r17,20(r6)
 12054dc:	34400415 	stw	r17,16(r6)
 12054e0:	10c00054 	ori	r3,r2,1
 12054e4:	8a400315 	stw	r9,12(r17)
 12054e8:	8a400215 	stw	r9,8(r17)
 12054ec:	88c00115 	stw	r3,4(r17)
 12054f0:	88a3883a 	add	r17,r17,r2
 12054f4:	88800015 	stw	r2,0(r17)
 12054f8:	9009883a 	mov	r4,r18
 12054fc:	120d0cc0 	call	120d0cc <__malloc_unlock>
 1205500:	80800204 	addi	r2,r16,8
 1205504:	003ecb06 	br	1205034 <__alt_mem_instruction_tcm+0xff205034>
 1205508:	31000117 	ldw	r4,4(r6)
 120550c:	003f1606 	br	1205168 <__alt_mem_instruction_tcm+0xff205168>
 1205510:	63000044 	addi	r12,r12,1
 1205514:	608000cc 	andi	r2,r12,3
 1205518:	5ac00204 	addi	r11,r11,8
 120551c:	103f2a1e 	bne	r2,zero,12051c8 <__alt_mem_instruction_tcm+0xff2051c8>
 1205520:	00002106 	br	12055a8 <_malloc_r+0x628>
 1205524:	80800204 	addi	r2,r16,8
 1205528:	84000517 	ldw	r16,20(r16)
 120552c:	143eb31e 	bne	r2,r16,1204ffc <__alt_mem_instruction_tcm+0xff204ffc>
 1205530:	18c00084 	addi	r3,r3,2
 1205534:	003eec06 	br	12050e8 <__alt_mem_instruction_tcm+0xff2050e8>
 1205538:	8085883a 	add	r2,r16,r2
 120553c:	10c00117 	ldw	r3,4(r2)
 1205540:	81000317 	ldw	r4,12(r16)
 1205544:	81400217 	ldw	r5,8(r16)
 1205548:	18c00054 	ori	r3,r3,1
 120554c:	10c00115 	stw	r3,4(r2)
 1205550:	29000315 	stw	r4,12(r5)
 1205554:	21400215 	stw	r5,8(r4)
 1205558:	9009883a 	mov	r4,r18
 120555c:	120d0cc0 	call	120d0cc <__malloc_unlock>
 1205560:	80800204 	addi	r2,r16,8
 1205564:	003eb306 	br	1205034 <__alt_mem_instruction_tcm+0xff205034>
 1205568:	19c016c4 	addi	r7,r3,91
 120556c:	39cb883a 	add	r5,r7,r7
 1205570:	003ec706 	br	1205090 <__alt_mem_instruction_tcm+0xff205090>
 1205574:	3804d1ba 	srli	r2,r7,6
 1205578:	11000e04 	addi	r4,r2,56
 120557c:	210b883a 	add	r5,r4,r4
 1205580:	003fbe06 	br	120547c <__alt_mem_instruction_tcm+0xff20547c>
 1205584:	84ff5d26 	beq	r16,r19,12052fc <__alt_mem_instruction_tcm+0xff2052fc>
 1205588:	9c000217 	ldw	r16,8(r19)
 120558c:	00bfff04 	movi	r2,-4
 1205590:	80c00117 	ldw	r3,4(r16)
 1205594:	1886703a 	and	r3,r3,r2
